
digital_watch_v02.elf:     file format elf32-littlearm

Sections:
Idx Name          Size      VMA       LMA       File off  Algn
  0 .isr_vector   000002ac  08000000  08000000  00001000  2**0
                  CONTENTS, ALLOC, LOAD, READONLY, DATA
  1 .text         00008a34  080002b0  080002b0  000012b0  2**4
                  CONTENTS, ALLOC, LOAD, READONLY, CODE
  2 .rodata       0000036c  08008ce4  08008ce4  00009ce4  2**2
                  CONTENTS, ALLOC, LOAD, READONLY, DATA
  3 .ARM          00000008  08009050  08009050  0000a050  2**2
                  CONTENTS, ALLOC, LOAD, READONLY, DATA
  4 .init_array   00000004  08009058  08009058  0000a058  2**2
                  CONTENTS, ALLOC, LOAD, READONLY, DATA
  5 .fini_array   00000004  0800905c  0800905c  0000a05c  2**2
                  CONTENTS, ALLOC, LOAD, READONLY, DATA
  6 .data         0000006c  24000000  08009060  0000b000  2**2
                  CONTENTS, ALLOC, LOAD, DATA
  7 .bss          000bc194  2400006c  080090cc  0000b06c  2**2
                  ALLOC
  8 ._user_heap_stack 00000c00  240bc200  080090cc  0000b200  2**0
                  ALLOC
  9 .ARM.attributes 0000002e  00000000  00000000  0000b06c  2**0
                  CONTENTS, READONLY
 10 .comment      00000043  00000000  00000000  0000b09a  2**0
                  CONTENTS, READONLY
 11 .debug_frame  00000594  00000000  00000000  0000b0e0  2**2
                  CONTENTS, READONLY, DEBUGGING, OCTETS

Disassembly of section .text:

080002b0 <__do_global_dtors_aux>:
 80002b0:	b510      	push	{r4, lr}
 80002b2:	4c05      	ldr	r4, [pc, #20]	@ (80002c8 <__do_global_dtors_aux+0x18>)
 80002b4:	7823      	ldrb	r3, [r4, #0]
 80002b6:	b933      	cbnz	r3, 80002c6 <__do_global_dtors_aux+0x16>
 80002b8:	4b04      	ldr	r3, [pc, #16]	@ (80002cc <__do_global_dtors_aux+0x1c>)
 80002ba:	b113      	cbz	r3, 80002c2 <__do_global_dtors_aux+0x12>
 80002bc:	4804      	ldr	r0, [pc, #16]	@ (80002d0 <__do_global_dtors_aux+0x20>)
 80002be:	f3af 8000 	nop.w
 80002c2:	2301      	movs	r3, #1
 80002c4:	7023      	strb	r3, [r4, #0]
 80002c6:	bd10      	pop	{r4, pc}
 80002c8:	2400006c 	.word	0x2400006c
 80002cc:	00000000 	.word	0x00000000
 80002d0:	08008ccc 	.word	0x08008ccc

080002d4 <frame_dummy>:
 80002d4:	b508      	push	{r3, lr}
 80002d6:	4b03      	ldr	r3, [pc, #12]	@ (80002e4 <frame_dummy+0x10>)
 80002d8:	b11b      	cbz	r3, 80002e2 <frame_dummy+0xe>
 80002da:	4903      	ldr	r1, [pc, #12]	@ (80002e8 <frame_dummy+0x14>)
 80002dc:	4803      	ldr	r0, [pc, #12]	@ (80002ec <frame_dummy+0x18>)
 80002de:	f3af 8000 	nop.w
 80002e2:	bd08      	pop	{r3, pc}
 80002e4:	00000000 	.word	0x00000000
 80002e8:	24000070 	.word	0x24000070
 80002ec:	08008ccc 	.word	0x08008ccc

080002f0 <memchr>:
 80002f0:	f001 01ff 	and.w	r1, r1, #255	@ 0xff
 80002f4:	2a10      	cmp	r2, #16
 80002f6:	db2b      	blt.n	8000350 <memchr+0x60>
 80002f8:	f010 0f07 	tst.w	r0, #7
 80002fc:	d008      	beq.n	8000310 <memchr+0x20>
 80002fe:	f810 3b01 	ldrb.w	r3, [r0], #1
 8000302:	3a01      	subs	r2, #1
 8000304:	428b      	cmp	r3, r1
 8000306:	d02d      	beq.n	8000364 <memchr+0x74>
 8000308:	f010 0f07 	tst.w	r0, #7
 800030c:	b342      	cbz	r2, 8000360 <memchr+0x70>
 800030e:	d1f6      	bne.n	80002fe <memchr+0xe>
 8000310:	b4f0      	push	{r4, r5, r6, r7}
 8000312:	ea41 2101 	orr.w	r1, r1, r1, lsl #8
 8000316:	ea41 4101 	orr.w	r1, r1, r1, lsl #16
 800031a:	f022 0407 	bic.w	r4, r2, #7
 800031e:	f07f 0700 	mvns.w	r7, #0
 8000322:	2300      	movs	r3, #0
 8000324:	e8f0 5602 	ldrd	r5, r6, [r0], #8
 8000328:	3c08      	subs	r4, #8
 800032a:	ea85 0501 	eor.w	r5, r5, r1
 800032e:	ea86 0601 	eor.w	r6, r6, r1
 8000332:	fa85 f547 	uadd8	r5, r5, r7
 8000336:	faa3 f587 	sel	r5, r3, r7
 800033a:	fa86 f647 	uadd8	r6, r6, r7
 800033e:	faa5 f687 	sel	r6, r5, r7
 8000342:	b98e      	cbnz	r6, 8000368 <memchr+0x78>
 8000344:	d1ee      	bne.n	8000324 <memchr+0x34>
 8000346:	bcf0      	pop	{r4, r5, r6, r7}
 8000348:	f001 01ff 	and.w	r1, r1, #255	@ 0xff
 800034c:	f002 0207 	and.w	r2, r2, #7
 8000350:	b132      	cbz	r2, 8000360 <memchr+0x70>
 8000352:	f810 3b01 	ldrb.w	r3, [r0], #1
 8000356:	3a01      	subs	r2, #1
 8000358:	ea83 0301 	eor.w	r3, r3, r1
 800035c:	b113      	cbz	r3, 8000364 <memchr+0x74>
 800035e:	d1f8      	bne.n	8000352 <memchr+0x62>
 8000360:	2000      	movs	r0, #0
 8000362:	4770      	bx	lr
 8000364:	3801      	subs	r0, #1
 8000366:	4770      	bx	lr
 8000368:	2d00      	cmp	r5, #0
 800036a:	bf06      	itte	eq
 800036c:	4635      	moveq	r5, r6
 800036e:	3803      	subeq	r0, #3
 8000370:	3807      	subne	r0, #7
 8000372:	f015 0f01 	tst.w	r5, #1
 8000376:	d107      	bne.n	8000388 <memchr+0x98>
 8000378:	3001      	adds	r0, #1
 800037a:	f415 7f80 	tst.w	r5, #256	@ 0x100
 800037e:	bf02      	ittt	eq
 8000380:	3001      	addeq	r0, #1
 8000382:	f415 3fc0 	tsteq.w	r5, #98304	@ 0x18000
 8000386:	3001      	addeq	r0, #1
 8000388:	bcf0      	pop	{r4, r5, r6, r7}
 800038a:	3801      	subs	r0, #1
 800038c:	4770      	bx	lr
 800038e:	bf00      	nop

08000390 <__AVI_SearchID>:
 8000390:	b5f0      	push	{r4, r5, r6, r7, lr}
 8000392:	4603      	mov	r3, r0
 8000394:	3904      	subs	r1, #4
 8000396:	2400      	movs	r4, #0
 8000398:	b2a0      	uxth	r0, r4
 800039a:	4288      	cmp	r0, r1
 800039c:	d301      	bcc.n	80003a2 <__AVI_SearchID+0x12>
 800039e:	2000      	movs	r0, #0
 80003a0:	bdf0      	pop	{r4, r5, r6, r7, pc}
 80003a2:	5c1e      	ldrb	r6, [r3, r0]
 80003a4:	7815      	ldrb	r5, [r2, #0]
 80003a6:	42ae      	cmp	r6, r5
 80003a8:	d10c      	bne.n	80003c4 <__AVI_SearchID+0x34>
 80003aa:	181d      	adds	r5, r3, r0
 80003ac:	7856      	ldrb	r6, [r2, #1]
 80003ae:	786f      	ldrb	r7, [r5, #1]
 80003b0:	42b7      	cmp	r7, r6
 80003b2:	d107      	bne.n	80003c4 <__AVI_SearchID+0x34>
 80003b4:	78af      	ldrb	r7, [r5, #2]
 80003b6:	7896      	ldrb	r6, [r2, #2]
 80003b8:	42b7      	cmp	r7, r6
 80003ba:	d103      	bne.n	80003c4 <__AVI_SearchID+0x34>
 80003bc:	78ee      	ldrb	r6, [r5, #3]
 80003be:	78d5      	ldrb	r5, [r2, #3]
 80003c0:	42ae      	cmp	r6, r5
 80003c2:	d0ed      	beq.n	80003a0 <__AVI_SearchID+0x10>
 80003c4:	3401      	adds	r4, #1
 80003c6:	e7e7      	b.n	8000398 <__AVI_SearchID+0x8>

080003c8 <__AVI_GetStreamInfo>:
 80003c8:	884b      	ldrh	r3, [r1, #2]
 80003ca:	ba5a      	rev16	r2, r3
 80003cc:	83c2      	strh	r2, [r0, #30]
 80003ce:	684a      	ldr	r2, [r1, #4]
 80003d0:	07d1      	lsls	r1, r2, #31
 80003d2:	bf48      	it	mi
 80003d4:	3201      	addmi	r2, #1
 80003d6:	6202      	str	r2, [r0, #32]
 80003d8:	f246 3264 	movw	r2, #25444	@ 0x6364
 80003dc:	4293      	cmp	r3, r2
 80003de:	d006      	beq.n	80003ee <__AVI_GetStreamInfo+0x26>
 80003e0:	f246 2277 	movw	r2, #25207	@ 0x6277
 80003e4:	4293      	cmp	r3, r2
 80003e6:	bf14      	ite	ne
 80003e8:	200b      	movne	r0, #11
 80003ea:	2000      	moveq	r0, #0
 80003ec:	4770      	bx	lr
 80003ee:	2000      	movs	r0, #0
 80003f0:	4770      	bx	lr
	...

080003f4 <__AVI_Init>:
 80003f4:	e92d 41f0 	stmdb	sp!, {r4, r5, r6, r7, r8, lr}
 80003f8:	4b67      	ldr	r3, [pc, #412]	@ (8000598 <__AVI_Init+0x1a4>)
 80003fa:	4616      	mov	r6, r2
 80003fc:	680a      	ldr	r2, [r1, #0]
 80003fe:	4604      	mov	r4, r0
 8000400:	460d      	mov	r5, r1
 8000402:	429a      	cmp	r2, r3
 8000404:	f040 80bc 	bne.w	8000580 <__AVI_Init+0x18c>
 8000408:	688a      	ldr	r2, [r1, #8]
 800040a:	4b64      	ldr	r3, [pc, #400]	@ (800059c <__AVI_Init+0x1a8>)
 800040c:	429a      	cmp	r2, r3
 800040e:	f040 80b9 	bne.w	8000584 <__AVI_Init+0x190>
 8000412:	4a63      	ldr	r2, [pc, #396]	@ (80005a0 <__AVI_Init+0x1ac>)
 8000414:	68cb      	ldr	r3, [r1, #12]
 8000416:	4293      	cmp	r3, r2
 8000418:	d002      	beq.n	8000420 <__AVI_Init+0x2c>
 800041a:	2003      	movs	r0, #3
 800041c:	e8bd 81f0 	ldmia.w	sp!, {r4, r5, r6, r7, r8, pc}
 8000420:	6949      	ldr	r1, [r1, #20]
 8000422:	4b60      	ldr	r3, [pc, #384]	@ (80005a4 <__AVI_Init+0x1b0>)
 8000424:	4299      	cmp	r1, r3
 8000426:	f040 80af 	bne.w	8000588 <__AVI_Init+0x194>
 800042a:	f1a3 6381 	sub.w	r3, r3, #67633152	@ 0x4080000
 800042e:	69a9      	ldr	r1, [r5, #24]
 8000430:	f5a3 436e 	sub.w	r3, r3, #60928	@ 0xee00
 8000434:	3b07      	subs	r3, #7
 8000436:	4299      	cmp	r1, r3
 8000438:	f040 80a8 	bne.w	800058c <__AVI_Init+0x198>
 800043c:	6a2b      	ldr	r3, [r5, #32]
 800043e:	69e9      	ldr	r1, [r5, #28]
 8000440:	6003      	str	r3, [r0, #0]
 8000442:	3120      	adds	r1, #32
 8000444:	6b2b      	ldr	r3, [r5, #48]	@ 0x30
 8000446:	6043      	str	r3, [r0, #4]
 8000448:	186b      	adds	r3, r5, r1
 800044a:	5869      	ldr	r1, [r5, r1]
 800044c:	4291      	cmp	r1, r2
 800044e:	d1e4      	bne.n	800041a <__AVI_Init+0x26>
 8000450:	f8df c178 	ldr.w	ip, [pc, #376]	@ 80005cc <__AVI_Init+0x1d8>
 8000454:	6899      	ldr	r1, [r3, #8]
 8000456:	4561      	cmp	r1, ip
 8000458:	d001      	beq.n	800045e <__AVI_Init+0x6a>
 800045a:	2006      	movs	r0, #6
 800045c:	e7de      	b.n	800041c <__AVI_Init+0x28>
 800045e:	4f52      	ldr	r7, [pc, #328]	@ (80005a8 <__AVI_Init+0x1b4>)
 8000460:	68d9      	ldr	r1, [r3, #12]
 8000462:	42b9      	cmp	r1, r7
 8000464:	d001      	beq.n	800046a <__AVI_Init+0x76>
 8000466:	2007      	movs	r0, #7
 8000468:	e7d8      	b.n	800041c <__AVI_Init+0x28>
 800046a:	6959      	ldr	r1, [r3, #20]
 800046c:	f8df 8160 	ldr.w	r8, [pc, #352]	@ 80005d0 <__AVI_Init+0x1dc>
 8000470:	4541      	cmp	r1, r8
 8000472:	d151      	bne.n	8000518 <__AVI_Init+0x124>
 8000474:	6999      	ldr	r1, [r3, #24]
 8000476:	484d      	ldr	r0, [pc, #308]	@ (80005ac <__AVI_Init+0x1b8>)
 8000478:	4281      	cmp	r1, r0
 800047a:	d001      	beq.n	8000480 <__AVI_Init+0x8c>
 800047c:	200a      	movs	r0, #10
 800047e:	e7cd      	b.n	800041c <__AVI_Init+0x28>
 8000480:	494b      	ldr	r1, [pc, #300]	@ (80005b0 <__AVI_Init+0x1bc>)
 8000482:	6261      	str	r1, [r4, #36]	@ 0x24
 8000484:	494b      	ldr	r1, [pc, #300]	@ (80005b4 <__AVI_Init+0x1c0>)
 8000486:	62a1      	str	r1, [r4, #40]	@ 0x28
 8000488:	6919      	ldr	r1, [r3, #16]
 800048a:	3114      	adds	r1, #20
 800048c:	f853 e001 	ldr.w	lr, [r3, r1]
 8000490:	1858      	adds	r0, r3, r1
 8000492:	4949      	ldr	r1, [pc, #292]	@ (80005b8 <__AVI_Init+0x1c4>)
 8000494:	458e      	cmp	lr, r1
 8000496:	d001      	beq.n	800049c <__AVI_Init+0xa8>
 8000498:	2008      	movs	r0, #8
 800049a:	e7bf      	b.n	800041c <__AVI_Init+0x28>
 800049c:	68c1      	ldr	r1, [r0, #12]
 800049e:	60e1      	str	r1, [r4, #12]
 80004a0:	6901      	ldr	r1, [r0, #16]
 80004a2:	6121      	str	r1, [r4, #16]
 80004a4:	6859      	ldr	r1, [r3, #4]
 80004a6:	3108      	adds	r1, #8
 80004a8:	1858      	adds	r0, r3, r1
 80004aa:	585b      	ldr	r3, [r3, r1]
 80004ac:	4293      	cmp	r3, r2
 80004ae:	d01d      	beq.n	80004ec <__AVI_Init+0xf8>
 80004b0:	2300      	movs	r3, #0
 80004b2:	6163      	str	r3, [r4, #20]
 80004b4:	8323      	strh	r3, [r4, #24]
 80004b6:	83a3      	strh	r3, [r4, #28]
 80004b8:	4a40      	ldr	r2, [pc, #256]	@ (80005bc <__AVI_Init+0x1c8>)
 80004ba:	4631      	mov	r1, r6
 80004bc:	4628      	mov	r0, r5
 80004be:	f7ff ff67 	bl	8000390 <__AVI_SearchID>
 80004c2:	b283      	uxth	r3, r0
 80004c4:	2b00      	cmp	r3, #0
 80004c6:	d063      	beq.n	8000590 <__AVI_Init+0x19c>
 80004c8:	6963      	ldr	r3, [r4, #20]
 80004ca:	b16b      	cbz	r3, 80004e8 <__AVI_Init+0xf4>
 80004cc:	fa15 f580 	uxtah	r5, r5, r0
 80004d0:	6aa2      	ldr	r2, [r4, #40]	@ 0x28
 80004d2:	4631      	mov	r1, r6
 80004d4:	4628      	mov	r0, r5
 80004d6:	f7ff ff5b 	bl	8000390 <__AVI_SearchID>
 80004da:	b283      	uxth	r3, r0
 80004dc:	2b00      	cmp	r3, #0
 80004de:	d059      	beq.n	8000594 <__AVI_Init+0x1a0>
 80004e0:	fa15 f080 	uxtah	r0, r5, r0
 80004e4:	8883      	ldrh	r3, [r0, #4]
 80004e6:	8363      	strh	r3, [r4, #26]
 80004e8:	2000      	movs	r0, #0
 80004ea:	e797      	b.n	800041c <__AVI_Init+0x28>
 80004ec:	6883      	ldr	r3, [r0, #8]
 80004ee:	4563      	cmp	r3, ip
 80004f0:	d1b3      	bne.n	800045a <__AVI_Init+0x66>
 80004f2:	68c3      	ldr	r3, [r0, #12]
 80004f4:	42bb      	cmp	r3, r7
 80004f6:	d1b6      	bne.n	8000466 <__AVI_Init+0x72>
 80004f8:	6942      	ldr	r2, [r0, #20]
 80004fa:	4b31      	ldr	r3, [pc, #196]	@ (80005c0 <__AVI_Init+0x1cc>)
 80004fc:	429a      	cmp	r2, r3
 80004fe:	d1bd      	bne.n	800047c <__AVI_Init+0x88>
 8000500:	6903      	ldr	r3, [r0, #16]
 8000502:	3314      	adds	r3, #20
 8000504:	18c2      	adds	r2, r0, r3
 8000506:	58c3      	ldr	r3, [r0, r3]
 8000508:	4573      	cmp	r3, lr
 800050a:	d1c5      	bne.n	8000498 <__AVI_Init+0xa4>
 800050c:	68d3      	ldr	r3, [r2, #12]
 800050e:	6163      	str	r3, [r4, #20]
 8000510:	8953      	ldrh	r3, [r2, #10]
 8000512:	8323      	strh	r3, [r4, #24]
 8000514:	8913      	ldrh	r3, [r2, #8]
 8000516:	e7ce      	b.n	80004b6 <__AVI_Init+0xc2>
 8000518:	4829      	ldr	r0, [pc, #164]	@ (80005c0 <__AVI_Init+0x1cc>)
 800051a:	4281      	cmp	r1, r0
 800051c:	d1cc      	bne.n	80004b8 <__AVI_Init+0xc4>
 800051e:	4929      	ldr	r1, [pc, #164]	@ (80005c4 <__AVI_Init+0x1d0>)
 8000520:	6261      	str	r1, [r4, #36]	@ 0x24
 8000522:	4929      	ldr	r1, [pc, #164]	@ (80005c8 <__AVI_Init+0x1d4>)
 8000524:	62a1      	str	r1, [r4, #40]	@ 0x28
 8000526:	6919      	ldr	r1, [r3, #16]
 8000528:	3114      	adds	r1, #20
 800052a:	f853 e001 	ldr.w	lr, [r3, r1]
 800052e:	1858      	adds	r0, r3, r1
 8000530:	4921      	ldr	r1, [pc, #132]	@ (80005b8 <__AVI_Init+0x1c4>)
 8000532:	458e      	cmp	lr, r1
 8000534:	d1b0      	bne.n	8000498 <__AVI_Init+0xa4>
 8000536:	68c1      	ldr	r1, [r0, #12]
 8000538:	6161      	str	r1, [r4, #20]
 800053a:	8941      	ldrh	r1, [r0, #10]
 800053c:	8321      	strh	r1, [r4, #24]
 800053e:	8901      	ldrh	r1, [r0, #8]
 8000540:	83a1      	strh	r1, [r4, #28]
 8000542:	6859      	ldr	r1, [r3, #4]
 8000544:	3108      	adds	r1, #8
 8000546:	1858      	adds	r0, r3, r1
 8000548:	585b      	ldr	r3, [r3, r1]
 800054a:	4293      	cmp	r3, r2
 800054c:	f47f af65 	bne.w	800041a <__AVI_Init+0x26>
 8000550:	6883      	ldr	r3, [r0, #8]
 8000552:	4563      	cmp	r3, ip
 8000554:	d181      	bne.n	800045a <__AVI_Init+0x66>
 8000556:	68c3      	ldr	r3, [r0, #12]
 8000558:	42bb      	cmp	r3, r7
 800055a:	d184      	bne.n	8000466 <__AVI_Init+0x72>
 800055c:	6943      	ldr	r3, [r0, #20]
 800055e:	4543      	cmp	r3, r8
 8000560:	d18c      	bne.n	800047c <__AVI_Init+0x88>
 8000562:	6903      	ldr	r3, [r0, #16]
 8000564:	3314      	adds	r3, #20
 8000566:	18c2      	adds	r2, r0, r3
 8000568:	58c3      	ldr	r3, [r0, r3]
 800056a:	4573      	cmp	r3, lr
 800056c:	d194      	bne.n	8000498 <__AVI_Init+0xa4>
 800056e:	6991      	ldr	r1, [r2, #24]
 8000570:	4b0e      	ldr	r3, [pc, #56]	@ (80005ac <__AVI_Init+0x1b8>)
 8000572:	4299      	cmp	r1, r3
 8000574:	d182      	bne.n	800047c <__AVI_Init+0x88>
 8000576:	68d3      	ldr	r3, [r2, #12]
 8000578:	60e3      	str	r3, [r4, #12]
 800057a:	6913      	ldr	r3, [r2, #16]
 800057c:	6123      	str	r3, [r4, #16]
 800057e:	e79b      	b.n	80004b8 <__AVI_Init+0xc4>
 8000580:	2001      	movs	r0, #1
 8000582:	e74b      	b.n	800041c <__AVI_Init+0x28>
 8000584:	2002      	movs	r0, #2
 8000586:	e749      	b.n	800041c <__AVI_Init+0x28>
 8000588:	2004      	movs	r0, #4
 800058a:	e747      	b.n	800041c <__AVI_Init+0x28>
 800058c:	2005      	movs	r0, #5
 800058e:	e745      	b.n	800041c <__AVI_Init+0x28>
 8000590:	2009      	movs	r0, #9
 8000592:	e743      	b.n	800041c <__AVI_Init+0x28>
 8000594:	200b      	movs	r0, #11
 8000596:	e741      	b.n	800041c <__AVI_Init+0x28>
 8000598:	46464952 	.word	0x46464952
 800059c:	20495641 	.word	0x20495641
 80005a0:	5453494c 	.word	0x5453494c
 80005a4:	6c726468 	.word	0x6c726468
 80005a8:	68727473 	.word	0x68727473
 80005ac:	47504a4d 	.word	0x47504a4d
 80005b0:	08008ce4 	.word	0x08008ce4
 80005b4:	08008ce9 	.word	0x08008ce9
 80005b8:	66727473 	.word	0x66727473
 80005bc:	08008cf8 	.word	0x08008cf8
 80005c0:	73647561 	.word	0x73647561
 80005c4:	08008cee 	.word	0x08008cee
 80005c8:	08008cf3 	.word	0x08008cf3
 80005cc:	6c727473 	.word	0x6c727473
 80005d0:	73646976 	.word	0x73646976

080005d4 <AVI_ParserInit>:
 80005d4:	b573      	push	{r0, r1, r4, r5, r6, lr}
 80005d6:	e9c0 230d 	strd	r2, r3, [r0, #52]	@ 0x34
 80005da:	461e      	mov	r6, r3
 80005dc:	9b06      	ldr	r3, [sp, #24]
 80005de:	460d      	mov	r5, r1
 80005e0:	4604      	mov	r4, r0
 80005e2:	63c3      	str	r3, [r0, #60]	@ 0x3c
 80005e4:	2100      	movs	r1, #0
 80005e6:	9b07      	ldr	r3, [sp, #28]
 80005e8:	9101      	str	r1, [sp, #4]
 80005ea:	6403      	str	r3, [r0, #64]	@ 0x40
 80005ec:	4628      	mov	r0, r5
 80005ee:	f007 fd79 	bl	80080e4 <f_lseek>
 80005f2:	4632      	mov	r2, r6
 80005f4:	ab01      	add	r3, sp, #4
 80005f6:	6b61      	ldr	r1, [r4, #52]	@ 0x34
 80005f8:	4628      	mov	r0, r5
 80005fa:	f007 fc61 	bl	8007ec0 <f_read>
 80005fe:	9a01      	ldr	r2, [sp, #4]
 8000600:	42b2      	cmp	r2, r6
 8000602:	d002      	beq.n	800060a <AVI_ParserInit+0x36>
 8000604:	2001      	movs	r0, #1
 8000606:	b002      	add	sp, #8
 8000608:	bd70      	pop	{r4, r5, r6, pc}
 800060a:	6b61      	ldr	r1, [r4, #52]	@ 0x34
 800060c:	4620      	mov	r0, r4
 800060e:	f7ff fef1 	bl	80003f4 <__AVI_Init>
 8000612:	2800      	cmp	r0, #0
 8000614:	d1f6      	bne.n	8000604 <AVI_ParserInit+0x30>
 8000616:	68eb      	ldr	r3, [r5, #12]
 8000618:	62e0      	str	r0, [r4, #44]	@ 0x2c
 800061a:	6463      	str	r3, [r4, #68]	@ 0x44
 800061c:	e7f3      	b.n	8000606 <AVI_ParserInit+0x32>
	...

08000620 <AVI_GetFrame>:
 8000620:	e92d 41f3 	stmdb	sp!, {r0, r1, r4, r5, r6, r7, r8, lr}
 8000624:	2300      	movs	r3, #0
 8000626:	460d      	mov	r5, r1
 8000628:	6ac1      	ldr	r1, [r0, #44]	@ 0x2c
 800062a:	4604      	mov	r4, r0
 800062c:	4616      	mov	r6, r2
 800062e:	9301      	str	r3, [sp, #4]
 8000630:	b9d1      	cbnz	r1, 8000668 <AVI_GetFrame+0x48>
 8000632:	4628      	mov	r0, r5
 8000634:	f007 fd56 	bl	80080e4 <f_lseek>
 8000638:	ab01      	add	r3, sp, #4
 800063a:	4628      	mov	r0, r5
 800063c:	e9d4 120d 	ldrd	r1, r2, [r4, #52]	@ 0x34
 8000640:	f007 fc3e 	bl	8007ec0 <f_read>
 8000644:	f8d4 8034 	ldr.w	r8, [r4, #52]	@ 0x34
 8000648:	6ba1      	ldr	r1, [r4, #56]	@ 0x38
 800064a:	4a31      	ldr	r2, [pc, #196]	@ (8000710 <AVI_GetFrame+0xf0>)
 800064c:	4640      	mov	r0, r8
 800064e:	f7ff fe9f 	bl	8000390 <__AVI_SearchID>
 8000652:	1d01      	adds	r1, r0, #4
 8000654:	4607      	mov	r7, r0
 8000656:	4620      	mov	r0, r4
 8000658:	4441      	add	r1, r8
 800065a:	f7ff feb5 	bl	80003c8 <__AVI_GetStreamInfo>
 800065e:	f107 010c 	add.w	r1, r7, #12
 8000662:	4628      	mov	r0, r5
 8000664:	f007 fd3e 	bl	80080e4 <f_lseek>
 8000668:	8be3      	ldrh	r3, [r4, #30]
 800066a:	f246 4263 	movw	r2, #25699	@ 0x6463
 800066e:	4293      	cmp	r3, r2
 8000670:	d138      	bne.n	80006e4 <AVI_GetFrame+0xc4>
 8000672:	2e01      	cmp	r6, #1
 8000674:	d111      	bne.n	800069a <AVI_GetFrame+0x7a>
 8000676:	6a23      	ldr	r3, [r4, #32]
 8000678:	4628      	mov	r0, r5
 800067a:	69a9      	ldr	r1, [r5, #24]
 800067c:	6323      	str	r3, [r4, #48]	@ 0x30
 800067e:	4419      	add	r1, r3
 8000680:	f007 fd30 	bl	80080e4 <f_lseek>
 8000684:	6b61      	ldr	r1, [r4, #52]	@ 0x34
 8000686:	ab01      	add	r3, sp, #4
 8000688:	2208      	movs	r2, #8
 800068a:	4628      	mov	r0, r5
 800068c:	f007 fc18 	bl	8007ec0 <f_read>
 8000690:	6b61      	ldr	r1, [r4, #52]	@ 0x34
 8000692:	4620      	mov	r0, r4
 8000694:	f7ff fe98 	bl	80003c8 <__AVI_GetStreamInfo>
 8000698:	e014      	b.n	80006c4 <AVI_GetFrame+0xa4>
 800069a:	2e02      	cmp	r6, #2
 800069c:	d116      	bne.n	80006cc <AVI_GetFrame+0xac>
 800069e:	69a9      	ldr	r1, [r5, #24]
 80006a0:	4628      	mov	r0, r5
 80006a2:	6b23      	ldr	r3, [r4, #48]	@ 0x30
 80006a4:	3910      	subs	r1, #16
 80006a6:	1ac9      	subs	r1, r1, r3
 80006a8:	f007 fd1c 	bl	80080e4 <f_lseek>
 80006ac:	ab01      	add	r3, sp, #4
 80006ae:	2208      	movs	r2, #8
 80006b0:	6b61      	ldr	r1, [r4, #52]	@ 0x34
 80006b2:	4628      	mov	r0, r5
 80006b4:	f007 fc04 	bl	8007ec0 <f_read>
 80006b8:	6b61      	ldr	r1, [r4, #52]	@ 0x34
 80006ba:	4620      	mov	r0, r4
 80006bc:	f7ff fe84 	bl	80003c8 <__AVI_GetStreamInfo>
 80006c0:	6a23      	ldr	r3, [r4, #32]
 80006c2:	6323      	str	r3, [r4, #48]	@ 0x30
 80006c4:	2001      	movs	r0, #1
 80006c6:	b002      	add	sp, #8
 80006c8:	e8bd 81f0 	ldmia.w	sp!, {r4, r5, r6, r7, r8, pc}
 80006cc:	6a22      	ldr	r2, [r4, #32]
 80006ce:	ab01      	add	r3, sp, #4
 80006d0:	6b61      	ldr	r1, [r4, #52]	@ 0x34
 80006d2:	4628      	mov	r0, r5
 80006d4:	6322      	str	r2, [r4, #48]	@ 0x30
 80006d6:	3208      	adds	r2, #8
 80006d8:	f007 fbf2 	bl	8007ec0 <f_read>
 80006dc:	6b61      	ldr	r1, [r4, #52]	@ 0x34
 80006de:	6a23      	ldr	r3, [r4, #32]
 80006e0:	4419      	add	r1, r3
 80006e2:	e7d6      	b.n	8000692 <AVI_GetFrame+0x72>
 80006e4:	f247 7262 	movw	r2, #30562	@ 0x7762
 80006e8:	4293      	cmp	r3, r2
 80006ea:	d10e      	bne.n	800070a <AVI_GetFrame+0xea>
 80006ec:	6b22      	ldr	r2, [r4, #48]	@ 0x30
 80006ee:	ab01      	add	r3, sp, #4
 80006f0:	6be1      	ldr	r1, [r4, #60]	@ 0x3c
 80006f2:	4628      	mov	r0, r5
 80006f4:	3208      	adds	r2, #8
 80006f6:	f007 fbe3 	bl	8007ec0 <f_read>
 80006fa:	6be1      	ldr	r1, [r4, #60]	@ 0x3c
 80006fc:	6a23      	ldr	r3, [r4, #32]
 80006fe:	4620      	mov	r0, r4
 8000700:	4419      	add	r1, r3
 8000702:	f7ff fe61 	bl	80003c8 <__AVI_GetStreamInfo>
 8000706:	2002      	movs	r0, #2
 8000708:	e7dd      	b.n	80006c6 <AVI_GetFrame+0xa6>
 800070a:	2000      	movs	r0, #0
 800070c:	e7db      	b.n	80006c6 <AVI_GetFrame+0xa6>
 800070e:	bf00      	nop
 8000710:	08008cf8 	.word	0x08008cf8

08000714 <GC9A01_set_chip_select.part.0>:
 8000714:	2200      	movs	r2, #0
 8000716:	2101      	movs	r1, #1
 8000718:	4801      	ldr	r0, [pc, #4]	@ (8000720 <GC9A01_set_chip_select.part.0+0xc>)
 800071a:	f001 bfc9 	b.w	80026b0 <HAL_GPIO_WritePin>
 800071e:	bf00      	nop
 8000720:	58020400 	.word	0x58020400

08000724 <GC9A01_set_reset>:
 8000724:	4602      	mov	r2, r0
 8000726:	b918      	cbnz	r0, 8000730 <GC9A01_set_reset+0xc>
 8000728:	2104      	movs	r1, #4
 800072a:	4802      	ldr	r0, [pc, #8]	@ (8000734 <GC9A01_set_reset+0x10>)
 800072c:	f001 bfc0 	b.w	80026b0 <HAL_GPIO_WritePin>
 8000730:	2201      	movs	r2, #1
 8000732:	e7f9      	b.n	8000728 <GC9A01_set_reset+0x4>
 8000734:	58020400 	.word	0x58020400

08000738 <GC9A01_set_data_command>:
 8000738:	4602      	mov	r2, r0
 800073a:	b918      	cbnz	r0, 8000744 <GC9A01_set_data_command+0xc>
 800073c:	2102      	movs	r1, #2
 800073e:	4802      	ldr	r0, [pc, #8]	@ (8000748 <GC9A01_set_data_command+0x10>)
 8000740:	f001 bfb6 	b.w	80026b0 <HAL_GPIO_WritePin>
 8000744:	2201      	movs	r2, #1
 8000746:	e7f9      	b.n	800073c <GC9A01_set_data_command+0x4>
 8000748:	58020400 	.word	0x58020400

0800074c <GC9A01_set_chip_select>:
 800074c:	b908      	cbnz	r0, 8000752 <GC9A01_set_chip_select+0x6>
 800074e:	f7ff bfe1 	b.w	8000714 <GC9A01_set_chip_select.part.0>
 8000752:	2201      	movs	r2, #1
 8000754:	4801      	ldr	r0, [pc, #4]	@ (800075c <GC9A01_set_chip_select+0x10>)
 8000756:	4611      	mov	r1, r2
 8000758:	f001 bfaa 	b.w	80026b0 <HAL_GPIO_WritePin>
 800075c:	58020400 	.word	0x58020400

08000760 <GC9A01_spi_tx>:
 8000760:	460a      	mov	r2, r1
 8000762:	4601      	mov	r1, r0
 8000764:	4806      	ldr	r0, [pc, #24]	@ (8000780 <GC9A01_spi_tx+0x20>)
 8000766:	b508      	push	{r3, lr}
 8000768:	f04f 33ff 	mov.w	r3, #4294967295
 800076c:	f005 febe 	bl	80064ec <HAL_SPI_Transmit>
 8000770:	4b04      	ldr	r3, [pc, #16]	@ (8000784 <GC9A01_spi_tx+0x24>)
 8000772:	2800      	cmp	r0, #0
 8000774:	7018      	strb	r0, [r3, #0]
 8000776:	bf14      	ite	ne
 8000778:	f04f 30ff 	movne.w	r0, #4294967295
 800077c:	2001      	moveq	r0, #1
 800077e:	bd08      	pop	{r3, pc}
 8000780:	2400019c 	.word	0x2400019c
 8000784:	24000088 	.word	0x24000088

08000788 <GC9A01_write_command>:
 8000788:	b507      	push	{r0, r1, r2, lr}
 800078a:	2200      	movs	r2, #0
 800078c:	2102      	movs	r1, #2
 800078e:	f88d 0007 	strb.w	r0, [sp, #7]
 8000792:	4808      	ldr	r0, [pc, #32]	@ (80007b4 <GC9A01_write_command+0x2c>)
 8000794:	f001 ff8c 	bl	80026b0 <HAL_GPIO_WritePin>
 8000798:	f7ff ffbc 	bl	8000714 <GC9A01_set_chip_select.part.0>
 800079c:	2101      	movs	r1, #1
 800079e:	f10d 0007 	add.w	r0, sp, #7
 80007a2:	f7ff ffdd 	bl	8000760 <GC9A01_spi_tx>
 80007a6:	2001      	movs	r0, #1
 80007a8:	f7ff ffd0 	bl	800074c <GC9A01_set_chip_select>
 80007ac:	b003      	add	sp, #12
 80007ae:	f85d fb04 	ldr.w	pc, [sp], #4
 80007b2:	bf00      	nop
 80007b4:	58020400 	.word	0x58020400

080007b8 <GC9A01_sleep_mode>:
 80007b8:	b508      	push	{r3, lr}
 80007ba:	b138      	cbz	r0, 80007cc <GC9A01_sleep_mode+0x14>
 80007bc:	2010      	movs	r0, #16
 80007be:	f7ff ffe3 	bl	8000788 <GC9A01_write_command>
 80007c2:	2078      	movs	r0, #120	@ 0x78
 80007c4:	e8bd 4008 	ldmia.w	sp!, {r3, lr}
 80007c8:	f001 bc62 	b.w	8002090 <HAL_Delay>
 80007cc:	2011      	movs	r0, #17
 80007ce:	e7f6      	b.n	80007be <GC9A01_sleep_mode+0x6>

080007d0 <GC9A01_write_data>:
 80007d0:	b538      	push	{r3, r4, r5, lr}
 80007d2:	460d      	mov	r5, r1
 80007d4:	4604      	mov	r4, r0
 80007d6:	2001      	movs	r0, #1
 80007d8:	f7ff ffae 	bl	8000738 <GC9A01_set_data_command>
 80007dc:	f7ff ff9a 	bl	8000714 <GC9A01_set_chip_select.part.0>
 80007e0:	4620      	mov	r0, r4
 80007e2:	b2a9      	uxth	r1, r5
 80007e4:	f7ff ffbc 	bl	8000760 <GC9A01_spi_tx>
 80007e8:	2001      	movs	r0, #1
 80007ea:	e8bd 4038 	ldmia.w	sp!, {r3, r4, r5, lr}
 80007ee:	f7ff bfad 	b.w	800074c <GC9A01_set_chip_select>

080007f2 <GC9A01_write_byte>:
 80007f2:	b507      	push	{r0, r1, r2, lr}
 80007f4:	2101      	movs	r1, #1
 80007f6:	f88d 0007 	strb.w	r0, [sp, #7]
 80007fa:	f10d 0007 	add.w	r0, sp, #7
 80007fe:	f7ff ffe7 	bl	80007d0 <GC9A01_write_data>
 8000802:	b003      	add	sp, #12
 8000804:	f85d fb04 	ldr.w	pc, [sp], #4

08000808 <GC9A01_init>:
 8000808:	b508      	push	{r3, lr}
 800080a:	2001      	movs	r0, #1
 800080c:	f7ff ff9e 	bl	800074c <GC9A01_set_chip_select>
 8000810:	2005      	movs	r0, #5
 8000812:	f001 fc3d 	bl	8002090 <HAL_Delay>
 8000816:	2200      	movs	r2, #0
 8000818:	2104      	movs	r1, #4
 800081a:	48fe      	ldr	r0, [pc, #1016]	@ (8000c14 <GC9A01_init+0x40c>)
 800081c:	f001 ff48 	bl	80026b0 <HAL_GPIO_WritePin>
 8000820:	200a      	movs	r0, #10
 8000822:	f001 fc35 	bl	8002090 <HAL_Delay>
 8000826:	2001      	movs	r0, #1
 8000828:	f7ff ff7c 	bl	8000724 <GC9A01_set_reset>
 800082c:	2078      	movs	r0, #120	@ 0x78
 800082e:	f001 fc2f 	bl	8002090 <HAL_Delay>
 8000832:	20ef      	movs	r0, #239	@ 0xef
 8000834:	f7ff ffa8 	bl	8000788 <GC9A01_write_command>
 8000838:	20eb      	movs	r0, #235	@ 0xeb
 800083a:	f7ff ffa5 	bl	8000788 <GC9A01_write_command>
 800083e:	2014      	movs	r0, #20
 8000840:	f7ff ffd7 	bl	80007f2 <GC9A01_write_byte>
 8000844:	20fe      	movs	r0, #254	@ 0xfe
 8000846:	f7ff ff9f 	bl	8000788 <GC9A01_write_command>
 800084a:	20ef      	movs	r0, #239	@ 0xef
 800084c:	f7ff ff9c 	bl	8000788 <GC9A01_write_command>
 8000850:	20eb      	movs	r0, #235	@ 0xeb
 8000852:	f7ff ff99 	bl	8000788 <GC9A01_write_command>
 8000856:	2014      	movs	r0, #20
 8000858:	f7ff ffcb 	bl	80007f2 <GC9A01_write_byte>
 800085c:	2084      	movs	r0, #132	@ 0x84
 800085e:	f7ff ff93 	bl	8000788 <GC9A01_write_command>
 8000862:	2040      	movs	r0, #64	@ 0x40
 8000864:	f7ff ffc5 	bl	80007f2 <GC9A01_write_byte>
 8000868:	2085      	movs	r0, #133	@ 0x85
 800086a:	f7ff ff8d 	bl	8000788 <GC9A01_write_command>
 800086e:	20ff      	movs	r0, #255	@ 0xff
 8000870:	f7ff ffbf 	bl	80007f2 <GC9A01_write_byte>
 8000874:	2086      	movs	r0, #134	@ 0x86
 8000876:	f7ff ff87 	bl	8000788 <GC9A01_write_command>
 800087a:	20ff      	movs	r0, #255	@ 0xff
 800087c:	f7ff ffb9 	bl	80007f2 <GC9A01_write_byte>
 8000880:	2087      	movs	r0, #135	@ 0x87
 8000882:	f7ff ff81 	bl	8000788 <GC9A01_write_command>
 8000886:	20ff      	movs	r0, #255	@ 0xff
 8000888:	f7ff ffb3 	bl	80007f2 <GC9A01_write_byte>
 800088c:	2088      	movs	r0, #136	@ 0x88
 800088e:	f7ff ff7b 	bl	8000788 <GC9A01_write_command>
 8000892:	200a      	movs	r0, #10
 8000894:	f7ff ffad 	bl	80007f2 <GC9A01_write_byte>
 8000898:	2089      	movs	r0, #137	@ 0x89
 800089a:	f7ff ff75 	bl	8000788 <GC9A01_write_command>
 800089e:	2021      	movs	r0, #33	@ 0x21
 80008a0:	f7ff ffa7 	bl	80007f2 <GC9A01_write_byte>
 80008a4:	208a      	movs	r0, #138	@ 0x8a
 80008a6:	f7ff ff6f 	bl	8000788 <GC9A01_write_command>
 80008aa:	2000      	movs	r0, #0
 80008ac:	f7ff ffa1 	bl	80007f2 <GC9A01_write_byte>
 80008b0:	208b      	movs	r0, #139	@ 0x8b
 80008b2:	f7ff ff69 	bl	8000788 <GC9A01_write_command>
 80008b6:	2080      	movs	r0, #128	@ 0x80
 80008b8:	f7ff ff9b 	bl	80007f2 <GC9A01_write_byte>
 80008bc:	208c      	movs	r0, #140	@ 0x8c
 80008be:	f7ff ff63 	bl	8000788 <GC9A01_write_command>
 80008c2:	2001      	movs	r0, #1
 80008c4:	f7ff ff95 	bl	80007f2 <GC9A01_write_byte>
 80008c8:	208d      	movs	r0, #141	@ 0x8d
 80008ca:	f7ff ff5d 	bl	8000788 <GC9A01_write_command>
 80008ce:	2001      	movs	r0, #1
 80008d0:	f7ff ff8f 	bl	80007f2 <GC9A01_write_byte>
 80008d4:	208e      	movs	r0, #142	@ 0x8e
 80008d6:	f7ff ff57 	bl	8000788 <GC9A01_write_command>
 80008da:	20ff      	movs	r0, #255	@ 0xff
 80008dc:	f7ff ff89 	bl	80007f2 <GC9A01_write_byte>
 80008e0:	208f      	movs	r0, #143	@ 0x8f
 80008e2:	f7ff ff51 	bl	8000788 <GC9A01_write_command>
 80008e6:	20ff      	movs	r0, #255	@ 0xff
 80008e8:	f7ff ff83 	bl	80007f2 <GC9A01_write_byte>
 80008ec:	20b6      	movs	r0, #182	@ 0xb6
 80008ee:	f7ff ff4b 	bl	8000788 <GC9A01_write_command>
 80008f2:	2000      	movs	r0, #0
 80008f4:	f7ff ff7d 	bl	80007f2 <GC9A01_write_byte>
 80008f8:	2000      	movs	r0, #0
 80008fa:	f7ff ff7a 	bl	80007f2 <GC9A01_write_byte>
 80008fe:	2036      	movs	r0, #54	@ 0x36
 8000900:	f7ff ff42 	bl	8000788 <GC9A01_write_command>
 8000904:	2018      	movs	r0, #24
 8000906:	f7ff ff74 	bl	80007f2 <GC9A01_write_byte>
 800090a:	203a      	movs	r0, #58	@ 0x3a
 800090c:	f7ff ff3c 	bl	8000788 <GC9A01_write_command>
 8000910:	2005      	movs	r0, #5
 8000912:	f7ff ff6e 	bl	80007f2 <GC9A01_write_byte>
 8000916:	2090      	movs	r0, #144	@ 0x90
 8000918:	f7ff ff36 	bl	8000788 <GC9A01_write_command>
 800091c:	2008      	movs	r0, #8
 800091e:	f7ff ff68 	bl	80007f2 <GC9A01_write_byte>
 8000922:	2008      	movs	r0, #8
 8000924:	f7ff ff65 	bl	80007f2 <GC9A01_write_byte>
 8000928:	2008      	movs	r0, #8
 800092a:	f7ff ff62 	bl	80007f2 <GC9A01_write_byte>
 800092e:	2008      	movs	r0, #8
 8000930:	f7ff ff5f 	bl	80007f2 <GC9A01_write_byte>
 8000934:	20bd      	movs	r0, #189	@ 0xbd
 8000936:	f7ff ff27 	bl	8000788 <GC9A01_write_command>
 800093a:	2006      	movs	r0, #6
 800093c:	f7ff ff59 	bl	80007f2 <GC9A01_write_byte>
 8000940:	20bc      	movs	r0, #188	@ 0xbc
 8000942:	f7ff ff21 	bl	8000788 <GC9A01_write_command>
 8000946:	2000      	movs	r0, #0
 8000948:	f7ff ff53 	bl	80007f2 <GC9A01_write_byte>
 800094c:	20ff      	movs	r0, #255	@ 0xff
 800094e:	f7ff ff1b 	bl	8000788 <GC9A01_write_command>
 8000952:	2060      	movs	r0, #96	@ 0x60
 8000954:	f7ff ff4d 	bl	80007f2 <GC9A01_write_byte>
 8000958:	2001      	movs	r0, #1
 800095a:	f7ff ff4a 	bl	80007f2 <GC9A01_write_byte>
 800095e:	2004      	movs	r0, #4
 8000960:	f7ff ff47 	bl	80007f2 <GC9A01_write_byte>
 8000964:	20c3      	movs	r0, #195	@ 0xc3
 8000966:	f7ff ff0f 	bl	8000788 <GC9A01_write_command>
 800096a:	2013      	movs	r0, #19
 800096c:	f7ff ff41 	bl	80007f2 <GC9A01_write_byte>
 8000970:	20c4      	movs	r0, #196	@ 0xc4
 8000972:	f7ff ff09 	bl	8000788 <GC9A01_write_command>
 8000976:	2013      	movs	r0, #19
 8000978:	f7ff ff3b 	bl	80007f2 <GC9A01_write_byte>
 800097c:	20c9      	movs	r0, #201	@ 0xc9
 800097e:	f7ff ff03 	bl	8000788 <GC9A01_write_command>
 8000982:	2022      	movs	r0, #34	@ 0x22
 8000984:	f7ff ff35 	bl	80007f2 <GC9A01_write_byte>
 8000988:	20be      	movs	r0, #190	@ 0xbe
 800098a:	f7ff fefd 	bl	8000788 <GC9A01_write_command>
 800098e:	2011      	movs	r0, #17
 8000990:	f7ff ff2f 	bl	80007f2 <GC9A01_write_byte>
 8000994:	20e1      	movs	r0, #225	@ 0xe1
 8000996:	f7ff fef7 	bl	8000788 <GC9A01_write_command>
 800099a:	2010      	movs	r0, #16
 800099c:	f7ff ff29 	bl	80007f2 <GC9A01_write_byte>
 80009a0:	200e      	movs	r0, #14
 80009a2:	f7ff ff26 	bl	80007f2 <GC9A01_write_byte>
 80009a6:	20df      	movs	r0, #223	@ 0xdf
 80009a8:	f7ff feee 	bl	8000788 <GC9A01_write_command>
 80009ac:	2021      	movs	r0, #33	@ 0x21
 80009ae:	f7ff ff20 	bl	80007f2 <GC9A01_write_byte>
 80009b2:	200c      	movs	r0, #12
 80009b4:	f7ff ff1d 	bl	80007f2 <GC9A01_write_byte>
 80009b8:	2002      	movs	r0, #2
 80009ba:	f7ff ff1a 	bl	80007f2 <GC9A01_write_byte>
 80009be:	20f0      	movs	r0, #240	@ 0xf0
 80009c0:	f7ff fee2 	bl	8000788 <GC9A01_write_command>
 80009c4:	2045      	movs	r0, #69	@ 0x45
 80009c6:	f7ff ff14 	bl	80007f2 <GC9A01_write_byte>
 80009ca:	2009      	movs	r0, #9
 80009cc:	f7ff ff11 	bl	80007f2 <GC9A01_write_byte>
 80009d0:	2008      	movs	r0, #8
 80009d2:	f7ff ff0e 	bl	80007f2 <GC9A01_write_byte>
 80009d6:	2008      	movs	r0, #8
 80009d8:	f7ff ff0b 	bl	80007f2 <GC9A01_write_byte>
 80009dc:	2026      	movs	r0, #38	@ 0x26
 80009de:	f7ff ff08 	bl	80007f2 <GC9A01_write_byte>
 80009e2:	202a      	movs	r0, #42	@ 0x2a
 80009e4:	f7ff ff05 	bl	80007f2 <GC9A01_write_byte>
 80009e8:	20f1      	movs	r0, #241	@ 0xf1
 80009ea:	f7ff fecd 	bl	8000788 <GC9A01_write_command>
 80009ee:	2043      	movs	r0, #67	@ 0x43
 80009f0:	f7ff feff 	bl	80007f2 <GC9A01_write_byte>
 80009f4:	2070      	movs	r0, #112	@ 0x70
 80009f6:	f7ff fefc 	bl	80007f2 <GC9A01_write_byte>
 80009fa:	2072      	movs	r0, #114	@ 0x72
 80009fc:	f7ff fef9 	bl	80007f2 <GC9A01_write_byte>
 8000a00:	2036      	movs	r0, #54	@ 0x36
 8000a02:	f7ff fef6 	bl	80007f2 <GC9A01_write_byte>
 8000a06:	2037      	movs	r0, #55	@ 0x37
 8000a08:	f7ff fef3 	bl	80007f2 <GC9A01_write_byte>
 8000a0c:	206f      	movs	r0, #111	@ 0x6f
 8000a0e:	f7ff fef0 	bl	80007f2 <GC9A01_write_byte>
 8000a12:	20f2      	movs	r0, #242	@ 0xf2
 8000a14:	f7ff feb8 	bl	8000788 <GC9A01_write_command>
 8000a18:	2045      	movs	r0, #69	@ 0x45
 8000a1a:	f7ff feea 	bl	80007f2 <GC9A01_write_byte>
 8000a1e:	2009      	movs	r0, #9
 8000a20:	f7ff fee7 	bl	80007f2 <GC9A01_write_byte>
 8000a24:	2008      	movs	r0, #8
 8000a26:	f7ff fee4 	bl	80007f2 <GC9A01_write_byte>
 8000a2a:	2008      	movs	r0, #8
 8000a2c:	f7ff fee1 	bl	80007f2 <GC9A01_write_byte>
 8000a30:	2026      	movs	r0, #38	@ 0x26
 8000a32:	f7ff fede 	bl	80007f2 <GC9A01_write_byte>
 8000a36:	202a      	movs	r0, #42	@ 0x2a
 8000a38:	f7ff fedb 	bl	80007f2 <GC9A01_write_byte>
 8000a3c:	20f3      	movs	r0, #243	@ 0xf3
 8000a3e:	f7ff fea3 	bl	8000788 <GC9A01_write_command>
 8000a42:	2043      	movs	r0, #67	@ 0x43
 8000a44:	f7ff fed5 	bl	80007f2 <GC9A01_write_byte>
 8000a48:	2070      	movs	r0, #112	@ 0x70
 8000a4a:	f7ff fed2 	bl	80007f2 <GC9A01_write_byte>
 8000a4e:	2072      	movs	r0, #114	@ 0x72
 8000a50:	f7ff fecf 	bl	80007f2 <GC9A01_write_byte>
 8000a54:	2036      	movs	r0, #54	@ 0x36
 8000a56:	f7ff fecc 	bl	80007f2 <GC9A01_write_byte>
 8000a5a:	2037      	movs	r0, #55	@ 0x37
 8000a5c:	f7ff fec9 	bl	80007f2 <GC9A01_write_byte>
 8000a60:	206f      	movs	r0, #111	@ 0x6f
 8000a62:	f7ff fec6 	bl	80007f2 <GC9A01_write_byte>
 8000a66:	20ed      	movs	r0, #237	@ 0xed
 8000a68:	f7ff fe8e 	bl	8000788 <GC9A01_write_command>
 8000a6c:	201b      	movs	r0, #27
 8000a6e:	f7ff fec0 	bl	80007f2 <GC9A01_write_byte>
 8000a72:	200b      	movs	r0, #11
 8000a74:	f7ff febd 	bl	80007f2 <GC9A01_write_byte>
 8000a78:	20ae      	movs	r0, #174	@ 0xae
 8000a7a:	f7ff fe85 	bl	8000788 <GC9A01_write_command>
 8000a7e:	2077      	movs	r0, #119	@ 0x77
 8000a80:	f7ff feb7 	bl	80007f2 <GC9A01_write_byte>
 8000a84:	20cd      	movs	r0, #205	@ 0xcd
 8000a86:	f7ff fe7f 	bl	8000788 <GC9A01_write_command>
 8000a8a:	2063      	movs	r0, #99	@ 0x63
 8000a8c:	f7ff feb1 	bl	80007f2 <GC9A01_write_byte>
 8000a90:	2070      	movs	r0, #112	@ 0x70
 8000a92:	f7ff fe79 	bl	8000788 <GC9A01_write_command>
 8000a96:	2007      	movs	r0, #7
 8000a98:	f7ff feab 	bl	80007f2 <GC9A01_write_byte>
 8000a9c:	2007      	movs	r0, #7
 8000a9e:	f7ff fea8 	bl	80007f2 <GC9A01_write_byte>
 8000aa2:	2004      	movs	r0, #4
 8000aa4:	f7ff fea5 	bl	80007f2 <GC9A01_write_byte>
 8000aa8:	200e      	movs	r0, #14
 8000aaa:	f7ff fea2 	bl	80007f2 <GC9A01_write_byte>
 8000aae:	200f      	movs	r0, #15
 8000ab0:	f7ff fe9f 	bl	80007f2 <GC9A01_write_byte>
 8000ab4:	2009      	movs	r0, #9
 8000ab6:	f7ff fe9c 	bl	80007f2 <GC9A01_write_byte>
 8000aba:	2007      	movs	r0, #7
 8000abc:	f7ff fe99 	bl	80007f2 <GC9A01_write_byte>
 8000ac0:	2008      	movs	r0, #8
 8000ac2:	f7ff fe96 	bl	80007f2 <GC9A01_write_byte>
 8000ac6:	2003      	movs	r0, #3
 8000ac8:	f7ff fe93 	bl	80007f2 <GC9A01_write_byte>
 8000acc:	20e8      	movs	r0, #232	@ 0xe8
 8000ace:	f7ff fe5b 	bl	8000788 <GC9A01_write_command>
 8000ad2:	2034      	movs	r0, #52	@ 0x34
 8000ad4:	f7ff fe8d 	bl	80007f2 <GC9A01_write_byte>
 8000ad8:	2062      	movs	r0, #98	@ 0x62
 8000ada:	f7ff fe55 	bl	8000788 <GC9A01_write_command>
 8000ade:	2018      	movs	r0, #24
 8000ae0:	f7ff fe87 	bl	80007f2 <GC9A01_write_byte>
 8000ae4:	200d      	movs	r0, #13
 8000ae6:	f7ff fe84 	bl	80007f2 <GC9A01_write_byte>
 8000aea:	2071      	movs	r0, #113	@ 0x71
 8000aec:	f7ff fe81 	bl	80007f2 <GC9A01_write_byte>
 8000af0:	20ed      	movs	r0, #237	@ 0xed
 8000af2:	f7ff fe7e 	bl	80007f2 <GC9A01_write_byte>
 8000af6:	2070      	movs	r0, #112	@ 0x70
 8000af8:	f7ff fe7b 	bl	80007f2 <GC9A01_write_byte>
 8000afc:	2070      	movs	r0, #112	@ 0x70
 8000afe:	f7ff fe78 	bl	80007f2 <GC9A01_write_byte>
 8000b02:	2018      	movs	r0, #24
 8000b04:	f7ff fe75 	bl	80007f2 <GC9A01_write_byte>
 8000b08:	200f      	movs	r0, #15
 8000b0a:	f7ff fe72 	bl	80007f2 <GC9A01_write_byte>
 8000b0e:	2071      	movs	r0, #113	@ 0x71
 8000b10:	f7ff fe6f 	bl	80007f2 <GC9A01_write_byte>
 8000b14:	20ef      	movs	r0, #239	@ 0xef
 8000b16:	f7ff fe6c 	bl	80007f2 <GC9A01_write_byte>
 8000b1a:	2070      	movs	r0, #112	@ 0x70
 8000b1c:	f7ff fe69 	bl	80007f2 <GC9A01_write_byte>
 8000b20:	2070      	movs	r0, #112	@ 0x70
 8000b22:	f7ff fe66 	bl	80007f2 <GC9A01_write_byte>
 8000b26:	2063      	movs	r0, #99	@ 0x63
 8000b28:	f7ff fe2e 	bl	8000788 <GC9A01_write_command>
 8000b2c:	2018      	movs	r0, #24
 8000b2e:	f7ff fe60 	bl	80007f2 <GC9A01_write_byte>
 8000b32:	2011      	movs	r0, #17
 8000b34:	f7ff fe5d 	bl	80007f2 <GC9A01_write_byte>
 8000b38:	2071      	movs	r0, #113	@ 0x71
 8000b3a:	f7ff fe5a 	bl	80007f2 <GC9A01_write_byte>
 8000b3e:	20f1      	movs	r0, #241	@ 0xf1
 8000b40:	f7ff fe57 	bl	80007f2 <GC9A01_write_byte>
 8000b44:	2070      	movs	r0, #112	@ 0x70
 8000b46:	f7ff fe54 	bl	80007f2 <GC9A01_write_byte>
 8000b4a:	2070      	movs	r0, #112	@ 0x70
 8000b4c:	f7ff fe51 	bl	80007f2 <GC9A01_write_byte>
 8000b50:	2018      	movs	r0, #24
 8000b52:	f7ff fe4e 	bl	80007f2 <GC9A01_write_byte>
 8000b56:	2013      	movs	r0, #19
 8000b58:	f7ff fe4b 	bl	80007f2 <GC9A01_write_byte>
 8000b5c:	2071      	movs	r0, #113	@ 0x71
 8000b5e:	f7ff fe48 	bl	80007f2 <GC9A01_write_byte>
 8000b62:	20f3      	movs	r0, #243	@ 0xf3
 8000b64:	f7ff fe45 	bl	80007f2 <GC9A01_write_byte>
 8000b68:	2070      	movs	r0, #112	@ 0x70
 8000b6a:	f7ff fe42 	bl	80007f2 <GC9A01_write_byte>
 8000b6e:	2070      	movs	r0, #112	@ 0x70
 8000b70:	f7ff fe3f 	bl	80007f2 <GC9A01_write_byte>
 8000b74:	2064      	movs	r0, #100	@ 0x64
 8000b76:	f7ff fe07 	bl	8000788 <GC9A01_write_command>
 8000b7a:	2028      	movs	r0, #40	@ 0x28
 8000b7c:	f7ff fe39 	bl	80007f2 <GC9A01_write_byte>
 8000b80:	2029      	movs	r0, #41	@ 0x29
 8000b82:	f7ff fe36 	bl	80007f2 <GC9A01_write_byte>
 8000b86:	20f1      	movs	r0, #241	@ 0xf1
 8000b88:	f7ff fe33 	bl	80007f2 <GC9A01_write_byte>
 8000b8c:	2001      	movs	r0, #1
 8000b8e:	f7ff fe30 	bl	80007f2 <GC9A01_write_byte>
 8000b92:	20f1      	movs	r0, #241	@ 0xf1
 8000b94:	f7ff fe2d 	bl	80007f2 <GC9A01_write_byte>
 8000b98:	2000      	movs	r0, #0
 8000b9a:	f7ff fe2a 	bl	80007f2 <GC9A01_write_byte>
 8000b9e:	2007      	movs	r0, #7
 8000ba0:	f7ff fe27 	bl	80007f2 <GC9A01_write_byte>
 8000ba4:	2066      	movs	r0, #102	@ 0x66
 8000ba6:	f7ff fdef 	bl	8000788 <GC9A01_write_command>
 8000baa:	203c      	movs	r0, #60	@ 0x3c
 8000bac:	f7ff fe21 	bl	80007f2 <GC9A01_write_byte>
 8000bb0:	2000      	movs	r0, #0
 8000bb2:	f7ff fe1e 	bl	80007f2 <GC9A01_write_byte>
 8000bb6:	20cd      	movs	r0, #205	@ 0xcd
 8000bb8:	f7ff fe1b 	bl	80007f2 <GC9A01_write_byte>
 8000bbc:	2067      	movs	r0, #103	@ 0x67
 8000bbe:	f7ff fe18 	bl	80007f2 <GC9A01_write_byte>
 8000bc2:	2045      	movs	r0, #69	@ 0x45
 8000bc4:	f7ff fe15 	bl	80007f2 <GC9A01_write_byte>
 8000bc8:	2045      	movs	r0, #69	@ 0x45
 8000bca:	f7ff fe12 	bl	80007f2 <GC9A01_write_byte>
 8000bce:	2010      	movs	r0, #16
 8000bd0:	f7ff fe0f 	bl	80007f2 <GC9A01_write_byte>
 8000bd4:	2000      	movs	r0, #0
 8000bd6:	f7ff fe0c 	bl	80007f2 <GC9A01_write_byte>
 8000bda:	2000      	movs	r0, #0
 8000bdc:	f7ff fe09 	bl	80007f2 <GC9A01_write_byte>
 8000be0:	2000      	movs	r0, #0
 8000be2:	f7ff fe06 	bl	80007f2 <GC9A01_write_byte>
 8000be6:	2067      	movs	r0, #103	@ 0x67
 8000be8:	f7ff fdce 	bl	8000788 <GC9A01_write_command>
 8000bec:	2000      	movs	r0, #0
 8000bee:	f7ff fe00 	bl	80007f2 <GC9A01_write_byte>
 8000bf2:	203c      	movs	r0, #60	@ 0x3c
 8000bf4:	f7ff fdfd 	bl	80007f2 <GC9A01_write_byte>
 8000bf8:	2000      	movs	r0, #0
 8000bfa:	f7ff fdfa 	bl	80007f2 <GC9A01_write_byte>
 8000bfe:	2000      	movs	r0, #0
 8000c00:	f7ff fdf7 	bl	80007f2 <GC9A01_write_byte>
 8000c04:	2000      	movs	r0, #0
 8000c06:	f7ff fdf4 	bl	80007f2 <GC9A01_write_byte>
 8000c0a:	2001      	movs	r0, #1
 8000c0c:	f7ff fdf1 	bl	80007f2 <GC9A01_write_byte>
 8000c10:	e002      	b.n	8000c18 <GC9A01_init+0x410>
 8000c12:	bf00      	nop
 8000c14:	58020400 	.word	0x58020400
 8000c18:	2054      	movs	r0, #84	@ 0x54
 8000c1a:	f7ff fdea 	bl	80007f2 <GC9A01_write_byte>
 8000c1e:	2010      	movs	r0, #16
 8000c20:	f7ff fde7 	bl	80007f2 <GC9A01_write_byte>
 8000c24:	2032      	movs	r0, #50	@ 0x32
 8000c26:	f7ff fde4 	bl	80007f2 <GC9A01_write_byte>
 8000c2a:	2098      	movs	r0, #152	@ 0x98
 8000c2c:	f7ff fde1 	bl	80007f2 <GC9A01_write_byte>
 8000c30:	2074      	movs	r0, #116	@ 0x74
 8000c32:	f7ff fda9 	bl	8000788 <GC9A01_write_command>
 8000c36:	2010      	movs	r0, #16
 8000c38:	f7ff fddb 	bl	80007f2 <GC9A01_write_byte>
 8000c3c:	2085      	movs	r0, #133	@ 0x85
 8000c3e:	f7ff fdd8 	bl	80007f2 <GC9A01_write_byte>
 8000c42:	2080      	movs	r0, #128	@ 0x80
 8000c44:	f7ff fdd5 	bl	80007f2 <GC9A01_write_byte>
 8000c48:	2000      	movs	r0, #0
 8000c4a:	f7ff fdd2 	bl	80007f2 <GC9A01_write_byte>
 8000c4e:	2000      	movs	r0, #0
 8000c50:	f7ff fdcf 	bl	80007f2 <GC9A01_write_byte>
 8000c54:	204e      	movs	r0, #78	@ 0x4e
 8000c56:	f7ff fdcc 	bl	80007f2 <GC9A01_write_byte>
 8000c5a:	2000      	movs	r0, #0
 8000c5c:	f7ff fdc9 	bl	80007f2 <GC9A01_write_byte>
 8000c60:	2098      	movs	r0, #152	@ 0x98
 8000c62:	f7ff fd91 	bl	8000788 <GC9A01_write_command>
 8000c66:	203e      	movs	r0, #62	@ 0x3e
 8000c68:	f7ff fdc3 	bl	80007f2 <GC9A01_write_byte>
 8000c6c:	2007      	movs	r0, #7
 8000c6e:	f7ff fdc0 	bl	80007f2 <GC9A01_write_byte>
 8000c72:	2035      	movs	r0, #53	@ 0x35
 8000c74:	f7ff fd88 	bl	8000788 <GC9A01_write_command>
 8000c78:	2021      	movs	r0, #33	@ 0x21
 8000c7a:	f7ff fd85 	bl	8000788 <GC9A01_write_command>
 8000c7e:	2011      	movs	r0, #17
 8000c80:	f7ff fd82 	bl	8000788 <GC9A01_write_command>
 8000c84:	2078      	movs	r0, #120	@ 0x78
 8000c86:	f001 fa03 	bl	8002090 <HAL_Delay>
 8000c8a:	2029      	movs	r0, #41	@ 0x29
 8000c8c:	f7ff fd7c 	bl	8000788 <GC9A01_write_command>
 8000c90:	2014      	movs	r0, #20
 8000c92:	e8bd 4008 	ldmia.w	sp!, {r3, lr}
 8000c96:	f001 b9fb 	b.w	8002090 <HAL_Delay>
 8000c9a:	bf00      	nop

08000c9c <GC9A01_set_frame>:
 8000c9c:	b5f0      	push	{r4, r5, r6, r7, lr}
 8000c9e:	b085      	sub	sp, #20
 8000ca0:	466b      	mov	r3, sp
 8000ca2:	e883 0003 	stmia.w	r3, {r0, r1}
 8000ca6:	f8bd 7000 	ldrh.w	r7, [sp]
 8000caa:	202a      	movs	r0, #42	@ 0x2a
 8000cac:	f8bd 6004 	ldrh.w	r6, [sp, #4]
 8000cb0:	ba7f      	rev16	r7, r7
 8000cb2:	f8bd 5002 	ldrh.w	r5, [sp, #2]
 8000cb6:	ba76      	rev16	r6, r6
 8000cb8:	f8bd 4006 	ldrh.w	r4, [sp, #6]
 8000cbc:	f7ff fd64 	bl	8000788 <GC9A01_write_command>
 8000cc0:	2104      	movs	r1, #4
 8000cc2:	a803      	add	r0, sp, #12
 8000cc4:	f8ad 700c 	strh.w	r7, [sp, #12]
 8000cc8:	f8ad 600e 	strh.w	r6, [sp, #14]
 8000ccc:	f7ff fd80 	bl	80007d0 <GC9A01_write_data>
 8000cd0:	202b      	movs	r0, #43	@ 0x2b
 8000cd2:	ba6d      	rev16	r5, r5
 8000cd4:	f7ff fd58 	bl	8000788 <GC9A01_write_command>
 8000cd8:	ba64      	rev16	r4, r4
 8000cda:	2104      	movs	r1, #4
 8000cdc:	a803      	add	r0, sp, #12
 8000cde:	f8ad 500c 	strh.w	r5, [sp, #12]
 8000ce2:	f8ad 400e 	strh.w	r4, [sp, #14]
 8000ce6:	f7ff fd73 	bl	80007d0 <GC9A01_write_data>
 8000cea:	b005      	add	sp, #20
 8000cec:	bdf0      	pop	{r4, r5, r6, r7, pc}
	...

08000cf0 <JPEG_Decode_DMA>:
 8000cf0:	b537      	push	{r0, r1, r2, r4, r5, lr}
 8000cf2:	4c0b      	ldr	r4, [pc, #44]	@ (8000d20 <JPEG_Decode_DMA+0x30>)
 8000cf4:	4d0b      	ldr	r5, [pc, #44]	@ (8000d24 <JPEG_Decode_DMA+0x34>)
 8000cf6:	6021      	str	r1, [r4, #0]
 8000cf8:	4c0b      	ldr	r4, [pc, #44]	@ (8000d28 <JPEG_Decode_DMA+0x38>)
 8000cfa:	6023      	str	r3, [r4, #0]
 8000cfc:	2400      	movs	r4, #0
 8000cfe:	602c      	str	r4, [r5, #0]
 8000d00:	4d0a      	ldr	r5, [pc, #40]	@ (8000d2c <JPEG_Decode_DMA+0x3c>)
 8000d02:	602a      	str	r2, [r5, #0]
 8000d04:	4a0a      	ldr	r2, [pc, #40]	@ (8000d30 <JPEG_Decode_DMA+0x40>)
 8000d06:	6014      	str	r4, [r2, #0]
 8000d08:	f44f 3280 	mov.w	r2, #65536	@ 0x10000
 8000d0c:	9200      	str	r2, [sp, #0]
 8000d0e:	f002 f817 	bl	8002d40 <HAL_JPEG_Decode_DMA>
 8000d12:	42a0      	cmp	r0, r4
 8000d14:	bf14      	ite	ne
 8000d16:	f04f 30ff 	movne.w	r0, #4294967295
 8000d1a:	2001      	moveq	r0, #1
 8000d1c:	b003      	add	sp, #12
 8000d1e:	bd30      	pop	{r4, r5, pc}
 8000d20:	24000094 	.word	0x24000094
 8000d24:	2400008c 	.word	0x2400008c
 8000d28:	24000098 	.word	0x24000098
 8000d2c:	24000090 	.word	0x24000090
 8000d30:	2400009c 	.word	0x2400009c

08000d34 <HAL_JPEG_InfoReadyCallback>:
 8000d34:	4770      	bx	lr
	...

08000d38 <HAL_JPEG_GetDataCallback>:
 8000d38:	4a0c      	ldr	r2, [pc, #48]	@ (8000d6c <HAL_JPEG_GetDataCallback+0x34>)
 8000d3a:	6813      	ldr	r3, [r2, #0]
 8000d3c:	440b      	add	r3, r1
 8000d3e:	b430      	push	{r4, r5}
 8000d40:	6013      	str	r3, [r2, #0]
 8000d42:	4a0b      	ldr	r2, [pc, #44]	@ (8000d70 <HAL_JPEG_GetDataCallback+0x38>)
 8000d44:	4c0b      	ldr	r4, [pc, #44]	@ (8000d74 <HAL_JPEG_GetDataCallback+0x3c>)
 8000d46:	6812      	ldr	r2, [r2, #0]
 8000d48:	4293      	cmp	r3, r2
 8000d4a:	d20c      	bcs.n	8000d66 <HAL_JPEG_GetDataCallback+0x2e>
 8000d4c:	1ad2      	subs	r2, r2, r3
 8000d4e:	6825      	ldr	r5, [r4, #0]
 8000d50:	f5b2 3f80 	cmp.w	r2, #65536	@ 0x10000
 8000d54:	440d      	add	r5, r1
 8000d56:	bf28      	it	cs
 8000d58:	f44f 3280 	movcs.w	r2, #65536	@ 0x10000
 8000d5c:	6025      	str	r5, [r4, #0]
 8000d5e:	6821      	ldr	r1, [r4, #0]
 8000d60:	bc30      	pop	{r4, r5}
 8000d62:	f002 b84f 	b.w	8002e04 <HAL_JPEG_ConfigInputBuffer>
 8000d66:	2200      	movs	r2, #0
 8000d68:	e7f9      	b.n	8000d5e <HAL_JPEG_GetDataCallback+0x26>
 8000d6a:	bf00      	nop
 8000d6c:	2400008c 	.word	0x2400008c
 8000d70:	24000090 	.word	0x24000090
 8000d74:	24000094 	.word	0x24000094

08000d78 <HAL_JPEG_DataReadyCallback>:
 8000d78:	4b03      	ldr	r3, [pc, #12]	@ (8000d88 <HAL_JPEG_DataReadyCallback+0x10>)
 8000d7a:	6819      	ldr	r1, [r3, #0]
 8000d7c:	4411      	add	r1, r2
 8000d7e:	f44f 3280 	mov.w	r2, #65536	@ 0x10000
 8000d82:	6019      	str	r1, [r3, #0]
 8000d84:	f002 b841 	b.w	8002e0a <HAL_JPEG_ConfigOutputBuffer>
 8000d88:	24000098 	.word	0x24000098

08000d8c <HAL_JPEG_ErrorCallback>:
 8000d8c:	f000 b9c8 	b.w	8001120 <Error_Handler>

08000d90 <HAL_JPEG_DecodeCpltCallback>:
 8000d90:	4b01      	ldr	r3, [pc, #4]	@ (8000d98 <HAL_JPEG_DecodeCpltCallback+0x8>)
 8000d92:	2201      	movs	r2, #1
 8000d94:	601a      	str	r2, [r3, #0]
 8000d96:	4770      	bx	lr
 8000d98:	2400009c 	.word	0x2400009c

08000d9c <SystemClock_Config>:
 8000d9c:	b530      	push	{r4, r5, lr}
 8000d9e:	b09d      	sub	sp, #116	@ 0x74
 8000da0:	224c      	movs	r2, #76	@ 0x4c
 8000da2:	2100      	movs	r1, #0
 8000da4:	a809      	add	r0, sp, #36	@ 0x24
 8000da6:	f007 fb11 	bl	80083cc <memset>
 8000daa:	2220      	movs	r2, #32
 8000dac:	2100      	movs	r1, #0
 8000dae:	a801      	add	r0, sp, #4
 8000db0:	f007 fb0c 	bl	80083cc <memset>
 8000db4:	4b24      	ldr	r3, [pc, #144]	@ (8000e48 <SystemClock_Config+0xac>)
 8000db6:	f04f 32ff 	mov.w	r2, #4294967295
 8000dba:	2002      	movs	r0, #2
 8000dbc:	f8c3 20b0 	str.w	r2, [r3, #176]	@ 0xb0
 8000dc0:	f002 fd28 	bl	8003814 <HAL_PWREx_ConfigSupply>
 8000dc4:	2300      	movs	r3, #0
 8000dc6:	9300      	str	r3, [sp, #0]
 8000dc8:	4b20      	ldr	r3, [pc, #128]	@ (8000e4c <SystemClock_Config+0xb0>)
 8000dca:	699a      	ldr	r2, [r3, #24]
 8000dcc:	f422 4240 	bic.w	r2, r2, #49152	@ 0xc000
 8000dd0:	619a      	str	r2, [r3, #24]
 8000dd2:	699a      	ldr	r2, [r3, #24]
 8000dd4:	f402 4240 	and.w	r2, r2, #49152	@ 0xc000
 8000dd8:	9200      	str	r2, [sp, #0]
 8000dda:	9a00      	ldr	r2, [sp, #0]
 8000ddc:	699a      	ldr	r2, [r3, #24]
 8000dde:	0494      	lsls	r4, r2, #18
 8000de0:	d5fc      	bpl.n	8000ddc <SystemClock_Config+0x40>
 8000de2:	2206      	movs	r2, #6
 8000de4:	2301      	movs	r3, #1
 8000de6:	2402      	movs	r4, #2
 8000de8:	2004      	movs	r0, #4
 8000dea:	2117      	movs	r1, #23
 8000dec:	2540      	movs	r5, #64	@ 0x40
 8000dee:	9209      	str	r2, [sp, #36]	@ 0x24
 8000df0:	930c      	str	r3, [sp, #48]	@ 0x30
 8000df2:	950d      	str	r5, [sp, #52]	@ 0x34
 8000df4:	9418      	str	r4, [sp, #96]	@ 0x60
 8000df6:	e9cd 330a 	strd	r3, r3, [sp, #40]	@ 0x28
 8000dfa:	e9cd 4216 	strd	r4, r2, [sp, #88]	@ 0x58
 8000dfe:	2300      	movs	r3, #0
 8000e00:	220c      	movs	r2, #12
 8000e02:	e9cd 0114 	strd	r0, r1, [sp, #80]	@ 0x50
 8000e06:	a809      	add	r0, sp, #36	@ 0x24
 8000e08:	931b      	str	r3, [sp, #108]	@ 0x6c
 8000e0a:	e9cd 4312 	strd	r4, r3, [sp, #72]	@ 0x48
 8000e0e:	e9cd 2319 	strd	r2, r3, [sp, #100]	@ 0x64
 8000e12:	f002 fd23 	bl	800385c <HAL_RCC_OscConfig>
 8000e16:	b108      	cbz	r0, 8000e1c <SystemClock_Config+0x80>
 8000e18:	b672      	cpsid	i
 8000e1a:	e7fe      	b.n	8000e1a <SystemClock_Config+0x7e>
 8000e1c:	2303      	movs	r3, #3
 8000e1e:	223f      	movs	r2, #63	@ 0x3f
 8000e20:	9003      	str	r0, [sp, #12]
 8000e22:	4621      	mov	r1, r4
 8000e24:	a801      	add	r0, sp, #4
 8000e26:	9506      	str	r5, [sp, #24]
 8000e28:	e9cd 2301 	strd	r2, r3, [sp, #4]
 8000e2c:	2308      	movs	r3, #8
 8000e2e:	e9cd 3504 	strd	r3, r5, [sp, #16]
 8000e32:	f44f 6380 	mov.w	r3, #1024	@ 0x400
 8000e36:	e9cd 3507 	strd	r3, r5, [sp, #28]
 8000e3a:	f003 f859 	bl	8003ef0 <HAL_RCC_ClockConfig>
 8000e3e:	b108      	cbz	r0, 8000e44 <SystemClock_Config+0xa8>
 8000e40:	b672      	cpsid	i
 8000e42:	e7fe      	b.n	8000e42 <SystemClock_Config+0xa6>
 8000e44:	b01d      	add	sp, #116	@ 0x74
 8000e46:	bd30      	pop	{r4, r5, pc}
 8000e48:	58024400 	.word	0x58024400
 8000e4c:	58024800 	.word	0x58024800

08000e50 <main>:
 8000e50:	4ba3      	ldr	r3, [pc, #652]	@ (80010e0 <main+0x290>)
 8000e52:	695a      	ldr	r2, [r3, #20]
 8000e54:	f412 3200 	ands.w	r2, r2, #131072	@ 0x20000
 8000e58:	b580      	push	{r7, lr}
 8000e5a:	b08c      	sub	sp, #48	@ 0x30
 8000e5c:	d111      	bne.n	8000e82 <main+0x32>
 8000e5e:	f3bf 8f4f 	dsb	sy
 8000e62:	f3bf 8f6f 	isb	sy
 8000e66:	f8c3 2250 	str.w	r2, [r3, #592]	@ 0x250
 8000e6a:	f3bf 8f4f 	dsb	sy
 8000e6e:	f3bf 8f6f 	isb	sy
 8000e72:	695a      	ldr	r2, [r3, #20]
 8000e74:	f442 3200 	orr.w	r2, r2, #131072	@ 0x20000
 8000e78:	615a      	str	r2, [r3, #20]
 8000e7a:	f3bf 8f4f 	dsb	sy
 8000e7e:	f3bf 8f6f 	isb	sy
 8000e82:	f001 f8c5 	bl	8002010 <HAL_Init>
 8000e86:	f44f 70fa 	mov.w	r0, #500	@ 0x1f4
 8000e8a:	f001 f901 	bl	8002090 <HAL_Delay>
 8000e8e:	2400      	movs	r4, #0
 8000e90:	f7ff ff84 	bl	8000d9c <SystemClock_Config>
 8000e94:	f44f 70fa 	mov.w	r0, #500	@ 0x1f4
 8000e98:	f001 f8fa 	bl	8002090 <HAL_Delay>
 8000e9c:	2210      	movs	r2, #16
 8000e9e:	2100      	movs	r1, #0
 8000ea0:	a808      	add	r0, sp, #32
 8000ea2:	f007 fa93 	bl	80083cc <memset>
 8000ea6:	4b8f      	ldr	r3, [pc, #572]	@ (80010e4 <main+0x294>)
 8000ea8:	a907      	add	r1, sp, #28
 8000eaa:	488f      	ldr	r0, [pc, #572]	@ (80010e8 <main+0x298>)
 8000eac:	f8d3 2140 	ldr.w	r2, [r3, #320]	@ 0x140
 8000eb0:	2701      	movs	r7, #1
 8000eb2:	2607      	movs	r6, #7
 8000eb4:	4d8d      	ldr	r5, [pc, #564]	@ (80010ec <main+0x29c>)
 8000eb6:	f042 0280 	orr.w	r2, r2, #128	@ 0x80
 8000eba:	f8c3 2140 	str.w	r2, [r3, #320]	@ 0x140
 8000ebe:	f8d3 2140 	ldr.w	r2, [r3, #320]	@ 0x140
 8000ec2:	f002 0280 	and.w	r2, r2, #128	@ 0x80
 8000ec6:	9202      	str	r2, [sp, #8]
 8000ec8:	9a02      	ldr	r2, [sp, #8]
 8000eca:	f8d3 2140 	ldr.w	r2, [r3, #320]	@ 0x140
 8000ece:	f042 0201 	orr.w	r2, r2, #1
 8000ed2:	f8c3 2140 	str.w	r2, [r3, #320]	@ 0x140
 8000ed6:	f8d3 2140 	ldr.w	r2, [r3, #320]	@ 0x140
 8000eda:	f002 0201 	and.w	r2, r2, #1
 8000ede:	9203      	str	r2, [sp, #12]
 8000ee0:	9a03      	ldr	r2, [sp, #12]
 8000ee2:	f8d3 2140 	ldr.w	r2, [r3, #320]	@ 0x140
 8000ee6:	f042 0202 	orr.w	r2, r2, #2
 8000eea:	f8c3 2140 	str.w	r2, [r3, #320]	@ 0x140
 8000eee:	f8d3 2140 	ldr.w	r2, [r3, #320]	@ 0x140
 8000ef2:	f002 0202 	and.w	r2, r2, #2
 8000ef6:	9204      	str	r2, [sp, #16]
 8000ef8:	9a04      	ldr	r2, [sp, #16]
 8000efa:	f8d3 2140 	ldr.w	r2, [r3, #320]	@ 0x140
 8000efe:	f042 0204 	orr.w	r2, r2, #4
 8000f02:	f8c3 2140 	str.w	r2, [r3, #320]	@ 0x140
 8000f06:	f8d3 2140 	ldr.w	r2, [r3, #320]	@ 0x140
 8000f0a:	f002 0204 	and.w	r2, r2, #4
 8000f0e:	9205      	str	r2, [sp, #20]
 8000f10:	9a05      	ldr	r2, [sp, #20]
 8000f12:	f8d3 2140 	ldr.w	r2, [r3, #320]	@ 0x140
 8000f16:	f042 0208 	orr.w	r2, r2, #8
 8000f1a:	f8c3 2140 	str.w	r2, [r3, #320]	@ 0x140
 8000f1e:	f8d3 3140 	ldr.w	r3, [r3, #320]	@ 0x140
 8000f22:	f003 0308 	and.w	r3, r3, #8
 8000f26:	9306      	str	r3, [sp, #24]
 8000f28:	9b06      	ldr	r3, [sp, #24]
 8000f2a:	f44f 5380 	mov.w	r3, #4096	@ 0x1000
 8000f2e:	9307      	str	r3, [sp, #28]
 8000f30:	f001 fad0 	bl	80024d4 <HAL_GPIO_Init>
 8000f34:	2200      	movs	r2, #0
 8000f36:	2103      	movs	r1, #3
 8000f38:	486d      	ldr	r0, [pc, #436]	@ (80010f0 <main+0x2a0>)
 8000f3a:	f001 fbb9 	bl	80026b0 <HAL_GPIO_WritePin>
 8000f3e:	2201      	movs	r2, #1
 8000f40:	f240 4104 	movw	r1, #1028	@ 0x404
 8000f44:	486a      	ldr	r0, [pc, #424]	@ (80010f0 <main+0x2a0>)
 8000f46:	f001 fbb3 	bl	80026b0 <HAL_GPIO_WritePin>
 8000f4a:	2201      	movs	r2, #1
 8000f4c:	2107      	movs	r1, #7
 8000f4e:	4869      	ldr	r0, [pc, #420]	@ (80010f4 <main+0x2a4>)
 8000f50:	f001 fbae 	bl	80026b0 <HAL_GPIO_WritePin>
 8000f54:	f240 4307 	movw	r3, #1031	@ 0x407
 8000f58:	a907      	add	r1, sp, #28
 8000f5a:	4865      	ldr	r0, [pc, #404]	@ (80010f0 <main+0x2a0>)
 8000f5c:	e9cd 3707 	strd	r3, r7, [sp, #28]
 8000f60:	e9cd 4409 	strd	r4, r4, [sp, #36]	@ 0x24
 8000f64:	f001 fab6 	bl	80024d4 <HAL_GPIO_Init>
 8000f68:	f44f 1304 	mov.w	r3, #2162688	@ 0x210000
 8000f6c:	a907      	add	r1, sp, #28
 8000f6e:	4861      	ldr	r0, [pc, #388]	@ (80010f4 <main+0x2a4>)
 8000f70:	9709      	str	r7, [sp, #36]	@ 0x24
 8000f72:	e9cd 6307 	strd	r6, r3, [sp, #28]
 8000f76:	f001 faad 	bl	80024d4 <HAL_GPIO_Init>
 8000f7a:	4622      	mov	r2, r4
 8000f7c:	4621      	mov	r1, r4
 8000f7e:	2006      	movs	r0, #6
 8000f80:	f001 f8b8 	bl	80020f4 <HAL_NVIC_SetPriority>
 8000f84:	2006      	movs	r0, #6
 8000f86:	f001 f8e7 	bl	8002158 <HAL_NVIC_EnableIRQ>
 8000f8a:	4622      	mov	r2, r4
 8000f8c:	4621      	mov	r1, r4
 8000f8e:	4630      	mov	r0, r6
 8000f90:	f001 f8b0 	bl	80020f4 <HAL_NVIC_SetPriority>
 8000f94:	4630      	mov	r0, r6
 8000f96:	f001 f8df 	bl	8002158 <HAL_NVIC_EnableIRQ>
 8000f9a:	4622      	mov	r2, r4
 8000f9c:	4621      	mov	r1, r4
 8000f9e:	2008      	movs	r0, #8
 8000fa0:	f001 f8a8 	bl	80020f4 <HAL_NVIC_SetPriority>
 8000fa4:	2008      	movs	r0, #8
 8000fa6:	f001 f8d7 	bl	8002158 <HAL_NVIC_EnableIRQ>
 8000faa:	4b53      	ldr	r3, [pc, #332]	@ (80010f8 <main+0x2a8>)
 8000fac:	4628      	mov	r0, r5
 8000fae:	65ec      	str	r4, [r5, #92]	@ 0x5c
 8000fb0:	e9c5 3400 	strd	r3, r4, [r5]
 8000fb4:	e9c5 4402 	strd	r4, r4, [r5, #8]
 8000fb8:	e9c5 4411 	strd	r4, r4, [r5, #68]	@ 0x44
 8000fbc:	e9c5 4413 	strd	r4, r4, [r5, #76]	@ 0x4c
 8000fc0:	e9c5 4415 	strd	r4, r4, [r5, #84]	@ 0x54
 8000fc4:	f001 f952 	bl	800226c <HAL_DMA2D_Init>
 8000fc8:	b108      	cbz	r0, 8000fce <main+0x17e>
 8000fca:	b672      	cpsid	i
 8000fcc:	e7fe      	b.n	8000fcc <main+0x17c>
 8000fce:	4639      	mov	r1, r7
 8000fd0:	4628      	mov	r0, r5
 8000fd2:	f001 fa1f 	bl	8002414 <HAL_DMA2D_ConfigLayer>
 8000fd6:	4603      	mov	r3, r0
 8000fd8:	b108      	cbz	r0, 8000fde <main+0x18e>
 8000fda:	b672      	cpsid	i
 8000fdc:	e7fe      	b.n	8000fdc <main+0x18c>
 8000fde:	4a47      	ldr	r2, [pc, #284]	@ (80010fc <main+0x2ac>)
 8000fe0:	4947      	ldr	r1, [pc, #284]	@ (8001100 <main+0x2b0>)
 8000fe2:	6090      	str	r0, [r2, #8]
 8000fe4:	6153      	str	r3, [r2, #20]
 8000fe6:	4c47      	ldr	r4, [pc, #284]	@ (8001104 <main+0x2b4>)
 8000fe8:	e9c2 1000 	strd	r1, r0, [r2]
 8000fec:	f44f 4080 	mov.w	r0, #16384	@ 0x4000
 8000ff0:	f44f 3100 	mov.w	r1, #131072	@ 0x20000
 8000ff4:	e9c2 0103 	strd	r0, r1, [r2, #12]
 8000ff8:	4843      	ldr	r0, [pc, #268]	@ (8001108 <main+0x2b8>)
 8000ffa:	f44f 0280 	mov.w	r2, #4194304	@ 0x400000
 8000ffe:	e9c0 4200 	strd	r4, r2, [r0]
 8001002:	f44f 22c0 	mov.w	r2, #393216	@ 0x60000
 8001006:	e9c0 2602 	strd	r2, r6, [r0, #8]
 800100a:	f04f 6280 	mov.w	r2, #67108864	@ 0x4000000
 800100e:	f04f 4680 	mov.w	r6, #1073741824	@ 0x40000000
 8001012:	e9c0 3304 	strd	r3, r3, [r0, #16]
 8001016:	e9c0 2306 	strd	r2, r3, [r0, #24]
 800101a:	e9c0 3308 	strd	r3, r3, [r0, #32]
 800101e:	e9c0 330a 	strd	r3, r3, [r0, #40]	@ 0x28
 8001022:	e9c0 630d 	strd	r6, r3, [r0, #52]	@ 0x34
 8001026:	e9c0 330f 	strd	r3, r3, [r0, #60]	@ 0x3c
 800102a:	e9c0 3311 	strd	r3, r3, [r0, #68]	@ 0x44
 800102e:	e9c0 3313 	strd	r3, r3, [r0, #76]	@ 0x4c
 8001032:	e9c0 3315 	strd	r3, r3, [r0, #84]	@ 0x54
 8001036:	f005 f9b5 	bl	80063a4 <HAL_SPI_Init>
 800103a:	4605      	mov	r5, r0
 800103c:	b108      	cbz	r0, 8001042 <main+0x1f2>
 800103e:	b672      	cpsid	i
 8001040:	e7fe      	b.n	8001040 <main+0x1f0>
 8001042:	4601      	mov	r1, r0
 8001044:	2214      	movs	r2, #20
 8001046:	a807      	add	r0, sp, #28
 8001048:	4c30      	ldr	r4, [pc, #192]	@ (800110c <main+0x2bc>)
 800104a:	f007 f9bf 	bl	80083cc <memset>
 800104e:	4b30      	ldr	r3, [pc, #192]	@ (8001110 <main+0x2c0>)
 8001050:	227f      	movs	r2, #127	@ 0x7f
 8001052:	4620      	mov	r0, r4
 8001054:	9501      	str	r5, [sp, #4]
 8001056:	6125      	str	r5, [r4, #16]
 8001058:	6165      	str	r5, [r4, #20]
 800105a:	e9c4 3500 	strd	r3, r5, [r4]
 800105e:	23ff      	movs	r3, #255	@ 0xff
 8001060:	e9c4 5606 	strd	r5, r6, [r4, #24]
 8001064:	e9c4 2302 	strd	r2, r3, [r4, #8]
 8001068:	f004 fa20 	bl	80054ac <HAL_RTC_Init>
 800106c:	4602      	mov	r2, r0
 800106e:	b108      	cbz	r0, 8001074 <main+0x224>
 8001070:	b672      	cpsid	i
 8001072:	e7fe      	b.n	8001072 <main+0x222>
 8001074:	f8ad 001c 	strh.w	r0, [sp, #28]
 8001078:	a907      	add	r1, sp, #28
 800107a:	f88d 001e 	strb.w	r0, [sp, #30]
 800107e:	e9cd 000a 	strd	r0, r0, [sp, #40]	@ 0x28
 8001082:	4620      	mov	r0, r4
 8001084:	f004 fa6b 	bl	800555e <HAL_RTC_SetTime>
 8001088:	4602      	mov	r2, r0
 800108a:	b108      	cbz	r0, 8001090 <main+0x240>
 800108c:	b672      	cpsid	i
 800108e:	e7fe      	b.n	800108e <main+0x23e>
 8001090:	4b20      	ldr	r3, [pc, #128]	@ (8001114 <main+0x2c4>)
 8001092:	a901      	add	r1, sp, #4
 8001094:	4620      	mov	r0, r4
 8001096:	9301      	str	r3, [sp, #4]
 8001098:	f004 fac3 	bl	8005622 <HAL_RTC_SetDate>
 800109c:	b108      	cbz	r0, 80010a2 <main+0x252>
 800109e:	b672      	cpsid	i
 80010a0:	e7fe      	b.n	80010a0 <main+0x250>
 80010a2:	f44f 70fa 	mov.w	r0, #500	@ 0x1f4
 80010a6:	f000 fff3 	bl	8002090 <HAL_Delay>
 80010aa:	481b      	ldr	r0, [pc, #108]	@ (8001118 <main+0x2c8>)
 80010ac:	4b1b      	ldr	r3, [pc, #108]	@ (800111c <main+0x2cc>)
 80010ae:	6003      	str	r3, [r0, #0]
 80010b0:	f001 fc98 	bl	80029e4 <HAL_JPEG_Init>
 80010b4:	b108      	cbz	r0, 80010ba <main+0x26a>
 80010b6:	b672      	cpsid	i
 80010b8:	e7fe      	b.n	80010b8 <main+0x268>
 80010ba:	f44f 70fa 	mov.w	r0, #500	@ 0x1f4
 80010be:	f000 ffe7 	bl	8002090 <HAL_Delay>
 80010c2:	f7ff fba1 	bl	8000808 <GC9A01_init>
 80010c6:	f44f 70fa 	mov.w	r0, #500	@ 0x1f4
 80010ca:	f000 ffe1 	bl	8002090 <HAL_Delay>
 80010ce:	f000 f93b 	bl	8001348 <smart_watch_init>
 80010d2:	f44f 70fa 	mov.w	r0, #500	@ 0x1f4
 80010d6:	f000 ffdb 	bl	8002090 <HAL_Delay>
 80010da:	f000 fb11 	bl	8001700 <smart_watch_process>
 80010de:	e7fe      	b.n	80010de <main+0x28e>
 80010e0:	e000ed00 	.word	0xe000ed00
 80010e4:	58024400 	.word	0x58024400
 80010e8:	58020000 	.word	0x58020000
 80010ec:	240000dc 	.word	0x240000dc
 80010f0:	58020400 	.word	0x58020400
 80010f4:	58020800 	.word	0x58020800
 80010f8:	52001000 	.word	0x52001000
 80010fc:	24000224 	.word	0x24000224
 8001100:	52007000 	.word	0x52007000
 8001104:	40013000 	.word	0x40013000
 8001108:	2400019c 	.word	0x2400019c
 800110c:	240000a0 	.word	0x240000a0
 8001110:	58004000 	.word	0x58004000
 8001114:	00010101 	.word	0x00010101
 8001118:	24000144 	.word	0x24000144
 800111c:	52003000 	.word	0x52003000

08001120 <Error_Handler>:
 8001120:	b672      	cpsid	i
 8001122:	e7fe      	b.n	8001122 <Error_Handler+0x2>

08001124 <parameters_reset>:
 8001124:	4b0b      	ldr	r3, [pc, #44]	@ (8001154 <parameters_reset+0x30>)
 8001126:	2200      	movs	r2, #0
 8001128:	490b      	ldr	r1, [pc, #44]	@ (8001158 <parameters_reset+0x34>)
 800112a:	801a      	strh	r2, [r3, #0]
 800112c:	6359      	str	r1, [r3, #52]	@ 0x34
 800112e:	2101      	movs	r1, #1
 8001130:	709a      	strb	r2, [r3, #2]
 8001132:	f883 1040 	strb.w	r1, [r3, #64]	@ 0x40
 8001136:	2100      	movs	r1, #0
 8001138:	829a      	strh	r2, [r3, #20]
 800113a:	63da      	str	r2, [r3, #60]	@ 0x3c
 800113c:	75da      	strb	r2, [r3, #23]
 800113e:	6299      	str	r1, [r3, #40]	@ 0x28
 8001140:	f883 2039 	strb.w	r2, [r3, #57]	@ 0x39
 8001144:	e9c3 2206 	strd	r2, r2, [r3, #24]
 8001148:	e9c3 2208 	strd	r2, r2, [r3, #32]
 800114c:	e9c3 220b 	strd	r2, r2, [r3, #44]	@ 0x2c
 8001150:	4770      	bx	lr
 8001152:	bf00      	nop
 8001154:	240af2a4 	.word	0x240af2a4
 8001158:	240642a3 	.word	0x240642a3

0800115c <file_handler>:
 800115c:	b530      	push	{r4, r5, lr}
 800115e:	4c24      	ldr	r4, [pc, #144]	@ (80011f0 <file_handler+0x94>)
 8001160:	b085      	sub	sp, #20
 8001162:	7823      	ldrb	r3, [r4, #0]
 8001164:	b9db      	cbnz	r3, 800119e <file_handler+0x42>
 8001166:	b9d8      	cbnz	r0, 80011a0 <file_handler+0x44>
 8001168:	4b22      	ldr	r3, [pc, #136]	@ (80011f4 <file_handler+0x98>)
 800116a:	6ada      	ldr	r2, [r3, #44]	@ 0x2c
 800116c:	685b      	ldr	r3, [r3, #4]
 800116e:	429a      	cmp	r2, r3
 8001170:	d313      	bcc.n	800119a <file_handler+0x3e>
 8001172:	4a21      	ldr	r2, [pc, #132]	@ (80011f8 <file_handler+0x9c>)
 8001174:	f44f 7134 	mov.w	r1, #720	@ 0x2d0
 8001178:	8a93      	ldrh	r3, [r2, #20]
 800117a:	3301      	adds	r3, #1
 800117c:	b29b      	uxth	r3, r3
 800117e:	fbb3 f0f1 	udiv	r0, r3, r1
 8001182:	fb01 3310 	mls	r3, r1, r0, r3
 8001186:	2132      	movs	r1, #50	@ 0x32
 8001188:	481c      	ldr	r0, [pc, #112]	@ (80011fc <file_handler+0xa0>)
 800118a:	8293      	strh	r3, [r2, #20]
 800118c:	f001 f8c5 	bl	800231a <HAL_DMA2D_PollForTransfer>
 8001190:	481b      	ldr	r0, [pc, #108]	@ (8001200 <file_handler+0xa4>)
 8001192:	f006 ff96 	bl	80080c2 <f_close>
 8001196:	2301      	movs	r3, #1
 8001198:	7023      	strb	r3, [r4, #0]
 800119a:	b005      	add	sp, #20
 800119c:	bd30      	pop	{r4, r5, pc}
 800119e:	b110      	cbz	r0, 80011a6 <file_handler+0x4a>
 80011a0:	4817      	ldr	r0, [pc, #92]	@ (8001200 <file_handler+0xa4>)
 80011a2:	f006 ff8e 	bl	80080c2 <f_close>
 80011a6:	2300      	movs	r3, #0
 80011a8:	4d13      	ldr	r5, [pc, #76]	@ (80011f8 <file_handler+0x9c>)
 80011aa:	4a16      	ldr	r2, [pc, #88]	@ (8001204 <file_handler+0xa8>)
 80011ac:	2104      	movs	r1, #4
 80011ae:	7023      	strb	r3, [r4, #0]
 80011b0:	a803      	add	r0, sp, #12
 80011b2:	8aab      	ldrh	r3, [r5, #20]
 80011b4:	f007 f8d6 	bl	8008364 <sniprintf>
 80011b8:	4a13      	ldr	r2, [pc, #76]	@ (8001208 <file_handler+0xac>)
 80011ba:	210e      	movs	r1, #14
 80011bc:	ab03      	add	r3, sp, #12
 80011be:	4813      	ldr	r0, [pc, #76]	@ (800120c <file_handler+0xb0>)
 80011c0:	f007 f8d0 	bl	8008364 <sniprintf>
 80011c4:	2201      	movs	r2, #1
 80011c6:	4911      	ldr	r1, [pc, #68]	@ (800120c <file_handler+0xb0>)
 80011c8:	480d      	ldr	r0, [pc, #52]	@ (8001200 <file_handler+0xa4>)
 80011ca:	f006 fd7b 	bl	8007cc4 <f_open>
 80011ce:	b970      	cbnz	r0, 80011ee <file_handler+0x92>
 80011d0:	2301      	movs	r3, #1
 80011d2:	4a0f      	ldr	r2, [pc, #60]	@ (8001210 <file_handler+0xb4>)
 80011d4:	490a      	ldr	r1, [pc, #40]	@ (8001200 <file_handler+0xa4>)
 80011d6:	75ab      	strb	r3, [r5, #22]
 80011d8:	4b0e      	ldr	r3, [pc, #56]	@ (8001214 <file_handler+0xb8>)
 80011da:	9001      	str	r0, [sp, #4]
 80011dc:	9300      	str	r3, [sp, #0]
 80011de:	f44f 4348 	mov.w	r3, #51200	@ 0xc800
 80011e2:	4804      	ldr	r0, [pc, #16]	@ (80011f4 <file_handler+0x98>)
 80011e4:	f7ff f9f6 	bl	80005d4 <AVI_ParserInit>
 80011e8:	2800      	cmp	r0, #0
 80011ea:	d0bd      	beq.n	8001168 <file_handler+0xc>
 80011ec:	e7fe      	b.n	80011ec <file_handler+0x90>
 80011ee:	e7fe      	b.n	80011ee <file_handler+0x92>
 80011f0:	24000000 	.word	0x24000000
 80011f4:	240bbae8 	.word	0x240bbae8
 80011f8:	240af2a4 	.word	0x240af2a4
 80011fc:	240000dc 	.word	0x240000dc
 8001200:	240bbb30 	.word	0x240bbb30
 8001204:	08008cfd 	.word	0x08008cfd
 8001208:	08008d02 	.word	0x08008d02
 800120c:	240bbf90 	.word	0x240bbf90
 8001210:	240af2e8 	.word	0x240af2e8
 8001214:	240af2e8 	.word	0x240af2e8

08001218 <DMA2D_CopyBuffer>:
 8001218:	e92d 41f3 	stmdb	sp!, {r0, r1, r4, r5, r6, r7, r8, lr}
 800121c:	4698      	mov	r8, r3
 800121e:	4b10      	ldr	r3, [pc, #64]	@ (8001260 <DMA2D_CopyBuffer+0x48>)
 8001220:	4617      	mov	r7, r2
 8001222:	4606      	mov	r6, r0
 8001224:	689c      	ldr	r4, [r3, #8]
 8001226:	f1c4 04f0 	rsb	r4, r4, #240	@ 0xf0
 800122a:	0865      	lsrs	r5, r4, #1
 800122c:	68dc      	ldr	r4, [r3, #12]
 800122e:	23f0      	movs	r3, #240	@ 0xf0
 8001230:	f1c4 04f0 	rsb	r4, r4, #240	@ 0xf0
 8001234:	0864      	lsrs	r4, r4, #1
 8001236:	fb03 4405 	mla	r4, r3, r5, r4
 800123a:	4d0a      	ldr	r5, [pc, #40]	@ (8001264 <DMA2D_CopyBuffer+0x4c>)
 800123c:	eb01 0484 	add.w	r4, r1, r4, lsl #2
 8001240:	4628      	mov	r0, r5
 8001242:	f04f 31ff 	mov.w	r1, #4294967295
 8001246:	f001 f868 	bl	800231a <HAL_DMA2D_PollForTransfer>
 800124a:	463b      	mov	r3, r7
 800124c:	4622      	mov	r2, r4
 800124e:	4631      	mov	r1, r6
 8001250:	4628      	mov	r0, r5
 8001252:	f8cd 8000 	str.w	r8, [sp]
 8001256:	f001 f846 	bl	80022e6 <HAL_DMA2D_Start>
 800125a:	b002      	add	sp, #8
 800125c:	e8bd 81f0 	ldmia.w	sp!, {r4, r5, r6, r7, r8, pc}
 8001260:	240000c8 	.word	0x240000c8
 8001264:	240000dc 	.word	0x240000dc

08001268 <clear_btn_int>:
 8001268:	b508      	push	{r3, lr}
 800126a:	2006      	movs	r0, #6
 800126c:	f000 ffa8 	bl	80021c0 <HAL_NVIC_ClearPendingIRQ>
 8001270:	2007      	movs	r0, #7
 8001272:	f000 ffa5 	bl	80021c0 <HAL_NVIC_ClearPendingIRQ>
 8001276:	2008      	movs	r0, #8
 8001278:	e8bd 4008 	ldmia.w	sp!, {r3, lr}
 800127c:	f000 bfa0 	b.w	80021c0 <HAL_NVIC_ClearPendingIRQ>

08001280 <DMA2D_Init.constprop.0>:
 8001280:	b5f8      	push	{r3, r4, r5, r6, r7, lr}
 8001282:	460d      	mov	r5, r1
 8001284:	4606      	mov	r6, r0
 8001286:	4820      	ldr	r0, [pc, #128]	@ (8001308 <DMA2D_Init.constprop.0+0x88>)
 8001288:	f000 fc4a 	bl	8001b20 <HAL_DMA2D_MspInit>
 800128c:	2d01      	cmp	r5, #1
 800128e:	d106      	bne.n	800129e <DMA2D_Init.constprop.0+0x1e>
 8001290:	f016 030f 	ands.w	r3, r6, #15
 8001294:	d001      	beq.n	800129a <DMA2D_Init.constprop.0+0x1a>
 8001296:	f1c3 0310 	rsb	r3, r3, #16
 800129a:	2502      	movs	r5, #2
 800129c:	e005      	b.n	80012aa <DMA2D_Init.constprop.0+0x2a>
 800129e:	bb2d      	cbnz	r5, 80012ec <DMA2D_Init.constprop.0+0x6c>
 80012a0:	f016 0307 	ands.w	r3, r6, #7
 80012a4:	d02b      	beq.n	80012fe <DMA2D_Init.constprop.0+0x7e>
 80012a6:	f1c3 0308 	rsb	r3, r3, #8
 80012aa:	4c17      	ldr	r4, [pc, #92]	@ (8001308 <DMA2D_Init.constprop.0+0x88>)
 80012ac:	2701      	movs	r7, #1
 80012ae:	f44f 3280 	mov.w	r2, #65536	@ 0x10000
 80012b2:	21ff      	movs	r1, #255	@ 0xff
 80012b4:	6463      	str	r3, [r4, #68]	@ 0x44
 80012b6:	f1c6 06f0 	rsb	r6, r6, #240	@ 0xf0
 80012ba:	4b14      	ldr	r3, [pc, #80]	@ (800130c <DMA2D_Init.constprop.0+0x8c>)
 80012bc:	4620      	mov	r0, r4
 80012be:	6521      	str	r1, [r4, #80]	@ 0x50
 80012c0:	210b      	movs	r1, #11
 80012c2:	60e6      	str	r6, [r4, #12]
 80012c4:	64a1      	str	r1, [r4, #72]	@ 0x48
 80012c6:	64e7      	str	r7, [r4, #76]	@ 0x4c
 80012c8:	65e5      	str	r5, [r4, #92]	@ 0x5c
 80012ca:	6023      	str	r3, [r4, #0]
 80012cc:	e9c4 2701 	strd	r2, r7, [r4, #4]
 80012d0:	2200      	movs	r2, #0
 80012d2:	e9c4 2204 	strd	r2, r2, [r4, #16]
 80012d6:	6222      	str	r2, [r4, #32]
 80012d8:	e9c4 2215 	strd	r2, r2, [r4, #84]	@ 0x54
 80012dc:	f000 ffc6 	bl	800226c <HAL_DMA2D_Init>
 80012e0:	4639      	mov	r1, r7
 80012e2:	4620      	mov	r0, r4
 80012e4:	e8bd 40f8 	ldmia.w	sp!, {r3, r4, r5, r6, r7, lr}
 80012e8:	f001 b894 	b.w	8002414 <HAL_DMA2D_ConfigLayer>
 80012ec:	2d02      	cmp	r5, #2
 80012ee:	d108      	bne.n	8001302 <DMA2D_Init.constprop.0+0x82>
 80012f0:	f016 030f 	ands.w	r3, r6, #15
 80012f4:	d001      	beq.n	80012fa <DMA2D_Init.constprop.0+0x7a>
 80012f6:	f1c3 0310 	rsb	r3, r3, #16
 80012fa:	2501      	movs	r5, #1
 80012fc:	e7d5      	b.n	80012aa <DMA2D_Init.constprop.0+0x2a>
 80012fe:	462b      	mov	r3, r5
 8001300:	e7d3      	b.n	80012aa <DMA2D_Init.constprop.0+0x2a>
 8001302:	2300      	movs	r3, #0
 8001304:	e7f9      	b.n	80012fa <DMA2D_Init.constprop.0+0x7a>
 8001306:	bf00      	nop
 8001308:	240000dc 	.word	0x240000dc
 800130c:	52001000 	.word	0x52001000

08001310 <depth24To16.constprop.0>:
 8001310:	2200      	movs	r2, #0
 8001312:	b5f0      	push	{r4, r5, r6, r7, lr}
 8001314:	4615      	mov	r5, r2
 8001316:	4f0b      	ldr	r7, [pc, #44]	@ (8001344 <depth24To16.constprop.0+0x34>)
 8001318:	428d      	cmp	r5, r1
 800131a:	db00      	blt.n	800131e <depth24To16.constprop.0+0xe>
 800131c:	bdf0      	pop	{r4, r5, r6, r7, pc}
 800131e:	6806      	ldr	r6, [r0, #0]
 8001320:	18b4      	adds	r4, r6, r2
 8001322:	78a3      	ldrb	r3, [r4, #2]
 8001324:	7864      	ldrb	r4, [r4, #1]
 8001326:	ea07 2303 	and.w	r3, r7, r3, lsl #8
 800132a:	00e4      	lsls	r4, r4, #3
 800132c:	f404 64fc 	and.w	r4, r4, #2016	@ 0x7e0
 8001330:	4323      	orrs	r3, r4
 8001332:	5cb4      	ldrb	r4, [r6, r2]
 8001334:	3203      	adds	r2, #3
 8001336:	ea43 03d4 	orr.w	r3, r3, r4, lsr #3
 800133a:	ba5b      	rev16	r3, r3
 800133c:	f826 3015 	strh.w	r3, [r6, r5, lsl #1]
 8001340:	3501      	adds	r5, #1
 8001342:	e7e9      	b.n	8001318 <depth24To16.constprop.0+0x8>
 8001344:	fffff800 	.word	0xfffff800

08001348 <smart_watch_init>:
 8001348:	b510      	push	{r4, lr}
 800134a:	f7ff feeb 	bl	8001124 <parameters_reset>
 800134e:	4810      	ldr	r0, [pc, #64]	@ (8001390 <smart_watch_init+0x48>)
 8001350:	f44f 3248 	mov.w	r2, #204800	@ 0x32000
 8001354:	2100      	movs	r1, #0
 8001356:	f007 f839 	bl	80083cc <memset>
 800135a:	f44f 3248 	mov.w	r2, #204800	@ 0x32000
 800135e:	21ff      	movs	r1, #255	@ 0xff
 8001360:	480c      	ldr	r0, [pc, #48]	@ (8001394 <smart_watch_init+0x4c>)
 8001362:	f007 f833 	bl	80083cc <memset>
 8001366:	4b0c      	ldr	r3, [pc, #48]	@ (8001398 <smart_watch_init+0x50>)
 8001368:	2200      	movs	r2, #0
 800136a:	490c      	ldr	r1, [pc, #48]	@ (800139c <smart_watch_init+0x54>)
 800136c:	480c      	ldr	r0, [pc, #48]	@ (80013a0 <smart_watch_init+0x58>)
 800136e:	f883 2038 	strb.w	r2, [r3, #56]	@ 0x38
 8001372:	f006 fff3 	bl	800835c <FATFS_LinkDriver>
 8001376:	4604      	mov	r4, r0
 8001378:	b940      	cbnz	r0, 800138c <smart_watch_init+0x44>
 800137a:	f005 fd9b 	bl	8006eb4 <BSP_SD_Init>
 800137e:	4622      	mov	r2, r4
 8001380:	4906      	ldr	r1, [pc, #24]	@ (800139c <smart_watch_init+0x54>)
 8001382:	4808      	ldr	r0, [pc, #32]	@ (80013a4 <smart_watch_init+0x5c>)
 8001384:	f006 fc74 	bl	8007c70 <f_mount>
 8001388:	b108      	cbz	r0, 800138e <smart_watch_init+0x46>
 800138a:	e7fe      	b.n	800138a <smart_watch_init+0x42>
 800138c:	e7fe      	b.n	800138c <smart_watch_init+0x44>
 800138e:	bd10      	pop	{r4, pc}
 8001390:	240322a3 	.word	0x240322a3
 8001394:	240002a3 	.word	0x240002a3
 8001398:	240af2a4 	.word	0x240af2a4
 800139c:	240bc080 	.word	0x240bc080
 80013a0:	08008f78 	.word	0x08008f78
 80013a4:	240bbd60 	.word	0x240bbd60

080013a8 <lcd_draw>:
 80013a8:	b573      	push	{r0, r1, r4, r5, r6, lr}
 80013aa:	461e      	mov	r6, r3
 80013ac:	f89d 301c 	ldrb.w	r3, [sp, #28]
 80013b0:	4614      	mov	r4, r2
 80013b2:	9d06      	ldr	r5, [sp, #24]
 80013b4:	2100      	movs	r1, #0
 80013b6:	bb3b      	cbnz	r3, 8001408 <lcd_draw+0x60>
 80013b8:	f505 4561 	add.w	r5, r5, #57600	@ 0xe100
 80013bc:	2278      	movs	r2, #120	@ 0x78
 80013be:	23ef      	movs	r3, #239	@ 0xef
 80013c0:	f8ad 2002 	strh.w	r2, [sp, #2]
 80013c4:	22ef      	movs	r2, #239	@ 0xef
 80013c6:	f8ad 3006 	strh.w	r3, [sp, #6]
 80013ca:	ab02      	add	r3, sp, #8
 80013cc:	f8ad 2004 	strh.w	r2, [sp, #4]
 80013d0:	f8ad 1000 	strh.w	r1, [sp]
 80013d4:	e913 0003 	ldmdb	r3, {r0, r1}
 80013d8:	f7ff fc60 	bl	8000c9c <GC9A01_set_frame>
 80013dc:	202c      	movs	r0, #44	@ 0x2c
 80013de:	f7ff f9d3 	bl	8000788 <GC9A01_write_command>
 80013e2:	2001      	movs	r0, #1
 80013e4:	f7ff f9a8 	bl	8000738 <GC9A01_set_data_command>
 80013e8:	2000      	movs	r0, #0
 80013ea:	f7ff f9af 	bl	800074c <GC9A01_set_chip_select>
 80013ee:	fb06 f104 	mul.w	r1, r6, r4
 80013f2:	4628      	mov	r0, r5
 80013f4:	b289      	uxth	r1, r1
 80013f6:	f7ff f9b3 	bl	8000760 <GC9A01_spi_tx>
 80013fa:	4604      	mov	r4, r0
 80013fc:	2001      	movs	r0, #1
 80013fe:	f7ff f9a5 	bl	800074c <GC9A01_set_chip_select>
 8001402:	4620      	mov	r0, r4
 8001404:	b002      	add	sp, #8
 8001406:	bd70      	pop	{r4, r5, r6, pc}
 8001408:	460a      	mov	r2, r1
 800140a:	2377      	movs	r3, #119	@ 0x77
 800140c:	e7d8      	b.n	80013c0 <lcd_draw+0x18>
	...

08001410 <show_frame.constprop.0>:
 8001410:	e92d 43f0 	stmdb	sp!, {r4, r5, r6, r7, r8, r9, lr}
 8001414:	2602      	movs	r6, #2
 8001416:	b085      	sub	sp, #20
 8001418:	4d37      	ldr	r5, [pc, #220]	@ (80014f8 <show_frame.constprop.0+0xe8>)
 800141a:	4c38      	ldr	r4, [pc, #224]	@ (80014fc <show_frame.constprop.0+0xec>)
 800141c:	2200      	movs	r2, #0
 800141e:	4938      	ldr	r1, [pc, #224]	@ (8001500 <show_frame.constprop.0+0xf0>)
 8001420:	4835      	ldr	r0, [pc, #212]	@ (80014f8 <show_frame.constprop.0+0xe8>)
 8001422:	f7ff f8fd 	bl	8000620 <AVI_GetFrame>
 8001426:	b2c0      	uxtb	r0, r0
 8001428:	2801      	cmp	r0, #1
 800142a:	75e0      	strb	r0, [r4, #23]
 800142c:	d15c      	bne.n	80014e8 <show_frame.constprop.0+0xd8>
 800142e:	6aeb      	ldr	r3, [r5, #44]	@ 0x2c
 8001430:	6b2a      	ldr	r2, [r5, #48]	@ 0x30
 8001432:	3301      	adds	r3, #1
 8001434:	4933      	ldr	r1, [pc, #204]	@ (8001504 <show_frame.constprop.0+0xf4>)
 8001436:	4834      	ldr	r0, [pc, #208]	@ (8001508 <show_frame.constprop.0+0xf8>)
 8001438:	62eb      	str	r3, [r5, #44]	@ 0x2c
 800143a:	6a23      	ldr	r3, [r4, #32]
 800143c:	3301      	adds	r3, #1
 800143e:	6223      	str	r3, [r4, #32]
 8001440:	6b63      	ldr	r3, [r4, #52]	@ 0x34
 8001442:	f7ff fc55 	bl	8000cf0 <JPEG_Decode_DMA>
 8001446:	4a31      	ldr	r2, [pc, #196]	@ (800150c <show_frame.constprop.0+0xfc>)
 8001448:	6813      	ldr	r3, [r2, #0]
 800144a:	2b00      	cmp	r3, #0
 800144c:	d0fc      	beq.n	8001448 <show_frame.constprop.0+0x38>
 800144e:	7da3      	ldrb	r3, [r4, #22]
 8001450:	4f2f      	ldr	r7, [pc, #188]	@ (8001510 <show_frame.constprop.0+0x100>)
 8001452:	2b01      	cmp	r3, #1
 8001454:	d11b      	bne.n	800148e <show_frame.constprop.0+0x7e>
 8001456:	2300      	movs	r3, #0
 8001458:	4639      	mov	r1, r7
 800145a:	482b      	ldr	r0, [pc, #172]	@ (8001508 <show_frame.constprop.0+0xf8>)
 800145c:	75a3      	strb	r3, [r4, #22]
 800145e:	f001 fbf7 	bl	8002c50 <HAL_JPEG_GetInfo>
 8001462:	6879      	ldr	r1, [r7, #4]
 8001464:	89b8      	ldrh	r0, [r7, #12]
 8001466:	f7ff ff0b 	bl	8001280 <DMA2D_Init.constprop.0>
 800146a:	68fa      	ldr	r2, [r7, #12]
 800146c:	68bb      	ldr	r3, [r7, #8]
 800146e:	8322      	strh	r2, [r4, #24]
 8001470:	b292      	uxth	r2, r2
 8001472:	8363      	strh	r3, [r4, #26]
 8001474:	b29b      	uxth	r3, r3
 8001476:	f1c2 02f0 	rsb	r2, r2, #240	@ 0xf0
 800147a:	f1c3 03f0 	rsb	r3, r3, #240	@ 0xf0
 800147e:	eb02 72d2 	add.w	r2, r2, r2, lsr #31
 8001482:	eb03 73d3 	add.w	r3, r3, r3, lsr #31
 8001486:	1052      	asrs	r2, r2, #1
 8001488:	105b      	asrs	r3, r3, #1
 800148a:	83a2      	strh	r2, [r4, #28]
 800148c:	83e3      	strh	r3, [r4, #30]
 800148e:	f8df 8090 	ldr.w	r8, [pc, #144]	@ 8001520 <show_frame.constprop.0+0x110>
 8001492:	89ba      	ldrh	r2, [r7, #12]
 8001494:	893b      	ldrh	r3, [r7, #8]
 8001496:	f8d8 1000 	ldr.w	r1, [r8]
 800149a:	6b60      	ldr	r0, [r4, #52]	@ 0x34
 800149c:	f7ff febc 	bl	8001218 <DMA2D_CopyBuffer>
 80014a0:	8b63      	ldrh	r3, [r4, #26]
 80014a2:	8b21      	ldrh	r1, [r4, #24]
 80014a4:	a803      	add	r0, sp, #12
 80014a6:	f8d8 9000 	ldr.w	r9, [r8]
 80014aa:	fb11 f103 	smulbb	r1, r1, r3
 80014ae:	4f19      	ldr	r7, [pc, #100]	@ (8001514 <show_frame.constprop.0+0x104>)
 80014b0:	f8cd 900c 	str.w	r9, [sp, #12]
 80014b4:	b289      	uxth	r1, r1
 80014b6:	f7ff ff2b 	bl	8001310 <depth24To16.constprop.0>
 80014ba:	783b      	ldrb	r3, [r7, #0]
 80014bc:	e9cd 9300 	strd	r9, r3, [sp]
 80014c0:	8b63      	ldrh	r3, [r4, #26]
 80014c2:	8b22      	ldrh	r2, [r4, #24]
 80014c4:	8be1      	ldrh	r1, [r4, #30]
 80014c6:	8ba0      	ldrh	r0, [r4, #28]
 80014c8:	f7ff ff6e 	bl	80013a8 <lcd_draw>
 80014cc:	783b      	ldrb	r3, [r7, #0]
 80014ce:	f8d8 1000 	ldr.w	r1, [r8]
 80014d2:	fab3 f383 	clz	r3, r3
 80014d6:	4a10      	ldr	r2, [pc, #64]	@ (8001518 <show_frame.constprop.0+0x108>)
 80014d8:	095b      	lsrs	r3, r3, #5
 80014da:	703b      	strb	r3, [r7, #0]
 80014dc:	4b0f      	ldr	r3, [pc, #60]	@ (800151c <show_frame.constprop.0+0x10c>)
 80014de:	4291      	cmp	r1, r2
 80014e0:	bf18      	it	ne
 80014e2:	4613      	movne	r3, r2
 80014e4:	f8c8 3000 	str.w	r3, [r8]
 80014e8:	2e01      	cmp	r6, #1
 80014ea:	d102      	bne.n	80014f2 <show_frame.constprop.0+0xe2>
 80014ec:	b005      	add	sp, #20
 80014ee:	e8bd 83f0 	ldmia.w	sp!, {r4, r5, r6, r7, r8, r9, pc}
 80014f2:	2601      	movs	r6, #1
 80014f4:	e792      	b.n	800141c <show_frame.constprop.0+0xc>
 80014f6:	bf00      	nop
 80014f8:	240bbae8 	.word	0x240bbae8
 80014fc:	240af2a4 	.word	0x240af2a4
 8001500:	240bbb30 	.word	0x240bbb30
 8001504:	240af2e8 	.word	0x240af2e8
 8001508:	24000144 	.word	0x24000144
 800150c:	2400009c 	.word	0x2400009c
 8001510:	240000c8 	.word	0x240000c8
 8001514:	240002a2 	.word	0x240002a2
 8001518:	240322a3 	.word	0x240322a3
 800151c:	240002a3 	.word	0x240002a3
 8001520:	24000004 	.word	0x24000004

08001524 <lcd_draw_opt>:
 8001524:	e92d 4ff0 	stmdb	sp!, {r4, r5, r6, r7, r8, r9, sl, fp, lr}
 8001528:	b0d7      	sub	sp, #348	@ 0x15c
 800152a:	4d71      	ldr	r5, [pc, #452]	@ (80016f0 <lcd_draw_opt+0x1cc>)
 800152c:	4607      	mov	r7, r0
 800152e:	4688      	mov	r8, r1
 8001530:	4691      	mov	r9, r2
 8001532:	2100      	movs	r1, #0
 8001534:	f44f 7290 	mov.w	r2, #288	@ 0x120
 8001538:	a80e      	add	r0, sp, #56	@ 0x38
 800153a:	469a      	mov	sl, r3
 800153c:	f006 ff46 	bl	80083cc <memset>
 8001540:	882c      	ldrh	r4, [r5, #0]
 8001542:	bb14      	cbnz	r4, 800158a <lcd_draw_opt+0x66>
 8001544:	9b60      	ldr	r3, [sp, #384]	@ 0x180
 8001546:	464a      	mov	r2, r9
 8001548:	4641      	mov	r1, r8
 800154a:	4638      	mov	r0, r7
 800154c:	9300      	str	r3, [sp, #0]
 800154e:	4653      	mov	r3, sl
 8001550:	9401      	str	r4, [sp, #4]
 8001552:	f7ff ff29 	bl	80013a8 <lcd_draw>
 8001556:	2301      	movs	r3, #1
 8001558:	4606      	mov	r6, r0
 800155a:	464a      	mov	r2, r9
 800155c:	9301      	str	r3, [sp, #4]
 800155e:	4641      	mov	r1, r8
 8001560:	9b60      	ldr	r3, [sp, #384]	@ 0x180
 8001562:	4638      	mov	r0, r7
 8001564:	9300      	str	r3, [sp, #0]
 8001566:	4653      	mov	r3, sl
 8001568:	f7ff ff1e 	bl	80013a8 <lcd_draw>
 800156c:	ea46 0300 	orr.w	r3, r6, r0
 8001570:	2228      	movs	r2, #40	@ 0x28
 8001572:	9303      	str	r3, [sp, #12]
 8001574:	882b      	ldrh	r3, [r5, #0]
 8001576:	3301      	adds	r3, #1
 8001578:	fbb3 f1f2 	udiv	r1, r3, r2
 800157c:	fb02 3311 	mls	r3, r2, r1, r3
 8001580:	802b      	strh	r3, [r5, #0]
 8001582:	9803      	ldr	r0, [sp, #12]
 8001584:	b057      	add	sp, #348	@ 0x15c
 8001586:	e8bd 8ff0 	ldmia.w	sp!, {r4, r5, r6, r7, r8, r9, sl, fp, pc}
 800158a:	3401      	adds	r4, #1
 800158c:	2328      	movs	r3, #40	@ 0x28
 800158e:	fbb4 f2f3 	udiv	r2, r4, r3
 8001592:	fb03 4412 	mls	r4, r3, r2, r4
 8001596:	802c      	strh	r4, [r5, #0]
 8001598:	2400      	movs	r4, #0
 800159a:	4627      	mov	r7, r4
 800159c:	9403      	str	r4, [sp, #12]
 800159e:	23f0      	movs	r3, #240	@ 0xf0
 80015a0:	2500      	movs	r5, #0
 80015a2:	4363      	muls	r3, r4
 80015a4:	9307      	str	r3, [sp, #28]
 80015a6:	b2a3      	uxth	r3, r4
 80015a8:	f103 080b 	add.w	r8, r3, #11
 80015ac:	9306      	str	r3, [sp, #24]
 80015ae:	f1c4 0377 	rsb	r3, r4, #119	@ 0x77
 80015b2:	fa1f f888 	uxth.w	r8, r8
 80015b6:	9309      	str	r3, [sp, #36]	@ 0x24
 80015b8:	b2ab      	uxth	r3, r5
 80015ba:	f04f 0c00 	mov.w	ip, #0
 80015be:	f243 7a50 	movw	sl, #14160	@ 0x3750
 80015c2:	f103 000b 	add.w	r0, r3, #11
 80015c6:	9305      	str	r3, [sp, #20]
 80015c8:	9b07      	ldr	r3, [sp, #28]
 80015ca:	46e6      	mov	lr, ip
 80015cc:	b280      	uxth	r0, r0
 80015ce:	18ee      	adds	r6, r5, r3
 80015d0:	f1c5 0377 	rsb	r3, r5, #119	@ 0x77
 80015d4:	9308      	str	r3, [sp, #32]
 80015d6:	f1c5 036c 	rsb	r3, r5, #108	@ 0x6c
 80015da:	930a      	str	r3, [sp, #40]	@ 0x28
 80015dc:	ab0e      	add	r3, sp, #56	@ 0x38
 80015de:	ea4f 0946 	mov.w	r9, r6, lsl #1
 80015e2:	f04f 0b00 	mov.w	fp, #0
 80015e6:	eb03 034c 	add.w	r3, r3, ip, lsl #1
 80015ea:	9304      	str	r3, [sp, #16]
 80015ec:	f1c4 036c 	rsb	r3, r4, #108	@ 0x6c
 80015f0:	930b      	str	r3, [sp, #44]	@ 0x2c
 80015f2:	2d76      	cmp	r5, #118	@ 0x76
 80015f4:	9b60      	ldr	r3, [sp, #384]	@ 0x180
 80015f6:	9a04      	ldr	r2, [sp, #16]
 80015f8:	f833 3009 	ldrh.w	r3, [r3, r9]
 80015fc:	bf8c      	ite	hi
 80015fe:	f1a5 0177 	subhi.w	r1, r5, #119	@ 0x77
 8001602:	9908      	ldrls	r1, [sp, #32]
 8001604:	2c76      	cmp	r4, #118	@ 0x76
 8001606:	f822 3b02 	strh.w	r3, [r2], #2
 800160a:	9204      	str	r2, [sp, #16]
 800160c:	bf8c      	ite	hi
 800160e:	f1a4 0277 	subhi.w	r2, r4, #119	@ 0x77
 8001612:	9a09      	ldrls	r2, [sp, #36]	@ 0x24
 8001614:	4349      	muls	r1, r1
 8001616:	4352      	muls	r2, r2
 8001618:	188b      	adds	r3, r1, r2
 800161a:	4553      	cmp	r3, sl
 800161c:	dd15      	ble.n	800164a <lcd_draw_opt+0x126>
 800161e:	f1b8 0f76 	cmp.w	r8, #118	@ 0x76
 8001622:	bf8c      	ite	hi
 8001624:	f1a4 036c 	subhi.w	r3, r4, #108	@ 0x6c
 8001628:	9b0b      	ldrls	r3, [sp, #44]	@ 0x2c
 800162a:	435b      	muls	r3, r3
 800162c:	4419      	add	r1, r3
 800162e:	4551      	cmp	r1, sl
 8001630:	dd0b      	ble.n	800164a <lcd_draw_opt+0x126>
 8001632:	2876      	cmp	r0, #118	@ 0x76
 8001634:	bf8c      	ite	hi
 8001636:	f1a5 016c 	subhi.w	r1, r5, #108	@ 0x6c
 800163a:	990a      	ldrls	r1, [sp, #40]	@ 0x28
 800163c:	4349      	muls	r1, r1
 800163e:	440a      	add	r2, r1
 8001640:	4552      	cmp	r2, sl
 8001642:	dd02      	ble.n	800164a <lcd_draw_opt+0x126>
 8001644:	440b      	add	r3, r1
 8001646:	4553      	cmp	r3, sl
 8001648:	dc49      	bgt.n	80016de <lcd_draw_opt+0x1ba>
 800164a:	2d18      	cmp	r5, #24
 800164c:	d919      	bls.n	8001682 <lcd_draw_opt+0x15e>
 800164e:	2c18      	cmp	r4, #24
 8001650:	d917      	bls.n	8001682 <lcd_draw_opt+0x15e>
 8001652:	28d7      	cmp	r0, #215	@ 0xd7
 8001654:	d815      	bhi.n	8001682 <lcd_draw_opt+0x15e>
 8001656:	f1b8 0fd7 	cmp.w	r8, #215	@ 0xd7
 800165a:	d812      	bhi.n	8001682 <lcd_draw_opt+0x15e>
 800165c:	b977      	cbnz	r7, 800167c <lcd_draw_opt+0x158>
 800165e:	4b25      	ldr	r3, [pc, #148]	@ (80016f4 <lcd_draw_opt+0x1d0>)
 8001660:	f833 2009 	ldrh.w	r2, [r3, r9]
 8001664:	4b24      	ldr	r3, [pc, #144]	@ (80016f8 <lcd_draw_opt+0x1d4>)
 8001666:	f833 3009 	ldrh.w	r3, [r3, r9]
 800166a:	429a      	cmp	r2, r3
 800166c:	d106      	bne.n	800167c <lcd_draw_opt+0x158>
 800166e:	f10e 0e01 	add.w	lr, lr, #1
 8001672:	fa5f fe8e 	uxtb.w	lr, lr
 8001676:	f1be 0f1a 	cmp.w	lr, #26
 800167a:	d830      	bhi.n	80016de <lcd_draw_opt+0x1ba>
 800167c:	3701      	adds	r7, #1
 800167e:	f007 0703 	and.w	r7, r7, #3
 8001682:	f10b 0b01 	add.w	fp, fp, #1
 8001686:	f109 0902 	add.w	r9, r9, #2
 800168a:	f1bb 0f0c 	cmp.w	fp, #12
 800168e:	d1b0      	bne.n	80015f2 <lcd_draw_opt+0xce>
 8001690:	f10c 0c0c 	add.w	ip, ip, #12
 8001694:	36f0      	adds	r6, #240	@ 0xf0
 8001696:	f1bc 0f90 	cmp.w	ip, #144	@ 0x90
 800169a:	d19f      	bne.n	80015dc <lcd_draw_opt+0xb8>
 800169c:	9a05      	ldr	r2, [sp, #20]
 800169e:	ab0c      	add	r3, sp, #48	@ 0x30
 80016a0:	f8ad 0034 	strh.w	r0, [sp, #52]	@ 0x34
 80016a4:	f8ad 2030 	strh.w	r2, [sp, #48]	@ 0x30
 80016a8:	9a06      	ldr	r2, [sp, #24]
 80016aa:	f8ad 8036 	strh.w	r8, [sp, #54]	@ 0x36
 80016ae:	f8ad 2032 	strh.w	r2, [sp, #50]	@ 0x32
 80016b2:	e893 0003 	ldmia.w	r3, {r0, r1}
 80016b6:	f7ff faf1 	bl	8000c9c <GC9A01_set_frame>
 80016ba:	202c      	movs	r0, #44	@ 0x2c
 80016bc:	f7ff f864 	bl	8000788 <GC9A01_write_command>
 80016c0:	2001      	movs	r0, #1
 80016c2:	f7ff f839 	bl	8000738 <GC9A01_set_data_command>
 80016c6:	2000      	movs	r0, #0
 80016c8:	f7ff f840 	bl	800074c <GC9A01_set_chip_select>
 80016cc:	f44f 7190 	mov.w	r1, #288	@ 0x120
 80016d0:	a80e      	add	r0, sp, #56	@ 0x38
 80016d2:	f7ff f845 	bl	8000760 <GC9A01_spi_tx>
 80016d6:	9003      	str	r0, [sp, #12]
 80016d8:	2001      	movs	r0, #1
 80016da:	f7ff f837 	bl	800074c <GC9A01_set_chip_select>
 80016de:	350c      	adds	r5, #12
 80016e0:	2df0      	cmp	r5, #240	@ 0xf0
 80016e2:	f47f af69 	bne.w	80015b8 <lcd_draw_opt+0x94>
 80016e6:	340c      	adds	r4, #12
 80016e8:	2cf0      	cmp	r4, #240	@ 0xf0
 80016ea:	f47f af58 	bne.w	800159e <lcd_draw_opt+0x7a>
 80016ee:	e748      	b.n	8001582 <lcd_draw_opt+0x5e>
 80016f0:	240002a0 	.word	0x240002a0
 80016f4:	240322a3 	.word	0x240322a3
 80016f8:	240002a3 	.word	0x240002a3
 80016fc:	00000000 	.word	0x00000000

08001700 <smart_watch_process>:
 8001700:	4c8b      	ldr	r4, [pc, #556]	@ (8001930 <smart_watch_process+0x230>)
 8001702:	4d8c      	ldr	r5, [pc, #560]	@ (8001934 <smart_watch_process+0x234>)
 8001704:	b58f      	push	{r0, r1, r2, r3, r7, lr}
 8001706:	2000      	movs	r0, #0
 8001708:	f7ff fd28 	bl	800115c <file_handler>
 800170c:	f894 3038 	ldrb.w	r3, [r4, #56]	@ 0x38
 8001710:	2b01      	cmp	r3, #1
 8001712:	f000 80f9 	beq.w	8001908 <smart_watch_process+0x208>
 8001716:	f894 3039 	ldrb.w	r3, [r4, #57]	@ 0x39
 800171a:	2b02      	cmp	r3, #2
 800171c:	f000 809c 	beq.w	8001858 <smart_watch_process+0x158>
 8001720:	2b03      	cmp	r3, #3
 8001722:	f000 80eb 	beq.w	80018fc <smart_watch_process+0x1fc>
 8001726:	2b01      	cmp	r3, #1
 8001728:	d00a      	beq.n	8001740 <smart_watch_process+0x40>
 800172a:	4e83      	ldr	r6, [pc, #524]	@ (8001938 <smart_watch_process+0x238>)
 800172c:	2102      	movs	r1, #2
 800172e:	4630      	mov	r0, r6
 8001730:	f000 ffb8 	bl	80026a4 <HAL_GPIO_ReadPin>
 8001734:	2800      	cmp	r0, #0
 8001736:	d0f9      	beq.n	800172c <smart_watch_process+0x2c>
 8001738:	2301      	movs	r3, #1
 800173a:	f884 3039 	strb.w	r3, [r4, #57]	@ 0x39
 800173e:	e043      	b.n	80017c8 <smart_watch_process+0xc8>
 8001740:	4e7e      	ldr	r6, [pc, #504]	@ (800193c <smart_watch_process+0x23c>)
 8001742:	f7ff fe65 	bl	8001410 <show_frame.constprop.0>
 8001746:	7837      	ldrb	r7, [r6, #0]
 8001748:	2f01      	cmp	r7, #1
 800174a:	d118      	bne.n	800177e <smart_watch_process+0x7e>
 800174c:	2300      	movs	r3, #0
 800174e:	f44f 7096 	mov.w	r0, #300	@ 0x12c
 8001752:	7033      	strb	r3, [r6, #0]
 8001754:	f000 fc9c 	bl	8002090 <HAL_Delay>
 8001758:	f7ff fd86 	bl	8001268 <clear_btn_int>
 800175c:	7823      	ldrb	r3, [r4, #0]
 800175e:	220c      	movs	r2, #12
 8001760:	4638      	mov	r0, r7
 8001762:	3301      	adds	r3, #1
 8001764:	b2db      	uxtb	r3, r3
 8001766:	fbb3 f1f2 	udiv	r1, r3, r2
 800176a:	fb02 3311 	mls	r3, r2, r1, r3
 800176e:	b2db      	uxtb	r3, r3
 8001770:	7023      	strb	r3, [r4, #0]
 8001772:	ebc3 1303 	rsb	r3, r3, r3, lsl #4
 8001776:	009b      	lsls	r3, r3, #2
 8001778:	82a3      	strh	r3, [r4, #20]
 800177a:	f7ff fcef 	bl	800115c <file_handler>
 800177e:	7833      	ldrb	r3, [r6, #0]
 8001780:	2b03      	cmp	r3, #3
 8001782:	d114      	bne.n	80017ae <smart_watch_process+0xae>
 8001784:	2300      	movs	r3, #0
 8001786:	f44f 7096 	mov.w	r0, #300	@ 0x12c
 800178a:	7033      	strb	r3, [r6, #0]
 800178c:	f000 fc80 	bl	8002090 <HAL_Delay>
 8001790:	f7ff fd6a 	bl	8001268 <clear_btn_int>
 8001794:	7823      	ldrb	r3, [r4, #0]
 8001796:	2b00      	cmp	r3, #0
 8001798:	d05c      	beq.n	8001854 <smart_watch_process+0x154>
 800179a:	3b01      	subs	r3, #1
 800179c:	b2db      	uxtb	r3, r3
 800179e:	7023      	strb	r3, [r4, #0]
 80017a0:	ebc3 1303 	rsb	r3, r3, r3, lsl #4
 80017a4:	2001      	movs	r0, #1
 80017a6:	009b      	lsls	r3, r3, #2
 80017a8:	82a3      	strh	r3, [r4, #20]
 80017aa:	f7ff fcd7 	bl	800115c <file_handler>
 80017ae:	7837      	ldrb	r7, [r6, #0]
 80017b0:	2f02      	cmp	r7, #2
 80017b2:	d109      	bne.n	80017c8 <smart_watch_process+0xc8>
 80017b4:	2300      	movs	r3, #0
 80017b6:	f44f 7096 	mov.w	r0, #300	@ 0x12c
 80017ba:	7033      	strb	r3, [r6, #0]
 80017bc:	f000 fc68 	bl	8002090 <HAL_Delay>
 80017c0:	f7ff fd52 	bl	8001268 <clear_btn_int>
 80017c4:	f884 7039 	strb.w	r7, [r4, #57]	@ 0x39
 80017c8:	2006      	movs	r0, #6
 80017ca:	f000 fcc5 	bl	8002158 <HAL_NVIC_EnableIRQ>
 80017ce:	2007      	movs	r0, #7
 80017d0:	f000 fcc2 	bl	8002158 <HAL_NVIC_EnableIRQ>
 80017d4:	2008      	movs	r0, #8
 80017d6:	f000 fcbf 	bl	8002158 <HAL_NVIC_EnableIRQ>
 80017da:	f894 6040 	ldrb.w	r6, [r4, #64]	@ 0x40
 80017de:	2e01      	cmp	r6, #1
 80017e0:	d191      	bne.n	8001706 <smart_watch_process+0x6>
 80017e2:	78a3      	ldrb	r3, [r4, #2]
 80017e4:	2b3a      	cmp	r3, #58	@ 0x3a
 80017e6:	d98e      	bls.n	8001706 <smart_watch_process+0x6>
 80017e8:	2700      	movs	r7, #0
 80017ea:	4630      	mov	r0, r6
 80017ec:	f7ff fc9a 	bl	8001124 <parameters_reset>
 80017f0:	f7fe ffe2 	bl	80007b8 <GC9A01_sleep_mode>
 80017f4:	f884 7040 	strb.w	r7, [r4, #64]	@ 0x40
 80017f8:	f000 fc5c 	bl	80020b4 <HAL_SuspendTick>
 80017fc:	b672      	cpsid	i
 80017fe:	4631      	mov	r1, r6
 8001800:	4630      	mov	r0, r6
 8001802:	f001 ffe5 	bl	80037d0 <HAL_PWR_EnterSTOPMode>
 8001806:	b662      	cpsie	i
 8001808:	f000 fc5b 	bl	80020c2 <HAL_ResumeTick>
 800180c:	f7ff fac6 	bl	8000d9c <SystemClock_Config>
 8001810:	f7fe fffa 	bl	8000808 <GC9A01_init>
 8001814:	463a      	mov	r2, r7
 8001816:	4621      	mov	r1, r4
 8001818:	4849      	ldr	r0, [pc, #292]	@ (8001940 <smart_watch_process+0x240>)
 800181a:	f884 6040 	strb.w	r6, [r4, #64]	@ 0x40
 800181e:	9703      	str	r7, [sp, #12]
 8001820:	f003 ff53 	bl	80056ca <HAL_RTC_GetTime>
 8001824:	463a      	mov	r2, r7
 8001826:	a903      	add	r1, sp, #12
 8001828:	4845      	ldr	r0, [pc, #276]	@ (8001940 <smart_watch_process+0x240>)
 800182a:	f003 ff71 	bl	8005710 <HAL_RTC_GetDate>
 800182e:	7823      	ldrb	r3, [r4, #0]
 8001830:	220c      	movs	r2, #12
 8001832:	4630      	mov	r0, r6
 8001834:	fbb3 f1f2 	udiv	r1, r3, r2
 8001838:	fb02 3311 	mls	r3, r2, r1, r3
 800183c:	7862      	ldrb	r2, [r4, #1]
 800183e:	b2db      	uxtb	r3, r3
 8001840:	ebc3 1303 	rsb	r3, r3, r3, lsl #4
 8001844:	eb02 0383 	add.w	r3, r2, r3, lsl #2
 8001848:	82a3      	strh	r3, [r4, #20]
 800184a:	f7ff fc87 	bl	800115c <file_handler>
 800184e:	78a3      	ldrb	r3, [r4, #2]
 8001850:	63e3      	str	r3, [r4, #60]	@ 0x3c
 8001852:	e758      	b.n	8001706 <smart_watch_process+0x6>
 8001854:	230b      	movs	r3, #11
 8001856:	e7a2      	b.n	800179e <smart_watch_process+0x9e>
 8001858:	4e38      	ldr	r6, [pc, #224]	@ (800193c <smart_watch_process+0x23c>)
 800185a:	f7ff fdd9 	bl	8001410 <show_frame.constprop.0>
 800185e:	7837      	ldrb	r7, [r6, #0]
 8001860:	2f01      	cmp	r7, #1
 8001862:	d11b      	bne.n	800189c <smart_watch_process+0x19c>
 8001864:	2300      	movs	r3, #0
 8001866:	f44f 7096 	mov.w	r0, #300	@ 0x12c
 800186a:	7033      	strb	r3, [r6, #0]
 800186c:	f000 fc10 	bl	8002090 <HAL_Delay>
 8001870:	f7ff fcfa 	bl	8001268 <clear_btn_int>
 8001874:	7863      	ldrb	r3, [r4, #1]
 8001876:	223c      	movs	r2, #60	@ 0x3c
 8001878:	4638      	mov	r0, r7
 800187a:	3301      	adds	r3, #1
 800187c:	b2db      	uxtb	r3, r3
 800187e:	fbb3 f1f2 	udiv	r1, r3, r2
 8001882:	fb02 3311 	mls	r3, r2, r1, r3
 8001886:	8aa2      	ldrh	r2, [r4, #20]
 8001888:	b2db      	uxtb	r3, r3
 800188a:	7063      	strb	r3, [r4, #1]
 800188c:	4413      	add	r3, r2
 800188e:	82a3      	strh	r3, [r4, #20]
 8001890:	f7ff fc64 	bl	800115c <file_handler>
 8001894:	8aa3      	ldrh	r3, [r4, #20]
 8001896:	7862      	ldrb	r2, [r4, #1]
 8001898:	1a9b      	subs	r3, r3, r2
 800189a:	82a3      	strh	r3, [r4, #20]
 800189c:	7833      	ldrb	r3, [r6, #0]
 800189e:	2b03      	cmp	r3, #3
 80018a0:	d116      	bne.n	80018d0 <smart_watch_process+0x1d0>
 80018a2:	2300      	movs	r3, #0
 80018a4:	f44f 7096 	mov.w	r0, #300	@ 0x12c
 80018a8:	7033      	strb	r3, [r6, #0]
 80018aa:	f000 fbf1 	bl	8002090 <HAL_Delay>
 80018ae:	f7ff fcdb 	bl	8001268 <clear_btn_int>
 80018b2:	7863      	ldrb	r3, [r4, #1]
 80018b4:	b303      	cbz	r3, 80018f8 <smart_watch_process+0x1f8>
 80018b6:	3b01      	subs	r3, #1
 80018b8:	b2db      	uxtb	r3, r3
 80018ba:	8aa2      	ldrh	r2, [r4, #20]
 80018bc:	2001      	movs	r0, #1
 80018be:	7063      	strb	r3, [r4, #1]
 80018c0:	4413      	add	r3, r2
 80018c2:	82a3      	strh	r3, [r4, #20]
 80018c4:	f7ff fc4a 	bl	800115c <file_handler>
 80018c8:	8aa3      	ldrh	r3, [r4, #20]
 80018ca:	7862      	ldrb	r2, [r4, #1]
 80018cc:	1a9b      	subs	r3, r3, r2
 80018ce:	82a3      	strh	r3, [r4, #20]
 80018d0:	7833      	ldrb	r3, [r6, #0]
 80018d2:	2b02      	cmp	r3, #2
 80018d4:	f47f af78 	bne.w	80017c8 <smart_watch_process+0xc8>
 80018d8:	2300      	movs	r3, #0
 80018da:	f44f 7096 	mov.w	r0, #300	@ 0x12c
 80018de:	7033      	strb	r3, [r6, #0]
 80018e0:	f000 fbd6 	bl	8002090 <HAL_Delay>
 80018e4:	f7ff fcc0 	bl	8001268 <clear_btn_int>
 80018e8:	8aa2      	ldrh	r2, [r4, #20]
 80018ea:	7863      	ldrb	r3, [r4, #1]
 80018ec:	4413      	add	r3, r2
 80018ee:	82a3      	strh	r3, [r4, #20]
 80018f0:	2301      	movs	r3, #1
 80018f2:	75a3      	strb	r3, [r4, #22]
 80018f4:	2303      	movs	r3, #3
 80018f6:	e720      	b.n	800173a <smart_watch_process+0x3a>
 80018f8:	233b      	movs	r3, #59	@ 0x3b
 80018fa:	e7de      	b.n	80018ba <smart_watch_process+0x1ba>
 80018fc:	2001      	movs	r0, #1
 80018fe:	f7ff fc2d 	bl	800115c <file_handler>
 8001902:	2301      	movs	r3, #1
 8001904:	8723      	strh	r3, [r4, #56]	@ 0x38
 8001906:	e75f      	b.n	80017c8 <smart_watch_process+0xc8>
 8001908:	2200      	movs	r2, #0
 800190a:	490e      	ldr	r1, [pc, #56]	@ (8001944 <smart_watch_process+0x244>)
 800190c:	4809      	ldr	r0, [pc, #36]	@ (8001934 <smart_watch_process+0x234>)
 800190e:	f7fe fe87 	bl	8000620 <AVI_GetFrame>
 8001912:	6a63      	ldr	r3, [r4, #36]	@ 0x24
 8001914:	b2c0      	uxtb	r0, r0
 8001916:	2b00      	cmp	r3, #0
 8001918:	75e0      	strb	r0, [r4, #23]
 800191a:	dd15      	ble.n	8001948 <smart_watch_process+0x248>
 800191c:	3b01      	subs	r3, #1
 800191e:	6263      	str	r3, [r4, #36]	@ 0x24
 8001920:	6aeb      	ldr	r3, [r5, #44]	@ 0x2c
 8001922:	3301      	adds	r3, #1
 8001924:	62eb      	str	r3, [r5, #44]	@ 0x2c
 8001926:	6a23      	ldr	r3, [r4, #32]
 8001928:	3301      	adds	r3, #1
 800192a:	6223      	str	r3, [r4, #32]
 800192c:	e755      	b.n	80017da <smart_watch_process+0xda>
 800192e:	bf00      	nop
 8001930:	240af2a4 	.word	0x240af2a4
 8001934:	240bbae8 	.word	0x240bbae8
 8001938:	58020800 	.word	0x58020800
 800193c:	240bbf9e 	.word	0x240bbf9e
 8001940:	240000a0 	.word	0x240000a0
 8001944:	240bbb30 	.word	0x240bbb30
 8001948:	2801      	cmp	r0, #1
 800194a:	f47f af46 	bne.w	80017da <smart_watch_process+0xda>
 800194e:	6aeb      	ldr	r3, [r5, #44]	@ 0x2c
 8001950:	6b2a      	ldr	r2, [r5, #48]	@ 0x30
 8001952:	3301      	adds	r3, #1
 8001954:	4948      	ldr	r1, [pc, #288]	@ (8001a78 <smart_watch_process+0x378>)
 8001956:	4849      	ldr	r0, [pc, #292]	@ (8001a7c <smart_watch_process+0x37c>)
 8001958:	62eb      	str	r3, [r5, #44]	@ 0x2c
 800195a:	6a23      	ldr	r3, [r4, #32]
 800195c:	3301      	adds	r3, #1
 800195e:	6223      	str	r3, [r4, #32]
 8001960:	6b63      	ldr	r3, [r4, #52]	@ 0x34
 8001962:	f7ff f9c5 	bl	8000cf0 <JPEG_Decode_DMA>
 8001966:	4a46      	ldr	r2, [pc, #280]	@ (8001a80 <smart_watch_process+0x380>)
 8001968:	6813      	ldr	r3, [r2, #0]
 800196a:	2b00      	cmp	r3, #0
 800196c:	d0fc      	beq.n	8001968 <smart_watch_process+0x268>
 800196e:	f894 8016 	ldrb.w	r8, [r4, #22]
 8001972:	4e44      	ldr	r6, [pc, #272]	@ (8001a84 <smart_watch_process+0x384>)
 8001974:	f1b8 0f01 	cmp.w	r8, #1
 8001978:	d131      	bne.n	80019de <smart_watch_process+0x2de>
 800197a:	2700      	movs	r7, #0
 800197c:	4631      	mov	r1, r6
 800197e:	483f      	ldr	r0, [pc, #252]	@ (8001a7c <smart_watch_process+0x37c>)
 8001980:	75a7      	strb	r7, [r4, #22]
 8001982:	f001 f965 	bl	8002c50 <HAL_JPEG_GetInfo>
 8001986:	6871      	ldr	r1, [r6, #4]
 8001988:	89b0      	ldrh	r0, [r6, #12]
 800198a:	f7ff fc79 	bl	8001280 <DMA2D_Init.constprop.0>
 800198e:	edd5 7a00 	vldr	s15, [r5]
 8001992:	68f2      	ldr	r2, [r6, #12]
 8001994:	eeb8 6b67 	vcvt.f64.u32	d6, s15
 8001998:	68b3      	ldr	r3, [r6, #8]
 800199a:	8322      	strh	r2, [r4, #24]
 800199c:	b292      	uxth	r2, r2
 800199e:	8363      	strh	r3, [r4, #26]
 80019a0:	b29b      	uxth	r3, r3
 80019a2:	f1c2 02f0 	rsb	r2, r2, #240	@ 0xf0
 80019a6:	f1c3 03f0 	rsb	r3, r3, #240	@ 0xf0
 80019aa:	eb02 72d2 	add.w	r2, r2, r2, lsr #31
 80019ae:	eb03 73d3 	add.w	r3, r3, r3, lsr #31
 80019b2:	1052      	asrs	r2, r2, #1
 80019b4:	105b      	asrs	r3, r3, #1
 80019b6:	83a2      	strh	r2, [r4, #28]
 80019b8:	83e3      	strh	r3, [r4, #30]
 80019ba:	ed9f 5b2d 	vldr	d5, [pc, #180]	@ 8001a70 <smart_watch_process+0x370>
 80019be:	ee86 7b05 	vdiv.f64	d7, d6, d5
 80019c2:	eeb7 7bc7 	vcvt.f32.f64	s14, d7
 80019c6:	ed84 7a0a 	vstr	s14, [r4, #40]	@ 0x28
 80019ca:	f000 fb5b 	bl	8002084 <HAL_GetTick>
 80019ce:	463a      	mov	r2, r7
 80019d0:	6320      	str	r0, [r4, #48]	@ 0x30
 80019d2:	492d      	ldr	r1, [pc, #180]	@ (8001a88 <smart_watch_process+0x388>)
 80019d4:	482d      	ldr	r0, [pc, #180]	@ (8001a8c <smart_watch_process+0x38c>)
 80019d6:	f8c4 8020 	str.w	r8, [r4, #32]
 80019da:	f003 fdc0 	bl	800555e <HAL_RTC_SetTime>
 80019de:	4f2c      	ldr	r7, [pc, #176]	@ (8001a90 <smart_watch_process+0x390>)
 80019e0:	89b2      	ldrh	r2, [r6, #12]
 80019e2:	8933      	ldrh	r3, [r6, #8]
 80019e4:	6839      	ldr	r1, [r7, #0]
 80019e6:	6b60      	ldr	r0, [r4, #52]	@ 0x34
 80019e8:	f7ff fc16 	bl	8001218 <DMA2D_CopyBuffer>
 80019ec:	8b63      	ldrh	r3, [r4, #26]
 80019ee:	8b21      	ldrh	r1, [r4, #24]
 80019f0:	a802      	add	r0, sp, #8
 80019f2:	683e      	ldr	r6, [r7, #0]
 80019f4:	fb11 f103 	smulbb	r1, r1, r3
 80019f8:	9602      	str	r6, [sp, #8]
 80019fa:	b289      	uxth	r1, r1
 80019fc:	f7ff fc88 	bl	8001310 <depth24To16.constprop.0>
 8001a00:	8b63      	ldrh	r3, [r4, #26]
 8001a02:	8b22      	ldrh	r2, [r4, #24]
 8001a04:	8be1      	ldrh	r1, [r4, #30]
 8001a06:	9600      	str	r6, [sp, #0]
 8001a08:	2600      	movs	r6, #0
 8001a0a:	8ba0      	ldrh	r0, [r4, #28]
 8001a0c:	f7ff fd8a 	bl	8001524 <lcd_draw_opt>
 8001a10:	6839      	ldr	r1, [r7, #0]
 8001a12:	4a20      	ldr	r2, [pc, #128]	@ (8001a94 <smart_watch_process+0x394>)
 8001a14:	4b20      	ldr	r3, [pc, #128]	@ (8001a98 <smart_watch_process+0x398>)
 8001a16:	4291      	cmp	r1, r2
 8001a18:	bf18      	it	ne
 8001a1a:	4613      	movne	r3, r2
 8001a1c:	603b      	str	r3, [r7, #0]
 8001a1e:	f000 fb31 	bl	8002084 <HAL_GetTick>
 8001a22:	6b23      	ldr	r3, [r4, #48]	@ 0x30
 8001a24:	4632      	mov	r2, r6
 8001a26:	edd4 7a08 	vldr	s15, [r4, #32]
 8001a2a:	4621      	mov	r1, r4
 8001a2c:	1ac0      	subs	r0, r0, r3
 8001a2e:	edd4 6a0a 	vldr	s13, [r4, #40]	@ 0x28
 8001a32:	eeb8 7a67 	vcvt.f32.u32	s14, s15
 8001a36:	9603      	str	r6, [sp, #12]
 8001a38:	ee07 0a90 	vmov	s15, r0
 8001a3c:	62e0      	str	r0, [r4, #44]	@ 0x2c
 8001a3e:	4813      	ldr	r0, [pc, #76]	@ (8001a8c <smart_watch_process+0x38c>)
 8001a40:	eef8 7a67 	vcvt.f32.u32	s15, s15
 8001a44:	eee7 7a66 	vfms.f32	s15, s14, s13
 8001a48:	ee87 7aa6 	vdiv.f32	s14, s15, s13
 8001a4c:	eefd 7ac7 	vcvt.s32.f32	s15, s14
 8001a50:	ee17 3a90 	vmov	r3, s15
 8001a54:	ea23 73e3 	bic.w	r3, r3, r3, asr #31
 8001a58:	6263      	str	r3, [r4, #36]	@ 0x24
 8001a5a:	f003 fe36 	bl	80056ca <HAL_RTC_GetTime>
 8001a5e:	4632      	mov	r2, r6
 8001a60:	a903      	add	r1, sp, #12
 8001a62:	480a      	ldr	r0, [pc, #40]	@ (8001a8c <smart_watch_process+0x38c>)
 8001a64:	f003 fe54 	bl	8005710 <HAL_RTC_GetDate>
 8001a68:	e6b7      	b.n	80017da <smart_watch_process+0xda>
 8001a6a:	bf00      	nop
 8001a6c:	f3af 8000 	nop.w
 8001a70:	00000000 	.word	0x00000000
 8001a74:	408f4000 	.word	0x408f4000
 8001a78:	240af2e8 	.word	0x240af2e8
 8001a7c:	24000144 	.word	0x24000144
 8001a80:	2400009c 	.word	0x2400009c
 8001a84:	240000c8 	.word	0x240000c8
 8001a88:	240af2a4 	.word	0x240af2a4
 8001a8c:	240000a0 	.word	0x240000a0
 8001a90:	24000004 	.word	0x24000004
 8001a94:	240322a3 	.word	0x240322a3
 8001a98:	240002a3 	.word	0x240002a3

08001a9c <HAL_GPIO_EXTI_Callback>:
 8001a9c:	b508      	push	{r3, lr}
 8001a9e:	4b14      	ldr	r3, [pc, #80]	@ (8001af0 <HAL_GPIO_EXTI_Callback+0x54>)
 8001aa0:	f893 3038 	ldrb.w	r3, [r3, #56]	@ 0x38
 8001aa4:	bb1b      	cbnz	r3, 8001aee <HAL_GPIO_EXTI_Callback+0x52>
 8001aa6:	2104      	movs	r1, #4
 8001aa8:	4812      	ldr	r0, [pc, #72]	@ (8001af4 <HAL_GPIO_EXTI_Callback+0x58>)
 8001aaa:	f000 fdfb 	bl	80026a4 <HAL_GPIO_ReadPin>
 8001aae:	b968      	cbnz	r0, 8001acc <HAL_GPIO_EXTI_Callback+0x30>
 8001ab0:	4b11      	ldr	r3, [pc, #68]	@ (8001af8 <HAL_GPIO_EXTI_Callback+0x5c>)
 8001ab2:	2201      	movs	r2, #1
 8001ab4:	701a      	strb	r2, [r3, #0]
 8001ab6:	2006      	movs	r0, #6
 8001ab8:	f000 fb5c 	bl	8002174 <HAL_NVIC_DisableIRQ>
 8001abc:	2007      	movs	r0, #7
 8001abe:	f000 fb59 	bl	8002174 <HAL_NVIC_DisableIRQ>
 8001ac2:	2008      	movs	r0, #8
 8001ac4:	e8bd 4008 	ldmia.w	sp!, {r3, lr}
 8001ac8:	f000 bb54 	b.w	8002174 <HAL_NVIC_DisableIRQ>
 8001acc:	2102      	movs	r1, #2
 8001ace:	4809      	ldr	r0, [pc, #36]	@ (8001af4 <HAL_GPIO_EXTI_Callback+0x58>)
 8001ad0:	f000 fde8 	bl	80026a4 <HAL_GPIO_ReadPin>
 8001ad4:	b910      	cbnz	r0, 8001adc <HAL_GPIO_EXTI_Callback+0x40>
 8001ad6:	4b08      	ldr	r3, [pc, #32]	@ (8001af8 <HAL_GPIO_EXTI_Callback+0x5c>)
 8001ad8:	2202      	movs	r2, #2
 8001ada:	e7eb      	b.n	8001ab4 <HAL_GPIO_EXTI_Callback+0x18>
 8001adc:	2101      	movs	r1, #1
 8001ade:	4805      	ldr	r0, [pc, #20]	@ (8001af4 <HAL_GPIO_EXTI_Callback+0x58>)
 8001ae0:	f000 fde0 	bl	80026a4 <HAL_GPIO_ReadPin>
 8001ae4:	2800      	cmp	r0, #0
 8001ae6:	d1e6      	bne.n	8001ab6 <HAL_GPIO_EXTI_Callback+0x1a>
 8001ae8:	4b03      	ldr	r3, [pc, #12]	@ (8001af8 <HAL_GPIO_EXTI_Callback+0x5c>)
 8001aea:	2203      	movs	r2, #3
 8001aec:	e7e2      	b.n	8001ab4 <HAL_GPIO_EXTI_Callback+0x18>
 8001aee:	bd08      	pop	{r3, pc}
 8001af0:	240af2a4 	.word	0x240af2a4
 8001af4:	58020800 	.word	0x58020800
 8001af8:	240bbf9e 	.word	0x240bbf9e

08001afc <HAL_MspInit>:
 8001afc:	4b07      	ldr	r3, [pc, #28]	@ (8001b1c <HAL_MspInit+0x20>)
 8001afe:	b082      	sub	sp, #8
 8001b00:	f8d3 2154 	ldr.w	r2, [r3, #340]	@ 0x154
 8001b04:	f042 0202 	orr.w	r2, r2, #2
 8001b08:	f8c3 2154 	str.w	r2, [r3, #340]	@ 0x154
 8001b0c:	f8d3 3154 	ldr.w	r3, [r3, #340]	@ 0x154
 8001b10:	f003 0302 	and.w	r3, r3, #2
 8001b14:	9301      	str	r3, [sp, #4]
 8001b16:	9b01      	ldr	r3, [sp, #4]
 8001b18:	b002      	add	sp, #8
 8001b1a:	4770      	bx	lr
 8001b1c:	58024400 	.word	0x58024400

08001b20 <HAL_DMA2D_MspInit>:
 8001b20:	6802      	ldr	r2, [r0, #0]
 8001b22:	b082      	sub	sp, #8
 8001b24:	4b08      	ldr	r3, [pc, #32]	@ (8001b48 <HAL_DMA2D_MspInit+0x28>)
 8001b26:	429a      	cmp	r2, r3
 8001b28:	d10c      	bne.n	8001b44 <HAL_DMA2D_MspInit+0x24>
 8001b2a:	4b08      	ldr	r3, [pc, #32]	@ (8001b4c <HAL_DMA2D_MspInit+0x2c>)
 8001b2c:	f8d3 2134 	ldr.w	r2, [r3, #308]	@ 0x134
 8001b30:	f042 0210 	orr.w	r2, r2, #16
 8001b34:	f8c3 2134 	str.w	r2, [r3, #308]	@ 0x134
 8001b38:	f8d3 3134 	ldr.w	r3, [r3, #308]	@ 0x134
 8001b3c:	f003 0310 	and.w	r3, r3, #16
 8001b40:	9301      	str	r3, [sp, #4]
 8001b42:	9b01      	ldr	r3, [sp, #4]
 8001b44:	b002      	add	sp, #8
 8001b46:	4770      	bx	lr
 8001b48:	52001000 	.word	0x52001000
 8001b4c:	58024400 	.word	0x58024400

08001b50 <HAL_JPEG_MspInit>:
 8001b50:	4b39      	ldr	r3, [pc, #228]	@ (8001c38 <HAL_JPEG_MspInit+0xe8>)
 8001b52:	f8d3 2134 	ldr.w	r2, [r3, #308]	@ 0x134
 8001b56:	f042 0220 	orr.w	r2, r2, #32
 8001b5a:	e92d 47f3 	stmdb	sp!, {r0, r1, r4, r5, r6, r7, r8, r9, sl, lr}
 8001b5e:	f8c3 2134 	str.w	r2, [r3, #308]	@ 0x134
 8001b62:	2107      	movs	r1, #7
 8001b64:	f8d3 2134 	ldr.w	r2, [r3, #308]	@ 0x134
 8001b68:	4606      	mov	r6, r0
 8001b6a:	2079      	movs	r0, #121	@ 0x79
 8001b6c:	4c33      	ldr	r4, [pc, #204]	@ (8001c3c <HAL_JPEG_MspInit+0xec>)
 8001b6e:	f002 0220 	and.w	r2, r2, #32
 8001b72:	2500      	movs	r5, #0
 8001b74:	f44f 49a0 	mov.w	r9, #20480	@ 0x5000
 8001b78:	2720      	movs	r7, #32
 8001b7a:	9200      	str	r2, [sp, #0]
 8001b7c:	f04f 7a00 	mov.w	sl, #33554432	@ 0x2000000
 8001b80:	9a00      	ldr	r2, [sp, #0]
 8001b82:	f04f 0808 	mov.w	r8, #8
 8001b86:	f8d3 2134 	ldr.w	r2, [r3, #308]	@ 0x134
 8001b8a:	f042 0201 	orr.w	r2, r2, #1
 8001b8e:	f8c3 2134 	str.w	r2, [r3, #308]	@ 0x134
 8001b92:	220f      	movs	r2, #15
 8001b94:	f8d3 3134 	ldr.w	r3, [r3, #308]	@ 0x134
 8001b98:	f003 0301 	and.w	r3, r3, #1
 8001b9c:	9301      	str	r3, [sp, #4]
 8001b9e:	9b01      	ldr	r3, [sp, #4]
 8001ba0:	f000 faa8 	bl	80020f4 <HAL_NVIC_SetPriority>
 8001ba4:	2079      	movs	r0, #121	@ 0x79
 8001ba6:	f000 fad7 	bl	8002158 <HAL_NVIC_EnableIRQ>
 8001baa:	2380      	movs	r3, #128	@ 0x80
 8001bac:	2202      	movs	r2, #2
 8001bae:	4620      	mov	r0, r4
 8001bb0:	f8c4 a024 	str.w	sl, [r4, #36]	@ 0x24
 8001bb4:	62a7      	str	r7, [r4, #40]	@ 0x28
 8001bb6:	e9c4 3503 	strd	r3, r5, [r4, #12]
 8001bba:	e9c4 5307 	strd	r5, r3, [r4, #28]
 8001bbe:	f44f 3300 	mov.w	r3, #131072	@ 0x20000
 8001bc2:	e9c4 930b 	strd	r9, r3, [r4, #44]	@ 0x2c
 8001bc6:	2311      	movs	r3, #17
 8001bc8:	e9c4 3501 	strd	r3, r5, [r4, #4]
 8001bcc:	4b1c      	ldr	r3, [pc, #112]	@ (8001c40 <HAL_JPEG_MspInit+0xf0>)
 8001bce:	e9c4 550d 	strd	r5, r5, [r4, #52]	@ 0x34
 8001bd2:	6334      	str	r4, [r6, #48]	@ 0x30
 8001bd4:	6023      	str	r3, [r4, #0]
 8001bd6:	6426      	str	r6, [r4, #64]	@ 0x40
 8001bd8:	e9c4 2505 	strd	r2, r5, [r4, #20]
 8001bdc:	f001 fcc4 	bl	8003568 <HAL_MDMA_DeInit>
 8001be0:	4620      	mov	r0, r4
 8001be2:	f001 fc52 	bl	800348a <HAL_MDMA_Init>
 8001be6:	4c17      	ldr	r4, [pc, #92]	@ (8001c44 <HAL_JPEG_MspInit+0xf4>)
 8001be8:	23c0      	movs	r3, #192	@ 0xc0
 8001bea:	4620      	mov	r0, r4
 8001bec:	6165      	str	r5, [r4, #20]
 8001bee:	f8c4 902c 	str.w	r9, [r4, #44]	@ 0x2c
 8001bf2:	63a5      	str	r5, [r4, #56]	@ 0x38
 8001bf4:	62a7      	str	r7, [r4, #40]	@ 0x28
 8001bf6:	e9c4 3503 	strd	r3, r5, [r4, #12]
 8001bfa:	f44f 3320 	mov.w	r3, #163840	@ 0x28000
 8001bfe:	e9c4 350c 	strd	r3, r5, [r4, #48]	@ 0x30
 8001c02:	2313      	movs	r3, #19
 8001c04:	e9c4 3501 	strd	r3, r5, [r4, #4]
 8001c08:	4b0f      	ldr	r3, [pc, #60]	@ (8001c48 <HAL_JPEG_MspInit+0xf8>)
 8001c0a:	e9c4 8706 	strd	r8, r7, [r4, #24]
 8001c0e:	6023      	str	r3, [r4, #0]
 8001c10:	e9c4 5a08 	strd	r5, sl, [r4, #32]
 8001c14:	f001 fca8 	bl	8003568 <HAL_MDMA_DeInit>
 8001c18:	4620      	mov	r0, r4
 8001c1a:	f001 fc36 	bl	800348a <HAL_MDMA_Init>
 8001c1e:	6374      	str	r4, [r6, #52]	@ 0x34
 8001c20:	220f      	movs	r2, #15
 8001c22:	4641      	mov	r1, r8
 8001c24:	207a      	movs	r0, #122	@ 0x7a
 8001c26:	6426      	str	r6, [r4, #64]	@ 0x40
 8001c28:	f000 fa64 	bl	80020f4 <HAL_NVIC_SetPriority>
 8001c2c:	207a      	movs	r0, #122	@ 0x7a
 8001c2e:	b002      	add	sp, #8
 8001c30:	e8bd 47f0 	ldmia.w	sp!, {r4, r5, r6, r7, r8, r9, sl, lr}
 8001c34:	f000 ba90 	b.w	8002158 <HAL_NVIC_EnableIRQ>
 8001c38:	58024400 	.word	0x58024400
 8001c3c:	240bc00c 	.word	0x240bc00c
 8001c40:	52000080 	.word	0x52000080
 8001c44:	240bbfa0 	.word	0x240bbfa0
 8001c48:	52000040 	.word	0x52000040

08001c4c <HAL_SD_MspInit>:
 8001c4c:	b5f0      	push	{r4, r5, r6, r7, lr}
 8001c4e:	2214      	movs	r2, #20
 8001c50:	b0bb      	sub	sp, #236	@ 0xec
 8001c52:	4604      	mov	r4, r0
 8001c54:	2100      	movs	r1, #0
 8001c56:	eb0d 0002 	add.w	r0, sp, r2
 8001c5a:	f006 fbb7 	bl	80083cc <memset>
 8001c5e:	22c0      	movs	r2, #192	@ 0xc0
 8001c60:	2100      	movs	r1, #0
 8001c62:	a80a      	add	r0, sp, #40	@ 0x28
 8001c64:	f006 fbb2 	bl	80083cc <memset>
 8001c68:	6822      	ldr	r2, [r4, #0]
 8001c6a:	4b38      	ldr	r3, [pc, #224]	@ (8001d4c <HAL_SD_MspInit+0x100>)
 8001c6c:	429a      	cmp	r2, r3
 8001c6e:	d16b      	bne.n	8001d48 <HAL_SD_MspInit+0xfc>
 8001c70:	f44f 3280 	mov.w	r2, #65536	@ 0x10000
 8001c74:	2300      	movs	r3, #0
 8001c76:	a80a      	add	r0, sp, #40	@ 0x28
 8001c78:	e9cd 230a 	strd	r2, r3, [sp, #40]	@ 0x28
 8001c7c:	f002 fb82 	bl	8004384 <HAL_RCCEx_PeriphCLKConfig>
 8001c80:	b108      	cbz	r0, 8001c86 <HAL_SD_MspInit+0x3a>
 8001c82:	f7ff fa4d 	bl	8001120 <Error_Handler>
 8001c86:	4b32      	ldr	r3, [pc, #200]	@ (8001d50 <HAL_SD_MspInit+0x104>)
 8001c88:	2602      	movs	r6, #2
 8001c8a:	2503      	movs	r5, #3
 8001c8c:	240c      	movs	r4, #12
 8001c8e:	f8d3 2134 	ldr.w	r2, [r3, #308]	@ 0x134
 8001c92:	2701      	movs	r7, #1
 8001c94:	a905      	add	r1, sp, #20
 8001c96:	482f      	ldr	r0, [pc, #188]	@ (8001d54 <HAL_SD_MspInit+0x108>)
 8001c98:	f442 3280 	orr.w	r2, r2, #65536	@ 0x10000
 8001c9c:	f8c3 2134 	str.w	r2, [r3, #308]	@ 0x134
 8001ca0:	f8d3 2134 	ldr.w	r2, [r3, #308]	@ 0x134
 8001ca4:	f402 3280 	and.w	r2, r2, #65536	@ 0x10000
 8001ca8:	9201      	str	r2, [sp, #4]
 8001caa:	9a01      	ldr	r2, [sp, #4]
 8001cac:	f8d3 2140 	ldr.w	r2, [r3, #320]	@ 0x140
 8001cb0:	f042 0202 	orr.w	r2, r2, #2
 8001cb4:	f8c3 2140 	str.w	r2, [r3, #320]	@ 0x140
 8001cb8:	f8d3 2140 	ldr.w	r2, [r3, #320]	@ 0x140
 8001cbc:	f002 0202 	and.w	r2, r2, #2
 8001cc0:	9202      	str	r2, [sp, #8]
 8001cc2:	9a02      	ldr	r2, [sp, #8]
 8001cc4:	f8d3 2140 	ldr.w	r2, [r3, #320]	@ 0x140
 8001cc8:	f042 0204 	orr.w	r2, r2, #4
 8001ccc:	f8c3 2140 	str.w	r2, [r3, #320]	@ 0x140
 8001cd0:	f8d3 2140 	ldr.w	r2, [r3, #320]	@ 0x140
 8001cd4:	f002 0204 	and.w	r2, r2, #4
 8001cd8:	9203      	str	r2, [sp, #12]
 8001cda:	9a03      	ldr	r2, [sp, #12]
 8001cdc:	f8d3 2140 	ldr.w	r2, [r3, #320]	@ 0x140
 8001ce0:	f042 0208 	orr.w	r2, r2, #8
 8001ce4:	f8c3 2140 	str.w	r2, [r3, #320]	@ 0x140
 8001ce8:	f8d3 3140 	ldr.w	r3, [r3, #320]	@ 0x140
 8001cec:	9409      	str	r4, [sp, #36]	@ 0x24
 8001cee:	f003 0308 	and.w	r3, r3, #8
 8001cf2:	9304      	str	r3, [sp, #16]
 8001cf4:	9b04      	ldr	r3, [sp, #16]
 8001cf6:	f44f 5300 	mov.w	r3, #8192	@ 0x2000
 8001cfa:	e9cd 7507 	strd	r7, r5, [sp, #28]
 8001cfe:	e9cd 3605 	strd	r3, r6, [sp, #20]
 8001d02:	f000 fbe7 	bl	80024d4 <HAL_GPIO_Init>
 8001d06:	f44f 6360 	mov.w	r3, #3584	@ 0xe00
 8001d0a:	a905      	add	r1, sp, #20
 8001d0c:	4812      	ldr	r0, [pc, #72]	@ (8001d58 <HAL_SD_MspInit+0x10c>)
 8001d0e:	9409      	str	r4, [sp, #36]	@ 0x24
 8001d10:	e9cd 3605 	strd	r3, r6, [sp, #20]
 8001d14:	e9cd 7507 	strd	r7, r5, [sp, #28]
 8001d18:	f000 fbdc 	bl	80024d4 <HAL_GPIO_Init>
 8001d1c:	f44f 5380 	mov.w	r3, #4096	@ 0x1000
 8001d20:	a905      	add	r1, sp, #20
 8001d22:	480d      	ldr	r0, [pc, #52]	@ (8001d58 <HAL_SD_MspInit+0x10c>)
 8001d24:	9409      	str	r4, [sp, #36]	@ 0x24
 8001d26:	e9cd 3605 	strd	r3, r6, [sp, #20]
 8001d2a:	2300      	movs	r3, #0
 8001d2c:	e9cd 3507 	strd	r3, r5, [sp, #28]
 8001d30:	f000 fbd0 	bl	80024d4 <HAL_GPIO_Init>
 8001d34:	2304      	movs	r3, #4
 8001d36:	a905      	add	r1, sp, #20
 8001d38:	4808      	ldr	r0, [pc, #32]	@ (8001d5c <HAL_SD_MspInit+0x110>)
 8001d3a:	9409      	str	r4, [sp, #36]	@ 0x24
 8001d3c:	e9cd 3605 	strd	r3, r6, [sp, #20]
 8001d40:	e9cd 7507 	strd	r7, r5, [sp, #28]
 8001d44:	f000 fbc6 	bl	80024d4 <HAL_GPIO_Init>
 8001d48:	b03b      	add	sp, #236	@ 0xec
 8001d4a:	bdf0      	pop	{r4, r5, r6, r7, pc}
 8001d4c:	52007000 	.word	0x52007000
 8001d50:	58024400 	.word	0x58024400
 8001d54:	58020400 	.word	0x58020400
 8001d58:	58020800 	.word	0x58020800
 8001d5c:	58020c00 	.word	0x58020c00

08001d60 <HAL_SPI_MspInit>:
 8001d60:	b510      	push	{r4, lr}
 8001d62:	b0b8      	sub	sp, #224	@ 0xe0
 8001d64:	4604      	mov	r4, r0
 8001d66:	2214      	movs	r2, #20
 8001d68:	2100      	movs	r1, #0
 8001d6a:	a803      	add	r0, sp, #12
 8001d6c:	f006 fb2e 	bl	80083cc <memset>
 8001d70:	22c0      	movs	r2, #192	@ 0xc0
 8001d72:	2100      	movs	r1, #0
 8001d74:	a808      	add	r0, sp, #32
 8001d76:	f006 fb29 	bl	80083cc <memset>
 8001d7a:	6822      	ldr	r2, [r4, #0]
 8001d7c:	4b1a      	ldr	r3, [pc, #104]	@ (8001de8 <HAL_SPI_MspInit+0x88>)
 8001d7e:	429a      	cmp	r2, r3
 8001d80:	d130      	bne.n	8001de4 <HAL_SPI_MspInit+0x84>
 8001d82:	f44f 5280 	mov.w	r2, #4096	@ 0x1000
 8001d86:	2300      	movs	r3, #0
 8001d88:	a808      	add	r0, sp, #32
 8001d8a:	e9cd 2308 	strd	r2, r3, [sp, #32]
 8001d8e:	f002 faf9 	bl	8004384 <HAL_RCCEx_PeriphCLKConfig>
 8001d92:	b108      	cbz	r0, 8001d98 <HAL_SPI_MspInit+0x38>
 8001d94:	f7ff f9c4 	bl	8001120 <Error_Handler>
 8001d98:	4b14      	ldr	r3, [pc, #80]	@ (8001dec <HAL_SPI_MspInit+0x8c>)
 8001d9a:	a903      	add	r1, sp, #12
 8001d9c:	4814      	ldr	r0, [pc, #80]	@ (8001df0 <HAL_SPI_MspInit+0x90>)
 8001d9e:	f8d3 2150 	ldr.w	r2, [r3, #336]	@ 0x150
 8001da2:	f442 5280 	orr.w	r2, r2, #4096	@ 0x1000
 8001da6:	f8c3 2150 	str.w	r2, [r3, #336]	@ 0x150
 8001daa:	f8d3 2150 	ldr.w	r2, [r3, #336]	@ 0x150
 8001dae:	f402 5280 	and.w	r2, r2, #4096	@ 0x1000
 8001db2:	9201      	str	r2, [sp, #4]
 8001db4:	9a01      	ldr	r2, [sp, #4]
 8001db6:	f8d3 2140 	ldr.w	r2, [r3, #320]	@ 0x140
 8001dba:	f042 0201 	orr.w	r2, r2, #1
 8001dbe:	f8c3 2140 	str.w	r2, [r3, #320]	@ 0x140
 8001dc2:	22a0      	movs	r2, #160	@ 0xa0
 8001dc4:	f8d3 3140 	ldr.w	r3, [r3, #320]	@ 0x140
 8001dc8:	f003 0301 	and.w	r3, r3, #1
 8001dcc:	9302      	str	r3, [sp, #8]
 8001dce:	9b02      	ldr	r3, [sp, #8]
 8001dd0:	2302      	movs	r3, #2
 8001dd2:	e9cd 2303 	strd	r2, r3, [sp, #12]
 8001dd6:	2300      	movs	r3, #0
 8001dd8:	e9cd 3305 	strd	r3, r3, [sp, #20]
 8001ddc:	2305      	movs	r3, #5
 8001dde:	9307      	str	r3, [sp, #28]
 8001de0:	f000 fb78 	bl	80024d4 <HAL_GPIO_Init>
 8001de4:	b038      	add	sp, #224	@ 0xe0
 8001de6:	bd10      	pop	{r4, pc}
 8001de8:	40013000 	.word	0x40013000
 8001dec:	58024400 	.word	0x58024400
 8001df0:	58020000 	.word	0x58020000

08001df4 <HAL_RTC_MspInit>:
 8001df4:	b510      	push	{r4, lr}
 8001df6:	b0b0      	sub	sp, #192	@ 0xc0
 8001df8:	4604      	mov	r4, r0
 8001dfa:	22c0      	movs	r2, #192	@ 0xc0
 8001dfc:	2100      	movs	r1, #0
 8001dfe:	4668      	mov	r0, sp
 8001e00:	f006 fae4 	bl	80083cc <memset>
 8001e04:	6822      	ldr	r2, [r4, #0]
 8001e06:	4b0c      	ldr	r3, [pc, #48]	@ (8001e38 <HAL_RTC_MspInit+0x44>)
 8001e08:	429a      	cmp	r2, r3
 8001e0a:	d112      	bne.n	8001e32 <HAL_RTC_MspInit+0x3e>
 8001e0c:	2300      	movs	r3, #0
 8001e0e:	f44f 0280 	mov.w	r2, #4194304	@ 0x400000
 8001e12:	4668      	mov	r0, sp
 8001e14:	e9cd 2300 	strd	r2, r3, [sp]
 8001e18:	f44f 7380 	mov.w	r3, #256	@ 0x100
 8001e1c:	932d      	str	r3, [sp, #180]	@ 0xb4
 8001e1e:	f002 fab1 	bl	8004384 <HAL_RCCEx_PeriphCLKConfig>
 8001e22:	b108      	cbz	r0, 8001e28 <HAL_RTC_MspInit+0x34>
 8001e24:	f7ff f97c 	bl	8001120 <Error_Handler>
 8001e28:	4a04      	ldr	r2, [pc, #16]	@ (8001e3c <HAL_RTC_MspInit+0x48>)
 8001e2a:	6f13      	ldr	r3, [r2, #112]	@ 0x70
 8001e2c:	f443 4300 	orr.w	r3, r3, #32768	@ 0x8000
 8001e30:	6713      	str	r3, [r2, #112]	@ 0x70
 8001e32:	b030      	add	sp, #192	@ 0xc0
 8001e34:	bd10      	pop	{r4, pc}
 8001e36:	bf00      	nop
 8001e38:	58004000 	.word	0x58004000
 8001e3c:	58024400 	.word	0x58024400

08001e40 <NMI_Handler>:
 8001e40:	e7fe      	b.n	8001e40 <NMI_Handler>

08001e42 <HardFault_Handler>:
 8001e42:	e7fe      	b.n	8001e42 <HardFault_Handler>

08001e44 <MemManage_Handler>:
 8001e44:	e7fe      	b.n	8001e44 <MemManage_Handler>

08001e46 <BusFault_Handler>:
 8001e46:	e7fe      	b.n	8001e46 <BusFault_Handler>

08001e48 <UsageFault_Handler>:
 8001e48:	e7fe      	b.n	8001e48 <UsageFault_Handler>

08001e4a <SVC_Handler>:
 8001e4a:	4770      	bx	lr

08001e4c <DebugMon_Handler>:
 8001e4c:	4770      	bx	lr

08001e4e <PendSV_Handler>:
 8001e4e:	4770      	bx	lr

08001e50 <SysTick_Handler>:
 8001e50:	f000 b90c 	b.w	800206c <HAL_IncTick>

08001e54 <JPEG_IRQHandler>:
 8001e54:	4801      	ldr	r0, [pc, #4]	@ (8001e5c <JPEG_IRQHandler+0x8>)
 8001e56:	f001 ba90 	b.w	800337a <HAL_JPEG_IRQHandler>
 8001e5a:	bf00      	nop
 8001e5c:	24000144 	.word	0x24000144

08001e60 <MDMA_IRQHandler>:
 8001e60:	b510      	push	{r4, lr}
 8001e62:	4c04      	ldr	r4, [pc, #16]	@ (8001e74 <MDMA_IRQHandler+0x14>)
 8001e64:	6b20      	ldr	r0, [r4, #48]	@ 0x30
 8001e66:	f001 fbfb 	bl	8003660 <HAL_MDMA_IRQHandler>
 8001e6a:	6b60      	ldr	r0, [r4, #52]	@ 0x34
 8001e6c:	e8bd 4010 	ldmia.w	sp!, {r4, lr}
 8001e70:	f001 bbf6 	b.w	8003660 <HAL_MDMA_IRQHandler>
 8001e74:	24000144 	.word	0x24000144

08001e78 <EXTI0_IRQHandler>:
 8001e78:	2001      	movs	r0, #1
 8001e7a:	f000 bc1e 	b.w	80026ba <HAL_GPIO_EXTI_IRQHandler>

08001e7e <EXTI1_IRQHandler>:
 8001e7e:	2002      	movs	r0, #2
 8001e80:	f000 bc1b 	b.w	80026ba <HAL_GPIO_EXTI_IRQHandler>

08001e84 <EXTI2_IRQHandler>:
 8001e84:	2004      	movs	r0, #4
 8001e86:	f000 bc18 	b.w	80026ba <HAL_GPIO_EXTI_IRQHandler>
	...

08001e8c <_sbrk>:
 8001e8c:	4a0b      	ldr	r2, [pc, #44]	@ (8001ebc <_sbrk+0x30>)
 8001e8e:	4603      	mov	r3, r0
 8001e90:	6811      	ldr	r1, [r2, #0]
 8001e92:	b510      	push	{r4, lr}
 8001e94:	b909      	cbnz	r1, 8001e9a <_sbrk+0xe>
 8001e96:	490a      	ldr	r1, [pc, #40]	@ (8001ec0 <_sbrk+0x34>)
 8001e98:	6011      	str	r1, [r2, #0]
 8001e9a:	6810      	ldr	r0, [r2, #0]
 8001e9c:	4909      	ldr	r1, [pc, #36]	@ (8001ec4 <_sbrk+0x38>)
 8001e9e:	4c0a      	ldr	r4, [pc, #40]	@ (8001ec8 <_sbrk+0x3c>)
 8001ea0:	4403      	add	r3, r0
 8001ea2:	1b09      	subs	r1, r1, r4
 8001ea4:	428b      	cmp	r3, r1
 8001ea6:	d906      	bls.n	8001eb6 <_sbrk+0x2a>
 8001ea8:	f006 fa98 	bl	80083dc <__errno>
 8001eac:	230c      	movs	r3, #12
 8001eae:	6003      	str	r3, [r0, #0]
 8001eb0:	f04f 30ff 	mov.w	r0, #4294967295
 8001eb4:	bd10      	pop	{r4, pc}
 8001eb6:	6013      	str	r3, [r2, #0]
 8001eb8:	e7fc      	b.n	8001eb4 <_sbrk+0x28>
 8001eba:	bf00      	nop
 8001ebc:	240bc078 	.word	0x240bc078
 8001ec0:	240bc200 	.word	0x240bc200
 8001ec4:	24100000 	.word	0x24100000
 8001ec8:	00000800 	.word	0x00000800

08001ecc <SystemInit>:
 8001ecc:	4a20      	ldr	r2, [pc, #128]	@ (8001f50 <SystemInit+0x84>)
 8001ece:	f8d2 3088 	ldr.w	r3, [r2, #136]	@ 0x88
 8001ed2:	f443 0370 	orr.w	r3, r3, #15728640	@ 0xf00000
 8001ed6:	f8c2 3088 	str.w	r3, [r2, #136]	@ 0x88
 8001eda:	4a1e      	ldr	r2, [pc, #120]	@ (8001f54 <SystemInit+0x88>)
 8001edc:	6813      	ldr	r3, [r2, #0]
 8001ede:	f003 030f 	and.w	r3, r3, #15
 8001ee2:	2b02      	cmp	r3, #2
 8001ee4:	d805      	bhi.n	8001ef2 <SystemInit+0x26>
 8001ee6:	6813      	ldr	r3, [r2, #0]
 8001ee8:	f023 030f 	bic.w	r3, r3, #15
 8001eec:	f043 0303 	orr.w	r3, r3, #3
 8001ef0:	6013      	str	r3, [r2, #0]
 8001ef2:	4b19      	ldr	r3, [pc, #100]	@ (8001f58 <SystemInit+0x8c>)
 8001ef4:	681a      	ldr	r2, [r3, #0]
 8001ef6:	f042 0201 	orr.w	r2, r2, #1
 8001efa:	601a      	str	r2, [r3, #0]
 8001efc:	2200      	movs	r2, #0
 8001efe:	611a      	str	r2, [r3, #16]
 8001f00:	4a16      	ldr	r2, [pc, #88]	@ (8001f5c <SystemInit+0x90>)
 8001f02:	6819      	ldr	r1, [r3, #0]
 8001f04:	400a      	ands	r2, r1
 8001f06:	4913      	ldr	r1, [pc, #76]	@ (8001f54 <SystemInit+0x88>)
 8001f08:	601a      	str	r2, [r3, #0]
 8001f0a:	680a      	ldr	r2, [r1, #0]
 8001f0c:	f012 0f0c 	tst.w	r2, #12
 8001f10:	d005      	beq.n	8001f1e <SystemInit+0x52>
 8001f12:	680a      	ldr	r2, [r1, #0]
 8001f14:	f022 020f 	bic.w	r2, r2, #15
 8001f18:	f042 0203 	orr.w	r2, r2, #3
 8001f1c:	600a      	str	r2, [r1, #0]
 8001f1e:	2200      	movs	r2, #0
 8001f20:	490f      	ldr	r1, [pc, #60]	@ (8001f60 <SystemInit+0x94>)
 8001f22:	619a      	str	r2, [r3, #24]
 8001f24:	61da      	str	r2, [r3, #28]
 8001f26:	621a      	str	r2, [r3, #32]
 8001f28:	6299      	str	r1, [r3, #40]	@ 0x28
 8001f2a:	490e      	ldr	r1, [pc, #56]	@ (8001f64 <SystemInit+0x98>)
 8001f2c:	62d9      	str	r1, [r3, #44]	@ 0x2c
 8001f2e:	490e      	ldr	r1, [pc, #56]	@ (8001f68 <SystemInit+0x9c>)
 8001f30:	6319      	str	r1, [r3, #48]	@ 0x30
 8001f32:	635a      	str	r2, [r3, #52]	@ 0x34
 8001f34:	6399      	str	r1, [r3, #56]	@ 0x38
 8001f36:	63da      	str	r2, [r3, #60]	@ 0x3c
 8001f38:	6419      	str	r1, [r3, #64]	@ 0x40
 8001f3a:	645a      	str	r2, [r3, #68]	@ 0x44
 8001f3c:	6819      	ldr	r1, [r3, #0]
 8001f3e:	f421 2180 	bic.w	r1, r1, #262144	@ 0x40000
 8001f42:	6019      	str	r1, [r3, #0]
 8001f44:	661a      	str	r2, [r3, #96]	@ 0x60
 8001f46:	f243 02d2 	movw	r2, #12498	@ 0x30d2
 8001f4a:	4b08      	ldr	r3, [pc, #32]	@ (8001f6c <SystemInit+0xa0>)
 8001f4c:	601a      	str	r2, [r3, #0]
 8001f4e:	4770      	bx	lr
 8001f50:	e000ed00 	.word	0xe000ed00
 8001f54:	52002000 	.word	0x52002000
 8001f58:	58024400 	.word	0x58024400
 8001f5c:	eaf6ed7f 	.word	0xeaf6ed7f
 8001f60:	02020200 	.word	0x02020200
 8001f64:	01ff0000 	.word	0x01ff0000
 8001f68:	01010280 	.word	0x01010280
 8001f6c:	52004000 	.word	0x52004000

08001f70 <Reset_Handler>:
 8001f70:	f8df d034 	ldr.w	sp, [pc, #52]	@ 8001fa8 <LoopFillZerobss+0xe>
 8001f74:	f7ff ffaa 	bl	8001ecc <SystemInit>
 8001f78:	480c      	ldr	r0, [pc, #48]	@ (8001fac <LoopFillZerobss+0x12>)
 8001f7a:	490d      	ldr	r1, [pc, #52]	@ (8001fb0 <LoopFillZerobss+0x16>)
 8001f7c:	4a0d      	ldr	r2, [pc, #52]	@ (8001fb4 <LoopFillZerobss+0x1a>)
 8001f7e:	2300      	movs	r3, #0
 8001f80:	e002      	b.n	8001f88 <LoopCopyDataInit>

08001f82 <CopyDataInit>:
 8001f82:	58d4      	ldr	r4, [r2, r3]
 8001f84:	50c4      	str	r4, [r0, r3]
 8001f86:	3304      	adds	r3, #4

08001f88 <LoopCopyDataInit>:
 8001f88:	18c4      	adds	r4, r0, r3
 8001f8a:	428c      	cmp	r4, r1
 8001f8c:	d3f9      	bcc.n	8001f82 <CopyDataInit>
 8001f8e:	4a0a      	ldr	r2, [pc, #40]	@ (8001fb8 <LoopFillZerobss+0x1e>)
 8001f90:	4c0a      	ldr	r4, [pc, #40]	@ (8001fbc <LoopFillZerobss+0x22>)
 8001f92:	2300      	movs	r3, #0
 8001f94:	e001      	b.n	8001f9a <LoopFillZerobss>

08001f96 <FillZerobss>:
 8001f96:	6013      	str	r3, [r2, #0]
 8001f98:	3204      	adds	r2, #4

08001f9a <LoopFillZerobss>:
 8001f9a:	42a2      	cmp	r2, r4
 8001f9c:	d3fb      	bcc.n	8001f96 <FillZerobss>
 8001f9e:	f006 fa23 	bl	80083e8 <__libc_init_array>
 8001fa2:	f7fe ff55 	bl	8000e50 <main>
 8001fa6:	4770      	bx	lr
 8001fa8:	24100000 	.word	0x24100000
 8001fac:	24000000 	.word	0x24000000
 8001fb0:	2400006c 	.word	0x2400006c
 8001fb4:	08009060 	.word	0x08009060
 8001fb8:	2400006c 	.word	0x2400006c
 8001fbc:	240bc200 	.word	0x240bc200

08001fc0 <ADC_IRQHandler>:
 8001fc0:	e7fe      	b.n	8001fc0 <ADC_IRQHandler>
	...

08001fc4 <HAL_InitTick>:
 8001fc4:	b538      	push	{r3, r4, r5, lr}
 8001fc6:	4b0f      	ldr	r3, [pc, #60]	@ (8002004 <HAL_InitTick+0x40>)
 8001fc8:	4605      	mov	r5, r0
 8001fca:	781a      	ldrb	r2, [r3, #0]
 8001fcc:	b90a      	cbnz	r2, 8001fd2 <HAL_InitTick+0xe>
 8001fce:	2001      	movs	r0, #1
 8001fd0:	bd38      	pop	{r3, r4, r5, pc}
 8001fd2:	f44f 737a 	mov.w	r3, #1000	@ 0x3e8
 8001fd6:	fbb3 f3f2 	udiv	r3, r3, r2
 8001fda:	4a0b      	ldr	r2, [pc, #44]	@ (8002008 <HAL_InitTick+0x44>)
 8001fdc:	6810      	ldr	r0, [r2, #0]
 8001fde:	fbb0 f0f3 	udiv	r0, r0, r3
 8001fe2:	f000 f8d9 	bl	8002198 <HAL_SYSTICK_Config>
 8001fe6:	4604      	mov	r4, r0
 8001fe8:	2800      	cmp	r0, #0
 8001fea:	d1f0      	bne.n	8001fce <HAL_InitTick+0xa>
 8001fec:	2d0f      	cmp	r5, #15
 8001fee:	d8ee      	bhi.n	8001fce <HAL_InitTick+0xa>
 8001ff0:	4602      	mov	r2, r0
 8001ff2:	4629      	mov	r1, r5
 8001ff4:	f04f 30ff 	mov.w	r0, #4294967295
 8001ff8:	f000 f87c 	bl	80020f4 <HAL_NVIC_SetPriority>
 8001ffc:	4b03      	ldr	r3, [pc, #12]	@ (800200c <HAL_InitTick+0x48>)
 8001ffe:	4620      	mov	r0, r4
 8002000:	601d      	str	r5, [r3, #0]
 8002002:	e7e5      	b.n	8001fd0 <HAL_InitTick+0xc>
 8002004:	24000010 	.word	0x24000010
 8002008:	2400000c 	.word	0x2400000c
 800200c:	24000014 	.word	0x24000014

08002010 <HAL_Init>:
 8002010:	b510      	push	{r4, lr}
 8002012:	2003      	movs	r0, #3
 8002014:	f000 f85c 	bl	80020d0 <HAL_NVIC_SetPriorityGrouping>
 8002018:	f001 fec8 	bl	8003dac <HAL_RCC_GetSysClockFreq>
 800201c:	490f      	ldr	r1, [pc, #60]	@ (800205c <HAL_Init+0x4c>)
 800201e:	4a10      	ldr	r2, [pc, #64]	@ (8002060 <HAL_Init+0x50>)
 8002020:	698b      	ldr	r3, [r1, #24]
 8002022:	f3c3 2303 	ubfx	r3, r3, #8, #4
 8002026:	5cd3      	ldrb	r3, [r2, r3]
 8002028:	f003 031f 	and.w	r3, r3, #31
 800202c:	40d8      	lsrs	r0, r3
 800202e:	698b      	ldr	r3, [r1, #24]
 8002030:	f003 030f 	and.w	r3, r3, #15
 8002034:	5cd3      	ldrb	r3, [r2, r3]
 8002036:	4a0b      	ldr	r2, [pc, #44]	@ (8002064 <HAL_Init+0x54>)
 8002038:	f003 031f 	and.w	r3, r3, #31
 800203c:	fa20 f303 	lsr.w	r3, r0, r3
 8002040:	6013      	str	r3, [r2, #0]
 8002042:	4b09      	ldr	r3, [pc, #36]	@ (8002068 <HAL_Init+0x58>)
 8002044:	6018      	str	r0, [r3, #0]
 8002046:	200f      	movs	r0, #15
 8002048:	f7ff ffbc 	bl	8001fc4 <HAL_InitTick>
 800204c:	4604      	mov	r4, r0
 800204e:	b918      	cbnz	r0, 8002058 <HAL_Init+0x48>
 8002050:	f7ff fd54 	bl	8001afc <HAL_MspInit>
 8002054:	4620      	mov	r0, r4
 8002056:	bd10      	pop	{r4, pc}
 8002058:	2401      	movs	r4, #1
 800205a:	e7fb      	b.n	8002054 <HAL_Init+0x44>
 800205c:	58024400 	.word	0x58024400
 8002060:	08008d0a 	.word	0x08008d0a
 8002064:	24000008 	.word	0x24000008
 8002068:	2400000c 	.word	0x2400000c

0800206c <HAL_IncTick>:
 800206c:	4a03      	ldr	r2, [pc, #12]	@ (800207c <HAL_IncTick+0x10>)
 800206e:	4b04      	ldr	r3, [pc, #16]	@ (8002080 <HAL_IncTick+0x14>)
 8002070:	6811      	ldr	r1, [r2, #0]
 8002072:	781b      	ldrb	r3, [r3, #0]
 8002074:	440b      	add	r3, r1
 8002076:	6013      	str	r3, [r2, #0]
 8002078:	4770      	bx	lr
 800207a:	bf00      	nop
 800207c:	240bc07c 	.word	0x240bc07c
 8002080:	24000010 	.word	0x24000010

08002084 <HAL_GetTick>:
 8002084:	4b01      	ldr	r3, [pc, #4]	@ (800208c <HAL_GetTick+0x8>)
 8002086:	6818      	ldr	r0, [r3, #0]
 8002088:	4770      	bx	lr
 800208a:	bf00      	nop
 800208c:	240bc07c 	.word	0x240bc07c

08002090 <HAL_Delay>:
 8002090:	b538      	push	{r3, r4, r5, lr}
 8002092:	4604      	mov	r4, r0
 8002094:	f7ff fff6 	bl	8002084 <HAL_GetTick>
 8002098:	4605      	mov	r5, r0
 800209a:	1c63      	adds	r3, r4, #1
 800209c:	bf1e      	ittt	ne
 800209e:	4b04      	ldrne	r3, [pc, #16]	@ (80020b0 <HAL_Delay+0x20>)
 80020a0:	781b      	ldrbne	r3, [r3, #0]
 80020a2:	18e4      	addne	r4, r4, r3
 80020a4:	f7ff ffee 	bl	8002084 <HAL_GetTick>
 80020a8:	1b43      	subs	r3, r0, r5
 80020aa:	42a3      	cmp	r3, r4
 80020ac:	d3fa      	bcc.n	80020a4 <HAL_Delay+0x14>
 80020ae:	bd38      	pop	{r3, r4, r5, pc}
 80020b0:	24000010 	.word	0x24000010

080020b4 <HAL_SuspendTick>:
 80020b4:	f04f 22e0 	mov.w	r2, #3758153728	@ 0xe000e000
 80020b8:	6913      	ldr	r3, [r2, #16]
 80020ba:	f023 0302 	bic.w	r3, r3, #2
 80020be:	6113      	str	r3, [r2, #16]
 80020c0:	4770      	bx	lr

080020c2 <HAL_ResumeTick>:
 80020c2:	f04f 22e0 	mov.w	r2, #3758153728	@ 0xe000e000
 80020c6:	6913      	ldr	r3, [r2, #16]
 80020c8:	f043 0302 	orr.w	r3, r3, #2
 80020cc:	6113      	str	r3, [r2, #16]
 80020ce:	4770      	bx	lr

080020d0 <HAL_NVIC_SetPriorityGrouping>:
 80020d0:	4907      	ldr	r1, [pc, #28]	@ (80020f0 <HAL_NVIC_SetPriorityGrouping+0x20>)
 80020d2:	0203      	lsls	r3, r0, #8
 80020d4:	68ca      	ldr	r2, [r1, #12]
 80020d6:	f403 63e0 	and.w	r3, r3, #1792	@ 0x700
 80020da:	f422 62e0 	bic.w	r2, r2, #1792	@ 0x700
 80020de:	0412      	lsls	r2, r2, #16
 80020e0:	0c12      	lsrs	r2, r2, #16
 80020e2:	4313      	orrs	r3, r2
 80020e4:	f043 63bf 	orr.w	r3, r3, #100139008	@ 0x5f80000
 80020e8:	f443 3300 	orr.w	r3, r3, #131072	@ 0x20000
 80020ec:	60cb      	str	r3, [r1, #12]
 80020ee:	4770      	bx	lr
 80020f0:	e000ed00 	.word	0xe000ed00

080020f4 <HAL_NVIC_SetPriority>:
 80020f4:	4b16      	ldr	r3, [pc, #88]	@ (8002150 <HAL_NVIC_SetPriority+0x5c>)
 80020f6:	b530      	push	{r4, r5, lr}
 80020f8:	68dc      	ldr	r4, [r3, #12]
 80020fa:	f3c4 2402 	ubfx	r4, r4, #8, #3
 80020fe:	f1c4 0307 	rsb	r3, r4, #7
 8002102:	1d25      	adds	r5, r4, #4
 8002104:	2b04      	cmp	r3, #4
 8002106:	bf28      	it	cs
 8002108:	2304      	movcs	r3, #4
 800210a:	2d06      	cmp	r5, #6
 800210c:	f04f 35ff 	mov.w	r5, #4294967295
 8002110:	bf8c      	ite	hi
 8002112:	3c03      	subhi	r4, #3
 8002114:	2400      	movls	r4, #0
 8002116:	fa05 f303 	lsl.w	r3, r5, r3
 800211a:	2800      	cmp	r0, #0
 800211c:	fa05 f504 	lsl.w	r5, r5, r4
 8002120:	ea21 0303 	bic.w	r3, r1, r3
 8002124:	ea22 0205 	bic.w	r2, r2, r5
 8002128:	fa03 f304 	lsl.w	r3, r3, r4
 800212c:	ea43 0302 	orr.w	r3, r3, r2
 8002130:	ea4f 1303 	mov.w	r3, r3, lsl #4
 8002134:	b2db      	uxtb	r3, r3
 8002136:	db06      	blt.n	8002146 <HAL_NVIC_SetPriority+0x52>
 8002138:	f100 4060 	add.w	r0, r0, #3758096384	@ 0xe0000000
 800213c:	f500 4061 	add.w	r0, r0, #57600	@ 0xe100
 8002140:	f880 3300 	strb.w	r3, [r0, #768]	@ 0x300
 8002144:	bd30      	pop	{r4, r5, pc}
 8002146:	f000 000f 	and.w	r0, r0, #15
 800214a:	4a02      	ldr	r2, [pc, #8]	@ (8002154 <HAL_NVIC_SetPriority+0x60>)
 800214c:	5413      	strb	r3, [r2, r0]
 800214e:	e7f9      	b.n	8002144 <HAL_NVIC_SetPriority+0x50>
 8002150:	e000ed00 	.word	0xe000ed00
 8002154:	e000ed14 	.word	0xe000ed14

08002158 <HAL_NVIC_EnableIRQ>:
 8002158:	2800      	cmp	r0, #0
 800215a:	db07      	blt.n	800216c <HAL_NVIC_EnableIRQ+0x14>
 800215c:	2301      	movs	r3, #1
 800215e:	0941      	lsrs	r1, r0, #5
 8002160:	f000 001f 	and.w	r0, r0, #31
 8002164:	4a02      	ldr	r2, [pc, #8]	@ (8002170 <HAL_NVIC_EnableIRQ+0x18>)
 8002166:	4083      	lsls	r3, r0
 8002168:	f842 3021 	str.w	r3, [r2, r1, lsl #2]
 800216c:	4770      	bx	lr
 800216e:	bf00      	nop
 8002170:	e000e100 	.word	0xe000e100

08002174 <HAL_NVIC_DisableIRQ>:
 8002174:	2800      	cmp	r0, #0
 8002176:	db0c      	blt.n	8002192 <HAL_NVIC_DisableIRQ+0x1e>
 8002178:	0943      	lsrs	r3, r0, #5
 800217a:	2201      	movs	r2, #1
 800217c:	f000 001f 	and.w	r0, r0, #31
 8002180:	4904      	ldr	r1, [pc, #16]	@ (8002194 <HAL_NVIC_DisableIRQ+0x20>)
 8002182:	3320      	adds	r3, #32
 8002184:	4082      	lsls	r2, r0
 8002186:	f841 2023 	str.w	r2, [r1, r3, lsl #2]
 800218a:	f3bf 8f4f 	dsb	sy
 800218e:	f3bf 8f6f 	isb	sy
 8002192:	4770      	bx	lr
 8002194:	e000e100 	.word	0xe000e100

08002198 <HAL_SYSTICK_Config>:
 8002198:	3801      	subs	r0, #1
 800219a:	f1b0 7f80 	cmp.w	r0, #16777216	@ 0x1000000
 800219e:	d20b      	bcs.n	80021b8 <HAL_SYSTICK_Config+0x20>
 80021a0:	f04f 23e0 	mov.w	r3, #3758153728	@ 0xe000e000
 80021a4:	4a05      	ldr	r2, [pc, #20]	@ (80021bc <HAL_SYSTICK_Config+0x24>)
 80021a6:	21f0      	movs	r1, #240	@ 0xf0
 80021a8:	6158      	str	r0, [r3, #20]
 80021aa:	2000      	movs	r0, #0
 80021ac:	f882 1023 	strb.w	r1, [r2, #35]	@ 0x23
 80021b0:	2207      	movs	r2, #7
 80021b2:	6198      	str	r0, [r3, #24]
 80021b4:	611a      	str	r2, [r3, #16]
 80021b6:	4770      	bx	lr
 80021b8:	2001      	movs	r0, #1
 80021ba:	4770      	bx	lr
 80021bc:	e000ed00 	.word	0xe000ed00

080021c0 <HAL_NVIC_ClearPendingIRQ>:
 80021c0:	2800      	cmp	r0, #0
 80021c2:	db08      	blt.n	80021d6 <HAL_NVIC_ClearPendingIRQ+0x16>
 80021c4:	0943      	lsrs	r3, r0, #5
 80021c6:	2201      	movs	r2, #1
 80021c8:	f000 001f 	and.w	r0, r0, #31
 80021cc:	4902      	ldr	r1, [pc, #8]	@ (80021d8 <HAL_NVIC_ClearPendingIRQ+0x18>)
 80021ce:	3360      	adds	r3, #96	@ 0x60
 80021d0:	4082      	lsls	r2, r0
 80021d2:	f841 2023 	str.w	r2, [r1, r3, lsl #2]
 80021d6:	4770      	bx	lr
 80021d8:	e000e100 	.word	0xe000e100

080021dc <DMA2D_SetConfig>:
 80021dc:	b570      	push	{r4, r5, r6, lr}
 80021de:	6804      	ldr	r4, [r0, #0]
 80021e0:	9d04      	ldr	r5, [sp, #16]
 80021e2:	6c66      	ldr	r6, [r4, #68]	@ 0x44
 80021e4:	ea45 4503 	orr.w	r5, r5, r3, lsl #16
 80021e8:	6843      	ldr	r3, [r0, #4]
 80021ea:	f006 4640 	and.w	r6, r6, #3221225472	@ 0xc0000000
 80021ee:	f5b3 3f40 	cmp.w	r3, #196608	@ 0x30000
 80021f2:	ea45 0506 	orr.w	r5, r5, r6
 80021f6:	6465      	str	r5, [r4, #68]	@ 0x44
 80021f8:	63e2      	str	r2, [r4, #60]	@ 0x3c
 80021fa:	d130      	bne.n	800225e <DMA2D_SetConfig+0x82>
 80021fc:	6885      	ldr	r5, [r0, #8]
 80021fe:	b11d      	cbz	r5, 8002208 <DMA2D_SetConfig+0x2c>
 8002200:	2d01      	cmp	r5, #1
 8002202:	d103      	bne.n	800220c <DMA2D_SetConfig+0x30>
 8002204:	f021 417f 	bic.w	r1, r1, #4278190080	@ 0xff000000
 8002208:	63a1      	str	r1, [r4, #56]	@ 0x38
 800220a:	bd70      	pop	{r4, r5, r6, pc}
 800220c:	2d02      	cmp	r5, #2
 800220e:	f401 037f 	and.w	r3, r1, #16711680	@ 0xff0000
 8002212:	f401 407f 	and.w	r0, r1, #65280	@ 0xff00
 8002216:	b2ca      	uxtb	r2, r1
 8002218:	d107      	bne.n	800222a <DMA2D_SetConfig+0x4e>
 800221a:	0cd9      	lsrs	r1, r3, #19
 800221c:	0a80      	lsrs	r0, r0, #10
 800221e:	02c9      	lsls	r1, r1, #11
 8002220:	ea41 1140 	orr.w	r1, r1, r0, lsl #5
 8002224:	ea41 01d2 	orr.w	r1, r1, r2, lsr #3
 8002228:	e7ee      	b.n	8002208 <DMA2D_SetConfig+0x2c>
 800222a:	2d03      	cmp	r5, #3
 800222c:	f001 417f 	and.w	r1, r1, #4278190080	@ 0xff000000
 8002230:	d10a      	bne.n	8002248 <DMA2D_SetConfig+0x6c>
 8002232:	0cdb      	lsrs	r3, r3, #19
 8002234:	0ac0      	lsrs	r0, r0, #11
 8002236:	029b      	lsls	r3, r3, #10
 8002238:	0fc9      	lsrs	r1, r1, #31
 800223a:	ea43 1340 	orr.w	r3, r3, r0, lsl #5
 800223e:	ea43 03d2 	orr.w	r3, r3, r2, lsr #3
 8002242:	ea43 31c1 	orr.w	r1, r3, r1, lsl #15
 8002246:	e7df      	b.n	8002208 <DMA2D_SetConfig+0x2c>
 8002248:	0d1b      	lsrs	r3, r3, #20
 800224a:	0b00      	lsrs	r0, r0, #12
 800224c:	021b      	lsls	r3, r3, #8
 800224e:	0f09      	lsrs	r1, r1, #28
 8002250:	ea43 1300 	orr.w	r3, r3, r0, lsl #4
 8002254:	ea43 1312 	orr.w	r3, r3, r2, lsr #4
 8002258:	ea43 3101 	orr.w	r1, r3, r1, lsl #12
 800225c:	e7d4      	b.n	8002208 <DMA2D_SetConfig+0x2c>
 800225e:	f5b3 2f80 	cmp.w	r3, #262144	@ 0x40000
 8002262:	d101      	bne.n	8002268 <DMA2D_SetConfig+0x8c>
 8002264:	6161      	str	r1, [r4, #20]
 8002266:	e7d0      	b.n	800220a <DMA2D_SetConfig+0x2e>
 8002268:	60e1      	str	r1, [r4, #12]
 800226a:	e7ce      	b.n	800220a <DMA2D_SetConfig+0x2e>

0800226c <HAL_DMA2D_Init>:
 800226c:	b510      	push	{r4, lr}
 800226e:	4604      	mov	r4, r0
 8002270:	2800      	cmp	r0, #0
 8002272:	d036      	beq.n	80022e2 <HAL_DMA2D_Init+0x76>
 8002274:	f890 3061 	ldrb.w	r3, [r0, #97]	@ 0x61
 8002278:	f003 02ff 	and.w	r2, r3, #255	@ 0xff
 800227c:	b91b      	cbnz	r3, 8002286 <HAL_DMA2D_Init+0x1a>
 800227e:	f880 2060 	strb.w	r2, [r0, #96]	@ 0x60
 8002282:	f7ff fc4d 	bl	8001b20 <HAL_DMA2D_MspInit>
 8002286:	2302      	movs	r3, #2
 8002288:	69e0      	ldr	r0, [r4, #28]
 800228a:	6862      	ldr	r2, [r4, #4]
 800228c:	f884 3061 	strb.w	r3, [r4, #97]	@ 0x61
 8002290:	6823      	ldr	r3, [r4, #0]
 8002292:	4302      	orrs	r2, r0
 8002294:	69a0      	ldr	r0, [r4, #24]
 8002296:	6819      	ldr	r1, [r3, #0]
 8002298:	f421 21e0 	bic.w	r1, r1, #458752	@ 0x70000
 800229c:	f021 0140 	bic.w	r1, r1, #64	@ 0x40
 80022a0:	430a      	orrs	r2, r1
 80022a2:	601a      	str	r2, [r3, #0]
 80022a4:	6b59      	ldr	r1, [r3, #52]	@ 0x34
 80022a6:	68a2      	ldr	r2, [r4, #8]
 80022a8:	f421 7183 	bic.w	r1, r1, #262	@ 0x106
 80022ac:	4302      	orrs	r2, r0
 80022ae:	f021 0101 	bic.w	r1, r1, #1
 80022b2:	430a      	orrs	r2, r1
 80022b4:	68e1      	ldr	r1, [r4, #12]
 80022b6:	635a      	str	r2, [r3, #52]	@ 0x34
 80022b8:	6c1a      	ldr	r2, [r3, #64]	@ 0x40
 80022ba:	0c12      	lsrs	r2, r2, #16
 80022bc:	0412      	lsls	r2, r2, #16
 80022be:	430a      	orrs	r2, r1
 80022c0:	641a      	str	r2, [r3, #64]	@ 0x40
 80022c2:	6b59      	ldr	r1, [r3, #52]	@ 0x34
 80022c4:	e9d4 0204 	ldrd	r0, r2, [r4, #16]
 80022c8:	f421 1140 	bic.w	r1, r1, #3145728	@ 0x300000
 80022cc:	0552      	lsls	r2, r2, #21
 80022ce:	ea42 5200 	orr.w	r2, r2, r0, lsl #20
 80022d2:	2000      	movs	r0, #0
 80022d4:	430a      	orrs	r2, r1
 80022d6:	635a      	str	r2, [r3, #52]	@ 0x34
 80022d8:	2301      	movs	r3, #1
 80022da:	6660      	str	r0, [r4, #100]	@ 0x64
 80022dc:	f884 3061 	strb.w	r3, [r4, #97]	@ 0x61
 80022e0:	bd10      	pop	{r4, pc}
 80022e2:	2001      	movs	r0, #1
 80022e4:	e7fc      	b.n	80022e0 <HAL_DMA2D_Init+0x74>

080022e6 <HAL_DMA2D_Start>:
 80022e6:	b573      	push	{r0, r1, r4, r5, r6, lr}
 80022e8:	f890 5060 	ldrb.w	r5, [r0, #96]	@ 0x60
 80022ec:	4604      	mov	r4, r0
 80022ee:	2d01      	cmp	r5, #1
 80022f0:	f04f 0502 	mov.w	r5, #2
 80022f4:	d00f      	beq.n	8002316 <HAL_DMA2D_Start+0x30>
 80022f6:	f880 5061 	strb.w	r5, [r0, #97]	@ 0x61
 80022fa:	2601      	movs	r6, #1
 80022fc:	9d06      	ldr	r5, [sp, #24]
 80022fe:	f880 6060 	strb.w	r6, [r0, #96]	@ 0x60
 8002302:	9500      	str	r5, [sp, #0]
 8002304:	f7ff ff6a 	bl	80021dc <DMA2D_SetConfig>
 8002308:	6822      	ldr	r2, [r4, #0]
 800230a:	2000      	movs	r0, #0
 800230c:	6813      	ldr	r3, [r2, #0]
 800230e:	4333      	orrs	r3, r6
 8002310:	6013      	str	r3, [r2, #0]
 8002312:	b002      	add	sp, #8
 8002314:	bd70      	pop	{r4, r5, r6, pc}
 8002316:	4628      	mov	r0, r5
 8002318:	e7fb      	b.n	8002312 <HAL_DMA2D_Start+0x2c>

0800231a <HAL_DMA2D_PollForTransfer>:
 800231a:	2300      	movs	r3, #0
 800231c:	b573      	push	{r0, r1, r4, r5, r6, lr}
 800231e:	9301      	str	r3, [sp, #4]
 8002320:	4604      	mov	r4, r0
 8002322:	6803      	ldr	r3, [r0, #0]
 8002324:	460d      	mov	r5, r1
 8002326:	681b      	ldr	r3, [r3, #0]
 8002328:	07db      	lsls	r3, r3, #31
 800232a:	d418      	bmi.n	800235e <HAL_DMA2D_PollForTransfer+0x44>
 800232c:	6822      	ldr	r2, [r4, #0]
 800232e:	69d3      	ldr	r3, [r2, #28]
 8002330:	6a52      	ldr	r2, [r2, #36]	@ 0x24
 8002332:	4313      	orrs	r3, r2
 8002334:	069e      	lsls	r6, r3, #26
 8002336:	d506      	bpl.n	8002346 <HAL_DMA2D_PollForTransfer+0x2c>
 8002338:	f7ff fea4 	bl	8002084 <HAL_GetTick>
 800233c:	4606      	mov	r6, r0
 800233e:	6823      	ldr	r3, [r4, #0]
 8002340:	685a      	ldr	r2, [r3, #4]
 8002342:	06d2      	lsls	r2, r2, #27
 8002344:	d53f      	bpl.n	80023c6 <HAL_DMA2D_PollForTransfer+0xac>
 8002346:	6823      	ldr	r3, [r4, #0]
 8002348:	2212      	movs	r2, #18
 800234a:	2000      	movs	r0, #0
 800234c:	609a      	str	r2, [r3, #8]
 800234e:	2301      	movs	r3, #1
 8002350:	f884 3061 	strb.w	r3, [r4, #97]	@ 0x61
 8002354:	2300      	movs	r3, #0
 8002356:	f884 3060 	strb.w	r3, [r4, #96]	@ 0x60
 800235a:	b002      	add	sp, #8
 800235c:	bd70      	pop	{r4, r5, r6, pc}
 800235e:	f7ff fe91 	bl	8002084 <HAL_GetTick>
 8002362:	4606      	mov	r6, r0
 8002364:	6823      	ldr	r3, [r4, #0]
 8002366:	685a      	ldr	r2, [r3, #4]
 8002368:	0792      	lsls	r2, r2, #30
 800236a:	d4df      	bmi.n	800232c <HAL_DMA2D_PollForTransfer+0x12>
 800236c:	685a      	ldr	r2, [r3, #4]
 800236e:	9201      	str	r2, [sp, #4]
 8002370:	9a01      	ldr	r2, [sp, #4]
 8002372:	f012 0f21 	tst.w	r2, #33	@ 0x21
 8002376:	d014      	beq.n	80023a2 <HAL_DMA2D_PollForTransfer+0x88>
 8002378:	9a01      	ldr	r2, [sp, #4]
 800237a:	0695      	lsls	r5, r2, #26
 800237c:	d503      	bpl.n	8002386 <HAL_DMA2D_PollForTransfer+0x6c>
 800237e:	6e62      	ldr	r2, [r4, #100]	@ 0x64
 8002380:	f042 0202 	orr.w	r2, r2, #2
 8002384:	6662      	str	r2, [r4, #100]	@ 0x64
 8002386:	9a01      	ldr	r2, [sp, #4]
 8002388:	07d0      	lsls	r0, r2, #31
 800238a:	d503      	bpl.n	8002394 <HAL_DMA2D_PollForTransfer+0x7a>
 800238c:	6e62      	ldr	r2, [r4, #100]	@ 0x64
 800238e:	f042 0201 	orr.w	r2, r2, #1
 8002392:	6662      	str	r2, [r4, #100]	@ 0x64
 8002394:	2221      	movs	r2, #33	@ 0x21
 8002396:	609a      	str	r2, [r3, #8]
 8002398:	2304      	movs	r3, #4
 800239a:	2001      	movs	r0, #1
 800239c:	f884 3061 	strb.w	r3, [r4, #97]	@ 0x61
 80023a0:	e7d8      	b.n	8002354 <HAL_DMA2D_PollForTransfer+0x3a>
 80023a2:	1c69      	adds	r1, r5, #1
 80023a4:	d0df      	beq.n	8002366 <HAL_DMA2D_PollForTransfer+0x4c>
 80023a6:	f7ff fe6d 	bl	8002084 <HAL_GetTick>
 80023aa:	1b80      	subs	r0, r0, r6
 80023ac:	42a8      	cmp	r0, r5
 80023ae:	d801      	bhi.n	80023b4 <HAL_DMA2D_PollForTransfer+0x9a>
 80023b0:	2d00      	cmp	r5, #0
 80023b2:	d1d7      	bne.n	8002364 <HAL_DMA2D_PollForTransfer+0x4a>
 80023b4:	6e63      	ldr	r3, [r4, #100]	@ 0x64
 80023b6:	2003      	movs	r0, #3
 80023b8:	f043 0320 	orr.w	r3, r3, #32
 80023bc:	6663      	str	r3, [r4, #100]	@ 0x64
 80023be:	2303      	movs	r3, #3
 80023c0:	f884 3061 	strb.w	r3, [r4, #97]	@ 0x61
 80023c4:	e7c6      	b.n	8002354 <HAL_DMA2D_PollForTransfer+0x3a>
 80023c6:	685a      	ldr	r2, [r3, #4]
 80023c8:	9201      	str	r2, [sp, #4]
 80023ca:	9a01      	ldr	r2, [sp, #4]
 80023cc:	f012 0f29 	tst.w	r2, #41	@ 0x29
 80023d0:	d016      	beq.n	8002400 <HAL_DMA2D_PollForTransfer+0xe6>
 80023d2:	9a01      	ldr	r2, [sp, #4]
 80023d4:	0716      	lsls	r6, r2, #28
 80023d6:	d503      	bpl.n	80023e0 <HAL_DMA2D_PollForTransfer+0xc6>
 80023d8:	6e62      	ldr	r2, [r4, #100]	@ 0x64
 80023da:	f042 0204 	orr.w	r2, r2, #4
 80023de:	6662      	str	r2, [r4, #100]	@ 0x64
 80023e0:	9a01      	ldr	r2, [sp, #4]
 80023e2:	0695      	lsls	r5, r2, #26
 80023e4:	d503      	bpl.n	80023ee <HAL_DMA2D_PollForTransfer+0xd4>
 80023e6:	6e62      	ldr	r2, [r4, #100]	@ 0x64
 80023e8:	f042 0202 	orr.w	r2, r2, #2
 80023ec:	6662      	str	r2, [r4, #100]	@ 0x64
 80023ee:	9a01      	ldr	r2, [sp, #4]
 80023f0:	07d0      	lsls	r0, r2, #31
 80023f2:	d503      	bpl.n	80023fc <HAL_DMA2D_PollForTransfer+0xe2>
 80023f4:	6e62      	ldr	r2, [r4, #100]	@ 0x64
 80023f6:	f042 0201 	orr.w	r2, r2, #1
 80023fa:	6662      	str	r2, [r4, #100]	@ 0x64
 80023fc:	2229      	movs	r2, #41	@ 0x29
 80023fe:	e7ca      	b.n	8002396 <HAL_DMA2D_PollForTransfer+0x7c>
 8002400:	1c69      	adds	r1, r5, #1
 8002402:	d09d      	beq.n	8002340 <HAL_DMA2D_PollForTransfer+0x26>
 8002404:	f7ff fe3e 	bl	8002084 <HAL_GetTick>
 8002408:	1b80      	subs	r0, r0, r6
 800240a:	42a8      	cmp	r0, r5
 800240c:	d8d2      	bhi.n	80023b4 <HAL_DMA2D_PollForTransfer+0x9a>
 800240e:	2d00      	cmp	r5, #0
 8002410:	d195      	bne.n	800233e <HAL_DMA2D_PollForTransfer+0x24>
 8002412:	e7cf      	b.n	80023b4 <HAL_DMA2D_PollForTransfer+0x9a>

08002414 <HAL_DMA2D_ConfigLayer>:
 8002414:	b570      	push	{r4, r5, r6, lr}
 8002416:	f890 3060 	ldrb.w	r3, [r0, #96]	@ 0x60
 800241a:	4602      	mov	r2, r0
 800241c:	2002      	movs	r0, #2
 800241e:	2b01      	cmp	r3, #1
 8002420:	d032      	beq.n	8002488 <HAL_DMA2D_ConfigLayer+0x74>
 8002422:	f882 0061 	strb.w	r0, [r2, #97]	@ 0x61
 8002426:	201c      	movs	r0, #28
 8002428:	2301      	movs	r3, #1
 800242a:	fb00 2001 	mla	r0, r0, r1, r2
 800242e:	f882 3060 	strb.w	r3, [r2, #96]	@ 0x60
 8002432:	6b83      	ldr	r3, [r0, #56]	@ 0x38
 8002434:	e9d0 450b 	ldrd	r4, r5, [r0, #44]	@ 0x2c
 8002438:	051b      	lsls	r3, r3, #20
 800243a:	ea43 4305 	orr.w	r3, r3, r5, lsl #16
 800243e:	6bc5      	ldr	r5, [r0, #60]	@ 0x3c
 8002440:	6b40      	ldr	r0, [r0, #52]	@ 0x34
 8002442:	4323      	orrs	r3, r4
 8002444:	ea43 5345 	orr.w	r3, r3, r5, lsl #21
 8002448:	f1a4 0509 	sub.w	r5, r4, #9
 800244c:	2d01      	cmp	r5, #1
 800244e:	bf96      	itet	ls
 8002450:	f000 407f 	andls.w	r0, r0, #4278190080	@ 0xff000000
 8002454:	ea43 6300 	orrhi.w	r3, r3, r0, lsl #24
 8002458:	4303      	orrls	r3, r0
 800245a:	6810      	ldr	r0, [r2, #0]
 800245c:	b9a9      	cbnz	r1, 800248a <HAL_DMA2D_ConfigLayer+0x76>
 800245e:	6a44      	ldr	r4, [r0, #36]	@ 0x24
 8002460:	2d01      	cmp	r5, #1
 8002462:	4919      	ldr	r1, [pc, #100]	@ (80024c8 <HAL_DMA2D_ConfigLayer+0xb4>)
 8002464:	ea01 0104 	and.w	r1, r1, r4
 8002468:	ea41 0103 	orr.w	r1, r1, r3
 800246c:	6a93      	ldr	r3, [r2, #40]	@ 0x28
 800246e:	6241      	str	r1, [r0, #36]	@ 0x24
 8002470:	6183      	str	r3, [r0, #24]
 8002472:	d803      	bhi.n	800247c <HAL_DMA2D_ConfigLayer+0x68>
 8002474:	6b53      	ldr	r3, [r2, #52]	@ 0x34
 8002476:	f023 437f 	bic.w	r3, r3, #4278190080	@ 0xff000000
 800247a:	6283      	str	r3, [r0, #40]	@ 0x28
 800247c:	2301      	movs	r3, #1
 800247e:	2000      	movs	r0, #0
 8002480:	f882 3061 	strb.w	r3, [r2, #97]	@ 0x61
 8002484:	f882 0060 	strb.w	r0, [r2, #96]	@ 0x60
 8002488:	bd70      	pop	{r4, r5, r6, pc}
 800248a:	2c0b      	cmp	r4, #11
 800248c:	bf05      	ittet	eq
 800248e:	241c      	moveq	r4, #28
 8002490:	4e0e      	ldreq	r6, [pc, #56]	@ (80024cc <HAL_DMA2D_ConfigLayer+0xb8>)
 8002492:	4e0f      	ldrne	r6, [pc, #60]	@ (80024d0 <HAL_DMA2D_ConfigLayer+0xbc>)
 8002494:	fb04 2401 	mlaeq	r4, r4, r1, r2
 8002498:	bf04      	itt	eq
 800249a:	6c24      	ldreq	r4, [r4, #64]	@ 0x40
 800249c:	ea43 4384 	orreq.w	r3, r3, r4, lsl #18
 80024a0:	69c4      	ldr	r4, [r0, #28]
 80024a2:	2d01      	cmp	r5, #1
 80024a4:	ea24 0406 	bic.w	r4, r4, r6
 80024a8:	ea43 0304 	orr.w	r3, r3, r4
 80024ac:	61c3      	str	r3, [r0, #28]
 80024ae:	f04f 031c 	mov.w	r3, #28
 80024b2:	fb03 2101 	mla	r1, r3, r1, r2
 80024b6:	6a8b      	ldr	r3, [r1, #40]	@ 0x28
 80024b8:	6103      	str	r3, [r0, #16]
 80024ba:	d8df      	bhi.n	800247c <HAL_DMA2D_ConfigLayer+0x68>
 80024bc:	6b4b      	ldr	r3, [r1, #52]	@ 0x34
 80024be:	f023 437f 	bic.w	r3, r3, #4278190080	@ 0xff000000
 80024c2:	6203      	str	r3, [r0, #32]
 80024c4:	e7da      	b.n	800247c <HAL_DMA2D_ConfigLayer+0x68>
 80024c6:	bf00      	nop
 80024c8:	00ccfff0 	.word	0x00ccfff0
 80024cc:	ff3f000f 	.word	0xff3f000f
 80024d0:	ff33000f 	.word	0xff33000f

080024d4 <HAL_GPIO_Init>:
 80024d4:	e92d 4ff7 	stmdb	sp!, {r0, r1, r2, r4, r5, r6, r7, r8, r9, sl, fp, lr}
 80024d8:	2300      	movs	r3, #0
 80024da:	f8df 91c4 	ldr.w	r9, [pc, #452]	@ 80026a0 <HAL_GPIO_Init+0x1cc>
 80024de:	f04f 44b0 	mov.w	r4, #1476395008	@ 0x58000000
 80024e2:	680a      	ldr	r2, [r1, #0]
 80024e4:	fa32 f503 	lsrs.w	r5, r2, r3
 80024e8:	d102      	bne.n	80024f0 <HAL_GPIO_Init+0x1c>
 80024ea:	b003      	add	sp, #12
 80024ec:	e8bd 8ff0 	ldmia.w	sp!, {r4, r5, r6, r7, r8, r9, sl, fp, pc}
 80024f0:	2501      	movs	r5, #1
 80024f2:	fa05 f803 	lsl.w	r8, r5, r3
 80024f6:	ea18 0202 	ands.w	r2, r8, r2
 80024fa:	f000 80bb 	beq.w	8002674 <HAL_GPIO_Init+0x1a0>
 80024fe:	684e      	ldr	r6, [r1, #4]
 8002500:	2703      	movs	r7, #3
 8002502:	ea4f 0e43 	mov.w	lr, r3, lsl #1
 8002506:	f006 0503 	and.w	r5, r6, #3
 800250a:	fa07 fc0e 	lsl.w	ip, r7, lr
 800250e:	1e6f      	subs	r7, r5, #1
 8002510:	ea6f 0c0c 	mvn.w	ip, ip
 8002514:	2f01      	cmp	r7, #1
 8002516:	d834      	bhi.n	8002582 <HAL_GPIO_Init+0xae>
 8002518:	6887      	ldr	r7, [r0, #8]
 800251a:	ea07 0a0c 	and.w	sl, r7, ip
 800251e:	68cf      	ldr	r7, [r1, #12]
 8002520:	fa07 f70e 	lsl.w	r7, r7, lr
 8002524:	ea47 070a 	orr.w	r7, r7, sl
 8002528:	6087      	str	r7, [r0, #8]
 800252a:	6847      	ldr	r7, [r0, #4]
 800252c:	ea27 0808 	bic.w	r8, r7, r8
 8002530:	f3c6 1700 	ubfx	r7, r6, #4, #1
 8002534:	409f      	lsls	r7, r3
 8002536:	ea47 0708 	orr.w	r7, r7, r8
 800253a:	6047      	str	r7, [r0, #4]
 800253c:	68c7      	ldr	r7, [r0, #12]
 800253e:	2d02      	cmp	r5, #2
 8002540:	ea07 080c 	and.w	r8, r7, ip
 8002544:	688f      	ldr	r7, [r1, #8]
 8002546:	fa07 f70e 	lsl.w	r7, r7, lr
 800254a:	ea47 0708 	orr.w	r7, r7, r8
 800254e:	60c7      	str	r7, [r0, #12]
 8002550:	d119      	bne.n	8002586 <HAL_GPIO_Init+0xb2>
 8002552:	ea4f 08d3 	mov.w	r8, r3, lsr #3
 8002556:	f003 0a07 	and.w	sl, r3, #7
 800255a:	f04f 0b0f 	mov.w	fp, #15
 800255e:	eb00 0888 	add.w	r8, r0, r8, lsl #2
 8002562:	ea4f 0a8a 	mov.w	sl, sl, lsl #2
 8002566:	f8d8 7020 	ldr.w	r7, [r8, #32]
 800256a:	fa0b fb0a 	lsl.w	fp, fp, sl
 800256e:	ea27 0b0b 	bic.w	fp, r7, fp
 8002572:	690f      	ldr	r7, [r1, #16]
 8002574:	fa07 f70a 	lsl.w	r7, r7, sl
 8002578:	ea47 070b 	orr.w	r7, r7, fp
 800257c:	f8c8 7020 	str.w	r7, [r8, #32]
 8002580:	e001      	b.n	8002586 <HAL_GPIO_Init+0xb2>
 8002582:	2d03      	cmp	r5, #3
 8002584:	d1da      	bne.n	800253c <HAL_GPIO_Init+0x68>
 8002586:	6807      	ldr	r7, [r0, #0]
 8002588:	fa05 f50e 	lsl.w	r5, r5, lr
 800258c:	f416 3f40 	tst.w	r6, #196608	@ 0x30000
 8002590:	ea07 070c 	and.w	r7, r7, ip
 8002594:	ea45 0507 	orr.w	r5, r5, r7
 8002598:	6005      	str	r5, [r0, #0]
 800259a:	d06b      	beq.n	8002674 <HAL_GPIO_Init+0x1a0>
 800259c:	f8d9 5154 	ldr.w	r5, [r9, #340]	@ 0x154
 80025a0:	f023 0703 	bic.w	r7, r3, #3
 80025a4:	f003 0c03 	and.w	ip, r3, #3
 80025a8:	f04f 0e0f 	mov.w	lr, #15
 80025ac:	f045 0502 	orr.w	r5, r5, #2
 80025b0:	f107 47b0 	add.w	r7, r7, #1476395008	@ 0x58000000
 80025b4:	ea4f 0c8c 	mov.w	ip, ip, lsl #2
 80025b8:	f8c9 5154 	str.w	r5, [r9, #340]	@ 0x154
 80025bc:	f507 6780 	add.w	r7, r7, #1024	@ 0x400
 80025c0:	f8d9 5154 	ldr.w	r5, [r9, #340]	@ 0x154
 80025c4:	fa0e fe0c 	lsl.w	lr, lr, ip
 80025c8:	f005 0502 	and.w	r5, r5, #2
 80025cc:	9501      	str	r5, [sp, #4]
 80025ce:	9d01      	ldr	r5, [sp, #4]
 80025d0:	68bd      	ldr	r5, [r7, #8]
 80025d2:	ea25 0e0e 	bic.w	lr, r5, lr
 80025d6:	4d31      	ldr	r5, [pc, #196]	@ (800269c <HAL_GPIO_Init+0x1c8>)
 80025d8:	42a8      	cmp	r0, r5
 80025da:	d04d      	beq.n	8002678 <HAL_GPIO_Init+0x1a4>
 80025dc:	f505 6580 	add.w	r5, r5, #1024	@ 0x400
 80025e0:	42a8      	cmp	r0, r5
 80025e2:	d04b      	beq.n	800267c <HAL_GPIO_Init+0x1a8>
 80025e4:	f505 6580 	add.w	r5, r5, #1024	@ 0x400
 80025e8:	42a8      	cmp	r0, r5
 80025ea:	d049      	beq.n	8002680 <HAL_GPIO_Init+0x1ac>
 80025ec:	f505 6580 	add.w	r5, r5, #1024	@ 0x400
 80025f0:	42a8      	cmp	r0, r5
 80025f2:	d047      	beq.n	8002684 <HAL_GPIO_Init+0x1b0>
 80025f4:	f505 6580 	add.w	r5, r5, #1024	@ 0x400
 80025f8:	42a8      	cmp	r0, r5
 80025fa:	d045      	beq.n	8002688 <HAL_GPIO_Init+0x1b4>
 80025fc:	f505 6580 	add.w	r5, r5, #1024	@ 0x400
 8002600:	42a8      	cmp	r0, r5
 8002602:	d043      	beq.n	800268c <HAL_GPIO_Init+0x1b8>
 8002604:	f505 6580 	add.w	r5, r5, #1024	@ 0x400
 8002608:	42a8      	cmp	r0, r5
 800260a:	d041      	beq.n	8002690 <HAL_GPIO_Init+0x1bc>
 800260c:	f505 6580 	add.w	r5, r5, #1024	@ 0x400
 8002610:	42a8      	cmp	r0, r5
 8002612:	d03f      	beq.n	8002694 <HAL_GPIO_Init+0x1c0>
 8002614:	f505 6580 	add.w	r5, r5, #1024	@ 0x400
 8002618:	42a8      	cmp	r0, r5
 800261a:	d03d      	beq.n	8002698 <HAL_GPIO_Init+0x1c4>
 800261c:	f505 6580 	add.w	r5, r5, #1024	@ 0x400
 8002620:	42a8      	cmp	r0, r5
 8002622:	bf14      	ite	ne
 8002624:	250a      	movne	r5, #10
 8002626:	2509      	moveq	r5, #9
 8002628:	fa05 f50c 	lsl.w	r5, r5, ip
 800262c:	f416 1f80 	tst.w	r6, #1048576	@ 0x100000
 8002630:	ea45 050e 	orr.w	r5, r5, lr
 8002634:	60bd      	str	r5, [r7, #8]
 8002636:	ea6f 0702 	mvn.w	r7, r2
 800263a:	6825      	ldr	r5, [r4, #0]
 800263c:	bf0c      	ite	eq
 800263e:	403d      	andeq	r5, r7
 8002640:	4315      	orrne	r5, r2
 8002642:	f416 1f00 	tst.w	r6, #2097152	@ 0x200000
 8002646:	6025      	str	r5, [r4, #0]
 8002648:	6865      	ldr	r5, [r4, #4]
 800264a:	bf0c      	ite	eq
 800264c:	403d      	andeq	r5, r7
 800264e:	4315      	orrne	r5, r2
 8002650:	f416 3f00 	tst.w	r6, #131072	@ 0x20000
 8002654:	6065      	str	r5, [r4, #4]
 8002656:	f8d4 5084 	ldr.w	r5, [r4, #132]	@ 0x84
 800265a:	bf0c      	ite	eq
 800265c:	403d      	andeq	r5, r7
 800265e:	4315      	orrne	r5, r2
 8002660:	03f6      	lsls	r6, r6, #15
 8002662:	f8c4 5084 	str.w	r5, [r4, #132]	@ 0x84
 8002666:	f8d4 5080 	ldr.w	r5, [r4, #128]	@ 0x80
 800266a:	bf54      	ite	pl
 800266c:	403d      	andpl	r5, r7
 800266e:	4315      	orrmi	r5, r2
 8002670:	f8c4 5080 	str.w	r5, [r4, #128]	@ 0x80
 8002674:	3301      	adds	r3, #1
 8002676:	e734      	b.n	80024e2 <HAL_GPIO_Init+0xe>
 8002678:	2500      	movs	r5, #0
 800267a:	e7d5      	b.n	8002628 <HAL_GPIO_Init+0x154>
 800267c:	2501      	movs	r5, #1
 800267e:	e7d3      	b.n	8002628 <HAL_GPIO_Init+0x154>
 8002680:	2502      	movs	r5, #2
 8002682:	e7d1      	b.n	8002628 <HAL_GPIO_Init+0x154>
 8002684:	2503      	movs	r5, #3
 8002686:	e7cf      	b.n	8002628 <HAL_GPIO_Init+0x154>
 8002688:	2504      	movs	r5, #4
 800268a:	e7cd      	b.n	8002628 <HAL_GPIO_Init+0x154>
 800268c:	2505      	movs	r5, #5
 800268e:	e7cb      	b.n	8002628 <HAL_GPIO_Init+0x154>
 8002690:	2506      	movs	r5, #6
 8002692:	e7c9      	b.n	8002628 <HAL_GPIO_Init+0x154>
 8002694:	2507      	movs	r5, #7
 8002696:	e7c7      	b.n	8002628 <HAL_GPIO_Init+0x154>
 8002698:	2508      	movs	r5, #8
 800269a:	e7c5      	b.n	8002628 <HAL_GPIO_Init+0x154>
 800269c:	58020000 	.word	0x58020000
 80026a0:	58024400 	.word	0x58024400

080026a4 <HAL_GPIO_ReadPin>:
 80026a4:	6903      	ldr	r3, [r0, #16]
 80026a6:	4219      	tst	r1, r3
 80026a8:	bf14      	ite	ne
 80026aa:	2001      	movne	r0, #1
 80026ac:	2000      	moveq	r0, #0
 80026ae:	4770      	bx	lr

080026b0 <HAL_GPIO_WritePin>:
 80026b0:	b10a      	cbz	r2, 80026b6 <HAL_GPIO_WritePin+0x6>
 80026b2:	6181      	str	r1, [r0, #24]
 80026b4:	4770      	bx	lr
 80026b6:	0409      	lsls	r1, r1, #16
 80026b8:	e7fb      	b.n	80026b2 <HAL_GPIO_WritePin+0x2>

080026ba <HAL_GPIO_EXTI_IRQHandler>:
 80026ba:	f04f 42b0 	mov.w	r2, #1476395008	@ 0x58000000
 80026be:	f8d2 1088 	ldr.w	r1, [r2, #136]	@ 0x88
 80026c2:	4201      	tst	r1, r0
 80026c4:	b508      	push	{r3, lr}
 80026c6:	d003      	beq.n	80026d0 <HAL_GPIO_EXTI_IRQHandler+0x16>
 80026c8:	f8c2 0088 	str.w	r0, [r2, #136]	@ 0x88
 80026cc:	f7ff f9e6 	bl	8001a9c <HAL_GPIO_EXTI_Callback>
 80026d0:	bd08      	pop	{r3, pc}

080026d2 <JPEG_Bits_To_SizeCodes>:
 80026d2:	b5f0      	push	{r4, r5, r6, r7, lr}
 80026d4:	2401      	movs	r4, #1
 80026d6:	7807      	ldrb	r7, [r0, #0]
 80026d8:	2500      	movs	r5, #0
 80026da:	194e      	adds	r6, r1, r5
 80026dc:	443d      	add	r5, r7
 80026de:	194f      	adds	r7, r1, r5
 80026e0:	42be      	cmp	r6, r7
 80026e2:	d112      	bne.n	800270a <JPEG_Bits_To_SizeCodes+0x38>
 80026e4:	2c10      	cmp	r4, #16
 80026e6:	d108      	bne.n	80026fa <JPEG_Bits_To_SizeCodes+0x28>
 80026e8:	2400      	movs	r4, #0
 80026ea:	2601      	movs	r6, #1
 80026ec:	554c      	strb	r4, [r1, r5]
 80026ee:	601d      	str	r5, [r3, #0]
 80026f0:	4623      	mov	r3, r4
 80026f2:	780d      	ldrb	r5, [r1, #0]
 80026f4:	5cc8      	ldrb	r0, [r1, r3]
 80026f6:	b9d8      	cbnz	r0, 8002730 <JPEG_Bits_To_SizeCodes+0x5e>
 80026f8:	bdf0      	pop	{r4, r5, r6, r7, pc}
 80026fa:	5d07      	ldrb	r7, [r0, r4]
 80026fc:	3401      	adds	r4, #1
 80026fe:	19ee      	adds	r6, r5, r7
 8002700:	f5b6 7f80 	cmp.w	r6, #256	@ 0x100
 8002704:	d9e9      	bls.n	80026da <JPEG_Bits_To_SizeCodes+0x8>
 8002706:	2001      	movs	r0, #1
 8002708:	e7f6      	b.n	80026f8 <JPEG_Bits_To_SizeCodes+0x26>
 800270a:	f806 4b01 	strb.w	r4, [r6], #1
 800270e:	e7e7      	b.n	80026e0 <JPEG_Bits_To_SizeCodes+0xe>
 8002710:	f842 4023 	str.w	r4, [r2, r3, lsl #2]
 8002714:	3301      	adds	r3, #1
 8002716:	5cc8      	ldrb	r0, [r1, r3]
 8002718:	19dc      	adds	r4, r3, r7
 800271a:	42a8      	cmp	r0, r5
 800271c:	d0f8      	beq.n	8002710 <JPEG_Bits_To_SizeCodes+0x3e>
 800271e:	2d1f      	cmp	r5, #31
 8002720:	d8f1      	bhi.n	8002706 <JPEG_Bits_To_SizeCodes+0x34>
 8002722:	fa06 f005 	lsl.w	r0, r6, r5
 8002726:	42a0      	cmp	r0, r4
 8002728:	d9ed      	bls.n	8002706 <JPEG_Bits_To_SizeCodes+0x34>
 800272a:	0064      	lsls	r4, r4, #1
 800272c:	3501      	adds	r5, #1
 800272e:	e7e1      	b.n	80026f4 <JPEG_Bits_To_SizeCodes+0x22>
 8002730:	1ae7      	subs	r7, r4, r3
 8002732:	e7f0      	b.n	8002716 <JPEG_Bits_To_SizeCodes+0x44>

08002734 <JPEG_DCHuff_BitsVals_To_SizeCodes>:
 8002734:	b5f0      	push	{r4, r5, r6, r7, lr}
 8002736:	f2ad 5d14 	subw	sp, sp, #1300	@ 0x514
 800273a:	460d      	mov	r5, r1
 800273c:	4604      	mov	r4, r0
 800273e:	ab01      	add	r3, sp, #4
 8002740:	aa43      	add	r2, sp, #268	@ 0x10c
 8002742:	a902      	add	r1, sp, #8
 8002744:	f7ff ffc5 	bl	80026d2 <JPEG_Bits_To_SizeCodes>
 8002748:	b938      	cbnz	r0, 800275a <JPEG_DCHuff_BitsVals_To_SizeCodes+0x26>
 800274a:	9e01      	ldr	r6, [sp, #4]
 800274c:	460b      	mov	r3, r1
 800274e:	f104 010f 	add.w	r1, r4, #15
 8002752:	360f      	adds	r6, #15
 8002754:	4434      	add	r4, r6
 8002756:	42a1      	cmp	r1, r4
 8002758:	d102      	bne.n	8002760 <JPEG_DCHuff_BitsVals_To_SizeCodes+0x2c>
 800275a:	f20d 5d14 	addw	sp, sp, #1300	@ 0x514
 800275e:	bdf0      	pop	{r4, r5, r6, r7, pc}
 8002760:	f811 6f01 	ldrb.w	r6, [r1, #1]!
 8002764:	2e0b      	cmp	r6, #11
 8002766:	d80a      	bhi.n	800277e <JPEG_DCHuff_BitsVals_To_SizeCodes+0x4a>
 8002768:	eb05 0786 	add.w	r7, r5, r6, lsl #2
 800276c:	f852 cb04 	ldr.w	ip, [r2], #4
 8002770:	f8c7 c00c 	str.w	ip, [r7, #12]
 8002774:	f813 7b01 	ldrb.w	r7, [r3], #1
 8002778:	3f01      	subs	r7, #1
 800277a:	55af      	strb	r7, [r5, r6]
 800277c:	e7eb      	b.n	8002756 <JPEG_DCHuff_BitsVals_To_SizeCodes+0x22>
 800277e:	2001      	movs	r0, #1
 8002780:	e7eb      	b.n	800275a <JPEG_DCHuff_BitsVals_To_SizeCodes+0x26>

08002782 <JPEG_Set_HuffDC_Mem>:
 8002782:	4603      	mov	r3, r0
 8002784:	4608      	mov	r0, r1
 8002786:	b5f0      	push	{r4, r5, r6, r7, lr}
 8002788:	681c      	ldr	r4, [r3, #0]
 800278a:	b091      	sub	sp, #68	@ 0x44
 800278c:	f504 63f8 	add.w	r3, r4, #1984	@ 0x7c0
 8002790:	429a      	cmp	r2, r3
 8002792:	d125      	bne.n	80027e0 <JPEG_Set_HuffDC_Mem+0x5e>
 8002794:	f504 64fb 	add.w	r4, r4, #2008	@ 0x7d8
 8002798:	a901      	add	r1, sp, #4
 800279a:	f7ff ffcb 	bl	8002734 <JPEG_DCHuff_BitsVals_To_SizeCodes>
 800279e:	b9e8      	cbnz	r0, 80027dc <JPEG_Set_HuffDC_Mem+0x5a>
 80027a0:	aa01      	add	r2, sp, #4
 80027a2:	f06f 23f0 	mvn.w	r3, #4026593280	@ 0xf000f000
 80027a6:	f1a4 0618 	sub.w	r6, r4, #24
 80027aa:	4615      	mov	r5, r2
 80027ac:	6023      	str	r3, [r4, #0]
 80027ae:	6063      	str	r3, [r4, #4]
 80027b0:	7ad1      	ldrb	r1, [r2, #11]
 80027b2:	3d08      	subs	r5, #8
 80027b4:	f895 3040 	ldrb.w	r3, [r5, #64]	@ 0x40
 80027b8:	3a02      	subs	r2, #2
 80027ba:	0209      	lsls	r1, r1, #8
 80027bc:	f895 703c 	ldrb.w	r7, [r5, #60]	@ 0x3c
 80027c0:	f401 6170 	and.w	r1, r1, #3840	@ 0xf00
 80027c4:	4319      	orrs	r1, r3
 80027c6:	7b13      	ldrb	r3, [r2, #12]
 80027c8:	021b      	lsls	r3, r3, #8
 80027ca:	f403 6370 	and.w	r3, r3, #3840	@ 0xf00
 80027ce:	433b      	orrs	r3, r7
 80027d0:	ea43 4301 	orr.w	r3, r3, r1, lsl #16
 80027d4:	f844 3d04 	str.w	r3, [r4, #-4]!
 80027d8:	42b4      	cmp	r4, r6
 80027da:	d1e9      	bne.n	80027b0 <JPEG_Set_HuffDC_Mem+0x2e>
 80027dc:	b011      	add	sp, #68	@ 0x44
 80027de:	bdf0      	pop	{r4, r5, r6, r7, pc}
 80027e0:	f504 63fc 	add.w	r3, r4, #2016	@ 0x7e0
 80027e4:	429a      	cmp	r2, r3
 80027e6:	d102      	bne.n	80027ee <JPEG_Set_HuffDC_Mem+0x6c>
 80027e8:	f504 64ff 	add.w	r4, r4, #2040	@ 0x7f8
 80027ec:	e7d4      	b.n	8002798 <JPEG_Set_HuffDC_Mem+0x16>
 80027ee:	2001      	movs	r0, #1
 80027f0:	e7f4      	b.n	80027dc <JPEG_Set_HuffDC_Mem+0x5a>

080027f2 <JPEG_Set_HuffAC_Mem>:
 80027f2:	e92d 41f0 	stmdb	sp!, {r4, r5, r6, r7, r8, lr}
 80027f6:	6804      	ldr	r4, [r0, #0]
 80027f8:	f6ad 0d38 	subw	sp, sp, #2104	@ 0x838
 80027fc:	460e      	mov	r6, r1
 80027fe:	f504 63a0 	add.w	r3, r4, #1280	@ 0x500
 8002802:	429a      	cmp	r2, r3
 8002804:	d149      	bne.n	800289a <JPEG_Set_HuffAC_Mem+0xa8>
 8002806:	f204 6444 	addw	r4, r4, #1604	@ 0x644
 800280a:	466b      	mov	r3, sp
 800280c:	f20d 4234 	addw	r2, sp, #1076	@ 0x434
 8002810:	a901      	add	r1, sp, #4
 8002812:	4630      	mov	r0, r6
 8002814:	f7ff ff5d 	bl	80026d2 <JPEG_Bits_To_SizeCodes>
 8002818:	2800      	cmp	r0, #0
 800281a:	d13a      	bne.n	8002892 <JPEG_Set_HuffAC_Mem+0xa0>
 800281c:	9b00      	ldr	r3, [sp, #0]
 800281e:	460d      	mov	r5, r1
 8002820:	f106 0c0f 	add.w	ip, r6, #15
 8002824:	4617      	mov	r7, r2
 8002826:	330f      	adds	r3, #15
 8002828:	f04f 0e0a 	mov.w	lr, #10
 800282c:	18f1      	adds	r1, r6, r3
 800282e:	ae42      	add	r6, sp, #264	@ 0x108
 8002830:	4561      	cmp	r1, ip
 8002832:	d139      	bne.n	80028a8 <JPEG_Set_HuffAC_Mem+0xb6>
 8002834:	f06f 23f0 	mvn.w	r3, #4026593280	@ 0xf000f000
 8002838:	a942      	add	r1, sp, #264	@ 0x108
 800283a:	f5a4 76a2 	sub.w	r6, r4, #324	@ 0x144
 800283e:	6023      	str	r3, [r4, #0]
 8002840:	460d      	mov	r5, r1
 8002842:	6063      	str	r3, [r4, #4]
 8002844:	60a3      	str	r3, [r4, #8]
 8002846:	f103 33d1 	add.w	r3, r3, #3520188881	@ 0xd1d1d1d1
 800284a:	f103 232e 	add.w	r3, r3, #771763712	@ 0x2e002e00
 800284e:	60e3      	str	r3, [r4, #12]
 8002850:	f103 1302 	add.w	r3, r3, #131074	@ 0x20002
 8002854:	6123      	str	r3, [r4, #16]
 8002856:	f103 1302 	add.w	r3, r3, #131074	@ 0x20002
 800285a:	6163      	str	r3, [r4, #20]
 800285c:	f103 1302 	add.w	r3, r3, #131074	@ 0x20002
 8002860:	61a3      	str	r3, [r4, #24]
 8002862:	f891 20a1 	ldrb.w	r2, [r1, #161]	@ 0xa1
 8002866:	3d08      	subs	r5, #8
 8002868:	f895 3330 	ldrb.w	r3, [r5, #816]	@ 0x330
 800286c:	3902      	subs	r1, #2
 800286e:	0212      	lsls	r2, r2, #8
 8002870:	f895 732c 	ldrb.w	r7, [r5, #812]	@ 0x32c
 8002874:	f402 6270 	and.w	r2, r2, #3840	@ 0xf00
 8002878:	431a      	orrs	r2, r3
 800287a:	f891 30a2 	ldrb.w	r3, [r1, #162]	@ 0xa2
 800287e:	021b      	lsls	r3, r3, #8
 8002880:	f403 6370 	and.w	r3, r3, #3840	@ 0xf00
 8002884:	433b      	orrs	r3, r7
 8002886:	ea43 4302 	orr.w	r3, r3, r2, lsl #16
 800288a:	f844 3d04 	str.w	r3, [r4, #-4]!
 800288e:	42b4      	cmp	r4, r6
 8002890:	d1e7      	bne.n	8002862 <JPEG_Set_HuffAC_Mem+0x70>
 8002892:	f60d 0d38 	addw	sp, sp, #2104	@ 0x838
 8002896:	e8bd 81f0 	ldmia.w	sp!, {r4, r5, r6, r7, r8, pc}
 800289a:	f504 63cc 	add.w	r3, r4, #1632	@ 0x660
 800289e:	429a      	cmp	r2, r3
 80028a0:	d10f      	bne.n	80028c2 <JPEG_Set_HuffAC_Mem+0xd0>
 80028a2:	f204 74a4 	addw	r4, r4, #1956	@ 0x7a4
 80028a6:	e7b0      	b.n	800280a <JPEG_Set_HuffAC_Mem+0x18>
 80028a8:	f81c 3f01 	ldrb.w	r3, [ip, #1]!
 80028ac:	b15b      	cbz	r3, 80028c6 <JPEG_Set_HuffAC_Mem+0xd4>
 80028ae:	2bf0      	cmp	r3, #240	@ 0xf0
 80028b0:	d015      	beq.n	80028de <JPEG_Set_HuffAC_Mem+0xec>
 80028b2:	091a      	lsrs	r2, r3, #4
 80028b4:	f003 030f 	and.w	r3, r3, #15
 80028b8:	3b01      	subs	r3, #1
 80028ba:	fb0e 3302 	mla	r3, lr, r2, r3
 80028be:	2ba1      	cmp	r3, #161	@ 0xa1
 80028c0:	d902      	bls.n	80028c8 <JPEG_Set_HuffAC_Mem+0xd6>
 80028c2:	2001      	movs	r0, #1
 80028c4:	e7e5      	b.n	8002892 <JPEG_Set_HuffAC_Mem+0xa0>
 80028c6:	23a0      	movs	r3, #160	@ 0xa0
 80028c8:	eb06 0283 	add.w	r2, r6, r3, lsl #2
 80028cc:	f857 8b04 	ldr.w	r8, [r7], #4
 80028d0:	f8c2 80a4 	str.w	r8, [r2, #164]	@ 0xa4
 80028d4:	f815 2b01 	ldrb.w	r2, [r5], #1
 80028d8:	3a01      	subs	r2, #1
 80028da:	54f2      	strb	r2, [r6, r3]
 80028dc:	e7a8      	b.n	8002830 <JPEG_Set_HuffAC_Mem+0x3e>
 80028de:	23a1      	movs	r3, #161	@ 0xa1
 80028e0:	e7f2      	b.n	80028c8 <JPEG_Set_HuffAC_Mem+0xd6>

080028e2 <JPEG_Init_Process>:
 80028e2:	6d43      	ldr	r3, [r0, #84]	@ 0x54
 80028e4:	f423 5340 	bic.w	r3, r3, #12288	@ 0x3000
 80028e8:	6543      	str	r3, [r0, #84]	@ 0x54
 80028ea:	6d42      	ldr	r2, [r0, #84]	@ 0x54
 80028ec:	6803      	ldr	r3, [r0, #0]
 80028ee:	f002 0203 	and.w	r2, r2, #3
 80028f2:	2a02      	cmp	r2, #2
 80028f4:	685a      	ldr	r2, [r3, #4]
 80028f6:	bf0c      	ite	eq
 80028f8:	f042 0208 	orreq.w	r2, r2, #8
 80028fc:	f022 0208 	bicne.w	r2, r2, #8
 8002900:	605a      	str	r2, [r3, #4]
 8002902:	681a      	ldr	r2, [r3, #0]
 8002904:	f022 0201 	bic.w	r2, r2, #1
 8002908:	601a      	str	r2, [r3, #0]
 800290a:	6b1a      	ldr	r2, [r3, #48]	@ 0x30
 800290c:	f022 027e 	bic.w	r2, r2, #126	@ 0x7e
 8002910:	631a      	str	r2, [r3, #48]	@ 0x30
 8002912:	6b1a      	ldr	r2, [r3, #48]	@ 0x30
 8002914:	f442 5200 	orr.w	r2, r2, #8192	@ 0x2000
 8002918:	631a      	str	r2, [r3, #48]	@ 0x30
 800291a:	6b1a      	ldr	r2, [r3, #48]	@ 0x30
 800291c:	f442 4280 	orr.w	r2, r2, #16384	@ 0x4000
 8002920:	631a      	str	r2, [r3, #48]	@ 0x30
 8002922:	6b9a      	ldr	r2, [r3, #56]	@ 0x38
 8002924:	f042 0260 	orr.w	r2, r2, #96	@ 0x60
 8002928:	639a      	str	r2, [r3, #56]	@ 0x38
 800292a:	681a      	ldr	r2, [r3, #0]
 800292c:	f042 0201 	orr.w	r2, r2, #1
 8002930:	601a      	str	r2, [r3, #0]
 8002932:	6d42      	ldr	r2, [r0, #84]	@ 0x54
 8002934:	f002 020c 	and.w	r2, r2, #12
 8002938:	2a08      	cmp	r2, #8
 800293a:	d104      	bne.n	8002946 <JPEG_Init_Process+0x64>
 800293c:	6b1a      	ldr	r2, [r3, #48]	@ 0x30
 800293e:	f042 026e 	orr.w	r2, r2, #110	@ 0x6e
 8002942:	631a      	str	r2, [r3, #48]	@ 0x30
 8002944:	4770      	bx	lr
 8002946:	6d42      	ldr	r2, [r0, #84]	@ 0x54
 8002948:	f002 020c 	and.w	r2, r2, #12
 800294c:	2a0c      	cmp	r2, #12
 800294e:	d1f9      	bne.n	8002944 <JPEG_Init_Process+0x62>
 8002950:	6b1a      	ldr	r2, [r3, #48]	@ 0x30
 8002952:	f042 0260 	orr.w	r2, r2, #96	@ 0x60
 8002956:	e7f4      	b.n	8002942 <JPEG_Init_Process+0x60>

08002958 <JPEG_DMA_StartProcess>:
 8002958:	b5f7      	push	{r0, r1, r2, r4, r5, r6, r7, lr}
 800295a:	6b06      	ldr	r6, [r0, #48]	@ 0x30
 800295c:	4604      	mov	r4, r0
 800295e:	6a82      	ldr	r2, [r0, #40]	@ 0x28
 8002960:	6ab5      	ldr	r5, [r6, #40]	@ 0x28
 8002962:	42aa      	cmp	r2, r5
 8002964:	d313      	bcc.n	800298e <JPEG_DMA_StartProcess+0x36>
 8002966:	6b40      	ldr	r0, [r0, #52]	@ 0x34
 8002968:	6ae3      	ldr	r3, [r4, #44]	@ 0x2c
 800296a:	6a81      	ldr	r1, [r0, #40]	@ 0x28
 800296c:	428b      	cmp	r3, r1
 800296e:	d30e      	bcc.n	800298e <JPEG_DMA_StartProcess+0x36>
 8002970:	4f18      	ldr	r7, [pc, #96]	@ (80029d4 <JPEG_DMA_StartProcess+0x7c>)
 8002972:	6477      	str	r7, [r6, #68]	@ 0x44
 8002974:	4f18      	ldr	r7, [pc, #96]	@ (80029d8 <JPEG_DMA_StartProcess+0x80>)
 8002976:	6577      	str	r7, [r6, #84]	@ 0x54
 8002978:	4e18      	ldr	r6, [pc, #96]	@ (80029dc <JPEG_DMA_StartProcess+0x84>)
 800297a:	6547      	str	r7, [r0, #84]	@ 0x54
 800297c:	6446      	str	r6, [r0, #68]	@ 0x44
 800297e:	4e18      	ldr	r6, [pc, #96]	@ (80029e0 <JPEG_DMA_StartProcess+0x88>)
 8002980:	6586      	str	r6, [r0, #88]	@ 0x58
 8002982:	b105      	cbz	r5, 8002986 <JPEG_DMA_StartProcess+0x2e>
 8002984:	b931      	cbnz	r1, 8002994 <JPEG_DMA_StartProcess+0x3c>
 8002986:	6d23      	ldr	r3, [r4, #80]	@ 0x50
 8002988:	f043 0304 	orr.w	r3, r3, #4
 800298c:	6523      	str	r3, [r4, #80]	@ 0x50
 800298e:	2001      	movs	r0, #1
 8002990:	b003      	add	sp, #12
 8002992:	bdf0      	pop	{r4, r5, r6, r7, pc}
 8002994:	fbb2 f6f5 	udiv	r6, r2, r5
 8002998:	fb05 2516 	mls	r5, r5, r6, r2
 800299c:	1b52      	subs	r2, r2, r5
 800299e:	2501      	movs	r5, #1
 80029a0:	62a2      	str	r2, [r4, #40]	@ 0x28
 80029a2:	fbb3 f2f1 	udiv	r2, r3, r1
 80029a6:	fb01 3212 	mls	r2, r1, r2, r3
 80029aa:	6821      	ldr	r1, [r4, #0]
 80029ac:	1a9b      	subs	r3, r3, r2
 80029ae:	3144      	adds	r1, #68	@ 0x44
 80029b0:	62e3      	str	r3, [r4, #44]	@ 0x2c
 80029b2:	9500      	str	r5, [sp, #0]
 80029b4:	69e2      	ldr	r2, [r4, #28]
 80029b6:	f000 fdf6 	bl	80035a6 <HAL_MDMA_Start_IT>
 80029ba:	2800      	cmp	r0, #0
 80029bc:	d1e3      	bne.n	8002986 <JPEG_DMA_StartProcess+0x2e>
 80029be:	6822      	ldr	r2, [r4, #0]
 80029c0:	9500      	str	r5, [sp, #0]
 80029c2:	3240      	adds	r2, #64	@ 0x40
 80029c4:	6aa3      	ldr	r3, [r4, #40]	@ 0x28
 80029c6:	69a1      	ldr	r1, [r4, #24]
 80029c8:	6b20      	ldr	r0, [r4, #48]	@ 0x30
 80029ca:	f000 fdec 	bl	80035a6 <HAL_MDMA_Start_IT>
 80029ce:	2800      	cmp	r0, #0
 80029d0:	d0de      	beq.n	8002990 <JPEG_DMA_StartProcess+0x38>
 80029d2:	e7d8      	b.n	8002986 <JPEG_DMA_StartProcess+0x2e>
 80029d4:	08002f1b 	.word	0x08002f1b
 80029d8:	08002e13 	.word	0x08002e13
 80029dc:	080032ff 	.word	0x080032ff
 80029e0:	080032f1 	.word	0x080032f1

080029e4 <HAL_JPEG_Init>:
 80029e4:	b5f8      	push	{r3, r4, r5, r6, r7, lr}
 80029e6:	4605      	mov	r5, r0
 80029e8:	2800      	cmp	r0, #0
 80029ea:	f000 80f2 	beq.w	8002bd2 <HAL_JPEG_Init+0x1ee>
 80029ee:	f890 304d 	ldrb.w	r3, [r0, #77]	@ 0x4d
 80029f2:	f003 02ff 	and.w	r2, r3, #255	@ 0xff
 80029f6:	b91b      	cbnz	r3, 8002a00 <HAL_JPEG_Init+0x1c>
 80029f8:	f880 204c 	strb.w	r2, [r0, #76]	@ 0x4c
 80029fc:	f7ff f8a8 	bl	8001b50 <HAL_JPEG_MspInit>
 8002a00:	682c      	ldr	r4, [r5, #0]
 8002a02:	2302      	movs	r3, #2
 8002a04:	4a86      	ldr	r2, [pc, #536]	@ (8002c20 <HAL_JPEG_Init+0x23c>)
 8002a06:	f885 304d 	strb.w	r3, [r5, #77]	@ 0x4d
 8002a0a:	f504 715b 	add.w	r1, r4, #876	@ 0x36c
 8002a0e:	6b23      	ldr	r3, [r4, #48]	@ 0x30
 8002a10:	f504 7057 	add.w	r0, r4, #860	@ 0x35c
 8002a14:	f043 0301 	orr.w	r3, r3, #1
 8002a18:	6323      	str	r3, [r4, #48]	@ 0x30
 8002a1a:	6823      	ldr	r3, [r4, #0]
 8002a1c:	f023 0301 	bic.w	r3, r3, #1
 8002a20:	6023      	str	r3, [r4, #0]
 8002a22:	6b23      	ldr	r3, [r4, #48]	@ 0x30
 8002a24:	f023 037e 	bic.w	r3, r3, #126	@ 0x7e
 8002a28:	6323      	str	r3, [r4, #48]	@ 0x30
 8002a2a:	6b23      	ldr	r3, [r4, #48]	@ 0x30
 8002a2c:	f443 5300 	orr.w	r3, r3, #8192	@ 0x2000
 8002a30:	6323      	str	r3, [r4, #48]	@ 0x30
 8002a32:	6b23      	ldr	r3, [r4, #48]	@ 0x30
 8002a34:	f443 4380 	orr.w	r3, r3, #16384	@ 0x4000
 8002a38:	6323      	str	r3, [r4, #48]	@ 0x30
 8002a3a:	6ba3      	ldr	r3, [r4, #56]	@ 0x38
 8002a3c:	f043 0360 	orr.w	r3, r3, #96	@ 0x60
 8002a40:	63a3      	str	r3, [r4, #56]	@ 0x38
 8002a42:	4b78      	ldr	r3, [pc, #480]	@ (8002c24 <HAL_JPEG_Init+0x240>)
 8002a44:	63eb      	str	r3, [r5, #60]	@ 0x3c
 8002a46:	4b78      	ldr	r3, [pc, #480]	@ (8002c28 <HAL_JPEG_Init+0x244>)
 8002a48:	642b      	str	r3, [r5, #64]	@ 0x40
 8002a4a:	2300      	movs	r3, #0
 8002a4c:	e9c5 3311 	strd	r3, r3, [r5, #68]	@ 0x44
 8002a50:	7b93      	ldrb	r3, [r2, #14]
 8002a52:	3a04      	subs	r2, #4
 8002a54:	7cd6      	ldrb	r6, [r2, #19]
 8002a56:	041b      	lsls	r3, r3, #16
 8002a58:	ea43 6306 	orr.w	r3, r3, r6, lsl #24
 8002a5c:	7c16      	ldrb	r6, [r2, #16]
 8002a5e:	4333      	orrs	r3, r6
 8002a60:	7c56      	ldrb	r6, [r2, #17]
 8002a62:	ea43 2306 	orr.w	r3, r3, r6, lsl #8
 8002a66:	f841 3904 	str.w	r3, [r1], #-4
 8002a6a:	4281      	cmp	r1, r0
 8002a6c:	d1f0      	bne.n	8002a50 <HAL_JPEG_Init+0x6c>
 8002a6e:	4b6f      	ldr	r3, [pc, #444]	@ (8002c2c <HAL_JPEG_Init+0x248>)
 8002a70:	f504 7162 	add.w	r1, r4, #904	@ 0x388
 8002a74:	4a6e      	ldr	r2, [pc, #440]	@ (8002c30 <HAL_JPEG_Init+0x24c>)
 8002a76:	f504 775e 	add.w	r7, r4, #888	@ 0x378
 8002a7a:	f8c4 3378 	str.w	r3, [r4, #888]	@ 0x378
 8002a7e:	f1a3 3304 	sub.w	r3, r3, #67372036	@ 0x4040404
 8002a82:	4610      	mov	r0, r2
 8002a84:	460e      	mov	r6, r1
 8002a86:	f8c4 3374 	str.w	r3, [r4, #884]	@ 0x374
 8002a8a:	f1a3 3304 	sub.w	r3, r3, #67372036	@ 0x4040404
 8002a8e:	f8c4 3370 	str.w	r3, [r4, #880]	@ 0x370
 8002a92:	7b83      	ldrb	r3, [r0, #14]
 8002a94:	3804      	subs	r0, #4
 8002a96:	f890 c013 	ldrb.w	ip, [r0, #19]
 8002a9a:	041b      	lsls	r3, r3, #16
 8002a9c:	ea43 630c 	orr.w	r3, r3, ip, lsl #24
 8002aa0:	f890 c010 	ldrb.w	ip, [r0, #16]
 8002aa4:	ea43 030c 	orr.w	r3, r3, ip
 8002aa8:	f890 c011 	ldrb.w	ip, [r0, #17]
 8002aac:	ea43 230c 	orr.w	r3, r3, ip, lsl #8
 8002ab0:	f846 3904 	str.w	r3, [r6], #-4
 8002ab4:	42be      	cmp	r6, r7
 8002ab6:	d1ec      	bne.n	8002a92 <HAL_JPEG_Init+0xae>
 8002ab8:	f8d4 342c 	ldr.w	r3, [r4, #1068]	@ 0x42c
 8002abc:	f504 6085 	add.w	r0, r4, #1064	@ 0x428
 8002ac0:	0c1b      	lsrs	r3, r3, #16
 8002ac2:	041b      	lsls	r3, r3, #16
 8002ac4:	f443 437a 	orr.w	r3, r3, #64000	@ 0xfa00
 8002ac8:	f043 03f9 	orr.w	r3, r3, #249	@ 0xf9
 8002acc:	f8c4 342c 	str.w	r3, [r4, #1068]	@ 0x42c
 8002ad0:	f892 30ae 	ldrb.w	r3, [r2, #174]	@ 0xae
 8002ad4:	3a04      	subs	r2, #4
 8002ad6:	f892 60b3 	ldrb.w	r6, [r2, #179]	@ 0xb3
 8002ada:	041b      	lsls	r3, r3, #16
 8002adc:	ea43 6306 	orr.w	r3, r3, r6, lsl #24
 8002ae0:	f892 60b0 	ldrb.w	r6, [r2, #176]	@ 0xb0
 8002ae4:	4333      	orrs	r3, r6
 8002ae6:	f892 60b1 	ldrb.w	r6, [r2, #177]	@ 0xb1
 8002aea:	ea43 2306 	orr.w	r3, r3, r6, lsl #8
 8002aee:	f840 3904 	str.w	r3, [r0], #-4
 8002af2:	4281      	cmp	r1, r0
 8002af4:	d1ec      	bne.n	8002ad0 <HAL_JPEG_Init+0xec>
 8002af6:	f8d4 342c 	ldr.w	r3, [r4, #1068]	@ 0x42c
 8002afa:	f504 619f 	add.w	r1, r4, #1272	@ 0x4f8
 8002afe:	4a4d      	ldr	r2, [pc, #308]	@ (8002c34 <HAL_JPEG_Init+0x250>)
 8002b00:	f504 608b 	add.w	r0, r4, #1112	@ 0x458
 8002b04:	b29b      	uxth	r3, r3
 8002b06:	f043 7340 	orr.w	r3, r3, #50331648	@ 0x3000000
 8002b0a:	f8c4 342c 	str.w	r3, [r4, #1068]	@ 0x42c
 8002b0e:	f8d4 343c 	ldr.w	r3, [r4, #1084]	@ 0x43c
 8002b12:	4013      	ands	r3, r2
 8002b14:	f8c4 343c 	str.w	r3, [r4, #1084]	@ 0x43c
 8002b18:	2301      	movs	r3, #1
 8002b1a:	f8c4 3438 	str.w	r3, [r4, #1080]	@ 0x438
 8002b1e:	f04f 3301 	mov.w	r3, #16843009	@ 0x1010101
 8002b22:	f8c4 3434 	str.w	r3, [r4, #1076]	@ 0x434
 8002b26:	f8c4 3430 	str.w	r3, [r4, #1072]	@ 0x430
 8002b2a:	f8d4 343c 	ldr.w	r3, [r4, #1084]	@ 0x43c
 8002b2e:	b29b      	uxth	r3, r3
 8002b30:	f043 7380 	orr.w	r3, r3, #16777216	@ 0x1000000
 8002b34:	f8c4 343c 	str.w	r3, [r4, #1084]	@ 0x43c
 8002b38:	f8d4 3448 	ldr.w	r3, [r4, #1096]	@ 0x448
 8002b3c:	4013      	ands	r3, r2
 8002b3e:	f443 6330 	orr.w	r3, r3, #2816	@ 0xb00
 8002b42:	f043 030a 	orr.w	r3, r3, #10
 8002b46:	f8c4 3448 	str.w	r3, [r4, #1096]	@ 0x448
 8002b4a:	4b3b      	ldr	r3, [pc, #236]	@ (8002c38 <HAL_JPEG_Init+0x254>)
 8002b4c:	f8c4 3444 	str.w	r3, [r4, #1092]	@ 0x444
 8002b50:	f1a3 3304 	sub.w	r3, r3, #67372036	@ 0x4040404
 8002b54:	f8c4 3440 	str.w	r3, [r4, #1088]	@ 0x440
 8002b58:	f8d4 3448 	ldr.w	r3, [r4, #1096]	@ 0x448
 8002b5c:	b29b      	uxth	r3, r3
 8002b5e:	f043 7300 	orr.w	r3, r3, #33554432	@ 0x2000000
 8002b62:	f8c4 3448 	str.w	r3, [r4, #1096]	@ 0x448
 8002b66:	f8d4 3458 	ldr.w	r3, [r4, #1112]	@ 0x458
 8002b6a:	4013      	ands	r3, r2
 8002b6c:	4a33      	ldr	r2, [pc, #204]	@ (8002c3c <HAL_JPEG_Init+0x258>)
 8002b6e:	f443 43ee 	orr.w	r3, r3, #30464	@ 0x7700
 8002b72:	f043 0302 	orr.w	r3, r3, #2
 8002b76:	f8c4 3458 	str.w	r3, [r4, #1112]	@ 0x458
 8002b7a:	4b31      	ldr	r3, [pc, #196]	@ (8002c40 <HAL_JPEG_Init+0x25c>)
 8002b7c:	f8c4 3454 	str.w	r3, [r4, #1108]	@ 0x454
 8002b80:	4b30      	ldr	r3, [pc, #192]	@ (8002c44 <HAL_JPEG_Init+0x260>)
 8002b82:	f8c4 3450 	str.w	r3, [r4, #1104]	@ 0x450
 8002b86:	4b30      	ldr	r3, [pc, #192]	@ (8002c48 <HAL_JPEG_Init+0x264>)
 8002b88:	f8c4 344c 	str.w	r3, [r4, #1100]	@ 0x44c
 8002b8c:	f8d4 3458 	ldr.w	r3, [r4, #1112]	@ 0x458
 8002b90:	b29b      	uxth	r3, r3
 8002b92:	f043 7380 	orr.w	r3, r3, #16777216	@ 0x1000000
 8002b96:	f8c4 3458 	str.w	r3, [r4, #1112]	@ 0x458
 8002b9a:	f892 30b0 	ldrb.w	r3, [r2, #176]	@ 0xb0
 8002b9e:	3a04      	subs	r2, #4
 8002ba0:	f892 60b5 	ldrb.w	r6, [r2, #181]	@ 0xb5
 8002ba4:	041b      	lsls	r3, r3, #16
 8002ba6:	ea43 6306 	orr.w	r3, r3, r6, lsl #24
 8002baa:	f892 60b2 	ldrb.w	r6, [r2, #178]	@ 0xb2
 8002bae:	4333      	orrs	r3, r6
 8002bb0:	f892 60b3 	ldrb.w	r6, [r2, #179]	@ 0xb3
 8002bb4:	ea43 2306 	orr.w	r3, r3, r6, lsl #8
 8002bb8:	f841 3904 	str.w	r3, [r1], #-4
 8002bbc:	4281      	cmp	r1, r0
 8002bbe:	d1ec      	bne.n	8002b9a <HAL_JPEG_Init+0x1b6>
 8002bc0:	f504 62a0 	add.w	r2, r4, #1280	@ 0x500
 8002bc4:	491a      	ldr	r1, [pc, #104]	@ (8002c30 <HAL_JPEG_Init+0x24c>)
 8002bc6:	4628      	mov	r0, r5
 8002bc8:	f7ff fe13 	bl	80027f2 <JPEG_Set_HuffAC_Mem>
 8002bcc:	b118      	cbz	r0, 8002bd6 <HAL_JPEG_Init+0x1f2>
 8002bce:	2301      	movs	r3, #1
 8002bd0:	652b      	str	r3, [r5, #80]	@ 0x50
 8002bd2:	2001      	movs	r0, #1
 8002bd4:	bdf8      	pop	{r3, r4, r5, r6, r7, pc}
 8002bd6:	f504 62cc 	add.w	r2, r4, #1632	@ 0x660
 8002bda:	4918      	ldr	r1, [pc, #96]	@ (8002c3c <HAL_JPEG_Init+0x258>)
 8002bdc:	4628      	mov	r0, r5
 8002bde:	f7ff fe08 	bl	80027f2 <JPEG_Set_HuffAC_Mem>
 8002be2:	2800      	cmp	r0, #0
 8002be4:	d1f3      	bne.n	8002bce <HAL_JPEG_Init+0x1ea>
 8002be6:	f504 62f8 	add.w	r2, r4, #1984	@ 0x7c0
 8002bea:	490d      	ldr	r1, [pc, #52]	@ (8002c20 <HAL_JPEG_Init+0x23c>)
 8002bec:	4628      	mov	r0, r5
 8002bee:	f7ff fdc8 	bl	8002782 <JPEG_Set_HuffDC_Mem>
 8002bf2:	2800      	cmp	r0, #0
 8002bf4:	d1eb      	bne.n	8002bce <HAL_JPEG_Init+0x1ea>
 8002bf6:	f504 62fc 	add.w	r2, r4, #2016	@ 0x7e0
 8002bfa:	4914      	ldr	r1, [pc, #80]	@ (8002c4c <HAL_JPEG_Init+0x268>)
 8002bfc:	4628      	mov	r0, r5
 8002bfe:	f7ff fdc0 	bl	8002782 <JPEG_Set_HuffDC_Mem>
 8002c02:	2800      	cmp	r0, #0
 8002c04:	d1e3      	bne.n	8002bce <HAL_JPEG_Init+0x1ea>
 8002c06:	6863      	ldr	r3, [r4, #4]
 8002c08:	f443 7380 	orr.w	r3, r3, #256	@ 0x100
 8002c0c:	6063      	str	r3, [r4, #4]
 8002c0e:	2301      	movs	r3, #1
 8002c10:	6228      	str	r0, [r5, #32]
 8002c12:	6268      	str	r0, [r5, #36]	@ 0x24
 8002c14:	f885 304d 	strb.w	r3, [r5, #77]	@ 0x4d
 8002c18:	6528      	str	r0, [r5, #80]	@ 0x50
 8002c1a:	6568      	str	r0, [r5, #84]	@ 0x54
 8002c1c:	e7da      	b.n	8002bd4 <HAL_JPEG_Init+0x1f0>
 8002c1e:	bf00      	nop
 8002c20:	08008f5a 	.word	0x08008f5a
 8002c24:	08008d5a 	.word	0x08008d5a
 8002c28:	08008d1a 	.word	0x08008d1a
 8002c2c:	0b0a0908 	.word	0x0b0a0908
 8002c30:	08008e8c 	.word	0x08008e8c
 8002c34:	ffff0000 	.word	0xffff0000
 8002c38:	09080706 	.word	0x09080706
 8002c3c:	08008dda 	.word	0x08008dda
 8002c40:	01000404 	.word	0x01000404
 8002c44:	05070403 	.word	0x05070403
 8002c48:	04040201 	.word	0x04040201
 8002c4c:	08008f3e 	.word	0x08008f3e

08002c50 <HAL_JPEG_GetInfo>:
 8002c50:	e92d 4ff0 	stmdb	sp!, {r4, r5, r6, r7, r8, r9, sl, fp, lr}
 8002c54:	2800      	cmp	r0, #0
 8002c56:	d06f      	beq.n	8002d38 <HAL_JPEG_GetInfo+0xe8>
 8002c58:	2900      	cmp	r1, #0
 8002c5a:	d06d      	beq.n	8002d38 <HAL_JPEG_GetInfo+0xe8>
 8002c5c:	6804      	ldr	r4, [r0, #0]
 8002c5e:	6863      	ldr	r3, [r4, #4]
 8002c60:	f003 0303 	and.w	r3, r3, #3
 8002c64:	2b02      	cmp	r3, #2
 8002c66:	d047      	beq.n	8002cf8 <HAL_JPEG_GetInfo+0xa8>
 8002c68:	6863      	ldr	r3, [r4, #4]
 8002c6a:	f013 0303 	ands.w	r3, r3, #3
 8002c6e:	d005      	beq.n	8002c7c <HAL_JPEG_GetInfo+0x2c>
 8002c70:	6863      	ldr	r3, [r4, #4]
 8002c72:	f003 0303 	and.w	r3, r3, #3
 8002c76:	2b03      	cmp	r3, #3
 8002c78:	d15e      	bne.n	8002d38 <HAL_JPEG_GetInfo+0xe8>
 8002c7a:	2330      	movs	r3, #48	@ 0x30
 8002c7c:	6862      	ldr	r2, [r4, #4]
 8002c7e:	600b      	str	r3, [r1, #0]
 8002c80:	f023 0320 	bic.w	r3, r3, #32
 8002c84:	0c12      	lsrs	r2, r2, #16
 8002c86:	2b10      	cmp	r3, #16
 8002c88:	608a      	str	r2, [r1, #8]
 8002c8a:	68e2      	ldr	r2, [r4, #12]
 8002c8c:	ea4f 4212 	mov.w	r2, r2, lsr #16
 8002c90:	60ca      	str	r2, [r1, #12]
 8002c92:	d13c      	bne.n	8002d0e <HAL_JPEG_GetInfo+0xbe>
 8002c94:	6925      	ldr	r5, [r4, #16]
 8002c96:	6963      	ldr	r3, [r4, #20]
 8002c98:	f3c5 1503 	ubfx	r5, r5, #4, #4
 8002c9c:	69a2      	ldr	r2, [r4, #24]
 8002c9e:	091b      	lsrs	r3, r3, #4
 8002ca0:	2d01      	cmp	r5, #1
 8002ca2:	ea4f 1212 	mov.w	r2, r2, lsr #4
 8002ca6:	d129      	bne.n	8002cfc <HAL_JPEG_GetInfo+0xac>
 8002ca8:	4313      	orrs	r3, r2
 8002caa:	f013 0f0f 	tst.w	r3, #15
 8002cae:	bf0c      	ite	eq
 8002cb0:	2301      	moveq	r3, #1
 8002cb2:	2300      	movne	r3, #0
 8002cb4:	005b      	lsls	r3, r3, #1
 8002cb6:	604b      	str	r3, [r1, #4]
 8002cb8:	2300      	movs	r3, #0
 8002cba:	3450      	adds	r4, #80	@ 0x50
 8002cbc:	f8df c07c 	ldr.w	ip, [pc, #124]	@ 8002d3c <HAL_JPEG_GetInfo+0xec>
 8002cc0:	461d      	mov	r5, r3
 8002cc2:	f04f 0e64 	mov.w	lr, #100	@ 0x64
 8002cc6:	f241 3888 	movw	r8, #5000	@ 0x1388
 8002cca:	f854 9005 	ldr.w	r9, [r4, r5]
 8002cce:	eb05 070c 	add.w	r7, r5, ip
 8002cd2:	2600      	movs	r6, #0
 8002cd4:	fa29 f206 	lsr.w	r2, r9, r6
 8002cd8:	b2d2      	uxtb	r2, r2
 8002cda:	2a01      	cmp	r2, #1
 8002cdc:	d119      	bne.n	8002d12 <HAL_JPEG_GetInfo+0xc2>
 8002cde:	3364      	adds	r3, #100	@ 0x64
 8002ce0:	3608      	adds	r6, #8
 8002ce2:	3701      	adds	r7, #1
 8002ce4:	2e20      	cmp	r6, #32
 8002ce6:	d1f5      	bne.n	8002cd4 <HAL_JPEG_GetInfo+0x84>
 8002ce8:	3504      	adds	r5, #4
 8002cea:	2d40      	cmp	r5, #64	@ 0x40
 8002cec:	d1ed      	bne.n	8002cca <HAL_JPEG_GetInfo+0x7a>
 8002cee:	099b      	lsrs	r3, r3, #6
 8002cf0:	2000      	movs	r0, #0
 8002cf2:	610b      	str	r3, [r1, #16]
 8002cf4:	e8bd 8ff0 	ldmia.w	sp!, {r4, r5, r6, r7, r8, r9, sl, fp, pc}
 8002cf8:	2310      	movs	r3, #16
 8002cfa:	e7bf      	b.n	8002c7c <HAL_JPEG_GetInfo+0x2c>
 8002cfc:	2d03      	cmp	r5, #3
 8002cfe:	d106      	bne.n	8002d0e <HAL_JPEG_GetInfo+0xbe>
 8002d00:	4313      	orrs	r3, r2
 8002d02:	f013 0f0f 	tst.w	r3, #15
 8002d06:	bf0c      	ite	eq
 8002d08:	2301      	moveq	r3, #1
 8002d0a:	2300      	movne	r3, #0
 8002d0c:	e7d3      	b.n	8002cb6 <HAL_JPEG_GetInfo+0x66>
 8002d0e:	2300      	movs	r3, #0
 8002d10:	e7d1      	b.n	8002cb6 <HAL_JPEG_GetInfo+0x66>
 8002d12:	fb0e fb02 	mul.w	fp, lr, r2
 8002d16:	f897 a000 	ldrb.w	sl, [r7]
 8002d1a:	6bc2      	ldr	r2, [r0, #60]	@ 0x3c
 8002d1c:	f812 a00a 	ldrb.w	sl, [r2, sl]
 8002d20:	fbbb f2fa 	udiv	r2, fp, sl
 8002d24:	2a64      	cmp	r2, #100	@ 0x64
 8002d26:	bf8b      	itete	hi
 8002d28:	fbb8 f2f2 	udivhi	r2, r8, r2
 8002d2c:	f1c2 02c8 	rsbls	r2, r2, #200	@ 0xc8
 8002d30:	189b      	addhi	r3, r3, r2
 8002d32:	eb03 0352 	addls.w	r3, r3, r2, lsr #1
 8002d36:	e7d3      	b.n	8002ce0 <HAL_JPEG_GetInfo+0x90>
 8002d38:	2001      	movs	r0, #1
 8002d3a:	e7db      	b.n	8002cf4 <HAL_JPEG_GetInfo+0xa4>
 8002d3c:	08008d9a 	.word	0x08008d9a

08002d40 <HAL_JPEG_Decode_DMA>:
 8002d40:	b538      	push	{r3, r4, r5, lr}
 8002d42:	4604      	mov	r4, r0
 8002d44:	b348      	cbz	r0, 8002d9a <HAL_JPEG_Decode_DMA+0x5a>
 8002d46:	b341      	cbz	r1, 8002d9a <HAL_JPEG_Decode_DMA+0x5a>
 8002d48:	b33b      	cbz	r3, 8002d9a <HAL_JPEG_Decode_DMA+0x5a>
 8002d4a:	f890 504c 	ldrb.w	r5, [r0, #76]	@ 0x4c
 8002d4e:	2d01      	cmp	r5, #1
 8002d50:	d028      	beq.n	8002da4 <HAL_JPEG_Decode_DMA+0x64>
 8002d52:	2501      	movs	r5, #1
 8002d54:	f880 504c 	strb.w	r5, [r0, #76]	@ 0x4c
 8002d58:	f890 504d 	ldrb.w	r5, [r0, #77]	@ 0x4d
 8002d5c:	2d01      	cmp	r5, #1
 8002d5e:	d11e      	bne.n	8002d9e <HAL_JPEG_Decode_DMA+0x5e>
 8002d60:	2504      	movs	r5, #4
 8002d62:	6282      	str	r2, [r0, #40]	@ 0x28
 8002d64:	f880 504d 	strb.w	r5, [r0, #77]	@ 0x4d
 8002d68:	6d45      	ldr	r5, [r0, #84]	@ 0x54
 8002d6a:	f025 050f 	bic.w	r5, r5, #15
 8002d6e:	6545      	str	r5, [r0, #84]	@ 0x54
 8002d70:	6d45      	ldr	r5, [r0, #84]	@ 0x54
 8002d72:	f045 050e 	orr.w	r5, r5, #14
 8002d76:	e9c0 1306 	strd	r1, r3, [r0, #24]
 8002d7a:	6545      	str	r5, [r0, #84]	@ 0x54
 8002d7c:	2500      	movs	r5, #0
 8002d7e:	9b04      	ldr	r3, [sp, #16]
 8002d80:	6205      	str	r5, [r0, #32]
 8002d82:	62c3      	str	r3, [r0, #44]	@ 0x2c
 8002d84:	6245      	str	r5, [r0, #36]	@ 0x24
 8002d86:	f7ff fdac 	bl	80028e2 <JPEG_Init_Process>
 8002d8a:	f7ff fde5 	bl	8002958 <JPEG_DMA_StartProcess>
 8002d8e:	b128      	cbz	r0, 8002d9c <HAL_JPEG_Decode_DMA+0x5c>
 8002d90:	2306      	movs	r3, #6
 8002d92:	f884 504c 	strb.w	r5, [r4, #76]	@ 0x4c
 8002d96:	f884 304d 	strb.w	r3, [r4, #77]	@ 0x4d
 8002d9a:	2001      	movs	r0, #1
 8002d9c:	bd38      	pop	{r3, r4, r5, pc}
 8002d9e:	2300      	movs	r3, #0
 8002da0:	f880 304c 	strb.w	r3, [r0, #76]	@ 0x4c
 8002da4:	2002      	movs	r0, #2
 8002da6:	e7f9      	b.n	8002d9c <HAL_JPEG_Decode_DMA+0x5c>

08002da8 <HAL_JPEG_Pause>:
 8002da8:	6d43      	ldr	r3, [r0, #84]	@ 0x54
 8002daa:	f003 030c 	and.w	r3, r3, #12
 8002dae:	2b0c      	cmp	r3, #12
 8002db0:	d10d      	bne.n	8002dce <HAL_JPEG_Pause+0x26>
 8002db2:	07cb      	lsls	r3, r1, #31
 8002db4:	d503      	bpl.n	8002dbe <HAL_JPEG_Pause+0x16>
 8002db6:	6d43      	ldr	r3, [r0, #84]	@ 0x54
 8002db8:	f443 5380 	orr.w	r3, r3, #4096	@ 0x1000
 8002dbc:	6543      	str	r3, [r0, #84]	@ 0x54
 8002dbe:	0789      	lsls	r1, r1, #30
 8002dc0:	d503      	bpl.n	8002dca <HAL_JPEG_Pause+0x22>
 8002dc2:	6d43      	ldr	r3, [r0, #84]	@ 0x54
 8002dc4:	f443 5300 	orr.w	r3, r3, #8192	@ 0x2000
 8002dc8:	6543      	str	r3, [r0, #84]	@ 0x54
 8002dca:	2000      	movs	r0, #0
 8002dcc:	4770      	bx	lr
 8002dce:	6d43      	ldr	r3, [r0, #84]	@ 0x54
 8002dd0:	f003 030c 	and.w	r3, r3, #12
 8002dd4:	2b08      	cmp	r3, #8
 8002dd6:	d1f8      	bne.n	8002dca <HAL_JPEG_Pause+0x22>
 8002dd8:	f011 0301 	ands.w	r3, r1, #1
 8002ddc:	d004      	beq.n	8002de8 <HAL_JPEG_Pause+0x40>
 8002dde:	6d43      	ldr	r3, [r0, #84]	@ 0x54
 8002de0:	f443 5380 	orr.w	r3, r3, #4096	@ 0x1000
 8002de4:	6543      	str	r3, [r0, #84]	@ 0x54
 8002de6:	2306      	movs	r3, #6
 8002de8:	078a      	lsls	r2, r1, #30
 8002dea:	d505      	bpl.n	8002df8 <HAL_JPEG_Pause+0x50>
 8002dec:	6d42      	ldr	r2, [r0, #84]	@ 0x54
 8002dee:	f043 0328 	orr.w	r3, r3, #40	@ 0x28
 8002df2:	f442 5200 	orr.w	r2, r2, #8192	@ 0x2000
 8002df6:	6542      	str	r2, [r0, #84]	@ 0x54
 8002df8:	6801      	ldr	r1, [r0, #0]
 8002dfa:	6b0a      	ldr	r2, [r1, #48]	@ 0x30
 8002dfc:	ea22 0303 	bic.w	r3, r2, r3
 8002e00:	630b      	str	r3, [r1, #48]	@ 0x30
 8002e02:	e7e2      	b.n	8002dca <HAL_JPEG_Pause+0x22>

08002e04 <HAL_JPEG_ConfigInputBuffer>:
 8002e04:	6181      	str	r1, [r0, #24]
 8002e06:	6282      	str	r2, [r0, #40]	@ 0x28
 8002e08:	4770      	bx	lr

08002e0a <HAL_JPEG_ConfigOutputBuffer>:
 8002e0a:	61c1      	str	r1, [r0, #28]
 8002e0c:	62c2      	str	r2, [r0, #44]	@ 0x2c
 8002e0e:	4770      	bx	lr

08002e10 <HAL_JPEG_EncodeCpltCallback>:
 8002e10:	4770      	bx	lr

08002e12 <JPEG_MDMAErrorCallback>:
 8002e12:	6c00      	ldr	r0, [r0, #64]	@ 0x40
 8002e14:	b508      	push	{r3, lr}
 8002e16:	6803      	ldr	r3, [r0, #0]
 8002e18:	681a      	ldr	r2, [r3, #0]
 8002e1a:	f022 0201 	bic.w	r2, r2, #1
 8002e1e:	601a      	str	r2, [r3, #0]
 8002e20:	6b1a      	ldr	r2, [r3, #48]	@ 0x30
 8002e22:	f022 027e 	bic.w	r2, r2, #126	@ 0x7e
 8002e26:	631a      	str	r2, [r3, #48]	@ 0x30
 8002e28:	2301      	movs	r3, #1
 8002e2a:	f880 304d 	strb.w	r3, [r0, #77]	@ 0x4d
 8002e2e:	6d03      	ldr	r3, [r0, #80]	@ 0x50
 8002e30:	f043 0304 	orr.w	r3, r3, #4
 8002e34:	6503      	str	r3, [r0, #80]	@ 0x50
 8002e36:	f7fd ffa9 	bl	8000d8c <HAL_JPEG_ErrorCallback>
 8002e3a:	bd08      	pop	{r3, pc}

08002e3c <JPEG_ReadInputData>:
 8002e3c:	6a82      	ldr	r2, [r0, #40]	@ 0x28
 8002e3e:	b5f8      	push	{r3, r4, r5, r6, r7, lr}
 8002e40:	4604      	mov	r4, r0
 8002e42:	460d      	mov	r5, r1
 8002e44:	b922      	cbnz	r2, 8002e50 <JPEG_ReadInputData+0x14>
 8002e46:	2101      	movs	r1, #1
 8002e48:	f7ff ffae 	bl	8002da8 <HAL_JPEG_Pause>
 8002e4c:	2200      	movs	r2, #0
 8002e4e:	e004      	b.n	8002e5a <JPEG_ReadInputData+0x1e>
 8002e50:	6a03      	ldr	r3, [r0, #32]
 8002e52:	429a      	cmp	r2, r3
 8002e54:	6a03      	ldr	r3, [r0, #32]
 8002e56:	d924      	bls.n	8002ea2 <JPEG_ReadInputData+0x66>
 8002e58:	1ad2      	subs	r2, r2, r3
 8002e5a:	6d63      	ldr	r3, [r4, #84]	@ 0x54
 8002e5c:	f413 5380 	ands.w	r3, r3, #4096	@ 0x1000
 8002e60:	d11e      	bne.n	8002ea0 <JPEG_ReadInputData+0x64>
 8002e62:	b1ea      	cbz	r2, 8002ea0 <JPEG_ReadInputData+0x64>
 8002e64:	ebb5 0f92 	cmp.w	r5, r2, lsr #2
 8002e68:	69a1      	ldr	r1, [r4, #24]
 8002e6a:	ea4f 0692 	mov.w	r6, r2, lsr #2
 8002e6e:	d827      	bhi.n	8002ec0 <JPEG_ReadInputData+0x84>
 8002e70:	6827      	ldr	r7, [r4, #0]
 8002e72:	6a26      	ldr	r6, [r4, #32]
 8002e74:	3301      	adds	r3, #1
 8002e76:	1988      	adds	r0, r1, r6
 8002e78:	5d8e      	ldrb	r6, [r1, r6]
 8002e7a:	429d      	cmp	r5, r3
 8002e7c:	7882      	ldrb	r2, [r0, #2]
 8002e7e:	f890 c001 	ldrb.w	ip, [r0, #1]
 8002e82:	ea4f 4202 	mov.w	r2, r2, lsl #16
 8002e86:	78c0      	ldrb	r0, [r0, #3]
 8002e88:	ea42 220c 	orr.w	r2, r2, ip, lsl #8
 8002e8c:	ea42 0206 	orr.w	r2, r2, r6
 8002e90:	ea42 6200 	orr.w	r2, r2, r0, lsl #24
 8002e94:	643a      	str	r2, [r7, #64]	@ 0x40
 8002e96:	6a22      	ldr	r2, [r4, #32]
 8002e98:	f102 0204 	add.w	r2, r2, #4
 8002e9c:	6222      	str	r2, [r4, #32]
 8002e9e:	d1e8      	bne.n	8002e72 <JPEG_ReadInputData+0x36>
 8002ea0:	bdf8      	pop	{r3, r4, r5, r6, r7, pc}
 8002ea2:	429a      	cmp	r2, r3
 8002ea4:	d1d2      	bne.n	8002e4c <JPEG_ReadInputData+0x10>
 8002ea6:	6a01      	ldr	r1, [r0, #32]
 8002ea8:	f7fd ff46 	bl	8000d38 <HAL_JPEG_GetDataCallback>
 8002eac:	6aa3      	ldr	r3, [r4, #40]	@ 0x28
 8002eae:	2b04      	cmp	r3, #4
 8002eb0:	bf84      	itt	hi
 8002eb2:	f023 0303 	bichi.w	r3, r3, #3
 8002eb6:	62a3      	strhi	r3, [r4, #40]	@ 0x28
 8002eb8:	2300      	movs	r3, #0
 8002eba:	6aa2      	ldr	r2, [r4, #40]	@ 0x28
 8002ebc:	6223      	str	r3, [r4, #32]
 8002ebe:	e7cc      	b.n	8002e5a <JPEG_ReadInputData+0x1e>
 8002ec0:	2a03      	cmp	r2, #3
 8002ec2:	d918      	bls.n	8002ef6 <JPEG_ReadInputData+0xba>
 8002ec4:	6827      	ldr	r7, [r4, #0]
 8002ec6:	6a25      	ldr	r5, [r4, #32]
 8002ec8:	3301      	adds	r3, #1
 8002eca:	1948      	adds	r0, r1, r5
 8002ecc:	5d4d      	ldrb	r5, [r1, r5]
 8002ece:	429e      	cmp	r6, r3
 8002ed0:	7882      	ldrb	r2, [r0, #2]
 8002ed2:	f890 c001 	ldrb.w	ip, [r0, #1]
 8002ed6:	ea4f 4202 	mov.w	r2, r2, lsl #16
 8002eda:	78c0      	ldrb	r0, [r0, #3]
 8002edc:	ea42 220c 	orr.w	r2, r2, ip, lsl #8
 8002ee0:	ea42 0205 	orr.w	r2, r2, r5
 8002ee4:	ea42 6200 	orr.w	r2, r2, r0, lsl #24
 8002ee8:	643a      	str	r2, [r7, #64]	@ 0x40
 8002eea:	6a22      	ldr	r2, [r4, #32]
 8002eec:	f102 0204 	add.w	r2, r2, #4
 8002ef0:	6222      	str	r2, [r4, #32]
 8002ef2:	d1e8      	bne.n	8002ec6 <JPEG_ReadInputData+0x8a>
 8002ef4:	e7d4      	b.n	8002ea0 <JPEG_ReadInputData+0x64>
 8002ef6:	4618      	mov	r0, r3
 8002ef8:	6a25      	ldr	r5, [r4, #32]
 8002efa:	00c6      	lsls	r6, r0, #3
 8002efc:	3001      	adds	r0, #1
 8002efe:	5d4d      	ldrb	r5, [r1, r5]
 8002f00:	4282      	cmp	r2, r0
 8002f02:	fa05 f506 	lsl.w	r5, r5, r6
 8002f06:	ea43 0305 	orr.w	r3, r3, r5
 8002f0a:	6a25      	ldr	r5, [r4, #32]
 8002f0c:	f105 0501 	add.w	r5, r5, #1
 8002f10:	6225      	str	r5, [r4, #32]
 8002f12:	d1f1      	bne.n	8002ef8 <JPEG_ReadInputData+0xbc>
 8002f14:	6822      	ldr	r2, [r4, #0]
 8002f16:	6413      	str	r3, [r2, #64]	@ 0x40
 8002f18:	e7c2      	b.n	8002ea0 <JPEG_ReadInputData+0x64>

08002f1a <JPEG_MDMAInCpltCallback>:
 8002f1a:	b537      	push	{r0, r1, r2, r4, r5, lr}
 8002f1c:	6c04      	ldr	r4, [r0, #64]	@ 0x40
 8002f1e:	6822      	ldr	r2, [r4, #0]
 8002f20:	6b13      	ldr	r3, [r2, #48]	@ 0x30
 8002f22:	f023 037e 	bic.w	r3, r3, #126	@ 0x7e
 8002f26:	6313      	str	r3, [r2, #48]	@ 0x30
 8002f28:	6d63      	ldr	r3, [r4, #84]	@ 0x54
 8002f2a:	f423 43ff 	bic.w	r3, r3, #32640	@ 0x7f80
 8002f2e:	f023 0373 	bic.w	r3, r3, #115	@ 0x73
 8002f32:	041b      	lsls	r3, r3, #16
 8002f34:	0c1b      	lsrs	r3, r3, #16
 8002f36:	2b0c      	cmp	r3, #12
 8002f38:	d11a      	bne.n	8002f70 <JPEG_MDMAInCpltCallback+0x56>
 8002f3a:	6b23      	ldr	r3, [r4, #48]	@ 0x30
 8002f3c:	6a9d      	ldr	r5, [r3, #40]	@ 0x28
 8002f3e:	6803      	ldr	r3, [r0, #0]
 8002f40:	4620      	mov	r0, r4
 8002f42:	695a      	ldr	r2, [r3, #20]
 8002f44:	6aa3      	ldr	r3, [r4, #40]	@ 0x28
 8002f46:	f3c2 0210 	ubfx	r2, r2, #0, #17
 8002f4a:	1a9b      	subs	r3, r3, r2
 8002f4c:	6223      	str	r3, [r4, #32]
 8002f4e:	6a21      	ldr	r1, [r4, #32]
 8002f50:	f7fd fef2 	bl	8000d38 <HAL_JPEG_GetDataCallback>
 8002f54:	6aa3      	ldr	r3, [r4, #40]	@ 0x28
 8002f56:	42ab      	cmp	r3, r5
 8002f58:	d327      	bcc.n	8002faa <JPEG_MDMAInCpltCallback+0x90>
 8002f5a:	b95d      	cbnz	r5, 8002f74 <JPEG_MDMAInCpltCallback+0x5a>
 8002f5c:	6d23      	ldr	r3, [r4, #80]	@ 0x50
 8002f5e:	4620      	mov	r0, r4
 8002f60:	f043 0304 	orr.w	r3, r3, #4
 8002f64:	6523      	str	r3, [r4, #80]	@ 0x50
 8002f66:	2306      	movs	r3, #6
 8002f68:	f884 304d 	strb.w	r3, [r4, #77]	@ 0x4d
 8002f6c:	f7fd ff0e 	bl	8000d8c <HAL_JPEG_ErrorCallback>
 8002f70:	b003      	add	sp, #12
 8002f72:	bd30      	pop	{r4, r5, pc}
 8002f74:	fbb3 f2f5 	udiv	r2, r3, r5
 8002f78:	fb05 3212 	mls	r2, r5, r2, r3
 8002f7c:	1a9b      	subs	r3, r3, r2
 8002f7e:	62a3      	str	r3, [r4, #40]	@ 0x28
 8002f80:	6d63      	ldr	r3, [r4, #84]	@ 0x54
 8002f82:	6822      	ldr	r2, [r4, #0]
 8002f84:	04db      	lsls	r3, r3, #19
 8002f86:	d40a      	bmi.n	8002f9e <JPEG_MDMAInCpltCallback+0x84>
 8002f88:	6aa3      	ldr	r3, [r4, #40]	@ 0x28
 8002f8a:	b143      	cbz	r3, 8002f9e <JPEG_MDMAInCpltCallback+0x84>
 8002f8c:	2101      	movs	r1, #1
 8002f8e:	3240      	adds	r2, #64	@ 0x40
 8002f90:	9100      	str	r1, [sp, #0]
 8002f92:	69a1      	ldr	r1, [r4, #24]
 8002f94:	6b20      	ldr	r0, [r4, #48]	@ 0x30
 8002f96:	f000 fb06 	bl	80035a6 <HAL_MDMA_Start_IT>
 8002f9a:	2800      	cmp	r0, #0
 8002f9c:	d1de      	bne.n	8002f5c <JPEG_MDMAInCpltCallback+0x42>
 8002f9e:	6822      	ldr	r2, [r4, #0]
 8002fa0:	6b13      	ldr	r3, [r2, #48]	@ 0x30
 8002fa2:	f043 0360 	orr.w	r3, r3, #96	@ 0x60
 8002fa6:	6313      	str	r3, [r2, #48]	@ 0x30
 8002fa8:	e7e2      	b.n	8002f70 <JPEG_MDMAInCpltCallback+0x56>
 8002faa:	2b00      	cmp	r3, #0
 8002fac:	d0e8      	beq.n	8002f80 <JPEG_MDMAInCpltCallback+0x66>
 8002fae:	079a      	lsls	r2, r3, #30
 8002fb0:	d0e6      	beq.n	8002f80 <JPEG_MDMAInCpltCallback+0x66>
 8002fb2:	f023 0303 	bic.w	r3, r3, #3
 8002fb6:	3304      	adds	r3, #4
 8002fb8:	e7e1      	b.n	8002f7e <JPEG_MDMAInCpltCallback+0x64>

08002fba <JPEG_StoreOutputData>:
 8002fba:	6a42      	ldr	r2, [r0, #36]	@ 0x24
 8002fbc:	b5f8      	push	{r3, r4, r5, r6, r7, lr}
 8002fbe:	eb02 0281 	add.w	r2, r2, r1, lsl #2
 8002fc2:	6ac3      	ldr	r3, [r0, #44]	@ 0x2c
 8002fc4:	4604      	mov	r4, r0
 8002fc6:	4293      	cmp	r3, r2
 8002fc8:	d32a      	bcc.n	8003020 <JPEG_StoreOutputData+0x66>
 8002fca:	2200      	movs	r2, #0
 8002fcc:	6823      	ldr	r3, [r4, #0]
 8002fce:	3201      	adds	r2, #1
 8002fd0:	69e5      	ldr	r5, [r4, #28]
 8002fd2:	6c5b      	ldr	r3, [r3, #68]	@ 0x44
 8002fd4:	4291      	cmp	r1, r2
 8002fd6:	6a60      	ldr	r0, [r4, #36]	@ 0x24
 8002fd8:	542b      	strb	r3, [r5, r0]
 8002fda:	6a65      	ldr	r5, [r4, #36]	@ 0x24
 8002fdc:	69e0      	ldr	r0, [r4, #28]
 8002fde:	4428      	add	r0, r5
 8002fe0:	ea4f 2513 	mov.w	r5, r3, lsr #8
 8002fe4:	7045      	strb	r5, [r0, #1]
 8002fe6:	6a65      	ldr	r5, [r4, #36]	@ 0x24
 8002fe8:	69e0      	ldr	r0, [r4, #28]
 8002fea:	4428      	add	r0, r5
 8002fec:	ea4f 4513 	mov.w	r5, r3, lsr #16
 8002ff0:	ea4f 6313 	mov.w	r3, r3, lsr #24
 8002ff4:	7085      	strb	r5, [r0, #2]
 8002ff6:	6a65      	ldr	r5, [r4, #36]	@ 0x24
 8002ff8:	69e0      	ldr	r0, [r4, #28]
 8002ffa:	4428      	add	r0, r5
 8002ffc:	70c3      	strb	r3, [r0, #3]
 8002ffe:	6a63      	ldr	r3, [r4, #36]	@ 0x24
 8003000:	f103 0304 	add.w	r3, r3, #4
 8003004:	6263      	str	r3, [r4, #36]	@ 0x24
 8003006:	d1e1      	bne.n	8002fcc <JPEG_StoreOutputData+0x12>
 8003008:	6a63      	ldr	r3, [r4, #36]	@ 0x24
 800300a:	6ae2      	ldr	r2, [r4, #44]	@ 0x2c
 800300c:	429a      	cmp	r2, r3
 800300e:	d106      	bne.n	800301e <JPEG_StoreOutputData+0x64>
 8003010:	6a62      	ldr	r2, [r4, #36]	@ 0x24
 8003012:	69e1      	ldr	r1, [r4, #28]
 8003014:	4620      	mov	r0, r4
 8003016:	f7fd feaf 	bl	8000d78 <HAL_JPEG_DataReadyCallback>
 800301a:	2300      	movs	r3, #0
 800301c:	6263      	str	r3, [r4, #36]	@ 0x24
 800301e:	bdf8      	pop	{r3, r4, r5, r6, r7, pc}
 8003020:	6a42      	ldr	r2, [r0, #36]	@ 0x24
 8003022:	4293      	cmp	r3, r2
 8003024:	d9fb      	bls.n	800301e <JPEG_StoreOutputData+0x64>
 8003026:	6a42      	ldr	r2, [r0, #36]	@ 0x24
 8003028:	2000      	movs	r0, #0
 800302a:	1a9b      	subs	r3, r3, r2
 800302c:	089a      	lsrs	r2, r3, #2
 800302e:	4290      	cmp	r0, r2
 8003030:	69e1      	ldr	r1, [r4, #28]
 8003032:	d105      	bne.n	8003040 <JPEG_StoreOutputData+0x86>
 8003034:	6ae7      	ldr	r7, [r4, #44]	@ 0x2c
 8003036:	6a63      	ldr	r3, [r4, #36]	@ 0x24
 8003038:	429f      	cmp	r7, r3
 800303a:	d119      	bne.n	8003070 <JPEG_StoreOutputData+0xb6>
 800303c:	6a62      	ldr	r2, [r4, #36]	@ 0x24
 800303e:	e7e9      	b.n	8003014 <JPEG_StoreOutputData+0x5a>
 8003040:	6823      	ldr	r3, [r4, #0]
 8003042:	3001      	adds	r0, #1
 8003044:	6c5b      	ldr	r3, [r3, #68]	@ 0x44
 8003046:	6a65      	ldr	r5, [r4, #36]	@ 0x24
 8003048:	554b      	strb	r3, [r1, r5]
 800304a:	6a65      	ldr	r5, [r4, #36]	@ 0x24
 800304c:	69e1      	ldr	r1, [r4, #28]
 800304e:	4429      	add	r1, r5
 8003050:	0a1d      	lsrs	r5, r3, #8
 8003052:	704d      	strb	r5, [r1, #1]
 8003054:	6a65      	ldr	r5, [r4, #36]	@ 0x24
 8003056:	69e1      	ldr	r1, [r4, #28]
 8003058:	4429      	add	r1, r5
 800305a:	0c1d      	lsrs	r5, r3, #16
 800305c:	0e1b      	lsrs	r3, r3, #24
 800305e:	708d      	strb	r5, [r1, #2]
 8003060:	6a65      	ldr	r5, [r4, #36]	@ 0x24
 8003062:	69e1      	ldr	r1, [r4, #28]
 8003064:	4429      	add	r1, r5
 8003066:	70cb      	strb	r3, [r1, #3]
 8003068:	6a63      	ldr	r3, [r4, #36]	@ 0x24
 800306a:	3304      	adds	r3, #4
 800306c:	6263      	str	r3, [r4, #36]	@ 0x24
 800306e:	e7de      	b.n	800302e <JPEG_StoreOutputData+0x74>
 8003070:	6a65      	ldr	r5, [r4, #36]	@ 0x24
 8003072:	2200      	movs	r2, #0
 8003074:	6823      	ldr	r3, [r4, #0]
 8003076:	1b78      	subs	r0, r7, r5
 8003078:	6c5e      	ldr	r6, [r3, #68]	@ 0x44
 800307a:	4282      	cmp	r2, r0
 800307c:	69e1      	ldr	r1, [r4, #28]
 800307e:	d114      	bne.n	80030aa <JPEG_StoreOutputData+0xf0>
 8003080:	6a62      	ldr	r2, [r4, #36]	@ 0x24
 8003082:	4620      	mov	r0, r4
 8003084:	f7fd fe78 	bl	8000d78 <HAL_JPEG_DataReadyCallback>
 8003088:	2300      	movs	r3, #0
 800308a:	6263      	str	r3, [r4, #36]	@ 0x24
 800308c:	1d2b      	adds	r3, r5, #4
 800308e:	1bdb      	subs	r3, r3, r7
 8003090:	2b03      	cmp	r3, #3
 8003092:	d8c4      	bhi.n	800301e <JPEG_StoreOutputData+0x64>
 8003094:	00da      	lsls	r2, r3, #3
 8003096:	6a61      	ldr	r1, [r4, #36]	@ 0x24
 8003098:	69e0      	ldr	r0, [r4, #28]
 800309a:	3301      	adds	r3, #1
 800309c:	fa26 f202 	lsr.w	r2, r6, r2
 80030a0:	5442      	strb	r2, [r0, r1]
 80030a2:	6a62      	ldr	r2, [r4, #36]	@ 0x24
 80030a4:	3201      	adds	r2, #1
 80030a6:	6262      	str	r2, [r4, #36]	@ 0x24
 80030a8:	e7f2      	b.n	8003090 <JPEG_StoreOutputData+0xd6>
 80030aa:	f002 0303 	and.w	r3, r2, #3
 80030ae:	f8d4 c024 	ldr.w	ip, [r4, #36]	@ 0x24
 80030b2:	3201      	adds	r2, #1
 80030b4:	00db      	lsls	r3, r3, #3
 80030b6:	fa26 f303 	lsr.w	r3, r6, r3
 80030ba:	f801 300c 	strb.w	r3, [r1, ip]
 80030be:	6a63      	ldr	r3, [r4, #36]	@ 0x24
 80030c0:	3301      	adds	r3, #1
 80030c2:	6263      	str	r3, [r4, #36]	@ 0x24
 80030c4:	e7d9      	b.n	800307a <JPEG_StoreOutputData+0xc0>

080030c6 <JPEG_Process>:
 80030c6:	6d43      	ldr	r3, [r0, #84]	@ 0x54
 80030c8:	f003 0303 	and.w	r3, r3, #3
 80030cc:	2b02      	cmp	r3, #2
 80030ce:	b510      	push	{r4, lr}
 80030d0:	4604      	mov	r4, r0
 80030d2:	d114      	bne.n	80030fe <JPEG_Process+0x38>
 80030d4:	6803      	ldr	r3, [r0, #0]
 80030d6:	6b5b      	ldr	r3, [r3, #52]	@ 0x34
 80030d8:	065b      	lsls	r3, r3, #25
 80030da:	d510      	bpl.n	80030fe <JPEG_Process+0x38>
 80030dc:	1d01      	adds	r1, r0, #4
 80030de:	f7ff fdb7 	bl	8002c50 <HAL_JPEG_GetInfo>
 80030e2:	2300      	movs	r3, #0
 80030e4:	4620      	mov	r0, r4
 80030e6:	6163      	str	r3, [r4, #20]
 80030e8:	f7fd fe24 	bl	8000d34 <HAL_JPEG_InfoReadyCallback>
 80030ec:	6823      	ldr	r3, [r4, #0]
 80030ee:	6b1a      	ldr	r2, [r3, #48]	@ 0x30
 80030f0:	f022 0240 	bic.w	r2, r2, #64	@ 0x40
 80030f4:	631a      	str	r2, [r3, #48]	@ 0x30
 80030f6:	6b9a      	ldr	r2, [r3, #56]	@ 0x38
 80030f8:	f042 0240 	orr.w	r2, r2, #64	@ 0x40
 80030fc:	639a      	str	r2, [r3, #56]	@ 0x38
 80030fe:	6d63      	ldr	r3, [r4, #84]	@ 0x54
 8003100:	04d9      	lsls	r1, r3, #19
 8003102:	d407      	bmi.n	8003114 <JPEG_Process+0x4e>
 8003104:	6823      	ldr	r3, [r4, #0]
 8003106:	6b5a      	ldr	r2, [r3, #52]	@ 0x34
 8003108:	0792      	lsls	r2, r2, #30
 800310a:	d544      	bpl.n	8003196 <JPEG_Process+0xd0>
 800310c:	2108      	movs	r1, #8
 800310e:	4620      	mov	r0, r4
 8003110:	f7ff fe94 	bl	8002e3c <JPEG_ReadInputData>
 8003114:	6d63      	ldr	r3, [r4, #84]	@ 0x54
 8003116:	0499      	lsls	r1, r3, #18
 8003118:	d407      	bmi.n	800312a <JPEG_Process+0x64>
 800311a:	6823      	ldr	r3, [r4, #0]
 800311c:	6b5a      	ldr	r2, [r3, #52]	@ 0x34
 800311e:	0712      	lsls	r2, r2, #28
 8003120:	d53e      	bpl.n	80031a0 <JPEG_Process+0xda>
 8003122:	2108      	movs	r1, #8
 8003124:	4620      	mov	r0, r4
 8003126:	f7ff ff48 	bl	8002fba <JPEG_StoreOutputData>
 800312a:	6823      	ldr	r3, [r4, #0]
 800312c:	6b5a      	ldr	r2, [r3, #52]	@ 0x34
 800312e:	f002 0238 	and.w	r2, r2, #56	@ 0x38
 8003132:	2a20      	cmp	r2, #32
 8003134:	d13c      	bne.n	80031b0 <JPEG_Process+0xea>
 8003136:	681a      	ldr	r2, [r3, #0]
 8003138:	f022 0201 	bic.w	r2, r2, #1
 800313c:	601a      	str	r2, [r3, #0]
 800313e:	6d62      	ldr	r2, [r4, #84]	@ 0x54
 8003140:	f002 020c 	and.w	r2, r2, #12
 8003144:	2a08      	cmp	r2, #8
 8003146:	d103      	bne.n	8003150 <JPEG_Process+0x8a>
 8003148:	6b1a      	ldr	r2, [r3, #48]	@ 0x30
 800314a:	f022 027e 	bic.w	r2, r2, #126	@ 0x7e
 800314e:	631a      	str	r2, [r3, #48]	@ 0x30
 8003150:	6b9a      	ldr	r2, [r3, #56]	@ 0x38
 8003152:	f042 0260 	orr.w	r2, r2, #96	@ 0x60
 8003156:	639a      	str	r2, [r3, #56]	@ 0x38
 8003158:	6a63      	ldr	r3, [r4, #36]	@ 0x24
 800315a:	b133      	cbz	r3, 800316a <JPEG_Process+0xa4>
 800315c:	6a62      	ldr	r2, [r4, #36]	@ 0x24
 800315e:	4620      	mov	r0, r4
 8003160:	69e1      	ldr	r1, [r4, #28]
 8003162:	f7fd fe09 	bl	8000d78 <HAL_JPEG_DataReadyCallback>
 8003166:	2300      	movs	r3, #0
 8003168:	6263      	str	r3, [r4, #36]	@ 0x24
 800316a:	6d63      	ldr	r3, [r4, #84]	@ 0x54
 800316c:	4620      	mov	r0, r4
 800316e:	6d62      	ldr	r2, [r4, #84]	@ 0x54
 8003170:	f003 0303 	and.w	r3, r3, #3
 8003174:	f402 4282 	and.w	r2, r2, #16640	@ 0x4100
 8003178:	2b02      	cmp	r3, #2
 800317a:	6562      	str	r2, [r4, #84]	@ 0x54
 800317c:	f04f 0200 	mov.w	r2, #0
 8003180:	f884 204c 	strb.w	r2, [r4, #76]	@ 0x4c
 8003184:	f04f 0201 	mov.w	r2, #1
 8003188:	f884 204d 	strb.w	r2, [r4, #77]	@ 0x4d
 800318c:	d10d      	bne.n	80031aa <JPEG_Process+0xe4>
 800318e:	f7fd fdff 	bl	8000d90 <HAL_JPEG_DecodeCpltCallback>
 8003192:	2001      	movs	r0, #1
 8003194:	bd10      	pop	{r4, pc}
 8003196:	6b5b      	ldr	r3, [r3, #52]	@ 0x34
 8003198:	0758      	lsls	r0, r3, #29
 800319a:	d5bb      	bpl.n	8003114 <JPEG_Process+0x4e>
 800319c:	2101      	movs	r1, #1
 800319e:	e7b6      	b.n	800310e <JPEG_Process+0x48>
 80031a0:	6b5b      	ldr	r3, [r3, #52]	@ 0x34
 80031a2:	06db      	lsls	r3, r3, #27
 80031a4:	d5c1      	bpl.n	800312a <JPEG_Process+0x64>
 80031a6:	2101      	movs	r1, #1
 80031a8:	e7bc      	b.n	8003124 <JPEG_Process+0x5e>
 80031aa:	f7ff fe31 	bl	8002e10 <HAL_JPEG_EncodeCpltCallback>
 80031ae:	e7f0      	b.n	8003192 <JPEG_Process+0xcc>
 80031b0:	2000      	movs	r0, #0
 80031b2:	e7ef      	b.n	8003194 <JPEG_Process+0xce>

080031b4 <JPEG_DMA_PollResidualData>:
 80031b4:	b570      	push	{r4, r5, r6, lr}
 80031b6:	4604      	mov	r4, r0
 80031b8:	2610      	movs	r6, #16
 80031ba:	6d65      	ldr	r5, [r4, #84]	@ 0x54
 80031bc:	6823      	ldr	r3, [r4, #0]
 80031be:	f415 5500 	ands.w	r5, r5, #8192	@ 0x2000
 80031c2:	d122      	bne.n	800320a <JPEG_DMA_PollResidualData+0x56>
 80031c4:	6b5a      	ldr	r2, [r3, #52]	@ 0x34
 80031c6:	06d0      	lsls	r0, r2, #27
 80031c8:	d51f      	bpl.n	800320a <JPEG_DMA_PollResidualData+0x56>
 80031ca:	6c5b      	ldr	r3, [r3, #68]	@ 0x44
 80031cc:	69e1      	ldr	r1, [r4, #28]
 80031ce:	6a62      	ldr	r2, [r4, #36]	@ 0x24
 80031d0:	548b      	strb	r3, [r1, r2]
 80031d2:	6a61      	ldr	r1, [r4, #36]	@ 0x24
 80031d4:	69e2      	ldr	r2, [r4, #28]
 80031d6:	440a      	add	r2, r1
 80031d8:	0a19      	lsrs	r1, r3, #8
 80031da:	7051      	strb	r1, [r2, #1]
 80031dc:	6a61      	ldr	r1, [r4, #36]	@ 0x24
 80031de:	69e2      	ldr	r2, [r4, #28]
 80031e0:	440a      	add	r2, r1
 80031e2:	0c19      	lsrs	r1, r3, #16
 80031e4:	0e1b      	lsrs	r3, r3, #24
 80031e6:	7091      	strb	r1, [r2, #2]
 80031e8:	6a61      	ldr	r1, [r4, #36]	@ 0x24
 80031ea:	69e2      	ldr	r2, [r4, #28]
 80031ec:	440a      	add	r2, r1
 80031ee:	70d3      	strb	r3, [r2, #3]
 80031f0:	6a63      	ldr	r3, [r4, #36]	@ 0x24
 80031f2:	3304      	adds	r3, #4
 80031f4:	6263      	str	r3, [r4, #36]	@ 0x24
 80031f6:	6ae3      	ldr	r3, [r4, #44]	@ 0x2c
 80031f8:	6a62      	ldr	r2, [r4, #36]	@ 0x24
 80031fa:	429a      	cmp	r2, r3
 80031fc:	d105      	bne.n	800320a <JPEG_DMA_PollResidualData+0x56>
 80031fe:	6a62      	ldr	r2, [r4, #36]	@ 0x24
 8003200:	4620      	mov	r0, r4
 8003202:	69e1      	ldr	r1, [r4, #28]
 8003204:	f7fd fdb8 	bl	8000d78 <HAL_JPEG_DataReadyCallback>
 8003208:	6265      	str	r5, [r4, #36]	@ 0x24
 800320a:	3e01      	subs	r6, #1
 800320c:	d1d5      	bne.n	80031ba <JPEG_DMA_PollResidualData+0x6>
 800320e:	6823      	ldr	r3, [r4, #0]
 8003210:	6d62      	ldr	r2, [r4, #84]	@ 0x54
 8003212:	6b59      	ldr	r1, [r3, #52]	@ 0x34
 8003214:	06c9      	lsls	r1, r1, #27
 8003216:	d501      	bpl.n	800321c <JPEG_DMA_PollResidualData+0x68>
 8003218:	0492      	lsls	r2, r2, #18
 800321a:	d420      	bmi.n	800325e <JPEG_DMA_PollResidualData+0xaa>
 800321c:	681a      	ldr	r2, [r3, #0]
 800321e:	f022 0201 	bic.w	r2, r2, #1
 8003222:	601a      	str	r2, [r3, #0]
 8003224:	6a63      	ldr	r3, [r4, #36]	@ 0x24
 8003226:	b133      	cbz	r3, 8003236 <JPEG_DMA_PollResidualData+0x82>
 8003228:	6a62      	ldr	r2, [r4, #36]	@ 0x24
 800322a:	4620      	mov	r0, r4
 800322c:	69e1      	ldr	r1, [r4, #28]
 800322e:	f7fd fda3 	bl	8000d78 <HAL_JPEG_DataReadyCallback>
 8003232:	2300      	movs	r3, #0
 8003234:	6263      	str	r3, [r4, #36]	@ 0x24
 8003236:	6d63      	ldr	r3, [r4, #84]	@ 0x54
 8003238:	4620      	mov	r0, r4
 800323a:	6d62      	ldr	r2, [r4, #84]	@ 0x54
 800323c:	f003 0303 	and.w	r3, r3, #3
 8003240:	f402 4282 	and.w	r2, r2, #16640	@ 0x4100
 8003244:	2b02      	cmp	r3, #2
 8003246:	6562      	str	r2, [r4, #84]	@ 0x54
 8003248:	f04f 0200 	mov.w	r2, #0
 800324c:	f884 204c 	strb.w	r2, [r4, #76]	@ 0x4c
 8003250:	f04f 0201 	mov.w	r2, #1
 8003254:	f884 204d 	strb.w	r2, [r4, #77]	@ 0x4d
 8003258:	d102      	bne.n	8003260 <JPEG_DMA_PollResidualData+0xac>
 800325a:	f7fd fd99 	bl	8000d90 <HAL_JPEG_DecodeCpltCallback>
 800325e:	bd70      	pop	{r4, r5, r6, pc}
 8003260:	f7ff fdd6 	bl	8002e10 <HAL_JPEG_EncodeCpltCallback>
 8003264:	e7fb      	b.n	800325e <JPEG_DMA_PollResidualData+0xaa>

08003266 <JPEG_DMA_EndProcess>:
 8003266:	b538      	push	{r3, r4, r5, lr}
 8003268:	6b43      	ldr	r3, [r0, #52]	@ 0x34
 800326a:	4604      	mov	r4, r0
 800326c:	6ac2      	ldr	r2, [r0, #44]	@ 0x2c
 800326e:	681b      	ldr	r3, [r3, #0]
 8003270:	695b      	ldr	r3, [r3, #20]
 8003272:	f3c3 0310 	ubfx	r3, r3, #0, #17
 8003276:	1ad3      	subs	r3, r2, r3
 8003278:	6243      	str	r3, [r0, #36]	@ 0x24
 800327a:	6a43      	ldr	r3, [r0, #36]	@ 0x24
 800327c:	429a      	cmp	r2, r3
 800327e:	d105      	bne.n	800328c <JPEG_DMA_EndProcess+0x26>
 8003280:	6a42      	ldr	r2, [r0, #36]	@ 0x24
 8003282:	69c1      	ldr	r1, [r0, #28]
 8003284:	f7fd fd78 	bl	8000d78 <HAL_JPEG_DataReadyCallback>
 8003288:	2300      	movs	r3, #0
 800328a:	6263      	str	r3, [r4, #36]	@ 0x24
 800328c:	6823      	ldr	r3, [r4, #0]
 800328e:	6b5d      	ldr	r5, [r3, #52]	@ 0x34
 8003290:	f015 0510 	ands.w	r5, r5, #16
 8003294:	d124      	bne.n	80032e0 <JPEG_DMA_EndProcess+0x7a>
 8003296:	6a63      	ldr	r3, [r4, #36]	@ 0x24
 8003298:	b12b      	cbz	r3, 80032a6 <JPEG_DMA_EndProcess+0x40>
 800329a:	6a62      	ldr	r2, [r4, #36]	@ 0x24
 800329c:	4620      	mov	r0, r4
 800329e:	69e1      	ldr	r1, [r4, #28]
 80032a0:	f7fd fd6a 	bl	8000d78 <HAL_JPEG_DataReadyCallback>
 80032a4:	6265      	str	r5, [r4, #36]	@ 0x24
 80032a6:	6822      	ldr	r2, [r4, #0]
 80032a8:	4620      	mov	r0, r4
 80032aa:	6813      	ldr	r3, [r2, #0]
 80032ac:	f023 0301 	bic.w	r3, r3, #1
 80032b0:	6013      	str	r3, [r2, #0]
 80032b2:	6d63      	ldr	r3, [r4, #84]	@ 0x54
 80032b4:	6d62      	ldr	r2, [r4, #84]	@ 0x54
 80032b6:	f003 0303 	and.w	r3, r3, #3
 80032ba:	f402 4282 	and.w	r2, r2, #16640	@ 0x4100
 80032be:	2b02      	cmp	r3, #2
 80032c0:	6562      	str	r2, [r4, #84]	@ 0x54
 80032c2:	f04f 0200 	mov.w	r2, #0
 80032c6:	f884 204c 	strb.w	r2, [r4, #76]	@ 0x4c
 80032ca:	f04f 0201 	mov.w	r2, #1
 80032ce:	f884 204d 	strb.w	r2, [r4, #77]	@ 0x4d
 80032d2:	d102      	bne.n	80032da <JPEG_DMA_EndProcess+0x74>
 80032d4:	f7fd fd5c 	bl	8000d90 <HAL_JPEG_DecodeCpltCallback>
 80032d8:	bd38      	pop	{r3, r4, r5, pc}
 80032da:	f7ff fd99 	bl	8002e10 <HAL_JPEG_EncodeCpltCallback>
 80032de:	e7fb      	b.n	80032d8 <JPEG_DMA_EndProcess+0x72>
 80032e0:	6d63      	ldr	r3, [r4, #84]	@ 0x54
 80032e2:	049b      	lsls	r3, r3, #18
 80032e4:	d4f8      	bmi.n	80032d8 <JPEG_DMA_EndProcess+0x72>
 80032e6:	4620      	mov	r0, r4
 80032e8:	e8bd 4038 	ldmia.w	sp!, {r3, r4, r5, lr}
 80032ec:	f7ff bf62 	b.w	80031b4 <JPEG_DMA_PollResidualData>

080032f0 <JPEG_MDMAOutAbortCallback>:
 80032f0:	6c00      	ldr	r0, [r0, #64]	@ 0x40
 80032f2:	6d43      	ldr	r3, [r0, #84]	@ 0x54
 80032f4:	041b      	lsls	r3, r3, #16
 80032f6:	d501      	bpl.n	80032fc <JPEG_MDMAOutAbortCallback+0xc>
 80032f8:	f7ff bfb5 	b.w	8003266 <JPEG_DMA_EndProcess>
 80032fc:	4770      	bx	lr

080032fe <JPEG_MDMAOutCpltCallback>:
 80032fe:	b513      	push	{r0, r1, r4, lr}
 8003300:	6c04      	ldr	r4, [r0, #64]	@ 0x40
 8003302:	6823      	ldr	r3, [r4, #0]
 8003304:	6b1a      	ldr	r2, [r3, #48]	@ 0x30
 8003306:	f022 027e 	bic.w	r2, r2, #126	@ 0x7e
 800330a:	631a      	str	r2, [r3, #48]	@ 0x30
 800330c:	6d62      	ldr	r2, [r4, #84]	@ 0x54
 800330e:	f422 42ff 	bic.w	r2, r2, #32640	@ 0x7f80
 8003312:	f022 0273 	bic.w	r2, r2, #115	@ 0x73
 8003316:	0412      	lsls	r2, r2, #16
 8003318:	0c12      	lsrs	r2, r2, #16
 800331a:	2a0c      	cmp	r2, #12
 800331c:	d125      	bne.n	800336a <JPEG_MDMAOutCpltCallback+0x6c>
 800331e:	6b5b      	ldr	r3, [r3, #52]	@ 0x34
 8003320:	069a      	lsls	r2, r3, #26
 8003322:	d424      	bmi.n	800336e <JPEG_MDMAOutCpltCallback+0x70>
 8003324:	6803      	ldr	r3, [r0, #0]
 8003326:	4620      	mov	r0, r4
 8003328:	69e1      	ldr	r1, [r4, #28]
 800332a:	695a      	ldr	r2, [r3, #20]
 800332c:	6ae3      	ldr	r3, [r4, #44]	@ 0x2c
 800332e:	f3c2 0210 	ubfx	r2, r2, #0, #17
 8003332:	1a9b      	subs	r3, r3, r2
 8003334:	6263      	str	r3, [r4, #36]	@ 0x24
 8003336:	6a62      	ldr	r2, [r4, #36]	@ 0x24
 8003338:	f7fd fd1e 	bl	8000d78 <HAL_JPEG_DataReadyCallback>
 800333c:	6d63      	ldr	r3, [r4, #84]	@ 0x54
 800333e:	049b      	lsls	r3, r3, #18
 8003340:	d415      	bmi.n	800336e <JPEG_MDMAOutCpltCallback+0x70>
 8003342:	6821      	ldr	r1, [r4, #0]
 8003344:	2301      	movs	r3, #1
 8003346:	3144      	adds	r1, #68	@ 0x44
 8003348:	9300      	str	r3, [sp, #0]
 800334a:	6ae3      	ldr	r3, [r4, #44]	@ 0x2c
 800334c:	69e2      	ldr	r2, [r4, #28]
 800334e:	6b60      	ldr	r0, [r4, #52]	@ 0x34
 8003350:	f000 f929 	bl	80035a6 <HAL_MDMA_Start_IT>
 8003354:	b158      	cbz	r0, 800336e <JPEG_MDMAOutCpltCallback+0x70>
 8003356:	6d23      	ldr	r3, [r4, #80]	@ 0x50
 8003358:	4620      	mov	r0, r4
 800335a:	f043 0304 	orr.w	r3, r3, #4
 800335e:	6523      	str	r3, [r4, #80]	@ 0x50
 8003360:	2306      	movs	r3, #6
 8003362:	f884 304d 	strb.w	r3, [r4, #77]	@ 0x4d
 8003366:	f7fd fd11 	bl	8000d8c <HAL_JPEG_ErrorCallback>
 800336a:	b002      	add	sp, #8
 800336c:	bd10      	pop	{r4, pc}
 800336e:	6822      	ldr	r2, [r4, #0]
 8003370:	6b13      	ldr	r3, [r2, #48]	@ 0x30
 8003372:	f043 0360 	orr.w	r3, r3, #96	@ 0x60
 8003376:	6313      	str	r3, [r2, #48]	@ 0x30
 8003378:	e7f7      	b.n	800336a <JPEG_MDMAOutCpltCallback+0x6c>

0800337a <HAL_JPEG_IRQHandler>:
 800337a:	b510      	push	{r4, lr}
 800337c:	f890 304d 	ldrb.w	r3, [r0, #77]	@ 0x4d
 8003380:	4604      	mov	r4, r0
 8003382:	3b03      	subs	r3, #3
 8003384:	2b01      	cmp	r3, #1
 8003386:	d850      	bhi.n	800342a <HAL_JPEG_IRQHandler+0xb0>
 8003388:	6d43      	ldr	r3, [r0, #84]	@ 0x54
 800338a:	f003 030c 	and.w	r3, r3, #12
 800338e:	2b08      	cmp	r3, #8
 8003390:	d103      	bne.n	800339a <HAL_JPEG_IRQHandler+0x20>
 8003392:	e8bd 4010 	ldmia.w	sp!, {r4, lr}
 8003396:	f7ff be96 	b.w	80030c6 <JPEG_Process>
 800339a:	6d43      	ldr	r3, [r0, #84]	@ 0x54
 800339c:	f003 030c 	and.w	r3, r3, #12
 80033a0:	2b0c      	cmp	r3, #12
 80033a2:	d142      	bne.n	800342a <HAL_JPEG_IRQHandler+0xb0>
 80033a4:	6d43      	ldr	r3, [r0, #84]	@ 0x54
 80033a6:	f003 0303 	and.w	r3, r3, #3
 80033aa:	2b02      	cmp	r3, #2
 80033ac:	d114      	bne.n	80033d8 <HAL_JPEG_IRQHandler+0x5e>
 80033ae:	6803      	ldr	r3, [r0, #0]
 80033b0:	6b5b      	ldr	r3, [r3, #52]	@ 0x34
 80033b2:	0659      	lsls	r1, r3, #25
 80033b4:	d510      	bpl.n	80033d8 <HAL_JPEG_IRQHandler+0x5e>
 80033b6:	1d01      	adds	r1, r0, #4
 80033b8:	f7ff fc4a 	bl	8002c50 <HAL_JPEG_GetInfo>
 80033bc:	2300      	movs	r3, #0
 80033be:	4620      	mov	r0, r4
 80033c0:	6163      	str	r3, [r4, #20]
 80033c2:	f7fd fcb7 	bl	8000d34 <HAL_JPEG_InfoReadyCallback>
 80033c6:	6823      	ldr	r3, [r4, #0]
 80033c8:	6b1a      	ldr	r2, [r3, #48]	@ 0x30
 80033ca:	f022 0240 	bic.w	r2, r2, #64	@ 0x40
 80033ce:	631a      	str	r2, [r3, #48]	@ 0x30
 80033d0:	6b9a      	ldr	r2, [r3, #56]	@ 0x38
 80033d2:	f042 0240 	orr.w	r2, r2, #64	@ 0x40
 80033d6:	639a      	str	r2, [r3, #56]	@ 0x38
 80033d8:	6823      	ldr	r3, [r4, #0]
 80033da:	6b5a      	ldr	r2, [r3, #52]	@ 0x34
 80033dc:	0692      	lsls	r2, r2, #26
 80033de:	d524      	bpl.n	800342a <HAL_JPEG_IRQHandler+0xb0>
 80033e0:	6d62      	ldr	r2, [r4, #84]	@ 0x54
 80033e2:	6b20      	ldr	r0, [r4, #48]	@ 0x30
 80033e4:	f442 4200 	orr.w	r2, r2, #32768	@ 0x8000
 80033e8:	6562      	str	r2, [r4, #84]	@ 0x54
 80033ea:	681a      	ldr	r2, [r3, #0]
 80033ec:	f022 0201 	bic.w	r2, r2, #1
 80033f0:	601a      	str	r2, [r3, #0]
 80033f2:	6b1a      	ldr	r2, [r3, #48]	@ 0x30
 80033f4:	f022 027e 	bic.w	r2, r2, #126	@ 0x7e
 80033f8:	631a      	str	r2, [r3, #48]	@ 0x30
 80033fa:	6b9a      	ldr	r2, [r3, #56]	@ 0x38
 80033fc:	f042 0260 	orr.w	r2, r2, #96	@ 0x60
 8003400:	639a      	str	r2, [r3, #56]	@ 0x38
 8003402:	f890 303d 	ldrb.w	r3, [r0, #61]	@ 0x3d
 8003406:	2b02      	cmp	r3, #2
 8003408:	d101      	bne.n	800340e <HAL_JPEG_IRQHandler+0x94>
 800340a:	f000 f915 	bl	8003638 <HAL_MDMA_Abort_IT>
 800340e:	6b60      	ldr	r0, [r4, #52]	@ 0x34
 8003410:	f890 303d 	ldrb.w	r3, [r0, #61]	@ 0x3d
 8003414:	2b02      	cmp	r3, #2
 8003416:	d103      	bne.n	8003420 <HAL_JPEG_IRQHandler+0xa6>
 8003418:	e8bd 4010 	ldmia.w	sp!, {r4, lr}
 800341c:	f000 b90c 	b.w	8003638 <HAL_MDMA_Abort_IT>
 8003420:	4620      	mov	r0, r4
 8003422:	e8bd 4010 	ldmia.w	sp!, {r4, lr}
 8003426:	f7ff bf1e 	b.w	8003266 <JPEG_DMA_EndProcess>
 800342a:	bd10      	pop	{r4, pc}

0800342c <MDMA_SetConfig>:
 800342c:	b530      	push	{r4, r5, lr}
 800342e:	6804      	ldr	r4, [r0, #0]
 8003430:	f3c3 0310 	ubfx	r3, r3, #0, #17
 8003434:	f011 4f5f 	tst.w	r1, #3741319168	@ 0xdf000000
 8003438:	6965      	ldr	r5, [r4, #20]
 800343a:	ea4f 4555 	mov.w	r5, r5, lsr #17
 800343e:	ea4f 4545 	mov.w	r5, r5, lsl #17
 8003442:	ea45 0503 	orr.w	r5, r5, r3
 8003446:	6165      	str	r5, [r4, #20]
 8003448:	9d03      	ldr	r5, [sp, #12]
 800344a:	6963      	ldr	r3, [r4, #20]
 800344c:	f105 35ff 	add.w	r5, r5, #4294967295
 8003450:	f3c3 0313 	ubfx	r3, r3, #0, #20
 8003454:	ea43 5305 	orr.w	r3, r3, r5, lsl #20
 8003458:	6163      	str	r3, [r4, #20]
 800345a:	f04f 031f 	mov.w	r3, #31
 800345e:	6063      	str	r3, [r4, #4]
 8003460:	61e2      	str	r2, [r4, #28]
 8003462:	61a1      	str	r1, [r4, #24]
 8003464:	6aa3      	ldr	r3, [r4, #40]	@ 0x28
 8003466:	bf0c      	ite	eq
 8003468:	f443 3380 	orreq.w	r3, r3, #65536	@ 0x10000
 800346c:	f423 3380 	bicne.w	r3, r3, #65536	@ 0x10000
 8003470:	f012 4f5f 	tst.w	r2, #3741319168	@ 0xdf000000
 8003474:	62a3      	str	r3, [r4, #40]	@ 0x28
 8003476:	6aa3      	ldr	r3, [r4, #40]	@ 0x28
 8003478:	bf0c      	ite	eq
 800347a:	f443 3300 	orreq.w	r3, r3, #131072	@ 0x20000
 800347e:	f423 3300 	bicne.w	r3, r3, #131072	@ 0x20000
 8003482:	62a3      	str	r3, [r4, #40]	@ 0x28
 8003484:	6dc3      	ldr	r3, [r0, #92]	@ 0x5c
 8003486:	6263      	str	r3, [r4, #36]	@ 0x24
 8003488:	bd30      	pop	{r4, r5, pc}

0800348a <HAL_MDMA_Init>:
 800348a:	b538      	push	{r3, r4, r5, lr}
 800348c:	4604      	mov	r4, r0
 800348e:	f7fe fdf9 	bl	8002084 <HAL_GetTick>
 8003492:	4605      	mov	r5, r0
 8003494:	2c00      	cmp	r4, #0
 8003496:	d061      	beq.n	800355c <HAL_MDMA_Init+0xd2>
 8003498:	2300      	movs	r3, #0
 800349a:	6822      	ldr	r2, [r4, #0]
 800349c:	f884 303c 	strb.w	r3, [r4, #60]	@ 0x3c
 80034a0:	2302      	movs	r3, #2
 80034a2:	f884 303d 	strb.w	r3, [r4, #61]	@ 0x3d
 80034a6:	68d3      	ldr	r3, [r2, #12]
 80034a8:	f023 0301 	bic.w	r3, r3, #1
 80034ac:	60d3      	str	r3, [r2, #12]
 80034ae:	6823      	ldr	r3, [r4, #0]
 80034b0:	68da      	ldr	r2, [r3, #12]
 80034b2:	07d2      	lsls	r2, r2, #31
 80034b4:	d448      	bmi.n	8003548 <HAL_MDMA_Init+0xbe>
 80034b6:	e9d4 2103 	ldrd	r2, r1, [r4, #12]
 80034ba:	430a      	orrs	r2, r1
 80034bc:	60da      	str	r2, [r3, #12]
 80034be:	e9d4 2105 	ldrd	r2, r1, [r4, #20]
 80034c2:	430a      	orrs	r2, r1
 80034c4:	69e1      	ldr	r1, [r4, #28]
 80034c6:	430a      	orrs	r2, r1
 80034c8:	6a21      	ldr	r1, [r4, #32]
 80034ca:	430a      	orrs	r2, r1
 80034cc:	6a61      	ldr	r1, [r4, #36]	@ 0x24
 80034ce:	430a      	orrs	r2, r1
 80034d0:	6ae1      	ldr	r1, [r4, #44]	@ 0x2c
 80034d2:	430a      	orrs	r2, r1
 80034d4:	6b21      	ldr	r1, [r4, #48]	@ 0x30
 80034d6:	430a      	orrs	r2, r1
 80034d8:	68a1      	ldr	r1, [r4, #8]
 80034da:	430a      	orrs	r2, r1
 80034dc:	6aa1      	ldr	r1, [r4, #40]	@ 0x28
 80034de:	3901      	subs	r1, #1
 80034e0:	ea42 4281 	orr.w	r2, r2, r1, lsl #18
 80034e4:	6861      	ldr	r1, [r4, #4]
 80034e6:	f1b1 4f80 	cmp.w	r1, #1073741824	@ 0x40000000
 80034ea:	611a      	str	r2, [r3, #16]
 80034ec:	d103      	bne.n	80034f6 <HAL_MDMA_Init+0x6c>
 80034ee:	691a      	ldr	r2, [r3, #16]
 80034f0:	f042 4240 	orr.w	r2, r2, #3221225472	@ 0xc0000000
 80034f4:	611a      	str	r2, [r3, #16]
 80034f6:	2200      	movs	r2, #0
 80034f8:	615a      	str	r2, [r3, #20]
 80034fa:	6b62      	ldr	r2, [r4, #52]	@ 0x34
 80034fc:	2a00      	cmp	r2, #0
 80034fe:	da04      	bge.n	800350a <HAL_MDMA_Init+0x80>
 8003500:	6958      	ldr	r0, [r3, #20]
 8003502:	4252      	negs	r2, r2
 8003504:	f440 2080 	orr.w	r0, r0, #262144	@ 0x40000
 8003508:	6158      	str	r0, [r3, #20]
 800350a:	b292      	uxth	r2, r2
 800350c:	621a      	str	r2, [r3, #32]
 800350e:	6ba2      	ldr	r2, [r4, #56]	@ 0x38
 8003510:	2a00      	cmp	r2, #0
 8003512:	da25      	bge.n	8003560 <HAL_MDMA_Init+0xd6>
 8003514:	6958      	ldr	r0, [r3, #20]
 8003516:	4252      	negs	r2, r2
 8003518:	f440 2000 	orr.w	r0, r0, #524288	@ 0x80000
 800351c:	6158      	str	r0, [r3, #20]
 800351e:	6a18      	ldr	r0, [r3, #32]
 8003520:	ea40 4202 	orr.w	r2, r0, r2, lsl #16
 8003524:	f1b1 4f80 	cmp.w	r1, #1073741824	@ 0x40000000
 8003528:	621a      	str	r2, [r3, #32]
 800352a:	f04f 0200 	mov.w	r2, #0
 800352e:	d019      	beq.n	8003564 <HAL_MDMA_Init+0xda>
 8003530:	b2c9      	uxtb	r1, r1
 8003532:	6299      	str	r1, [r3, #40]	@ 0x28
 8003534:	625a      	str	r2, [r3, #36]	@ 0x24
 8003536:	2301      	movs	r3, #1
 8003538:	66a2      	str	r2, [r4, #104]	@ 0x68
 800353a:	2000      	movs	r0, #0
 800353c:	6662      	str	r2, [r4, #100]	@ 0x64
 800353e:	f884 303d 	strb.w	r3, [r4, #61]	@ 0x3d
 8003542:	e9c4 2217 	strd	r2, r2, [r4, #92]	@ 0x5c
 8003546:	e00a      	b.n	800355e <HAL_MDMA_Init+0xd4>
 8003548:	f7fe fd9c 	bl	8002084 <HAL_GetTick>
 800354c:	1b40      	subs	r0, r0, r5
 800354e:	2805      	cmp	r0, #5
 8003550:	d9ad      	bls.n	80034ae <HAL_MDMA_Init+0x24>
 8003552:	2340      	movs	r3, #64	@ 0x40
 8003554:	66a3      	str	r3, [r4, #104]	@ 0x68
 8003556:	2303      	movs	r3, #3
 8003558:	f884 303d 	strb.w	r3, [r4, #61]	@ 0x3d
 800355c:	2001      	movs	r0, #1
 800355e:	bd38      	pop	{r3, r4, r5, pc}
 8003560:	6a18      	ldr	r0, [r3, #32]
 8003562:	e7dd      	b.n	8003520 <HAL_MDMA_Init+0x96>
 8003564:	629a      	str	r2, [r3, #40]	@ 0x28
 8003566:	e7e5      	b.n	8003534 <HAL_MDMA_Init+0xaa>

08003568 <HAL_MDMA_DeInit>:
 8003568:	b1d8      	cbz	r0, 80035a2 <HAL_MDMA_DeInit+0x3a>
 800356a:	6802      	ldr	r2, [r0, #0]
 800356c:	211f      	movs	r1, #31
 800356e:	68d3      	ldr	r3, [r2, #12]
 8003570:	f023 0301 	bic.w	r3, r3, #1
 8003574:	60d3      	str	r3, [r2, #12]
 8003576:	2300      	movs	r3, #0
 8003578:	60d3      	str	r3, [r2, #12]
 800357a:	6113      	str	r3, [r2, #16]
 800357c:	6153      	str	r3, [r2, #20]
 800357e:	6193      	str	r3, [r2, #24]
 8003580:	61d3      	str	r3, [r2, #28]
 8003582:	6213      	str	r3, [r2, #32]
 8003584:	6253      	str	r3, [r2, #36]	@ 0x24
 8003586:	6293      	str	r3, [r2, #40]	@ 0x28
 8003588:	6313      	str	r3, [r2, #48]	@ 0x30
 800358a:	6353      	str	r3, [r2, #52]	@ 0x34
 800358c:	6051      	str	r1, [r2, #4]
 800358e:	6683      	str	r3, [r0, #104]	@ 0x68
 8003590:	6643      	str	r3, [r0, #100]	@ 0x64
 8003592:	f880 303d 	strb.w	r3, [r0, #61]	@ 0x3d
 8003596:	f880 303c 	strb.w	r3, [r0, #60]	@ 0x3c
 800359a:	e9c0 3317 	strd	r3, r3, [r0, #92]	@ 0x5c
 800359e:	4618      	mov	r0, r3
 80035a0:	4770      	bx	lr
 80035a2:	2001      	movs	r0, #1
 80035a4:	4770      	bx	lr

080035a6 <HAL_MDMA_Start_IT>:
 80035a6:	b573      	push	{r0, r1, r4, r5, r6, lr}
 80035a8:	4604      	mov	r4, r0
 80035aa:	2800      	cmp	r0, #0
 80035ac:	d042      	beq.n	8003634 <HAL_MDMA_Start_IT+0x8e>
 80035ae:	f890 503c 	ldrb.w	r5, [r0, #60]	@ 0x3c
 80035b2:	2d01      	cmp	r5, #1
 80035b4:	d03c      	beq.n	8003630 <HAL_MDMA_Start_IT+0x8a>
 80035b6:	2501      	movs	r5, #1
 80035b8:	f880 503c 	strb.w	r5, [r0, #60]	@ 0x3c
 80035bc:	f890 503d 	ldrb.w	r5, [r0, #61]	@ 0x3d
 80035c0:	2d01      	cmp	r5, #1
 80035c2:	f04f 0500 	mov.w	r5, #0
 80035c6:	d131      	bne.n	800362c <HAL_MDMA_Start_IT+0x86>
 80035c8:	2602      	movs	r6, #2
 80035ca:	f880 603d 	strb.w	r6, [r0, #61]	@ 0x3d
 80035ce:	6685      	str	r5, [r0, #104]	@ 0x68
 80035d0:	6805      	ldr	r5, [r0, #0]
 80035d2:	68ee      	ldr	r6, [r5, #12]
 80035d4:	f026 0601 	bic.w	r6, r6, #1
 80035d8:	60ee      	str	r6, [r5, #12]
 80035da:	9e06      	ldr	r6, [sp, #24]
 80035dc:	9600      	str	r6, [sp, #0]
 80035de:	f7ff ff25 	bl	800342c <MDMA_SetConfig>
 80035e2:	68eb      	ldr	r3, [r5, #12]
 80035e4:	f043 0306 	orr.w	r3, r3, #6
 80035e8:	60eb      	str	r3, [r5, #12]
 80035ea:	6cc3      	ldr	r3, [r0, #76]	@ 0x4c
 80035ec:	b11b      	cbz	r3, 80035f6 <HAL_MDMA_Start_IT+0x50>
 80035ee:	68eb      	ldr	r3, [r5, #12]
 80035f0:	f043 0310 	orr.w	r3, r3, #16
 80035f4:	60eb      	str	r3, [r5, #12]
 80035f6:	6d23      	ldr	r3, [r4, #80]	@ 0x50
 80035f8:	b11b      	cbz	r3, 8003602 <HAL_MDMA_Start_IT+0x5c>
 80035fa:	68eb      	ldr	r3, [r5, #12]
 80035fc:	f043 0308 	orr.w	r3, r3, #8
 8003600:	60eb      	str	r3, [r5, #12]
 8003602:	6ca3      	ldr	r3, [r4, #72]	@ 0x48
 8003604:	b11b      	cbz	r3, 800360e <HAL_MDMA_Start_IT+0x68>
 8003606:	68eb      	ldr	r3, [r5, #12]
 8003608:	f043 0320 	orr.w	r3, r3, #32
 800360c:	60eb      	str	r3, [r5, #12]
 800360e:	68eb      	ldr	r3, [r5, #12]
 8003610:	f043 0301 	orr.w	r3, r3, #1
 8003614:	60eb      	str	r3, [r5, #12]
 8003616:	6863      	ldr	r3, [r4, #4]
 8003618:	f1b3 4f80 	cmp.w	r3, #1073741824	@ 0x40000000
 800361c:	d103      	bne.n	8003626 <HAL_MDMA_Start_IT+0x80>
 800361e:	68eb      	ldr	r3, [r5, #12]
 8003620:	f443 3380 	orr.w	r3, r3, #65536	@ 0x10000
 8003624:	60eb      	str	r3, [r5, #12]
 8003626:	2000      	movs	r0, #0
 8003628:	b002      	add	sp, #8
 800362a:	bd70      	pop	{r4, r5, r6, pc}
 800362c:	f880 503c 	strb.w	r5, [r0, #60]	@ 0x3c
 8003630:	2002      	movs	r0, #2
 8003632:	e7f9      	b.n	8003628 <HAL_MDMA_Start_IT+0x82>
 8003634:	2001      	movs	r0, #1
 8003636:	e7f7      	b.n	8003628 <HAL_MDMA_Start_IT+0x82>

08003638 <HAL_MDMA_Abort_IT>:
 8003638:	b128      	cbz	r0, 8003646 <HAL_MDMA_Abort_IT+0xe>
 800363a:	f890 303d 	ldrb.w	r3, [r0, #61]	@ 0x3d
 800363e:	2b02      	cmp	r3, #2
 8003640:	d003      	beq.n	800364a <HAL_MDMA_Abort_IT+0x12>
 8003642:	2380      	movs	r3, #128	@ 0x80
 8003644:	6683      	str	r3, [r0, #104]	@ 0x68
 8003646:	2001      	movs	r0, #1
 8003648:	4770      	bx	lr
 800364a:	6802      	ldr	r2, [r0, #0]
 800364c:	2304      	movs	r3, #4
 800364e:	f880 303d 	strb.w	r3, [r0, #61]	@ 0x3d
 8003652:	2000      	movs	r0, #0
 8003654:	68d3      	ldr	r3, [r2, #12]
 8003656:	f023 0301 	bic.w	r3, r3, #1
 800365a:	60d3      	str	r3, [r2, #12]
 800365c:	4770      	bx	lr
	...

08003660 <HAL_MDMA_IRQHandler>:
 8003660:	2300      	movs	r3, #0
 8003662:	b537      	push	{r0, r1, r2, r4, r5, lr}
 8003664:	9301      	str	r3, [sp, #4]
 8003666:	f04f 42a4 	mov.w	r2, #1375731712	@ 0x52000000
 800366a:	4b58      	ldr	r3, [pc, #352]	@ (80037cc <HAL_MDMA_IRQHandler+0x16c>)
 800366c:	4604      	mov	r4, r0
 800366e:	2101      	movs	r1, #1
 8003670:	681d      	ldr	r5, [r3, #0]
 8003672:	6803      	ldr	r3, [r0, #0]
 8003674:	6810      	ldr	r0, [r2, #0]
 8003676:	f103 422e 	add.w	r2, r3, #2919235584	@ 0xae000000
 800367a:	3a40      	subs	r2, #64	@ 0x40
 800367c:	f3c2 1284 	ubfx	r2, r2, #6, #5
 8003680:	fa01 f202 	lsl.w	r2, r1, r2
 8003684:	4202      	tst	r2, r0
 8003686:	f000 809e 	beq.w	80037c6 <HAL_MDMA_IRQHandler+0x166>
 800368a:	681a      	ldr	r2, [r3, #0]
 800368c:	07d1      	lsls	r1, r2, #31
 800368e:	d529      	bpl.n	80036e4 <HAL_MDMA_IRQHandler+0x84>
 8003690:	68da      	ldr	r2, [r3, #12]
 8003692:	0792      	lsls	r2, r2, #30
 8003694:	d526      	bpl.n	80036e4 <HAL_MDMA_IRQHandler+0x84>
 8003696:	68da      	ldr	r2, [r3, #12]
 8003698:	f022 0202 	bic.w	r2, r2, #2
 800369c:	60da      	str	r2, [r3, #12]
 800369e:	689a      	ldr	r2, [r3, #8]
 80036a0:	6ea1      	ldr	r1, [r4, #104]	@ 0x68
 80036a2:	0610      	lsls	r0, r2, #24
 80036a4:	bf54      	ite	pl
 80036a6:	f041 0101 	orrpl.w	r1, r1, #1
 80036aa:	f041 0102 	orrmi.w	r1, r1, #2
 80036ae:	66a1      	str	r1, [r4, #104]	@ 0x68
 80036b0:	0591      	lsls	r1, r2, #22
 80036b2:	d503      	bpl.n	80036bc <HAL_MDMA_IRQHandler+0x5c>
 80036b4:	6ea1      	ldr	r1, [r4, #104]	@ 0x68
 80036b6:	f041 0104 	orr.w	r1, r1, #4
 80036ba:	66a1      	str	r1, [r4, #104]	@ 0x68
 80036bc:	05d0      	lsls	r0, r2, #23
 80036be:	d503      	bpl.n	80036c8 <HAL_MDMA_IRQHandler+0x68>
 80036c0:	6ea1      	ldr	r1, [r4, #104]	@ 0x68
 80036c2:	f041 0108 	orr.w	r1, r1, #8
 80036c6:	66a1      	str	r1, [r4, #104]	@ 0x68
 80036c8:	0551      	lsls	r1, r2, #21
 80036ca:	d503      	bpl.n	80036d4 <HAL_MDMA_IRQHandler+0x74>
 80036cc:	6ea1      	ldr	r1, [r4, #104]	@ 0x68
 80036ce:	f041 0110 	orr.w	r1, r1, #16
 80036d2:	66a1      	str	r1, [r4, #104]	@ 0x68
 80036d4:	0512      	lsls	r2, r2, #20
 80036d6:	d503      	bpl.n	80036e0 <HAL_MDMA_IRQHandler+0x80>
 80036d8:	6ea2      	ldr	r2, [r4, #104]	@ 0x68
 80036da:	f042 0220 	orr.w	r2, r2, #32
 80036de:	66a2      	str	r2, [r4, #104]	@ 0x68
 80036e0:	2201      	movs	r2, #1
 80036e2:	605a      	str	r2, [r3, #4]
 80036e4:	681a      	ldr	r2, [r3, #0]
 80036e6:	06d0      	lsls	r0, r2, #27
 80036e8:	d508      	bpl.n	80036fc <HAL_MDMA_IRQHandler+0x9c>
 80036ea:	68da      	ldr	r2, [r3, #12]
 80036ec:	0691      	lsls	r1, r2, #26
 80036ee:	d505      	bpl.n	80036fc <HAL_MDMA_IRQHandler+0x9c>
 80036f0:	2210      	movs	r2, #16
 80036f2:	605a      	str	r2, [r3, #4]
 80036f4:	6ca3      	ldr	r3, [r4, #72]	@ 0x48
 80036f6:	b10b      	cbz	r3, 80036fc <HAL_MDMA_IRQHandler+0x9c>
 80036f8:	4620      	mov	r0, r4
 80036fa:	4798      	blx	r3
 80036fc:	6823      	ldr	r3, [r4, #0]
 80036fe:	681a      	ldr	r2, [r3, #0]
 8003700:	0712      	lsls	r2, r2, #28
 8003702:	d508      	bpl.n	8003716 <HAL_MDMA_IRQHandler+0xb6>
 8003704:	68da      	ldr	r2, [r3, #12]
 8003706:	06d0      	lsls	r0, r2, #27
 8003708:	d505      	bpl.n	8003716 <HAL_MDMA_IRQHandler+0xb6>
 800370a:	2208      	movs	r2, #8
 800370c:	605a      	str	r2, [r3, #4]
 800370e:	6ce3      	ldr	r3, [r4, #76]	@ 0x4c
 8003710:	b10b      	cbz	r3, 8003716 <HAL_MDMA_IRQHandler+0xb6>
 8003712:	4620      	mov	r0, r4
 8003714:	4798      	blx	r3
 8003716:	6823      	ldr	r3, [r4, #0]
 8003718:	681a      	ldr	r2, [r3, #0]
 800371a:	0751      	lsls	r1, r2, #29
 800371c:	d508      	bpl.n	8003730 <HAL_MDMA_IRQHandler+0xd0>
 800371e:	68da      	ldr	r2, [r3, #12]
 8003720:	0712      	lsls	r2, r2, #28
 8003722:	d505      	bpl.n	8003730 <HAL_MDMA_IRQHandler+0xd0>
 8003724:	2204      	movs	r2, #4
 8003726:	605a      	str	r2, [r3, #4]
 8003728:	6d23      	ldr	r3, [r4, #80]	@ 0x50
 800372a:	b10b      	cbz	r3, 8003730 <HAL_MDMA_IRQHandler+0xd0>
 800372c:	4620      	mov	r0, r4
 800372e:	4798      	blx	r3
 8003730:	6823      	ldr	r3, [r4, #0]
 8003732:	681a      	ldr	r2, [r3, #0]
 8003734:	0790      	lsls	r0, r2, #30
 8003736:	d524      	bpl.n	8003782 <HAL_MDMA_IRQHandler+0x122>
 8003738:	68da      	ldr	r2, [r3, #12]
 800373a:	0751      	lsls	r1, r2, #29
 800373c:	d521      	bpl.n	8003782 <HAL_MDMA_IRQHandler+0x122>
 800373e:	68da      	ldr	r2, [r3, #12]
 8003740:	f022 023e 	bic.w	r2, r2, #62	@ 0x3e
 8003744:	60da      	str	r2, [r3, #12]
 8003746:	f894 203d 	ldrb.w	r2, [r4, #61]	@ 0x3d
 800374a:	2a04      	cmp	r2, #4
 800374c:	f04f 0200 	mov.w	r2, #0
 8003750:	d10c      	bne.n	800376c <HAL_MDMA_IRQHandler+0x10c>
 8003752:	2301      	movs	r3, #1
 8003754:	f884 203c 	strb.w	r2, [r4, #60]	@ 0x3c
 8003758:	f884 303d 	strb.w	r3, [r4, #61]	@ 0x3d
 800375c:	6da3      	ldr	r3, [r4, #88]	@ 0x58
 800375e:	2b00      	cmp	r3, #0
 8003760:	d031      	beq.n	80037c6 <HAL_MDMA_IRQHandler+0x166>
 8003762:	4620      	mov	r0, r4
 8003764:	b003      	add	sp, #12
 8003766:	e8bd 4030 	ldmia.w	sp!, {r4, r5, lr}
 800376a:	4718      	bx	r3
 800376c:	2102      	movs	r1, #2
 800376e:	6059      	str	r1, [r3, #4]
 8003770:	2301      	movs	r3, #1
 8003772:	f884 203c 	strb.w	r2, [r4, #60]	@ 0x3c
 8003776:	f884 303d 	strb.w	r3, [r4, #61]	@ 0x3d
 800377a:	6c63      	ldr	r3, [r4, #68]	@ 0x44
 800377c:	b10b      	cbz	r3, 8003782 <HAL_MDMA_IRQHandler+0x122>
 800377e:	4620      	mov	r0, r4
 8003780:	4798      	blx	r3
 8003782:	6ea3      	ldr	r3, [r4, #104]	@ 0x68
 8003784:	b1fb      	cbz	r3, 80037c6 <HAL_MDMA_IRQHandler+0x166>
 8003786:	f44f 5316 	mov.w	r3, #9600	@ 0x2580
 800378a:	fbb5 f5f3 	udiv	r5, r5, r3
 800378e:	2304      	movs	r3, #4
 8003790:	f884 303d 	strb.w	r3, [r4, #61]	@ 0x3d
 8003794:	6823      	ldr	r3, [r4, #0]
 8003796:	68da      	ldr	r2, [r3, #12]
 8003798:	f022 0201 	bic.w	r2, r2, #1
 800379c:	60da      	str	r2, [r3, #12]
 800379e:	9a01      	ldr	r2, [sp, #4]
 80037a0:	3201      	adds	r2, #1
 80037a2:	42aa      	cmp	r2, r5
 80037a4:	9201      	str	r2, [sp, #4]
 80037a6:	d802      	bhi.n	80037ae <HAL_MDMA_IRQHandler+0x14e>
 80037a8:	68da      	ldr	r2, [r3, #12]
 80037aa:	07d2      	lsls	r2, r2, #31
 80037ac:	d4f7      	bmi.n	800379e <HAL_MDMA_IRQHandler+0x13e>
 80037ae:	2200      	movs	r2, #0
 80037b0:	f884 203c 	strb.w	r2, [r4, #60]	@ 0x3c
 80037b4:	68db      	ldr	r3, [r3, #12]
 80037b6:	07db      	lsls	r3, r3, #31
 80037b8:	bf4c      	ite	mi
 80037ba:	2303      	movmi	r3, #3
 80037bc:	2301      	movpl	r3, #1
 80037be:	f884 303d 	strb.w	r3, [r4, #61]	@ 0x3d
 80037c2:	6d63      	ldr	r3, [r4, #84]	@ 0x54
 80037c4:	e7cb      	b.n	800375e <HAL_MDMA_IRQHandler+0xfe>
 80037c6:	b003      	add	sp, #12
 80037c8:	bd30      	pop	{r4, r5, pc}
 80037ca:	bf00      	nop
 80037cc:	2400000c 	.word	0x2400000c

080037d0 <HAL_PWR_EnterSTOPMode>:
 80037d0:	4a0e      	ldr	r2, [pc, #56]	@ (800380c <HAL_PWR_EnterSTOPMode+0x3c>)
 80037d2:	6813      	ldr	r3, [r2, #0]
 80037d4:	f023 0301 	bic.w	r3, r3, #1
 80037d8:	4303      	orrs	r3, r0
 80037da:	6013      	str	r3, [r2, #0]
 80037dc:	6913      	ldr	r3, [r2, #16]
 80037de:	f023 0305 	bic.w	r3, r3, #5
 80037e2:	6113      	str	r3, [r2, #16]
 80037e4:	4b0a      	ldr	r3, [pc, #40]	@ (8003810 <HAL_PWR_EnterSTOPMode+0x40>)
 80037e6:	691a      	ldr	r2, [r3, #16]
 80037e8:	f042 0204 	orr.w	r2, r2, #4
 80037ec:	611a      	str	r2, [r3, #16]
 80037ee:	f3bf 8f4f 	dsb	sy
 80037f2:	f3bf 8f6f 	isb	sy
 80037f6:	2901      	cmp	r1, #1
 80037f8:	d105      	bne.n	8003806 <HAL_PWR_EnterSTOPMode+0x36>
 80037fa:	bf30      	wfi
 80037fc:	691a      	ldr	r2, [r3, #16]
 80037fe:	f022 0204 	bic.w	r2, r2, #4
 8003802:	611a      	str	r2, [r3, #16]
 8003804:	4770      	bx	lr
 8003806:	bf20      	wfe
 8003808:	e7f8      	b.n	80037fc <HAL_PWR_EnterSTOPMode+0x2c>
 800380a:	bf00      	nop
 800380c:	58024800 	.word	0x58024800
 8003810:	e000ed00 	.word	0xe000ed00

08003814 <HAL_PWREx_ConfigSupply>:
 8003814:	b538      	push	{r3, r4, r5, lr}
 8003816:	4c10      	ldr	r4, [pc, #64]	@ (8003858 <HAL_PWREx_ConfigSupply+0x44>)
 8003818:	68e3      	ldr	r3, [r4, #12]
 800381a:	f013 0f04 	tst.w	r3, #4
 800381e:	68e3      	ldr	r3, [r4, #12]
 8003820:	d105      	bne.n	800382e <HAL_PWREx_ConfigSupply+0x1a>
 8003822:	f003 0307 	and.w	r3, r3, #7
 8003826:	1a18      	subs	r0, r3, r0
 8003828:	bf18      	it	ne
 800382a:	2001      	movne	r0, #1
 800382c:	bd38      	pop	{r3, r4, r5, pc}
 800382e:	f023 0307 	bic.w	r3, r3, #7
 8003832:	4318      	orrs	r0, r3
 8003834:	60e0      	str	r0, [r4, #12]
 8003836:	f7fe fc25 	bl	8002084 <HAL_GetTick>
 800383a:	4605      	mov	r5, r0
 800383c:	6863      	ldr	r3, [r4, #4]
 800383e:	049b      	lsls	r3, r3, #18
 8003840:	d501      	bpl.n	8003846 <HAL_PWREx_ConfigSupply+0x32>
 8003842:	2000      	movs	r0, #0
 8003844:	e7f2      	b.n	800382c <HAL_PWREx_ConfigSupply+0x18>
 8003846:	f7fe fc1d 	bl	8002084 <HAL_GetTick>
 800384a:	1b40      	subs	r0, r0, r5
 800384c:	f5b0 7f7a 	cmp.w	r0, #1000	@ 0x3e8
 8003850:	d9f4      	bls.n	800383c <HAL_PWREx_ConfigSupply+0x28>
 8003852:	2001      	movs	r0, #1
 8003854:	e7ea      	b.n	800382c <HAL_PWREx_ConfigSupply+0x18>
 8003856:	bf00      	nop
 8003858:	58024800 	.word	0x58024800

0800385c <HAL_RCC_OscConfig>:
 800385c:	b5f8      	push	{r3, r4, r5, r6, r7, lr}
 800385e:	4604      	mov	r4, r0
 8003860:	2800      	cmp	r0, #0
 8003862:	d069      	beq.n	8003938 <HAL_RCC_OscConfig+0xdc>
 8003864:	6803      	ldr	r3, [r0, #0]
 8003866:	07d8      	lsls	r0, r3, #31
 8003868:	d453      	bmi.n	8003912 <HAL_RCC_OscConfig+0xb6>
 800386a:	6823      	ldr	r3, [r4, #0]
 800386c:	0799      	lsls	r1, r3, #30
 800386e:	f100 80b8 	bmi.w	80039e2 <HAL_RCC_OscConfig+0x186>
 8003872:	6823      	ldr	r3, [r4, #0]
 8003874:	06da      	lsls	r2, r3, #27
 8003876:	d51c      	bpl.n	80038b2 <HAL_RCC_OscConfig+0x56>
 8003878:	4a96      	ldr	r2, [pc, #600]	@ (8003ad4 <HAL_RCC_OscConfig+0x278>)
 800387a:	6913      	ldr	r3, [r2, #16]
 800387c:	6a91      	ldr	r1, [r2, #40]	@ 0x28
 800387e:	f003 0338 	and.w	r3, r3, #56	@ 0x38
 8003882:	2b08      	cmp	r3, #8
 8003884:	d007      	beq.n	8003896 <HAL_RCC_OscConfig+0x3a>
 8003886:	2b18      	cmp	r3, #24
 8003888:	f040 80f8 	bne.w	8003a7c <HAL_RCC_OscConfig+0x220>
 800388c:	f001 0303 	and.w	r3, r1, #3
 8003890:	2b01      	cmp	r3, #1
 8003892:	f040 80f3 	bne.w	8003a7c <HAL_RCC_OscConfig+0x220>
 8003896:	6813      	ldr	r3, [r2, #0]
 8003898:	05db      	lsls	r3, r3, #23
 800389a:	d502      	bpl.n	80038a2 <HAL_RCC_OscConfig+0x46>
 800389c:	69e3      	ldr	r3, [r4, #28]
 800389e:	2b80      	cmp	r3, #128	@ 0x80
 80038a0:	d14a      	bne.n	8003938 <HAL_RCC_OscConfig+0xdc>
 80038a2:	4a8c      	ldr	r2, [pc, #560]	@ (8003ad4 <HAL_RCC_OscConfig+0x278>)
 80038a4:	6a21      	ldr	r1, [r4, #32]
 80038a6:	68d3      	ldr	r3, [r2, #12]
 80038a8:	f023 537c 	bic.w	r3, r3, #1056964608	@ 0x3f000000
 80038ac:	ea43 6301 	orr.w	r3, r3, r1, lsl #24
 80038b0:	60d3      	str	r3, [r2, #12]
 80038b2:	6823      	ldr	r3, [r4, #0]
 80038b4:	0719      	lsls	r1, r3, #28
 80038b6:	f100 8111 	bmi.w	8003adc <HAL_RCC_OscConfig+0x280>
 80038ba:	6823      	ldr	r3, [r4, #0]
 80038bc:	069a      	lsls	r2, r3, #26
 80038be:	f100 8132 	bmi.w	8003b26 <HAL_RCC_OscConfig+0x2ca>
 80038c2:	6823      	ldr	r3, [r4, #0]
 80038c4:	075d      	lsls	r5, r3, #29
 80038c6:	d51e      	bpl.n	8003906 <HAL_RCC_OscConfig+0xaa>
 80038c8:	4d83      	ldr	r5, [pc, #524]	@ (8003ad8 <HAL_RCC_OscConfig+0x27c>)
 80038ca:	682b      	ldr	r3, [r5, #0]
 80038cc:	f443 7380 	orr.w	r3, r3, #256	@ 0x100
 80038d0:	602b      	str	r3, [r5, #0]
 80038d2:	f7fe fbd7 	bl	8002084 <HAL_GetTick>
 80038d6:	4606      	mov	r6, r0
 80038d8:	682b      	ldr	r3, [r5, #0]
 80038da:	05da      	lsls	r2, r3, #23
 80038dc:	f140 8148 	bpl.w	8003b70 <HAL_RCC_OscConfig+0x314>
 80038e0:	68a3      	ldr	r3, [r4, #8]
 80038e2:	4d7c      	ldr	r5, [pc, #496]	@ (8003ad4 <HAL_RCC_OscConfig+0x278>)
 80038e4:	2b01      	cmp	r3, #1
 80038e6:	f040 814a 	bne.w	8003b7e <HAL_RCC_OscConfig+0x322>
 80038ea:	6f2b      	ldr	r3, [r5, #112]	@ 0x70
 80038ec:	f043 0301 	orr.w	r3, r3, #1
 80038f0:	672b      	str	r3, [r5, #112]	@ 0x70
 80038f2:	f241 3788 	movw	r7, #5000	@ 0x1388
 80038f6:	f7fe fbc5 	bl	8002084 <HAL_GetTick>
 80038fa:	4e76      	ldr	r6, [pc, #472]	@ (8003ad4 <HAL_RCC_OscConfig+0x278>)
 80038fc:	4605      	mov	r5, r0
 80038fe:	6f33      	ldr	r3, [r6, #112]	@ 0x70
 8003900:	079b      	lsls	r3, r3, #30
 8003902:	f140 8178 	bpl.w	8003bf6 <HAL_RCC_OscConfig+0x39a>
 8003906:	6a61      	ldr	r1, [r4, #36]	@ 0x24
 8003908:	2900      	cmp	r1, #0
 800390a:	f040 817b 	bne.w	8003c04 <HAL_RCC_OscConfig+0x3a8>
 800390e:	2000      	movs	r0, #0
 8003910:	e02a      	b.n	8003968 <HAL_RCC_OscConfig+0x10c>
 8003912:	4a70      	ldr	r2, [pc, #448]	@ (8003ad4 <HAL_RCC_OscConfig+0x278>)
 8003914:	6913      	ldr	r3, [r2, #16]
 8003916:	6a91      	ldr	r1, [r2, #40]	@ 0x28
 8003918:	f003 0338 	and.w	r3, r3, #56	@ 0x38
 800391c:	2b10      	cmp	r3, #16
 800391e:	d005      	beq.n	800392c <HAL_RCC_OscConfig+0xd0>
 8003920:	2b18      	cmp	r3, #24
 8003922:	d10b      	bne.n	800393c <HAL_RCC_OscConfig+0xe0>
 8003924:	f001 0303 	and.w	r3, r1, #3
 8003928:	2b02      	cmp	r3, #2
 800392a:	d107      	bne.n	800393c <HAL_RCC_OscConfig+0xe0>
 800392c:	6813      	ldr	r3, [r2, #0]
 800392e:	039a      	lsls	r2, r3, #14
 8003930:	d59b      	bpl.n	800386a <HAL_RCC_OscConfig+0xe>
 8003932:	6863      	ldr	r3, [r4, #4]
 8003934:	2b00      	cmp	r3, #0
 8003936:	d198      	bne.n	800386a <HAL_RCC_OscConfig+0xe>
 8003938:	2001      	movs	r0, #1
 800393a:	e015      	b.n	8003968 <HAL_RCC_OscConfig+0x10c>
 800393c:	6863      	ldr	r3, [r4, #4]
 800393e:	4d65      	ldr	r5, [pc, #404]	@ (8003ad4 <HAL_RCC_OscConfig+0x278>)
 8003940:	f5b3 3f80 	cmp.w	r3, #65536	@ 0x10000
 8003944:	d111      	bne.n	800396a <HAL_RCC_OscConfig+0x10e>
 8003946:	682b      	ldr	r3, [r5, #0]
 8003948:	f443 3380 	orr.w	r3, r3, #65536	@ 0x10000
 800394c:	602b      	str	r3, [r5, #0]
 800394e:	f7fe fb99 	bl	8002084 <HAL_GetTick>
 8003952:	4e60      	ldr	r6, [pc, #384]	@ (8003ad4 <HAL_RCC_OscConfig+0x278>)
 8003954:	4605      	mov	r5, r0
 8003956:	6833      	ldr	r3, [r6, #0]
 8003958:	039b      	lsls	r3, r3, #14
 800395a:	d486      	bmi.n	800386a <HAL_RCC_OscConfig+0xe>
 800395c:	f7fe fb92 	bl	8002084 <HAL_GetTick>
 8003960:	1b40      	subs	r0, r0, r5
 8003962:	2864      	cmp	r0, #100	@ 0x64
 8003964:	d9f7      	bls.n	8003956 <HAL_RCC_OscConfig+0xfa>
 8003966:	2003      	movs	r0, #3
 8003968:	bdf8      	pop	{r3, r4, r5, r6, r7, pc}
 800396a:	b9c3      	cbnz	r3, 800399e <HAL_RCC_OscConfig+0x142>
 800396c:	682b      	ldr	r3, [r5, #0]
 800396e:	f423 3380 	bic.w	r3, r3, #65536	@ 0x10000
 8003972:	602b      	str	r3, [r5, #0]
 8003974:	682b      	ldr	r3, [r5, #0]
 8003976:	f423 1380 	bic.w	r3, r3, #1048576	@ 0x100000
 800397a:	602b      	str	r3, [r5, #0]
 800397c:	682b      	ldr	r3, [r5, #0]
 800397e:	f423 2380 	bic.w	r3, r3, #262144	@ 0x40000
 8003982:	602b      	str	r3, [r5, #0]
 8003984:	f7fe fb7e 	bl	8002084 <HAL_GetTick>
 8003988:	4606      	mov	r6, r0
 800398a:	682b      	ldr	r3, [r5, #0]
 800398c:	039f      	lsls	r7, r3, #14
 800398e:	f57f af6c 	bpl.w	800386a <HAL_RCC_OscConfig+0xe>
 8003992:	f7fe fb77 	bl	8002084 <HAL_GetTick>
 8003996:	1b80      	subs	r0, r0, r6
 8003998:	2864      	cmp	r0, #100	@ 0x64
 800399a:	d9f6      	bls.n	800398a <HAL_RCC_OscConfig+0x12e>
 800399c:	e7e3      	b.n	8003966 <HAL_RCC_OscConfig+0x10a>
 800399e:	f5b3 2fa0 	cmp.w	r3, #327680	@ 0x50000
 80039a2:	d108      	bne.n	80039b6 <HAL_RCC_OscConfig+0x15a>
 80039a4:	682b      	ldr	r3, [r5, #0]
 80039a6:	f443 2380 	orr.w	r3, r3, #262144	@ 0x40000
 80039aa:	602b      	str	r3, [r5, #0]
 80039ac:	682b      	ldr	r3, [r5, #0]
 80039ae:	f423 1380 	bic.w	r3, r3, #1048576	@ 0x100000
 80039b2:	602b      	str	r3, [r5, #0]
 80039b4:	e7c7      	b.n	8003946 <HAL_RCC_OscConfig+0xea>
 80039b6:	f5b3 1fa8 	cmp.w	r3, #1376256	@ 0x150000
 80039ba:	682b      	ldr	r3, [r5, #0]
 80039bc:	d106      	bne.n	80039cc <HAL_RCC_OscConfig+0x170>
 80039be:	f443 2380 	orr.w	r3, r3, #262144	@ 0x40000
 80039c2:	602b      	str	r3, [r5, #0]
 80039c4:	682b      	ldr	r3, [r5, #0]
 80039c6:	f443 1380 	orr.w	r3, r3, #1048576	@ 0x100000
 80039ca:	e7f2      	b.n	80039b2 <HAL_RCC_OscConfig+0x156>
 80039cc:	f423 3380 	bic.w	r3, r3, #65536	@ 0x10000
 80039d0:	602b      	str	r3, [r5, #0]
 80039d2:	682b      	ldr	r3, [r5, #0]
 80039d4:	f423 2380 	bic.w	r3, r3, #262144	@ 0x40000
 80039d8:	602b      	str	r3, [r5, #0]
 80039da:	682b      	ldr	r3, [r5, #0]
 80039dc:	f423 1380 	bic.w	r3, r3, #1048576	@ 0x100000
 80039e0:	e7b4      	b.n	800394c <HAL_RCC_OscConfig+0xf0>
 80039e2:	493c      	ldr	r1, [pc, #240]	@ (8003ad4 <HAL_RCC_OscConfig+0x278>)
 80039e4:	68e2      	ldr	r2, [r4, #12]
 80039e6:	690b      	ldr	r3, [r1, #16]
 80039e8:	6a88      	ldr	r0, [r1, #40]	@ 0x28
 80039ea:	f013 0338 	ands.w	r3, r3, #56	@ 0x38
 80039ee:	d003      	beq.n	80039f8 <HAL_RCC_OscConfig+0x19c>
 80039f0:	2b18      	cmp	r3, #24
 80039f2:	d120      	bne.n	8003a36 <HAL_RCC_OscConfig+0x1da>
 80039f4:	0780      	lsls	r0, r0, #30
 80039f6:	d11e      	bne.n	8003a36 <HAL_RCC_OscConfig+0x1da>
 80039f8:	680b      	ldr	r3, [r1, #0]
 80039fa:	075b      	lsls	r3, r3, #29
 80039fc:	d501      	bpl.n	8003a02 <HAL_RCC_OscConfig+0x1a6>
 80039fe:	2a00      	cmp	r2, #0
 8003a00:	d09a      	beq.n	8003938 <HAL_RCC_OscConfig+0xdc>
 8003a02:	4d34      	ldr	r5, [pc, #208]	@ (8003ad4 <HAL_RCC_OscConfig+0x278>)
 8003a04:	682b      	ldr	r3, [r5, #0]
 8003a06:	f023 0319 	bic.w	r3, r3, #25
 8003a0a:	4313      	orrs	r3, r2
 8003a0c:	602b      	str	r3, [r5, #0]
 8003a0e:	f7fe fb39 	bl	8002084 <HAL_GetTick>
 8003a12:	4606      	mov	r6, r0
 8003a14:	682b      	ldr	r3, [r5, #0]
 8003a16:	075f      	lsls	r7, r3, #29
 8003a18:	d507      	bpl.n	8003a2a <HAL_RCC_OscConfig+0x1ce>
 8003a1a:	686b      	ldr	r3, [r5, #4]
 8003a1c:	6922      	ldr	r2, [r4, #16]
 8003a1e:	f023 43fe 	bic.w	r3, r3, #2130706432	@ 0x7f000000
 8003a22:	ea43 6302 	orr.w	r3, r3, r2, lsl #24
 8003a26:	606b      	str	r3, [r5, #4]
 8003a28:	e723      	b.n	8003872 <HAL_RCC_OscConfig+0x16>
 8003a2a:	f7fe fb2b 	bl	8002084 <HAL_GetTick>
 8003a2e:	1b80      	subs	r0, r0, r6
 8003a30:	2802      	cmp	r0, #2
 8003a32:	d9ef      	bls.n	8003a14 <HAL_RCC_OscConfig+0x1b8>
 8003a34:	e797      	b.n	8003966 <HAL_RCC_OscConfig+0x10a>
 8003a36:	4d27      	ldr	r5, [pc, #156]	@ (8003ad4 <HAL_RCC_OscConfig+0x278>)
 8003a38:	682b      	ldr	r3, [r5, #0]
 8003a3a:	b17a      	cbz	r2, 8003a5c <HAL_RCC_OscConfig+0x200>
 8003a3c:	f023 0319 	bic.w	r3, r3, #25
 8003a40:	4313      	orrs	r3, r2
 8003a42:	602b      	str	r3, [r5, #0]
 8003a44:	f7fe fb1e 	bl	8002084 <HAL_GetTick>
 8003a48:	4606      	mov	r6, r0
 8003a4a:	682b      	ldr	r3, [r5, #0]
 8003a4c:	0758      	lsls	r0, r3, #29
 8003a4e:	d4e4      	bmi.n	8003a1a <HAL_RCC_OscConfig+0x1be>
 8003a50:	f7fe fb18 	bl	8002084 <HAL_GetTick>
 8003a54:	1b80      	subs	r0, r0, r6
 8003a56:	2802      	cmp	r0, #2
 8003a58:	d9f7      	bls.n	8003a4a <HAL_RCC_OscConfig+0x1ee>
 8003a5a:	e784      	b.n	8003966 <HAL_RCC_OscConfig+0x10a>
 8003a5c:	f023 0301 	bic.w	r3, r3, #1
 8003a60:	602b      	str	r3, [r5, #0]
 8003a62:	f7fe fb0f 	bl	8002084 <HAL_GetTick>
 8003a66:	4606      	mov	r6, r0
 8003a68:	682b      	ldr	r3, [r5, #0]
 8003a6a:	0759      	lsls	r1, r3, #29
 8003a6c:	f57f af01 	bpl.w	8003872 <HAL_RCC_OscConfig+0x16>
 8003a70:	f7fe fb08 	bl	8002084 <HAL_GetTick>
 8003a74:	1b80      	subs	r0, r0, r6
 8003a76:	2802      	cmp	r0, #2
 8003a78:	d9f6      	bls.n	8003a68 <HAL_RCC_OscConfig+0x20c>
 8003a7a:	e774      	b.n	8003966 <HAL_RCC_OscConfig+0x10a>
 8003a7c:	69e3      	ldr	r3, [r4, #28]
 8003a7e:	4d15      	ldr	r5, [pc, #84]	@ (8003ad4 <HAL_RCC_OscConfig+0x278>)
 8003a80:	b1bb      	cbz	r3, 8003ab2 <HAL_RCC_OscConfig+0x256>
 8003a82:	682b      	ldr	r3, [r5, #0]
 8003a84:	f043 0380 	orr.w	r3, r3, #128	@ 0x80
 8003a88:	602b      	str	r3, [r5, #0]
 8003a8a:	f7fe fafb 	bl	8002084 <HAL_GetTick>
 8003a8e:	4606      	mov	r6, r0
 8003a90:	682b      	ldr	r3, [r5, #0]
 8003a92:	05df      	lsls	r7, r3, #23
 8003a94:	d507      	bpl.n	8003aa6 <HAL_RCC_OscConfig+0x24a>
 8003a96:	68eb      	ldr	r3, [r5, #12]
 8003a98:	6a22      	ldr	r2, [r4, #32]
 8003a9a:	f023 537c 	bic.w	r3, r3, #1056964608	@ 0x3f000000
 8003a9e:	ea43 6302 	orr.w	r3, r3, r2, lsl #24
 8003aa2:	60eb      	str	r3, [r5, #12]
 8003aa4:	e705      	b.n	80038b2 <HAL_RCC_OscConfig+0x56>
 8003aa6:	f7fe faed 	bl	8002084 <HAL_GetTick>
 8003aaa:	1b80      	subs	r0, r0, r6
 8003aac:	2802      	cmp	r0, #2
 8003aae:	d9ef      	bls.n	8003a90 <HAL_RCC_OscConfig+0x234>
 8003ab0:	e759      	b.n	8003966 <HAL_RCC_OscConfig+0x10a>
 8003ab2:	682b      	ldr	r3, [r5, #0]
 8003ab4:	f023 0380 	bic.w	r3, r3, #128	@ 0x80
 8003ab8:	602b      	str	r3, [r5, #0]
 8003aba:	f7fe fae3 	bl	8002084 <HAL_GetTick>
 8003abe:	4606      	mov	r6, r0
 8003ac0:	682b      	ldr	r3, [r5, #0]
 8003ac2:	05d8      	lsls	r0, r3, #23
 8003ac4:	f57f aef5 	bpl.w	80038b2 <HAL_RCC_OscConfig+0x56>
 8003ac8:	f7fe fadc 	bl	8002084 <HAL_GetTick>
 8003acc:	1b80      	subs	r0, r0, r6
 8003ace:	2802      	cmp	r0, #2
 8003ad0:	d9f6      	bls.n	8003ac0 <HAL_RCC_OscConfig+0x264>
 8003ad2:	e748      	b.n	8003966 <HAL_RCC_OscConfig+0x10a>
 8003ad4:	58024400 	.word	0x58024400
 8003ad8:	58024800 	.word	0x58024800
 8003adc:	6963      	ldr	r3, [r4, #20]
 8003ade:	4d8a      	ldr	r5, [pc, #552]	@ (8003d08 <HAL_RCC_OscConfig+0x4ac>)
 8003ae0:	b183      	cbz	r3, 8003b04 <HAL_RCC_OscConfig+0x2a8>
 8003ae2:	6f6b      	ldr	r3, [r5, #116]	@ 0x74
 8003ae4:	f043 0301 	orr.w	r3, r3, #1
 8003ae8:	676b      	str	r3, [r5, #116]	@ 0x74
 8003aea:	f7fe facb 	bl	8002084 <HAL_GetTick>
 8003aee:	4606      	mov	r6, r0
 8003af0:	6f6b      	ldr	r3, [r5, #116]	@ 0x74
 8003af2:	079b      	lsls	r3, r3, #30
 8003af4:	f53f aee1 	bmi.w	80038ba <HAL_RCC_OscConfig+0x5e>
 8003af8:	f7fe fac4 	bl	8002084 <HAL_GetTick>
 8003afc:	1b80      	subs	r0, r0, r6
 8003afe:	2802      	cmp	r0, #2
 8003b00:	d9f6      	bls.n	8003af0 <HAL_RCC_OscConfig+0x294>
 8003b02:	e730      	b.n	8003966 <HAL_RCC_OscConfig+0x10a>
 8003b04:	6f6b      	ldr	r3, [r5, #116]	@ 0x74
 8003b06:	f023 0301 	bic.w	r3, r3, #1
 8003b0a:	676b      	str	r3, [r5, #116]	@ 0x74
 8003b0c:	f7fe faba 	bl	8002084 <HAL_GetTick>
 8003b10:	4606      	mov	r6, r0
 8003b12:	6f6b      	ldr	r3, [r5, #116]	@ 0x74
 8003b14:	079f      	lsls	r7, r3, #30
 8003b16:	f57f aed0 	bpl.w	80038ba <HAL_RCC_OscConfig+0x5e>
 8003b1a:	f7fe fab3 	bl	8002084 <HAL_GetTick>
 8003b1e:	1b80      	subs	r0, r0, r6
 8003b20:	2802      	cmp	r0, #2
 8003b22:	d9f6      	bls.n	8003b12 <HAL_RCC_OscConfig+0x2b6>
 8003b24:	e71f      	b.n	8003966 <HAL_RCC_OscConfig+0x10a>
 8003b26:	69a3      	ldr	r3, [r4, #24]
 8003b28:	4d77      	ldr	r5, [pc, #476]	@ (8003d08 <HAL_RCC_OscConfig+0x4ac>)
 8003b2a:	b183      	cbz	r3, 8003b4e <HAL_RCC_OscConfig+0x2f2>
 8003b2c:	682b      	ldr	r3, [r5, #0]
 8003b2e:	f443 5380 	orr.w	r3, r3, #4096	@ 0x1000
 8003b32:	602b      	str	r3, [r5, #0]
 8003b34:	f7fe faa6 	bl	8002084 <HAL_GetTick>
 8003b38:	4606      	mov	r6, r0
 8003b3a:	682b      	ldr	r3, [r5, #0]
 8003b3c:	0498      	lsls	r0, r3, #18
 8003b3e:	f53f aec0 	bmi.w	80038c2 <HAL_RCC_OscConfig+0x66>
 8003b42:	f7fe fa9f 	bl	8002084 <HAL_GetTick>
 8003b46:	1b80      	subs	r0, r0, r6
 8003b48:	2802      	cmp	r0, #2
 8003b4a:	d9f6      	bls.n	8003b3a <HAL_RCC_OscConfig+0x2de>
 8003b4c:	e70b      	b.n	8003966 <HAL_RCC_OscConfig+0x10a>
 8003b4e:	682b      	ldr	r3, [r5, #0]
 8003b50:	f423 5380 	bic.w	r3, r3, #4096	@ 0x1000
 8003b54:	602b      	str	r3, [r5, #0]
 8003b56:	f7fe fa95 	bl	8002084 <HAL_GetTick>
 8003b5a:	4606      	mov	r6, r0
 8003b5c:	682b      	ldr	r3, [r5, #0]
 8003b5e:	0499      	lsls	r1, r3, #18
 8003b60:	f57f aeaf 	bpl.w	80038c2 <HAL_RCC_OscConfig+0x66>
 8003b64:	f7fe fa8e 	bl	8002084 <HAL_GetTick>
 8003b68:	1b80      	subs	r0, r0, r6
 8003b6a:	2802      	cmp	r0, #2
 8003b6c:	d9f6      	bls.n	8003b5c <HAL_RCC_OscConfig+0x300>
 8003b6e:	e6fa      	b.n	8003966 <HAL_RCC_OscConfig+0x10a>
 8003b70:	f7fe fa88 	bl	8002084 <HAL_GetTick>
 8003b74:	1b80      	subs	r0, r0, r6
 8003b76:	2864      	cmp	r0, #100	@ 0x64
 8003b78:	f67f aeae 	bls.w	80038d8 <HAL_RCC_OscConfig+0x7c>
 8003b7c:	e6f3      	b.n	8003966 <HAL_RCC_OscConfig+0x10a>
 8003b7e:	b9d3      	cbnz	r3, 8003bb6 <HAL_RCC_OscConfig+0x35a>
 8003b80:	6f2b      	ldr	r3, [r5, #112]	@ 0x70
 8003b82:	f241 3788 	movw	r7, #5000	@ 0x1388
 8003b86:	f023 0301 	bic.w	r3, r3, #1
 8003b8a:	672b      	str	r3, [r5, #112]	@ 0x70
 8003b8c:	6f2b      	ldr	r3, [r5, #112]	@ 0x70
 8003b8e:	f023 0380 	bic.w	r3, r3, #128	@ 0x80
 8003b92:	672b      	str	r3, [r5, #112]	@ 0x70
 8003b94:	6f2b      	ldr	r3, [r5, #112]	@ 0x70
 8003b96:	f023 0304 	bic.w	r3, r3, #4
 8003b9a:	672b      	str	r3, [r5, #112]	@ 0x70
 8003b9c:	f7fe fa72 	bl	8002084 <HAL_GetTick>
 8003ba0:	4606      	mov	r6, r0
 8003ba2:	6f2b      	ldr	r3, [r5, #112]	@ 0x70
 8003ba4:	0798      	lsls	r0, r3, #30
 8003ba6:	f57f aeae 	bpl.w	8003906 <HAL_RCC_OscConfig+0xaa>
 8003baa:	f7fe fa6b 	bl	8002084 <HAL_GetTick>
 8003bae:	1b80      	subs	r0, r0, r6
 8003bb0:	42b8      	cmp	r0, r7
 8003bb2:	d9f6      	bls.n	8003ba2 <HAL_RCC_OscConfig+0x346>
 8003bb4:	e6d7      	b.n	8003966 <HAL_RCC_OscConfig+0x10a>
 8003bb6:	2b05      	cmp	r3, #5
 8003bb8:	d108      	bne.n	8003bcc <HAL_RCC_OscConfig+0x370>
 8003bba:	6f2b      	ldr	r3, [r5, #112]	@ 0x70
 8003bbc:	f043 0304 	orr.w	r3, r3, #4
 8003bc0:	672b      	str	r3, [r5, #112]	@ 0x70
 8003bc2:	6f2b      	ldr	r3, [r5, #112]	@ 0x70
 8003bc4:	f023 0380 	bic.w	r3, r3, #128	@ 0x80
 8003bc8:	672b      	str	r3, [r5, #112]	@ 0x70
 8003bca:	e68e      	b.n	80038ea <HAL_RCC_OscConfig+0x8e>
 8003bcc:	2b85      	cmp	r3, #133	@ 0x85
 8003bce:	6f2b      	ldr	r3, [r5, #112]	@ 0x70
 8003bd0:	d106      	bne.n	8003be0 <HAL_RCC_OscConfig+0x384>
 8003bd2:	f043 0304 	orr.w	r3, r3, #4
 8003bd6:	672b      	str	r3, [r5, #112]	@ 0x70
 8003bd8:	6f2b      	ldr	r3, [r5, #112]	@ 0x70
 8003bda:	f043 0380 	orr.w	r3, r3, #128	@ 0x80
 8003bde:	e7f3      	b.n	8003bc8 <HAL_RCC_OscConfig+0x36c>
 8003be0:	f023 0301 	bic.w	r3, r3, #1
 8003be4:	672b      	str	r3, [r5, #112]	@ 0x70
 8003be6:	6f2b      	ldr	r3, [r5, #112]	@ 0x70
 8003be8:	f023 0304 	bic.w	r3, r3, #4
 8003bec:	672b      	str	r3, [r5, #112]	@ 0x70
 8003bee:	6f2b      	ldr	r3, [r5, #112]	@ 0x70
 8003bf0:	f023 0380 	bic.w	r3, r3, #128	@ 0x80
 8003bf4:	e67c      	b.n	80038f0 <HAL_RCC_OscConfig+0x94>
 8003bf6:	f7fe fa45 	bl	8002084 <HAL_GetTick>
 8003bfa:	1b40      	subs	r0, r0, r5
 8003bfc:	42b8      	cmp	r0, r7
 8003bfe:	f67f ae7e 	bls.w	80038fe <HAL_RCC_OscConfig+0xa2>
 8003c02:	e6b0      	b.n	8003966 <HAL_RCC_OscConfig+0x10a>
 8003c04:	4d40      	ldr	r5, [pc, #256]	@ (8003d08 <HAL_RCC_OscConfig+0x4ac>)
 8003c06:	692b      	ldr	r3, [r5, #16]
 8003c08:	f003 0338 	and.w	r3, r3, #56	@ 0x38
 8003c0c:	2b18      	cmp	r3, #24
 8003c0e:	d07d      	beq.n	8003d0c <HAL_RCC_OscConfig+0x4b0>
 8003c10:	682b      	ldr	r3, [r5, #0]
 8003c12:	2902      	cmp	r1, #2
 8003c14:	f023 7380 	bic.w	r3, r3, #16777216	@ 0x1000000
 8003c18:	602b      	str	r3, [r5, #0]
 8003c1a:	d167      	bne.n	8003cec <HAL_RCC_OscConfig+0x490>
 8003c1c:	f7fe fa32 	bl	8002084 <HAL_GetTick>
 8003c20:	4606      	mov	r6, r0
 8003c22:	682b      	ldr	r3, [r5, #0]
 8003c24:	0199      	lsls	r1, r3, #6
 8003c26:	d45b      	bmi.n	8003ce0 <HAL_RCC_OscConfig+0x484>
 8003c28:	6aab      	ldr	r3, [r5, #40]	@ 0x28
 8003c2a:	6aa2      	ldr	r2, [r4, #40]	@ 0x28
 8003c2c:	f423 737c 	bic.w	r3, r3, #1008	@ 0x3f0
 8003c30:	f023 0303 	bic.w	r3, r3, #3
 8003c34:	4313      	orrs	r3, r2
 8003c36:	6ae2      	ldr	r2, [r4, #44]	@ 0x2c
 8003c38:	ea43 1302 	orr.w	r3, r3, r2, lsl #4
 8003c3c:	62ab      	str	r3, [r5, #40]	@ 0x28
 8003c3e:	6b63      	ldr	r3, [r4, #52]	@ 0x34
 8003c40:	6ba2      	ldr	r2, [r4, #56]	@ 0x38
 8003c42:	3b01      	subs	r3, #1
 8003c44:	3a01      	subs	r2, #1
 8003c46:	025b      	lsls	r3, r3, #9
 8003c48:	0412      	lsls	r2, r2, #16
 8003c4a:	b29b      	uxth	r3, r3
 8003c4c:	f402 02fe 	and.w	r2, r2, #8323072	@ 0x7f0000
 8003c50:	4313      	orrs	r3, r2
 8003c52:	6b22      	ldr	r2, [r4, #48]	@ 0x30
 8003c54:	3a01      	subs	r2, #1
 8003c56:	f3c2 0208 	ubfx	r2, r2, #0, #9
 8003c5a:	4313      	orrs	r3, r2
 8003c5c:	6be2      	ldr	r2, [r4, #60]	@ 0x3c
 8003c5e:	3a01      	subs	r2, #1
 8003c60:	0612      	lsls	r2, r2, #24
 8003c62:	f002 42fe 	and.w	r2, r2, #2130706432	@ 0x7f000000
 8003c66:	4313      	orrs	r3, r2
 8003c68:	632b      	str	r3, [r5, #48]	@ 0x30
 8003c6a:	6aeb      	ldr	r3, [r5, #44]	@ 0x2c
 8003c6c:	f023 0301 	bic.w	r3, r3, #1
 8003c70:	62eb      	str	r3, [r5, #44]	@ 0x2c
 8003c72:	6b6b      	ldr	r3, [r5, #52]	@ 0x34
 8003c74:	6ca2      	ldr	r2, [r4, #72]	@ 0x48
 8003c76:	f423 437f 	bic.w	r3, r3, #65280	@ 0xff00
 8003c7a:	f023 03f8 	bic.w	r3, r3, #248	@ 0xf8
 8003c7e:	ea43 03c2 	orr.w	r3, r3, r2, lsl #3
 8003c82:	636b      	str	r3, [r5, #52]	@ 0x34
 8003c84:	6aeb      	ldr	r3, [r5, #44]	@ 0x2c
 8003c86:	6c22      	ldr	r2, [r4, #64]	@ 0x40
 8003c88:	f023 030c 	bic.w	r3, r3, #12
 8003c8c:	4313      	orrs	r3, r2
 8003c8e:	62eb      	str	r3, [r5, #44]	@ 0x2c
 8003c90:	6aeb      	ldr	r3, [r5, #44]	@ 0x2c
 8003c92:	6c62      	ldr	r2, [r4, #68]	@ 0x44
 8003c94:	f023 0302 	bic.w	r3, r3, #2
 8003c98:	4313      	orrs	r3, r2
 8003c9a:	62eb      	str	r3, [r5, #44]	@ 0x2c
 8003c9c:	6aeb      	ldr	r3, [r5, #44]	@ 0x2c
 8003c9e:	f443 3380 	orr.w	r3, r3, #65536	@ 0x10000
 8003ca2:	62eb      	str	r3, [r5, #44]	@ 0x2c
 8003ca4:	6aeb      	ldr	r3, [r5, #44]	@ 0x2c
 8003ca6:	f443 3300 	orr.w	r3, r3, #131072	@ 0x20000
 8003caa:	62eb      	str	r3, [r5, #44]	@ 0x2c
 8003cac:	6aeb      	ldr	r3, [r5, #44]	@ 0x2c
 8003cae:	f443 2380 	orr.w	r3, r3, #262144	@ 0x40000
 8003cb2:	62eb      	str	r3, [r5, #44]	@ 0x2c
 8003cb4:	6aeb      	ldr	r3, [r5, #44]	@ 0x2c
 8003cb6:	f043 0301 	orr.w	r3, r3, #1
 8003cba:	62eb      	str	r3, [r5, #44]	@ 0x2c
 8003cbc:	682b      	ldr	r3, [r5, #0]
 8003cbe:	f043 7380 	orr.w	r3, r3, #16777216	@ 0x1000000
 8003cc2:	602b      	str	r3, [r5, #0]
 8003cc4:	f7fe f9de 	bl	8002084 <HAL_GetTick>
 8003cc8:	4d0f      	ldr	r5, [pc, #60]	@ (8003d08 <HAL_RCC_OscConfig+0x4ac>)
 8003cca:	4604      	mov	r4, r0
 8003ccc:	682b      	ldr	r3, [r5, #0]
 8003cce:	019a      	lsls	r2, r3, #6
 8003cd0:	f53f ae1d 	bmi.w	800390e <HAL_RCC_OscConfig+0xb2>
 8003cd4:	f7fe f9d6 	bl	8002084 <HAL_GetTick>
 8003cd8:	1b00      	subs	r0, r0, r4
 8003cda:	2802      	cmp	r0, #2
 8003cdc:	d9f6      	bls.n	8003ccc <HAL_RCC_OscConfig+0x470>
 8003cde:	e642      	b.n	8003966 <HAL_RCC_OscConfig+0x10a>
 8003ce0:	f7fe f9d0 	bl	8002084 <HAL_GetTick>
 8003ce4:	1b80      	subs	r0, r0, r6
 8003ce6:	2802      	cmp	r0, #2
 8003ce8:	d99b      	bls.n	8003c22 <HAL_RCC_OscConfig+0x3c6>
 8003cea:	e63c      	b.n	8003966 <HAL_RCC_OscConfig+0x10a>
 8003cec:	f7fe f9ca 	bl	8002084 <HAL_GetTick>
 8003cf0:	4604      	mov	r4, r0
 8003cf2:	682b      	ldr	r3, [r5, #0]
 8003cf4:	019b      	lsls	r3, r3, #6
 8003cf6:	f57f ae0a 	bpl.w	800390e <HAL_RCC_OscConfig+0xb2>
 8003cfa:	f7fe f9c3 	bl	8002084 <HAL_GetTick>
 8003cfe:	1b00      	subs	r0, r0, r4
 8003d00:	2802      	cmp	r0, #2
 8003d02:	d9f6      	bls.n	8003cf2 <HAL_RCC_OscConfig+0x496>
 8003d04:	e62f      	b.n	8003966 <HAL_RCC_OscConfig+0x10a>
 8003d06:	bf00      	nop
 8003d08:	58024400 	.word	0x58024400
 8003d0c:	2901      	cmp	r1, #1
 8003d0e:	6aaa      	ldr	r2, [r5, #40]	@ 0x28
 8003d10:	6b2b      	ldr	r3, [r5, #48]	@ 0x30
 8003d12:	f43f ae11 	beq.w	8003938 <HAL_RCC_OscConfig+0xdc>
 8003d16:	f002 0103 	and.w	r1, r2, #3
 8003d1a:	6aa0      	ldr	r0, [r4, #40]	@ 0x28
 8003d1c:	4281      	cmp	r1, r0
 8003d1e:	f47f ae0b 	bne.w	8003938 <HAL_RCC_OscConfig+0xdc>
 8003d22:	f3c2 1205 	ubfx	r2, r2, #4, #6
 8003d26:	6ae1      	ldr	r1, [r4, #44]	@ 0x2c
 8003d28:	428a      	cmp	r2, r1
 8003d2a:	f47f ae05 	bne.w	8003938 <HAL_RCC_OscConfig+0xdc>
 8003d2e:	6b22      	ldr	r2, [r4, #48]	@ 0x30
 8003d30:	f3c3 0108 	ubfx	r1, r3, #0, #9
 8003d34:	3a01      	subs	r2, #1
 8003d36:	4291      	cmp	r1, r2
 8003d38:	f47f adfe 	bne.w	8003938 <HAL_RCC_OscConfig+0xdc>
 8003d3c:	6b62      	ldr	r2, [r4, #52]	@ 0x34
 8003d3e:	f3c3 2146 	ubfx	r1, r3, #9, #7
 8003d42:	3a01      	subs	r2, #1
 8003d44:	4291      	cmp	r1, r2
 8003d46:	f47f adf7 	bne.w	8003938 <HAL_RCC_OscConfig+0xdc>
 8003d4a:	6ba2      	ldr	r2, [r4, #56]	@ 0x38
 8003d4c:	f3c3 4106 	ubfx	r1, r3, #16, #7
 8003d50:	3a01      	subs	r2, #1
 8003d52:	4291      	cmp	r1, r2
 8003d54:	f47f adf0 	bne.w	8003938 <HAL_RCC_OscConfig+0xdc>
 8003d58:	6be2      	ldr	r2, [r4, #60]	@ 0x3c
 8003d5a:	f3c3 6306 	ubfx	r3, r3, #24, #7
 8003d5e:	3a01      	subs	r2, #1
 8003d60:	4293      	cmp	r3, r2
 8003d62:	f47f ade9 	bne.w	8003938 <HAL_RCC_OscConfig+0xdc>
 8003d66:	6b6b      	ldr	r3, [r5, #52]	@ 0x34
 8003d68:	6ca2      	ldr	r2, [r4, #72]	@ 0x48
 8003d6a:	f3c3 03cc 	ubfx	r3, r3, #3, #13
 8003d6e:	429a      	cmp	r2, r3
 8003d70:	f43f adcd 	beq.w	800390e <HAL_RCC_OscConfig+0xb2>
 8003d74:	4d0c      	ldr	r5, [pc, #48]	@ (8003da8 <HAL_RCC_OscConfig+0x54c>)
 8003d76:	6aeb      	ldr	r3, [r5, #44]	@ 0x2c
 8003d78:	f023 0301 	bic.w	r3, r3, #1
 8003d7c:	62eb      	str	r3, [r5, #44]	@ 0x2c
 8003d7e:	f7fe f981 	bl	8002084 <HAL_GetTick>
 8003d82:	4606      	mov	r6, r0
 8003d84:	f7fe f97e 	bl	8002084 <HAL_GetTick>
 8003d88:	42b0      	cmp	r0, r6
 8003d8a:	d0fb      	beq.n	8003d84 <HAL_RCC_OscConfig+0x528>
 8003d8c:	6b6b      	ldr	r3, [r5, #52]	@ 0x34
 8003d8e:	6ca2      	ldr	r2, [r4, #72]	@ 0x48
 8003d90:	f423 437f 	bic.w	r3, r3, #65280	@ 0xff00
 8003d94:	f023 03f8 	bic.w	r3, r3, #248	@ 0xf8
 8003d98:	ea43 03c2 	orr.w	r3, r3, r2, lsl #3
 8003d9c:	636b      	str	r3, [r5, #52]	@ 0x34
 8003d9e:	6aeb      	ldr	r3, [r5, #44]	@ 0x2c
 8003da0:	f043 0301 	orr.w	r3, r3, #1
 8003da4:	62eb      	str	r3, [r5, #44]	@ 0x2c
 8003da6:	e5b2      	b.n	800390e <HAL_RCC_OscConfig+0xb2>
 8003da8:	58024400 	.word	0x58024400

08003dac <HAL_RCC_GetSysClockFreq>:
 8003dac:	4b49      	ldr	r3, [pc, #292]	@ (8003ed4 <HAL_RCC_GetSysClockFreq+0x128>)
 8003dae:	691a      	ldr	r2, [r3, #16]
 8003db0:	f002 0238 	and.w	r2, r2, #56	@ 0x38
 8003db4:	2a10      	cmp	r2, #16
 8003db6:	b530      	push	{r4, r5, lr}
 8003db8:	f000 8088 	beq.w	8003ecc <HAL_RCC_GetSysClockFreq+0x120>
 8003dbc:	2a18      	cmp	r2, #24
 8003dbe:	d00c      	beq.n	8003dda <HAL_RCC_GetSysClockFreq+0x2e>
 8003dc0:	2a00      	cmp	r2, #0
 8003dc2:	f040 8085 	bne.w	8003ed0 <HAL_RCC_GetSysClockFreq+0x124>
 8003dc6:	681a      	ldr	r2, [r3, #0]
 8003dc8:	4843      	ldr	r0, [pc, #268]	@ (8003ed8 <HAL_RCC_GetSysClockFreq+0x12c>)
 8003dca:	f012 0f20 	tst.w	r2, #32
 8003dce:	d003      	beq.n	8003dd8 <HAL_RCC_GetSysClockFreq+0x2c>
 8003dd0:	681b      	ldr	r3, [r3, #0]
 8003dd2:	f3c3 03c1 	ubfx	r3, r3, #3, #2
 8003dd6:	40d8      	lsrs	r0, r3
 8003dd8:	bd30      	pop	{r4, r5, pc}
 8003dda:	6a99      	ldr	r1, [r3, #40]	@ 0x28
 8003ddc:	6a9d      	ldr	r5, [r3, #40]	@ 0x28
 8003dde:	6adc      	ldr	r4, [r3, #44]	@ 0x2c
 8003de0:	f415 7f7c 	tst.w	r5, #1008	@ 0x3f0
 8003de4:	f3c5 1005 	ubfx	r0, r5, #4, #6
 8003de8:	6b5a      	ldr	r2, [r3, #52]	@ 0x34
 8003dea:	d0f5      	beq.n	8003dd8 <HAL_RCC_GetSysClockFreq+0x2c>
 8003dec:	f3c2 02cc 	ubfx	r2, r2, #3, #13
 8003df0:	f004 0401 	and.w	r4, r4, #1
 8003df4:	f001 0103 	and.w	r1, r1, #3
 8003df8:	ee07 0a90 	vmov	s15, r0
 8003dfc:	4362      	muls	r2, r4
 8003dfe:	eeb7 6a00 	vmov.f32	s12, #112	@ 0x3f800000  1.0
 8003e02:	2901      	cmp	r1, #1
 8003e04:	eeb8 7ae7 	vcvt.f32.s32	s14, s15
 8003e08:	ee06 2a90 	vmov	s13, r2
 8003e0c:	eefa 6ae9 	vcvt.f32.s32	s13, s13, #13
 8003e10:	d04e      	beq.n	8003eb0 <HAL_RCC_GetSysClockFreq+0x104>
 8003e12:	2902      	cmp	r1, #2
 8003e14:	d03e      	beq.n	8003e94 <HAL_RCC_GetSysClockFreq+0xe8>
 8003e16:	2900      	cmp	r1, #0
 8003e18:	d14a      	bne.n	8003eb0 <HAL_RCC_GetSysClockFreq+0x104>
 8003e1a:	681a      	ldr	r2, [r3, #0]
 8003e1c:	0692      	lsls	r2, r2, #26
 8003e1e:	d527      	bpl.n	8003e70 <HAL_RCC_GetSysClockFreq+0xc4>
 8003e20:	6819      	ldr	r1, [r3, #0]
 8003e22:	4a2d      	ldr	r2, [pc, #180]	@ (8003ed8 <HAL_RCC_GetSysClockFreq+0x12c>)
 8003e24:	f3c1 01c1 	ubfx	r1, r1, #3, #2
 8003e28:	6b1b      	ldr	r3, [r3, #48]	@ 0x30
 8003e2a:	40ca      	lsrs	r2, r1
 8003e2c:	f3c3 0308 	ubfx	r3, r3, #0, #9
 8003e30:	ee07 2a90 	vmov	s15, r2
 8003e34:	eef8 5ae7 	vcvt.f32.s32	s11, s15
 8003e38:	eec5 7a87 	vdiv.f32	s15, s11, s14
 8003e3c:	ee07 3a10 	vmov	s14, r3
 8003e40:	eeb8 7ac7 	vcvt.f32.s32	s14, s14
 8003e44:	ee37 7a26 	vadd.f32	s14, s14, s13
 8003e48:	ee37 7a06 	vadd.f32	s14, s14, s12
 8003e4c:	ee67 7a87 	vmul.f32	s15, s15, s14
 8003e50:	4b20      	ldr	r3, [pc, #128]	@ (8003ed4 <HAL_RCC_GetSysClockFreq+0x128>)
 8003e52:	6b1b      	ldr	r3, [r3, #48]	@ 0x30
 8003e54:	f3c3 2346 	ubfx	r3, r3, #9, #7
 8003e58:	3301      	adds	r3, #1
 8003e5a:	ee07 3a10 	vmov	s14, r3
 8003e5e:	eef8 6ac7 	vcvt.f32.s32	s13, s14
 8003e62:	ee87 7aa6 	vdiv.f32	s14, s15, s13
 8003e66:	eefc 7ac7 	vcvt.u32.f32	s15, s14
 8003e6a:	ee17 0a90 	vmov	r0, s15
 8003e6e:	e7b3      	b.n	8003dd8 <HAL_RCC_GetSysClockFreq+0x2c>
 8003e70:	6b1b      	ldr	r3, [r3, #48]	@ 0x30
 8003e72:	f3c3 0308 	ubfx	r3, r3, #0, #9
 8003e76:	ee07 3a90 	vmov	s15, r3
 8003e7a:	eef8 7ae7 	vcvt.f32.s32	s15, s15
 8003e7e:	ee77 7aa6 	vadd.f32	s15, s15, s13
 8003e82:	ee77 7a86 	vadd.f32	s15, s15, s12
 8003e86:	ed9f 6a15 	vldr	s12, [pc, #84]	@ 8003edc <HAL_RCC_GetSysClockFreq+0x130>
 8003e8a:	eec6 6a07 	vdiv.f32	s13, s12, s14
 8003e8e:	ee67 7aa6 	vmul.f32	s15, s15, s13
 8003e92:	e7dd      	b.n	8003e50 <HAL_RCC_GetSysClockFreq+0xa4>
 8003e94:	6b1b      	ldr	r3, [r3, #48]	@ 0x30
 8003e96:	f3c3 0308 	ubfx	r3, r3, #0, #9
 8003e9a:	ee07 3a90 	vmov	s15, r3
 8003e9e:	eef8 7ae7 	vcvt.f32.s32	s15, s15
 8003ea2:	ee77 7aa6 	vadd.f32	s15, s15, s13
 8003ea6:	ee77 7a86 	vadd.f32	s15, s15, s12
 8003eaa:	ed9f 6a0d 	vldr	s12, [pc, #52]	@ 8003ee0 <HAL_RCC_GetSysClockFreq+0x134>
 8003eae:	e7ec      	b.n	8003e8a <HAL_RCC_GetSysClockFreq+0xde>
 8003eb0:	6b1b      	ldr	r3, [r3, #48]	@ 0x30
 8003eb2:	f3c3 0308 	ubfx	r3, r3, #0, #9
 8003eb6:	ee07 3a90 	vmov	s15, r3
 8003eba:	eef8 7ae7 	vcvt.f32.s32	s15, s15
 8003ebe:	ee77 7aa6 	vadd.f32	s15, s15, s13
 8003ec2:	ee77 7a86 	vadd.f32	s15, s15, s12
 8003ec6:	ed9f 6a07 	vldr	s12, [pc, #28]	@ 8003ee4 <HAL_RCC_GetSysClockFreq+0x138>
 8003eca:	e7de      	b.n	8003e8a <HAL_RCC_GetSysClockFreq+0xde>
 8003ecc:	4806      	ldr	r0, [pc, #24]	@ (8003ee8 <HAL_RCC_GetSysClockFreq+0x13c>)
 8003ece:	e783      	b.n	8003dd8 <HAL_RCC_GetSysClockFreq+0x2c>
 8003ed0:	4806      	ldr	r0, [pc, #24]	@ (8003eec <HAL_RCC_GetSysClockFreq+0x140>)
 8003ed2:	e781      	b.n	8003dd8 <HAL_RCC_GetSysClockFreq+0x2c>
 8003ed4:	58024400 	.word	0x58024400
 8003ed8:	03d09000 	.word	0x03d09000
 8003edc:	4c742400 	.word	0x4c742400
 8003ee0:	4bbebc20 	.word	0x4bbebc20
 8003ee4:	4a742400 	.word	0x4a742400
 8003ee8:	017d7840 	.word	0x017d7840
 8003eec:	003d0900 	.word	0x003d0900

08003ef0 <HAL_RCC_ClockConfig>:
 8003ef0:	e92d 41f0 	stmdb	sp!, {r4, r5, r6, r7, r8, lr}
 8003ef4:	460d      	mov	r5, r1
 8003ef6:	4604      	mov	r4, r0
 8003ef8:	b910      	cbnz	r0, 8003f00 <HAL_RCC_ClockConfig+0x10>
 8003efa:	2001      	movs	r0, #1
 8003efc:	e8bd 81f0 	ldmia.w	sp!, {r4, r5, r6, r7, r8, pc}
 8003f00:	4a88      	ldr	r2, [pc, #544]	@ (8004124 <HAL_RCC_ClockConfig+0x234>)
 8003f02:	6813      	ldr	r3, [r2, #0]
 8003f04:	f003 030f 	and.w	r3, r3, #15
 8003f08:	428b      	cmp	r3, r1
 8003f0a:	f0c0 8093 	bcc.w	8004034 <HAL_RCC_ClockConfig+0x144>
 8003f0e:	6823      	ldr	r3, [r4, #0]
 8003f10:	075f      	lsls	r7, r3, #29
 8003f12:	f100 809b 	bmi.w	800404c <HAL_RCC_ClockConfig+0x15c>
 8003f16:	071e      	lsls	r6, r3, #28
 8003f18:	d50b      	bpl.n	8003f32 <HAL_RCC_ClockConfig+0x42>
 8003f1a:	4983      	ldr	r1, [pc, #524]	@ (8004128 <HAL_RCC_ClockConfig+0x238>)
 8003f1c:	6960      	ldr	r0, [r4, #20]
 8003f1e:	69ca      	ldr	r2, [r1, #28]
 8003f20:	f002 0270 	and.w	r2, r2, #112	@ 0x70
 8003f24:	4290      	cmp	r0, r2
 8003f26:	d904      	bls.n	8003f32 <HAL_RCC_ClockConfig+0x42>
 8003f28:	69ca      	ldr	r2, [r1, #28]
 8003f2a:	f022 0270 	bic.w	r2, r2, #112	@ 0x70
 8003f2e:	4302      	orrs	r2, r0
 8003f30:	61ca      	str	r2, [r1, #28]
 8003f32:	06d8      	lsls	r0, r3, #27
 8003f34:	d50b      	bpl.n	8003f4e <HAL_RCC_ClockConfig+0x5e>
 8003f36:	497c      	ldr	r1, [pc, #496]	@ (8004128 <HAL_RCC_ClockConfig+0x238>)
 8003f38:	69a0      	ldr	r0, [r4, #24]
 8003f3a:	69ca      	ldr	r2, [r1, #28]
 8003f3c:	f402 62e0 	and.w	r2, r2, #1792	@ 0x700
 8003f40:	4290      	cmp	r0, r2
 8003f42:	d904      	bls.n	8003f4e <HAL_RCC_ClockConfig+0x5e>
 8003f44:	69ca      	ldr	r2, [r1, #28]
 8003f46:	f422 62e0 	bic.w	r2, r2, #1792	@ 0x700
 8003f4a:	4302      	orrs	r2, r0
 8003f4c:	61ca      	str	r2, [r1, #28]
 8003f4e:	0699      	lsls	r1, r3, #26
 8003f50:	d50b      	bpl.n	8003f6a <HAL_RCC_ClockConfig+0x7a>
 8003f52:	4975      	ldr	r1, [pc, #468]	@ (8004128 <HAL_RCC_ClockConfig+0x238>)
 8003f54:	69e0      	ldr	r0, [r4, #28]
 8003f56:	6a0a      	ldr	r2, [r1, #32]
 8003f58:	f002 0270 	and.w	r2, r2, #112	@ 0x70
 8003f5c:	4290      	cmp	r0, r2
 8003f5e:	d904      	bls.n	8003f6a <HAL_RCC_ClockConfig+0x7a>
 8003f60:	6a0a      	ldr	r2, [r1, #32]
 8003f62:	f022 0270 	bic.w	r2, r2, #112	@ 0x70
 8003f66:	4302      	orrs	r2, r0
 8003f68:	620a      	str	r2, [r1, #32]
 8003f6a:	079a      	lsls	r2, r3, #30
 8003f6c:	d50b      	bpl.n	8003f86 <HAL_RCC_ClockConfig+0x96>
 8003f6e:	496e      	ldr	r1, [pc, #440]	@ (8004128 <HAL_RCC_ClockConfig+0x238>)
 8003f70:	68e0      	ldr	r0, [r4, #12]
 8003f72:	698a      	ldr	r2, [r1, #24]
 8003f74:	f002 020f 	and.w	r2, r2, #15
 8003f78:	4290      	cmp	r0, r2
 8003f7a:	d904      	bls.n	8003f86 <HAL_RCC_ClockConfig+0x96>
 8003f7c:	698a      	ldr	r2, [r1, #24]
 8003f7e:	f022 020f 	bic.w	r2, r2, #15
 8003f82:	4302      	orrs	r2, r0
 8003f84:	618a      	str	r2, [r1, #24]
 8003f86:	07df      	lsls	r7, r3, #31
 8003f88:	d46e      	bmi.n	8004068 <HAL_RCC_ClockConfig+0x178>
 8003f8a:	6823      	ldr	r3, [r4, #0]
 8003f8c:	079e      	lsls	r6, r3, #30
 8003f8e:	f100 80a1 	bmi.w	80040d4 <HAL_RCC_ClockConfig+0x1e4>
 8003f92:	4964      	ldr	r1, [pc, #400]	@ (8004124 <HAL_RCC_ClockConfig+0x234>)
 8003f94:	680a      	ldr	r2, [r1, #0]
 8003f96:	f002 020f 	and.w	r2, r2, #15
 8003f9a:	42aa      	cmp	r2, r5
 8003f9c:	f200 80a8 	bhi.w	80040f0 <HAL_RCC_ClockConfig+0x200>
 8003fa0:	0758      	lsls	r0, r3, #29
 8003fa2:	f100 80b1 	bmi.w	8004108 <HAL_RCC_ClockConfig+0x218>
 8003fa6:	0719      	lsls	r1, r3, #28
 8003fa8:	d50b      	bpl.n	8003fc2 <HAL_RCC_ClockConfig+0xd2>
 8003faa:	495f      	ldr	r1, [pc, #380]	@ (8004128 <HAL_RCC_ClockConfig+0x238>)
 8003fac:	6960      	ldr	r0, [r4, #20]
 8003fae:	69ca      	ldr	r2, [r1, #28]
 8003fb0:	f002 0270 	and.w	r2, r2, #112	@ 0x70
 8003fb4:	4290      	cmp	r0, r2
 8003fb6:	d204      	bcs.n	8003fc2 <HAL_RCC_ClockConfig+0xd2>
 8003fb8:	69ca      	ldr	r2, [r1, #28]
 8003fba:	f022 0270 	bic.w	r2, r2, #112	@ 0x70
 8003fbe:	4302      	orrs	r2, r0
 8003fc0:	61ca      	str	r2, [r1, #28]
 8003fc2:	06da      	lsls	r2, r3, #27
 8003fc4:	d50b      	bpl.n	8003fde <HAL_RCC_ClockConfig+0xee>
 8003fc6:	4958      	ldr	r1, [pc, #352]	@ (8004128 <HAL_RCC_ClockConfig+0x238>)
 8003fc8:	69a0      	ldr	r0, [r4, #24]
 8003fca:	69ca      	ldr	r2, [r1, #28]
 8003fcc:	f402 62e0 	and.w	r2, r2, #1792	@ 0x700
 8003fd0:	4290      	cmp	r0, r2
 8003fd2:	d204      	bcs.n	8003fde <HAL_RCC_ClockConfig+0xee>
 8003fd4:	69ca      	ldr	r2, [r1, #28]
 8003fd6:	f422 62e0 	bic.w	r2, r2, #1792	@ 0x700
 8003fda:	4302      	orrs	r2, r0
 8003fdc:	61ca      	str	r2, [r1, #28]
 8003fde:	069b      	lsls	r3, r3, #26
 8003fe0:	d50b      	bpl.n	8003ffa <HAL_RCC_ClockConfig+0x10a>
 8003fe2:	4a51      	ldr	r2, [pc, #324]	@ (8004128 <HAL_RCC_ClockConfig+0x238>)
 8003fe4:	69e1      	ldr	r1, [r4, #28]
 8003fe6:	6a13      	ldr	r3, [r2, #32]
 8003fe8:	f003 0370 	and.w	r3, r3, #112	@ 0x70
 8003fec:	4299      	cmp	r1, r3
 8003fee:	d204      	bcs.n	8003ffa <HAL_RCC_ClockConfig+0x10a>
 8003ff0:	6a13      	ldr	r3, [r2, #32]
 8003ff2:	f023 0370 	bic.w	r3, r3, #112	@ 0x70
 8003ff6:	430b      	orrs	r3, r1
 8003ff8:	6213      	str	r3, [r2, #32]
 8003ffa:	f7ff fed7 	bl	8003dac <HAL_RCC_GetSysClockFreq>
 8003ffe:	494a      	ldr	r1, [pc, #296]	@ (8004128 <HAL_RCC_ClockConfig+0x238>)
 8004000:	4a4a      	ldr	r2, [pc, #296]	@ (800412c <HAL_RCC_ClockConfig+0x23c>)
 8004002:	698b      	ldr	r3, [r1, #24]
 8004004:	f3c3 2303 	ubfx	r3, r3, #8, #4
 8004008:	5cd3      	ldrb	r3, [r2, r3]
 800400a:	f003 031f 	and.w	r3, r3, #31
 800400e:	40d8      	lsrs	r0, r3
 8004010:	698b      	ldr	r3, [r1, #24]
 8004012:	f003 030f 	and.w	r3, r3, #15
 8004016:	5cd3      	ldrb	r3, [r2, r3]
 8004018:	4a45      	ldr	r2, [pc, #276]	@ (8004130 <HAL_RCC_ClockConfig+0x240>)
 800401a:	f003 031f 	and.w	r3, r3, #31
 800401e:	fa20 f303 	lsr.w	r3, r0, r3
 8004022:	6013      	str	r3, [r2, #0]
 8004024:	4b43      	ldr	r3, [pc, #268]	@ (8004134 <HAL_RCC_ClockConfig+0x244>)
 8004026:	6018      	str	r0, [r3, #0]
 8004028:	4b43      	ldr	r3, [pc, #268]	@ (8004138 <HAL_RCC_ClockConfig+0x248>)
 800402a:	e8bd 41f0 	ldmia.w	sp!, {r4, r5, r6, r7, r8, lr}
 800402e:	6818      	ldr	r0, [r3, #0]
 8004030:	f7fd bfc8 	b.w	8001fc4 <HAL_InitTick>
 8004034:	6813      	ldr	r3, [r2, #0]
 8004036:	f023 030f 	bic.w	r3, r3, #15
 800403a:	430b      	orrs	r3, r1
 800403c:	6013      	str	r3, [r2, #0]
 800403e:	6813      	ldr	r3, [r2, #0]
 8004040:	f003 030f 	and.w	r3, r3, #15
 8004044:	428b      	cmp	r3, r1
 8004046:	f47f af58 	bne.w	8003efa <HAL_RCC_ClockConfig+0xa>
 800404a:	e760      	b.n	8003f0e <HAL_RCC_ClockConfig+0x1e>
 800404c:	4936      	ldr	r1, [pc, #216]	@ (8004128 <HAL_RCC_ClockConfig+0x238>)
 800404e:	6920      	ldr	r0, [r4, #16]
 8004050:	698a      	ldr	r2, [r1, #24]
 8004052:	f002 0270 	and.w	r2, r2, #112	@ 0x70
 8004056:	4290      	cmp	r0, r2
 8004058:	f67f af5d 	bls.w	8003f16 <HAL_RCC_ClockConfig+0x26>
 800405c:	698a      	ldr	r2, [r1, #24]
 800405e:	f022 0270 	bic.w	r2, r2, #112	@ 0x70
 8004062:	4302      	orrs	r2, r0
 8004064:	618a      	str	r2, [r1, #24]
 8004066:	e756      	b.n	8003f16 <HAL_RCC_ClockConfig+0x26>
 8004068:	4b2f      	ldr	r3, [pc, #188]	@ (8004128 <HAL_RCC_ClockConfig+0x238>)
 800406a:	68a1      	ldr	r1, [r4, #8]
 800406c:	699a      	ldr	r2, [r3, #24]
 800406e:	f422 6270 	bic.w	r2, r2, #3840	@ 0xf00
 8004072:	430a      	orrs	r2, r1
 8004074:	619a      	str	r2, [r3, #24]
 8004076:	6861      	ldr	r1, [r4, #4]
 8004078:	681a      	ldr	r2, [r3, #0]
 800407a:	2902      	cmp	r1, #2
 800407c:	d11d      	bne.n	80040ba <HAL_RCC_ClockConfig+0x1ca>
 800407e:	f412 3f00 	tst.w	r2, #131072	@ 0x20000
 8004082:	f43f af3a 	beq.w	8003efa <HAL_RCC_ClockConfig+0xa>
 8004086:	691a      	ldr	r2, [r3, #16]
 8004088:	f241 3888 	movw	r8, #5000	@ 0x1388
 800408c:	4f26      	ldr	r7, [pc, #152]	@ (8004128 <HAL_RCC_ClockConfig+0x238>)
 800408e:	f022 0207 	bic.w	r2, r2, #7
 8004092:	430a      	orrs	r2, r1
 8004094:	611a      	str	r2, [r3, #16]
 8004096:	f7fd fff5 	bl	8002084 <HAL_GetTick>
 800409a:	4606      	mov	r6, r0
 800409c:	693b      	ldr	r3, [r7, #16]
 800409e:	6862      	ldr	r2, [r4, #4]
 80040a0:	f003 0338 	and.w	r3, r3, #56	@ 0x38
 80040a4:	ebb3 0fc2 	cmp.w	r3, r2, lsl #3
 80040a8:	f43f af6f 	beq.w	8003f8a <HAL_RCC_ClockConfig+0x9a>
 80040ac:	f7fd ffea 	bl	8002084 <HAL_GetTick>
 80040b0:	1b80      	subs	r0, r0, r6
 80040b2:	4540      	cmp	r0, r8
 80040b4:	d9f2      	bls.n	800409c <HAL_RCC_ClockConfig+0x1ac>
 80040b6:	2003      	movs	r0, #3
 80040b8:	e720      	b.n	8003efc <HAL_RCC_ClockConfig+0xc>
 80040ba:	2903      	cmp	r1, #3
 80040bc:	d102      	bne.n	80040c4 <HAL_RCC_ClockConfig+0x1d4>
 80040be:	f012 7f00 	tst.w	r2, #33554432	@ 0x2000000
 80040c2:	e7de      	b.n	8004082 <HAL_RCC_ClockConfig+0x192>
 80040c4:	2901      	cmp	r1, #1
 80040c6:	d102      	bne.n	80040ce <HAL_RCC_ClockConfig+0x1de>
 80040c8:	f412 7f80 	tst.w	r2, #256	@ 0x100
 80040cc:	e7d9      	b.n	8004082 <HAL_RCC_ClockConfig+0x192>
 80040ce:	f012 0f04 	tst.w	r2, #4
 80040d2:	e7d6      	b.n	8004082 <HAL_RCC_ClockConfig+0x192>
 80040d4:	4914      	ldr	r1, [pc, #80]	@ (8004128 <HAL_RCC_ClockConfig+0x238>)
 80040d6:	68e0      	ldr	r0, [r4, #12]
 80040d8:	698a      	ldr	r2, [r1, #24]
 80040da:	f002 020f 	and.w	r2, r2, #15
 80040de:	4290      	cmp	r0, r2
 80040e0:	f4bf af57 	bcs.w	8003f92 <HAL_RCC_ClockConfig+0xa2>
 80040e4:	698a      	ldr	r2, [r1, #24]
 80040e6:	f022 020f 	bic.w	r2, r2, #15
 80040ea:	4302      	orrs	r2, r0
 80040ec:	618a      	str	r2, [r1, #24]
 80040ee:	e750      	b.n	8003f92 <HAL_RCC_ClockConfig+0xa2>
 80040f0:	680a      	ldr	r2, [r1, #0]
 80040f2:	f022 020f 	bic.w	r2, r2, #15
 80040f6:	432a      	orrs	r2, r5
 80040f8:	600a      	str	r2, [r1, #0]
 80040fa:	680a      	ldr	r2, [r1, #0]
 80040fc:	f002 020f 	and.w	r2, r2, #15
 8004100:	42aa      	cmp	r2, r5
 8004102:	f47f aefa 	bne.w	8003efa <HAL_RCC_ClockConfig+0xa>
 8004106:	e74b      	b.n	8003fa0 <HAL_RCC_ClockConfig+0xb0>
 8004108:	4907      	ldr	r1, [pc, #28]	@ (8004128 <HAL_RCC_ClockConfig+0x238>)
 800410a:	6920      	ldr	r0, [r4, #16]
 800410c:	698a      	ldr	r2, [r1, #24]
 800410e:	f002 0270 	and.w	r2, r2, #112	@ 0x70
 8004112:	4290      	cmp	r0, r2
 8004114:	f4bf af47 	bcs.w	8003fa6 <HAL_RCC_ClockConfig+0xb6>
 8004118:	698a      	ldr	r2, [r1, #24]
 800411a:	f022 0270 	bic.w	r2, r2, #112	@ 0x70
 800411e:	4302      	orrs	r2, r0
 8004120:	618a      	str	r2, [r1, #24]
 8004122:	e740      	b.n	8003fa6 <HAL_RCC_ClockConfig+0xb6>
 8004124:	52002000 	.word	0x52002000
 8004128:	58024400 	.word	0x58024400
 800412c:	08008d0a 	.word	0x08008d0a
 8004130:	24000008 	.word	0x24000008
 8004134:	2400000c 	.word	0x2400000c
 8004138:	24000014 	.word	0x24000014

0800413c <HAL_RCC_GetHCLKFreq>:
 800413c:	b508      	push	{r3, lr}
 800413e:	f7ff fe35 	bl	8003dac <HAL_RCC_GetSysClockFreq>
 8004142:	4a0b      	ldr	r2, [pc, #44]	@ (8004170 <HAL_RCC_GetHCLKFreq+0x34>)
 8004144:	490b      	ldr	r1, [pc, #44]	@ (8004174 <HAL_RCC_GetHCLKFreq+0x38>)
 8004146:	6993      	ldr	r3, [r2, #24]
 8004148:	6992      	ldr	r2, [r2, #24]
 800414a:	f3c3 2303 	ubfx	r3, r3, #8, #4
 800414e:	f002 020f 	and.w	r2, r2, #15
 8004152:	5ccb      	ldrb	r3, [r1, r3]
 8004154:	f003 031f 	and.w	r3, r3, #31
 8004158:	fa20 f303 	lsr.w	r3, r0, r3
 800415c:	5c88      	ldrb	r0, [r1, r2]
 800415e:	4a06      	ldr	r2, [pc, #24]	@ (8004178 <HAL_RCC_GetHCLKFreq+0x3c>)
 8004160:	f000 001f 	and.w	r0, r0, #31
 8004164:	fa23 f000 	lsr.w	r0, r3, r0
 8004168:	6010      	str	r0, [r2, #0]
 800416a:	4a04      	ldr	r2, [pc, #16]	@ (800417c <HAL_RCC_GetHCLKFreq+0x40>)
 800416c:	6013      	str	r3, [r2, #0]
 800416e:	bd08      	pop	{r3, pc}
 8004170:	58024400 	.word	0x58024400
 8004174:	08008d0a 	.word	0x08008d0a
 8004178:	24000008 	.word	0x24000008
 800417c:	2400000c 	.word	0x2400000c

08004180 <HAL_RCC_GetPCLK1Freq>:
 8004180:	b508      	push	{r3, lr}
 8004182:	f7ff ffdb 	bl	800413c <HAL_RCC_GetHCLKFreq>
 8004186:	4b05      	ldr	r3, [pc, #20]	@ (800419c <HAL_RCC_GetPCLK1Freq+0x1c>)
 8004188:	4a05      	ldr	r2, [pc, #20]	@ (80041a0 <HAL_RCC_GetPCLK1Freq+0x20>)
 800418a:	69db      	ldr	r3, [r3, #28]
 800418c:	f3c3 1302 	ubfx	r3, r3, #4, #3
 8004190:	5cd3      	ldrb	r3, [r2, r3]
 8004192:	f003 031f 	and.w	r3, r3, #31
 8004196:	40d8      	lsrs	r0, r3
 8004198:	bd08      	pop	{r3, pc}
 800419a:	bf00      	nop
 800419c:	58024400 	.word	0x58024400
 80041a0:	08008d0a 	.word	0x08008d0a

080041a4 <RCCEx_PLL2_Config>:
 80041a4:	b5f8      	push	{r3, r4, r5, r6, r7, lr}
 80041a6:	4c3a      	ldr	r4, [pc, #232]	@ (8004290 <RCCEx_PLL2_Config+0xec>)
 80041a8:	4606      	mov	r6, r0
 80041aa:	460d      	mov	r5, r1
 80041ac:	6aa3      	ldr	r3, [r4, #40]	@ 0x28
 80041ae:	f003 0303 	and.w	r3, r3, #3
 80041b2:	2b03      	cmp	r3, #3
 80041b4:	d069      	beq.n	800428a <RCCEx_PLL2_Config+0xe6>
 80041b6:	6823      	ldr	r3, [r4, #0]
 80041b8:	f023 6380 	bic.w	r3, r3, #67108864	@ 0x4000000
 80041bc:	6023      	str	r3, [r4, #0]
 80041be:	f7fd ff61 	bl	8002084 <HAL_GetTick>
 80041c2:	4607      	mov	r7, r0
 80041c4:	6823      	ldr	r3, [r4, #0]
 80041c6:	011a      	lsls	r2, r3, #4
 80041c8:	d44b      	bmi.n	8004262 <RCCEx_PLL2_Config+0xbe>
 80041ca:	6aa3      	ldr	r3, [r4, #40]	@ 0x28
 80041cc:	6832      	ldr	r2, [r6, #0]
 80041ce:	f423 337c 	bic.w	r3, r3, #258048	@ 0x3f000
 80041d2:	ea43 3302 	orr.w	r3, r3, r2, lsl #12
 80041d6:	62a3      	str	r3, [r4, #40]	@ 0x28
 80041d8:	68b3      	ldr	r3, [r6, #8]
 80041da:	68f2      	ldr	r2, [r6, #12]
 80041dc:	3b01      	subs	r3, #1
 80041de:	3a01      	subs	r2, #1
 80041e0:	025b      	lsls	r3, r3, #9
 80041e2:	0412      	lsls	r2, r2, #16
 80041e4:	b29b      	uxth	r3, r3
 80041e6:	f402 02fe 	and.w	r2, r2, #8323072	@ 0x7f0000
 80041ea:	4313      	orrs	r3, r2
 80041ec:	6872      	ldr	r2, [r6, #4]
 80041ee:	3a01      	subs	r2, #1
 80041f0:	f3c2 0208 	ubfx	r2, r2, #0, #9
 80041f4:	4313      	orrs	r3, r2
 80041f6:	6932      	ldr	r2, [r6, #16]
 80041f8:	3a01      	subs	r2, #1
 80041fa:	0612      	lsls	r2, r2, #24
 80041fc:	f002 42fe 	and.w	r2, r2, #2130706432	@ 0x7f000000
 8004200:	4313      	orrs	r3, r2
 8004202:	63a3      	str	r3, [r4, #56]	@ 0x38
 8004204:	6ae3      	ldr	r3, [r4, #44]	@ 0x2c
 8004206:	6972      	ldr	r2, [r6, #20]
 8004208:	f023 03c0 	bic.w	r3, r3, #192	@ 0xc0
 800420c:	4313      	orrs	r3, r2
 800420e:	62e3      	str	r3, [r4, #44]	@ 0x2c
 8004210:	6ae3      	ldr	r3, [r4, #44]	@ 0x2c
 8004212:	69b2      	ldr	r2, [r6, #24]
 8004214:	f023 0320 	bic.w	r3, r3, #32
 8004218:	4313      	orrs	r3, r2
 800421a:	62e3      	str	r3, [r4, #44]	@ 0x2c
 800421c:	6ae3      	ldr	r3, [r4, #44]	@ 0x2c
 800421e:	f023 0310 	bic.w	r3, r3, #16
 8004222:	62e3      	str	r3, [r4, #44]	@ 0x2c
 8004224:	6be3      	ldr	r3, [r4, #60]	@ 0x3c
 8004226:	69f2      	ldr	r2, [r6, #28]
 8004228:	f423 437f 	bic.w	r3, r3, #65280	@ 0xff00
 800422c:	f023 03f8 	bic.w	r3, r3, #248	@ 0xf8
 8004230:	ea43 03c2 	orr.w	r3, r3, r2, lsl #3
 8004234:	63e3      	str	r3, [r4, #60]	@ 0x3c
 8004236:	6ae3      	ldr	r3, [r4, #44]	@ 0x2c
 8004238:	f043 0310 	orr.w	r3, r3, #16
 800423c:	62e3      	str	r3, [r4, #44]	@ 0x2c
 800423e:	6ae3      	ldr	r3, [r4, #44]	@ 0x2c
 8004240:	b9b5      	cbnz	r5, 8004270 <RCCEx_PLL2_Config+0xcc>
 8004242:	f443 2300 	orr.w	r3, r3, #524288	@ 0x80000
 8004246:	62e3      	str	r3, [r4, #44]	@ 0x2c
 8004248:	4c11      	ldr	r4, [pc, #68]	@ (8004290 <RCCEx_PLL2_Config+0xec>)
 800424a:	6823      	ldr	r3, [r4, #0]
 800424c:	f043 6380 	orr.w	r3, r3, #67108864	@ 0x4000000
 8004250:	6023      	str	r3, [r4, #0]
 8004252:	f7fd ff17 	bl	8002084 <HAL_GetTick>
 8004256:	4605      	mov	r5, r0
 8004258:	6823      	ldr	r3, [r4, #0]
 800425a:	011b      	lsls	r3, r3, #4
 800425c:	d50f      	bpl.n	800427e <RCCEx_PLL2_Config+0xda>
 800425e:	2000      	movs	r0, #0
 8004260:	e005      	b.n	800426e <RCCEx_PLL2_Config+0xca>
 8004262:	f7fd ff0f 	bl	8002084 <HAL_GetTick>
 8004266:	1bc0      	subs	r0, r0, r7
 8004268:	2802      	cmp	r0, #2
 800426a:	d9ab      	bls.n	80041c4 <RCCEx_PLL2_Config+0x20>
 800426c:	2003      	movs	r0, #3
 800426e:	bdf8      	pop	{r3, r4, r5, r6, r7, pc}
 8004270:	2d01      	cmp	r5, #1
 8004272:	bf0c      	ite	eq
 8004274:	f443 1380 	orreq.w	r3, r3, #1048576	@ 0x100000
 8004278:	f443 1300 	orrne.w	r3, r3, #2097152	@ 0x200000
 800427c:	e7e3      	b.n	8004246 <RCCEx_PLL2_Config+0xa2>
 800427e:	f7fd ff01 	bl	8002084 <HAL_GetTick>
 8004282:	1b40      	subs	r0, r0, r5
 8004284:	2802      	cmp	r0, #2
 8004286:	d9e7      	bls.n	8004258 <RCCEx_PLL2_Config+0xb4>
 8004288:	e7f0      	b.n	800426c <RCCEx_PLL2_Config+0xc8>
 800428a:	2001      	movs	r0, #1
 800428c:	e7ef      	b.n	800426e <RCCEx_PLL2_Config+0xca>
 800428e:	bf00      	nop
 8004290:	58024400 	.word	0x58024400

08004294 <RCCEx_PLL3_Config>:
 8004294:	b5f8      	push	{r3, r4, r5, r6, r7, lr}
 8004296:	4c3a      	ldr	r4, [pc, #232]	@ (8004380 <RCCEx_PLL3_Config+0xec>)
 8004298:	4606      	mov	r6, r0
 800429a:	460d      	mov	r5, r1
 800429c:	6aa3      	ldr	r3, [r4, #40]	@ 0x28
 800429e:	f003 0303 	and.w	r3, r3, #3
 80042a2:	2b03      	cmp	r3, #3
 80042a4:	d069      	beq.n	800437a <RCCEx_PLL3_Config+0xe6>
 80042a6:	6823      	ldr	r3, [r4, #0]
 80042a8:	f023 5380 	bic.w	r3, r3, #268435456	@ 0x10000000
 80042ac:	6023      	str	r3, [r4, #0]
 80042ae:	f7fd fee9 	bl	8002084 <HAL_GetTick>
 80042b2:	4607      	mov	r7, r0
 80042b4:	6823      	ldr	r3, [r4, #0]
 80042b6:	009a      	lsls	r2, r3, #2
 80042b8:	d44b      	bmi.n	8004352 <RCCEx_PLL3_Config+0xbe>
 80042ba:	6aa3      	ldr	r3, [r4, #40]	@ 0x28
 80042bc:	6832      	ldr	r2, [r6, #0]
 80042be:	f023 737c 	bic.w	r3, r3, #66060288	@ 0x3f00000
 80042c2:	ea43 5302 	orr.w	r3, r3, r2, lsl #20
 80042c6:	62a3      	str	r3, [r4, #40]	@ 0x28
 80042c8:	68b3      	ldr	r3, [r6, #8]
 80042ca:	68f2      	ldr	r2, [r6, #12]
 80042cc:	3b01      	subs	r3, #1
 80042ce:	3a01      	subs	r2, #1
 80042d0:	025b      	lsls	r3, r3, #9
 80042d2:	0412      	lsls	r2, r2, #16
 80042d4:	b29b      	uxth	r3, r3
 80042d6:	f402 02fe 	and.w	r2, r2, #8323072	@ 0x7f0000
 80042da:	4313      	orrs	r3, r2
 80042dc:	6872      	ldr	r2, [r6, #4]
 80042de:	3a01      	subs	r2, #1
 80042e0:	f3c2 0208 	ubfx	r2, r2, #0, #9
 80042e4:	4313      	orrs	r3, r2
 80042e6:	6932      	ldr	r2, [r6, #16]
 80042e8:	3a01      	subs	r2, #1
 80042ea:	0612      	lsls	r2, r2, #24
 80042ec:	f002 42fe 	and.w	r2, r2, #2130706432	@ 0x7f000000
 80042f0:	4313      	orrs	r3, r2
 80042f2:	6423      	str	r3, [r4, #64]	@ 0x40
 80042f4:	6ae3      	ldr	r3, [r4, #44]	@ 0x2c
 80042f6:	6972      	ldr	r2, [r6, #20]
 80042f8:	f423 6340 	bic.w	r3, r3, #3072	@ 0xc00
 80042fc:	4313      	orrs	r3, r2
 80042fe:	62e3      	str	r3, [r4, #44]	@ 0x2c
 8004300:	6ae3      	ldr	r3, [r4, #44]	@ 0x2c
 8004302:	69b2      	ldr	r2, [r6, #24]
 8004304:	f423 7300 	bic.w	r3, r3, #512	@ 0x200
 8004308:	4313      	orrs	r3, r2
 800430a:	62e3      	str	r3, [r4, #44]	@ 0x2c
 800430c:	6ae3      	ldr	r3, [r4, #44]	@ 0x2c
 800430e:	f423 7380 	bic.w	r3, r3, #256	@ 0x100
 8004312:	62e3      	str	r3, [r4, #44]	@ 0x2c
 8004314:	6c63      	ldr	r3, [r4, #68]	@ 0x44
 8004316:	69f2      	ldr	r2, [r6, #28]
 8004318:	f423 437f 	bic.w	r3, r3, #65280	@ 0xff00
 800431c:	f023 03f8 	bic.w	r3, r3, #248	@ 0xf8
 8004320:	ea43 03c2 	orr.w	r3, r3, r2, lsl #3
 8004324:	6463      	str	r3, [r4, #68]	@ 0x44
 8004326:	6ae3      	ldr	r3, [r4, #44]	@ 0x2c
 8004328:	f443 7380 	orr.w	r3, r3, #256	@ 0x100
 800432c:	62e3      	str	r3, [r4, #44]	@ 0x2c
 800432e:	6ae3      	ldr	r3, [r4, #44]	@ 0x2c
 8004330:	b9b5      	cbnz	r5, 8004360 <RCCEx_PLL3_Config+0xcc>
 8004332:	f443 0380 	orr.w	r3, r3, #4194304	@ 0x400000
 8004336:	62e3      	str	r3, [r4, #44]	@ 0x2c
 8004338:	4c11      	ldr	r4, [pc, #68]	@ (8004380 <RCCEx_PLL3_Config+0xec>)
 800433a:	6823      	ldr	r3, [r4, #0]
 800433c:	f043 5380 	orr.w	r3, r3, #268435456	@ 0x10000000
 8004340:	6023      	str	r3, [r4, #0]
 8004342:	f7fd fe9f 	bl	8002084 <HAL_GetTick>
 8004346:	4605      	mov	r5, r0
 8004348:	6823      	ldr	r3, [r4, #0]
 800434a:	009b      	lsls	r3, r3, #2
 800434c:	d50f      	bpl.n	800436e <RCCEx_PLL3_Config+0xda>
 800434e:	2000      	movs	r0, #0
 8004350:	e005      	b.n	800435e <RCCEx_PLL3_Config+0xca>
 8004352:	f7fd fe97 	bl	8002084 <HAL_GetTick>
 8004356:	1bc0      	subs	r0, r0, r7
 8004358:	2802      	cmp	r0, #2
 800435a:	d9ab      	bls.n	80042b4 <RCCEx_PLL3_Config+0x20>
 800435c:	2003      	movs	r0, #3
 800435e:	bdf8      	pop	{r3, r4, r5, r6, r7, pc}
 8004360:	2d01      	cmp	r5, #1
 8004362:	bf0c      	ite	eq
 8004364:	f443 0300 	orreq.w	r3, r3, #8388608	@ 0x800000
 8004368:	f043 7380 	orrne.w	r3, r3, #16777216	@ 0x1000000
 800436c:	e7e3      	b.n	8004336 <RCCEx_PLL3_Config+0xa2>
 800436e:	f7fd fe89 	bl	8002084 <HAL_GetTick>
 8004372:	1b40      	subs	r0, r0, r5
 8004374:	2802      	cmp	r0, #2
 8004376:	d9e7      	bls.n	8004348 <RCCEx_PLL3_Config+0xb4>
 8004378:	e7f0      	b.n	800435c <RCCEx_PLL3_Config+0xc8>
 800437a:	2001      	movs	r0, #1
 800437c:	e7ef      	b.n	800435e <RCCEx_PLL3_Config+0xca>
 800437e:	bf00      	nop
 8004380:	58024400 	.word	0x58024400

08004384 <HAL_RCCEx_PeriphCLKConfig>:
 8004384:	e92d 43f8 	stmdb	sp!, {r3, r4, r5, r6, r7, r8, r9, lr}
 8004388:	6803      	ldr	r3, [r0, #0]
 800438a:	4605      	mov	r5, r0
 800438c:	0119      	lsls	r1, r3, #4
 800438e:	d51e      	bpl.n	80043ce <HAL_RCCEx_PeriphCLKConfig+0x4a>
 8004390:	6ec3      	ldr	r3, [r0, #108]	@ 0x6c
 8004392:	f5b3 1f00 	cmp.w	r3, #2097152	@ 0x200000
 8004396:	d02a      	beq.n	80043ee <HAL_RCCEx_PeriphCLKConfig+0x6a>
 8004398:	d80f      	bhi.n	80043ba <HAL_RCCEx_PeriphCLKConfig+0x36>
 800439a:	b1d3      	cbz	r3, 80043d2 <HAL_RCCEx_PeriphCLKConfig+0x4e>
 800439c:	f5b3 1f80 	cmp.w	r3, #1048576	@ 0x100000
 80043a0:	d01d      	beq.n	80043de <HAL_RCCEx_PeriphCLKConfig+0x5a>
 80043a2:	2601      	movs	r6, #1
 80043a4:	682b      	ldr	r3, [r5, #0]
 80043a6:	05da      	lsls	r2, r3, #23
 80043a8:	d54f      	bpl.n	800444a <HAL_RCCEx_PeriphCLKConfig+0xc6>
 80043aa:	6dab      	ldr	r3, [r5, #88]	@ 0x58
 80043ac:	2b04      	cmp	r3, #4
 80043ae:	d84b      	bhi.n	8004448 <HAL_RCCEx_PeriphCLKConfig+0xc4>
 80043b0:	e8df f003 	tbb	[pc, r3]
 80043b4:	27443d22 	.word	0x27443d22
 80043b8:	27          	.byte	0x27
 80043b9:	00          	.byte	0x00
 80043ba:	f5b3 1f40 	cmp.w	r3, #3145728	@ 0x300000
 80043be:	d1f0      	bne.n	80043a2 <HAL_RCCEx_PeriphCLKConfig+0x1e>
 80043c0:	4a98      	ldr	r2, [pc, #608]	@ (8004624 <HAL_RCCEx_PeriphCLKConfig+0x2a0>)
 80043c2:	6ee9      	ldr	r1, [r5, #108]	@ 0x6c
 80043c4:	6d13      	ldr	r3, [r2, #80]	@ 0x50
 80043c6:	f423 1340 	bic.w	r3, r3, #3145728	@ 0x300000
 80043ca:	430b      	orrs	r3, r1
 80043cc:	6513      	str	r3, [r2, #80]	@ 0x50
 80043ce:	2600      	movs	r6, #0
 80043d0:	e7e8      	b.n	80043a4 <HAL_RCCEx_PeriphCLKConfig+0x20>
 80043d2:	4a94      	ldr	r2, [pc, #592]	@ (8004624 <HAL_RCCEx_PeriphCLKConfig+0x2a0>)
 80043d4:	6ad3      	ldr	r3, [r2, #44]	@ 0x2c
 80043d6:	f443 3300 	orr.w	r3, r3, #131072	@ 0x20000
 80043da:	62d3      	str	r3, [r2, #44]	@ 0x2c
 80043dc:	e7f0      	b.n	80043c0 <HAL_RCCEx_PeriphCLKConfig+0x3c>
 80043de:	2102      	movs	r1, #2
 80043e0:	3008      	adds	r0, #8
 80043e2:	f7ff fedf 	bl	80041a4 <RCCEx_PLL2_Config>
 80043e6:	4606      	mov	r6, r0
 80043e8:	2800      	cmp	r0, #0
 80043ea:	d1db      	bne.n	80043a4 <HAL_RCCEx_PeriphCLKConfig+0x20>
 80043ec:	e7e8      	b.n	80043c0 <HAL_RCCEx_PeriphCLKConfig+0x3c>
 80043ee:	2102      	movs	r1, #2
 80043f0:	3028      	adds	r0, #40	@ 0x28
 80043f2:	f7ff ff4f 	bl	8004294 <RCCEx_PLL3_Config>
 80043f6:	e7f6      	b.n	80043e6 <HAL_RCCEx_PeriphCLKConfig+0x62>
 80043f8:	4a8a      	ldr	r2, [pc, #552]	@ (8004624 <HAL_RCCEx_PeriphCLKConfig+0x2a0>)
 80043fa:	6ad3      	ldr	r3, [r2, #44]	@ 0x2c
 80043fc:	f443 3300 	orr.w	r3, r3, #131072	@ 0x20000
 8004400:	62d3      	str	r3, [r2, #44]	@ 0x2c
 8004402:	4634      	mov	r4, r6
 8004404:	bb1c      	cbnz	r4, 800444e <HAL_RCCEx_PeriphCLKConfig+0xca>
 8004406:	4a87      	ldr	r2, [pc, #540]	@ (8004624 <HAL_RCCEx_PeriphCLKConfig+0x2a0>)
 8004408:	6da9      	ldr	r1, [r5, #88]	@ 0x58
 800440a:	6d13      	ldr	r3, [r2, #80]	@ 0x50
 800440c:	f023 0307 	bic.w	r3, r3, #7
 8004410:	430b      	orrs	r3, r1
 8004412:	6513      	str	r3, [r2, #80]	@ 0x50
 8004414:	682b      	ldr	r3, [r5, #0]
 8004416:	059b      	lsls	r3, r3, #22
 8004418:	d52a      	bpl.n	8004470 <HAL_RCCEx_PeriphCLKConfig+0xec>
 800441a:	6deb      	ldr	r3, [r5, #92]	@ 0x5c
 800441c:	2b80      	cmp	r3, #128	@ 0x80
 800441e:	d044      	beq.n	80044aa <HAL_RCCEx_PeriphCLKConfig+0x126>
 8004420:	d817      	bhi.n	8004452 <HAL_RCCEx_PeriphCLKConfig+0xce>
 8004422:	b3ab      	cbz	r3, 8004490 <HAL_RCCEx_PeriphCLKConfig+0x10c>
 8004424:	2b40      	cmp	r3, #64	@ 0x40
 8004426:	d039      	beq.n	800449c <HAL_RCCEx_PeriphCLKConfig+0x118>
 8004428:	2601      	movs	r6, #1
 800442a:	4634      	mov	r4, r6
 800442c:	e020      	b.n	8004470 <HAL_RCCEx_PeriphCLKConfig+0xec>
 800442e:	2100      	movs	r1, #0
 8004430:	f105 0008 	add.w	r0, r5, #8
 8004434:	f7ff feb6 	bl	80041a4 <RCCEx_PLL2_Config>
 8004438:	4604      	mov	r4, r0
 800443a:	e7e3      	b.n	8004404 <HAL_RCCEx_PeriphCLKConfig+0x80>
 800443c:	2100      	movs	r1, #0
 800443e:	f105 0028 	add.w	r0, r5, #40	@ 0x28
 8004442:	f7ff ff27 	bl	8004294 <RCCEx_PLL3_Config>
 8004446:	e7f7      	b.n	8004438 <HAL_RCCEx_PeriphCLKConfig+0xb4>
 8004448:	2601      	movs	r6, #1
 800444a:	4634      	mov	r4, r6
 800444c:	e7e2      	b.n	8004414 <HAL_RCCEx_PeriphCLKConfig+0x90>
 800444e:	4626      	mov	r6, r4
 8004450:	e7e0      	b.n	8004414 <HAL_RCCEx_PeriphCLKConfig+0x90>
 8004452:	f023 0240 	bic.w	r2, r3, #64	@ 0x40
 8004456:	f5b2 7f80 	cmp.w	r2, #256	@ 0x100
 800445a:	d001      	beq.n	8004460 <HAL_RCCEx_PeriphCLKConfig+0xdc>
 800445c:	2bc0      	cmp	r3, #192	@ 0xc0
 800445e:	d1e3      	bne.n	8004428 <HAL_RCCEx_PeriphCLKConfig+0xa4>
 8004460:	bb4c      	cbnz	r4, 80044b6 <HAL_RCCEx_PeriphCLKConfig+0x132>
 8004462:	4a70      	ldr	r2, [pc, #448]	@ (8004624 <HAL_RCCEx_PeriphCLKConfig+0x2a0>)
 8004464:	6de9      	ldr	r1, [r5, #92]	@ 0x5c
 8004466:	6d13      	ldr	r3, [r2, #80]	@ 0x50
 8004468:	f423 73e0 	bic.w	r3, r3, #448	@ 0x1c0
 800446c:	430b      	orrs	r3, r1
 800446e:	6513      	str	r3, [r2, #80]	@ 0x50
 8004470:	682b      	ldr	r3, [r5, #0]
 8004472:	055f      	lsls	r7, r3, #21
 8004474:	d531      	bpl.n	80044da <HAL_RCCEx_PeriphCLKConfig+0x156>
 8004476:	6e2b      	ldr	r3, [r5, #96]	@ 0x60
 8004478:	f5b3 6f80 	cmp.w	r3, #1024	@ 0x400
 800447c:	d047      	beq.n	800450e <HAL_RCCEx_PeriphCLKConfig+0x18a>
 800447e:	d81c      	bhi.n	80044ba <HAL_RCCEx_PeriphCLKConfig+0x136>
 8004480:	2b00      	cmp	r3, #0
 8004482:	d037      	beq.n	80044f4 <HAL_RCCEx_PeriphCLKConfig+0x170>
 8004484:	f5b3 7f00 	cmp.w	r3, #512	@ 0x200
 8004488:	d03a      	beq.n	8004500 <HAL_RCCEx_PeriphCLKConfig+0x17c>
 800448a:	2601      	movs	r6, #1
 800448c:	4634      	mov	r4, r6
 800448e:	e024      	b.n	80044da <HAL_RCCEx_PeriphCLKConfig+0x156>
 8004490:	4a64      	ldr	r2, [pc, #400]	@ (8004624 <HAL_RCCEx_PeriphCLKConfig+0x2a0>)
 8004492:	6ad3      	ldr	r3, [r2, #44]	@ 0x2c
 8004494:	f443 3300 	orr.w	r3, r3, #131072	@ 0x20000
 8004498:	62d3      	str	r3, [r2, #44]	@ 0x2c
 800449a:	e7e1      	b.n	8004460 <HAL_RCCEx_PeriphCLKConfig+0xdc>
 800449c:	2100      	movs	r1, #0
 800449e:	f105 0008 	add.w	r0, r5, #8
 80044a2:	f7ff fe7f 	bl	80041a4 <RCCEx_PLL2_Config>
 80044a6:	4604      	mov	r4, r0
 80044a8:	e7da      	b.n	8004460 <HAL_RCCEx_PeriphCLKConfig+0xdc>
 80044aa:	2100      	movs	r1, #0
 80044ac:	f105 0028 	add.w	r0, r5, #40	@ 0x28
 80044b0:	f7ff fef0 	bl	8004294 <RCCEx_PLL3_Config>
 80044b4:	e7f7      	b.n	80044a6 <HAL_RCCEx_PeriphCLKConfig+0x122>
 80044b6:	4626      	mov	r6, r4
 80044b8:	e7da      	b.n	8004470 <HAL_RCCEx_PeriphCLKConfig+0xec>
 80044ba:	f423 7200 	bic.w	r2, r3, #512	@ 0x200
 80044be:	f5b2 6f00 	cmp.w	r2, #2048	@ 0x800
 80044c2:	d002      	beq.n	80044ca <HAL_RCCEx_PeriphCLKConfig+0x146>
 80044c4:	f5b3 6fc0 	cmp.w	r3, #1536	@ 0x600
 80044c8:	d1df      	bne.n	800448a <HAL_RCCEx_PeriphCLKConfig+0x106>
 80044ca:	bb34      	cbnz	r4, 800451a <HAL_RCCEx_PeriphCLKConfig+0x196>
 80044cc:	4a55      	ldr	r2, [pc, #340]	@ (8004624 <HAL_RCCEx_PeriphCLKConfig+0x2a0>)
 80044ce:	6e29      	ldr	r1, [r5, #96]	@ 0x60
 80044d0:	6d13      	ldr	r3, [r2, #80]	@ 0x50
 80044d2:	f423 6360 	bic.w	r3, r3, #3584	@ 0xe00
 80044d6:	430b      	orrs	r3, r1
 80044d8:	6513      	str	r3, [r2, #80]	@ 0x50
 80044da:	682b      	ldr	r3, [r5, #0]
 80044dc:	0198      	lsls	r0, r3, #6
 80044de:	d528      	bpl.n	8004532 <HAL_RCCEx_PeriphCLKConfig+0x1ae>
 80044e0:	6ceb      	ldr	r3, [r5, #76]	@ 0x4c
 80044e2:	2b20      	cmp	r3, #32
 80044e4:	d03b      	beq.n	800455e <HAL_RCCEx_PeriphCLKConfig+0x1da>
 80044e6:	d81a      	bhi.n	800451e <HAL_RCCEx_PeriphCLKConfig+0x19a>
 80044e8:	b1db      	cbz	r3, 8004522 <HAL_RCCEx_PeriphCLKConfig+0x19e>
 80044ea:	2b10      	cmp	r3, #16
 80044ec:	d031      	beq.n	8004552 <HAL_RCCEx_PeriphCLKConfig+0x1ce>
 80044ee:	2601      	movs	r6, #1
 80044f0:	4634      	mov	r4, r6
 80044f2:	e01e      	b.n	8004532 <HAL_RCCEx_PeriphCLKConfig+0x1ae>
 80044f4:	4a4b      	ldr	r2, [pc, #300]	@ (8004624 <HAL_RCCEx_PeriphCLKConfig+0x2a0>)
 80044f6:	6ad3      	ldr	r3, [r2, #44]	@ 0x2c
 80044f8:	f443 3300 	orr.w	r3, r3, #131072	@ 0x20000
 80044fc:	62d3      	str	r3, [r2, #44]	@ 0x2c
 80044fe:	e7e4      	b.n	80044ca <HAL_RCCEx_PeriphCLKConfig+0x146>
 8004500:	2100      	movs	r1, #0
 8004502:	f105 0008 	add.w	r0, r5, #8
 8004506:	f7ff fe4d 	bl	80041a4 <RCCEx_PLL2_Config>
 800450a:	4604      	mov	r4, r0
 800450c:	e7dd      	b.n	80044ca <HAL_RCCEx_PeriphCLKConfig+0x146>
 800450e:	2100      	movs	r1, #0
 8004510:	f105 0028 	add.w	r0, r5, #40	@ 0x28
 8004514:	f7ff febe 	bl	8004294 <RCCEx_PLL3_Config>
 8004518:	e7f7      	b.n	800450a <HAL_RCCEx_PeriphCLKConfig+0x186>
 800451a:	4626      	mov	r6, r4
 800451c:	e7dd      	b.n	80044da <HAL_RCCEx_PeriphCLKConfig+0x156>
 800451e:	2b30      	cmp	r3, #48	@ 0x30
 8004520:	d1e5      	bne.n	80044ee <HAL_RCCEx_PeriphCLKConfig+0x16a>
 8004522:	bb1c      	cbnz	r4, 800456c <HAL_RCCEx_PeriphCLKConfig+0x1e8>
 8004524:	4a3f      	ldr	r2, [pc, #252]	@ (8004624 <HAL_RCCEx_PeriphCLKConfig+0x2a0>)
 8004526:	6ce9      	ldr	r1, [r5, #76]	@ 0x4c
 8004528:	6cd3      	ldr	r3, [r2, #76]	@ 0x4c
 800452a:	f023 0330 	bic.w	r3, r3, #48	@ 0x30
 800452e:	430b      	orrs	r3, r1
 8004530:	64d3      	str	r3, [r2, #76]	@ 0x4c
 8004532:	682b      	ldr	r3, [r5, #0]
 8004534:	04d9      	lsls	r1, r3, #19
 8004536:	d52a      	bpl.n	800458e <HAL_RCCEx_PeriphCLKConfig+0x20a>
 8004538:	6e6b      	ldr	r3, [r5, #100]	@ 0x64
 800453a:	f5b3 5f00 	cmp.w	r3, #8192	@ 0x2000
 800453e:	d07a      	beq.n	8004636 <HAL_RCCEx_PeriphCLKConfig+0x2b2>
 8004540:	d816      	bhi.n	8004570 <HAL_RCCEx_PeriphCLKConfig+0x1ec>
 8004542:	2b00      	cmp	r3, #0
 8004544:	d068      	beq.n	8004618 <HAL_RCCEx_PeriphCLKConfig+0x294>
 8004546:	f5b3 5f80 	cmp.w	r3, #4096	@ 0x1000
 800454a:	d06d      	beq.n	8004628 <HAL_RCCEx_PeriphCLKConfig+0x2a4>
 800454c:	2601      	movs	r6, #1
 800454e:	4634      	mov	r4, r6
 8004550:	e01d      	b.n	800458e <HAL_RCCEx_PeriphCLKConfig+0x20a>
 8004552:	4a34      	ldr	r2, [pc, #208]	@ (8004624 <HAL_RCCEx_PeriphCLKConfig+0x2a0>)
 8004554:	6ad3      	ldr	r3, [r2, #44]	@ 0x2c
 8004556:	f443 3300 	orr.w	r3, r3, #131072	@ 0x20000
 800455a:	62d3      	str	r3, [r2, #44]	@ 0x2c
 800455c:	e7e1      	b.n	8004522 <HAL_RCCEx_PeriphCLKConfig+0x19e>
 800455e:	2102      	movs	r1, #2
 8004560:	f105 0008 	add.w	r0, r5, #8
 8004564:	f7ff fe1e 	bl	80041a4 <RCCEx_PLL2_Config>
 8004568:	4604      	mov	r4, r0
 800456a:	e7da      	b.n	8004522 <HAL_RCCEx_PeriphCLKConfig+0x19e>
 800456c:	4626      	mov	r6, r4
 800456e:	e7e0      	b.n	8004532 <HAL_RCCEx_PeriphCLKConfig+0x1ae>
 8004570:	f5b3 5f40 	cmp.w	r3, #12288	@ 0x3000
 8004574:	d002      	beq.n	800457c <HAL_RCCEx_PeriphCLKConfig+0x1f8>
 8004576:	f5b3 4f80 	cmp.w	r3, #16384	@ 0x4000
 800457a:	d1e7      	bne.n	800454c <HAL_RCCEx_PeriphCLKConfig+0x1c8>
 800457c:	2c00      	cmp	r4, #0
 800457e:	d160      	bne.n	8004642 <HAL_RCCEx_PeriphCLKConfig+0x2be>
 8004580:	4a28      	ldr	r2, [pc, #160]	@ (8004624 <HAL_RCCEx_PeriphCLKConfig+0x2a0>)
 8004582:	6e69      	ldr	r1, [r5, #100]	@ 0x64
 8004584:	6d13      	ldr	r3, [r2, #80]	@ 0x50
 8004586:	f423 43e0 	bic.w	r3, r3, #28672	@ 0x7000
 800458a:	430b      	orrs	r3, r1
 800458c:	6513      	str	r3, [r2, #80]	@ 0x50
 800458e:	682b      	ldr	r3, [r5, #0]
 8004590:	049a      	lsls	r2, r3, #18
 8004592:	d50b      	bpl.n	80045ac <HAL_RCCEx_PeriphCLKConfig+0x228>
 8004594:	6eab      	ldr	r3, [r5, #104]	@ 0x68
 8004596:	f5b3 3f00 	cmp.w	r3, #131072	@ 0x20000
 800459a:	d06c      	beq.n	8004676 <HAL_RCCEx_PeriphCLKConfig+0x2f2>
 800459c:	d853      	bhi.n	8004646 <HAL_RCCEx_PeriphCLKConfig+0x2c2>
 800459e:	2b00      	cmp	r3, #0
 80045a0:	d059      	beq.n	8004656 <HAL_RCCEx_PeriphCLKConfig+0x2d2>
 80045a2:	f5b3 3f80 	cmp.w	r3, #65536	@ 0x10000
 80045a6:	d05f      	beq.n	8004668 <HAL_RCCEx_PeriphCLKConfig+0x2e4>
 80045a8:	2601      	movs	r6, #1
 80045aa:	4634      	mov	r4, r6
 80045ac:	682b      	ldr	r3, [r5, #0]
 80045ae:	045b      	lsls	r3, r3, #17
 80045b0:	d50d      	bpl.n	80045ce <HAL_RCCEx_PeriphCLKConfig+0x24a>
 80045b2:	f8d5 30b0 	ldr.w	r3, [r5, #176]	@ 0xb0
 80045b6:	f1b3 5f00 	cmp.w	r3, #536870912	@ 0x20000000
 80045ba:	f000 8082 	beq.w	80046c2 <HAL_RCCEx_PeriphCLKConfig+0x33e>
 80045be:	d862      	bhi.n	8004686 <HAL_RCCEx_PeriphCLKConfig+0x302>
 80045c0:	2b00      	cmp	r3, #0
 80045c2:	d06a      	beq.n	800469a <HAL_RCCEx_PeriphCLKConfig+0x316>
 80045c4:	f1b3 5f80 	cmp.w	r3, #268435456	@ 0x10000000
 80045c8:	d074      	beq.n	80046b4 <HAL_RCCEx_PeriphCLKConfig+0x330>
 80045ca:	2601      	movs	r6, #1
 80045cc:	4634      	mov	r4, r6
 80045ce:	682b      	ldr	r3, [r5, #0]
 80045d0:	041f      	lsls	r7, r3, #16
 80045d2:	d513      	bpl.n	80045fc <HAL_RCCEx_PeriphCLKConfig+0x278>
 80045d4:	6fab      	ldr	r3, [r5, #120]	@ 0x78
 80045d6:	f1b3 5f80 	cmp.w	r3, #268435456	@ 0x10000000
 80045da:	d07a      	beq.n	80046d2 <HAL_RCCEx_PeriphCLKConfig+0x34e>
 80045dc:	f1b3 5f00 	cmp.w	r3, #536870912	@ 0x20000000
 80045e0:	d07d      	beq.n	80046de <HAL_RCCEx_PeriphCLKConfig+0x35a>
 80045e2:	2b00      	cmp	r3, #0
 80045e4:	f040 8082 	bne.w	80046ec <HAL_RCCEx_PeriphCLKConfig+0x368>
 80045e8:	2c00      	cmp	r4, #0
 80045ea:	f040 8082 	bne.w	80046f2 <HAL_RCCEx_PeriphCLKConfig+0x36e>
 80045ee:	4a0d      	ldr	r2, [pc, #52]	@ (8004624 <HAL_RCCEx_PeriphCLKConfig+0x2a0>)
 80045f0:	6fa9      	ldr	r1, [r5, #120]	@ 0x78
 80045f2:	6d13      	ldr	r3, [r2, #80]	@ 0x50
 80045f4:	f023 5340 	bic.w	r3, r3, #805306368	@ 0x30000000
 80045f8:	430b      	orrs	r3, r1
 80045fa:	6513      	str	r3, [r2, #80]	@ 0x50
 80045fc:	682b      	ldr	r3, [r5, #0]
 80045fe:	01d8      	lsls	r0, r3, #7
 8004600:	f140 8087 	bpl.w	8004712 <HAL_RCCEx_PeriphCLKConfig+0x38e>
 8004604:	6cab      	ldr	r3, [r5, #72]	@ 0x48
 8004606:	2b03      	cmp	r3, #3
 8004608:	f200 80e1 	bhi.w	80047ce <HAL_RCCEx_PeriphCLKConfig+0x44a>
 800460c:	e8df f013 	tbh	[pc, r3, lsl #1]
 8004610:	00730078 	.word	0x00730078
 8004614:	007800d8 	.word	0x007800d8
 8004618:	4a02      	ldr	r2, [pc, #8]	@ (8004624 <HAL_RCCEx_PeriphCLKConfig+0x2a0>)
 800461a:	6ad3      	ldr	r3, [r2, #44]	@ 0x2c
 800461c:	f443 3300 	orr.w	r3, r3, #131072	@ 0x20000
 8004620:	62d3      	str	r3, [r2, #44]	@ 0x2c
 8004622:	e7ab      	b.n	800457c <HAL_RCCEx_PeriphCLKConfig+0x1f8>
 8004624:	58024400 	.word	0x58024400
 8004628:	2100      	movs	r1, #0
 800462a:	f105 0008 	add.w	r0, r5, #8
 800462e:	f7ff fdb9 	bl	80041a4 <RCCEx_PLL2_Config>
 8004632:	4604      	mov	r4, r0
 8004634:	e7a2      	b.n	800457c <HAL_RCCEx_PeriphCLKConfig+0x1f8>
 8004636:	2100      	movs	r1, #0
 8004638:	f105 0028 	add.w	r0, r5, #40	@ 0x28
 800463c:	f7ff fe2a 	bl	8004294 <RCCEx_PLL3_Config>
 8004640:	e7f7      	b.n	8004632 <HAL_RCCEx_PeriphCLKConfig+0x2ae>
 8004642:	4626      	mov	r6, r4
 8004644:	e7a3      	b.n	800458e <HAL_RCCEx_PeriphCLKConfig+0x20a>
 8004646:	f423 3280 	bic.w	r2, r3, #65536	@ 0x10000
 800464a:	f5b2 2f80 	cmp.w	r2, #262144	@ 0x40000
 800464e:	d002      	beq.n	8004656 <HAL_RCCEx_PeriphCLKConfig+0x2d2>
 8004650:	f5b3 3f40 	cmp.w	r3, #196608	@ 0x30000
 8004654:	d1a8      	bne.n	80045a8 <HAL_RCCEx_PeriphCLKConfig+0x224>
 8004656:	b9a4      	cbnz	r4, 8004682 <HAL_RCCEx_PeriphCLKConfig+0x2fe>
 8004658:	4a94      	ldr	r2, [pc, #592]	@ (80048ac <HAL_RCCEx_PeriphCLKConfig+0x528>)
 800465a:	6ea9      	ldr	r1, [r5, #104]	@ 0x68
 800465c:	6d13      	ldr	r3, [r2, #80]	@ 0x50
 800465e:	f423 23e0 	bic.w	r3, r3, #458752	@ 0x70000
 8004662:	430b      	orrs	r3, r1
 8004664:	6513      	str	r3, [r2, #80]	@ 0x50
 8004666:	e7a1      	b.n	80045ac <HAL_RCCEx_PeriphCLKConfig+0x228>
 8004668:	2101      	movs	r1, #1
 800466a:	f105 0008 	add.w	r0, r5, #8
 800466e:	f7ff fd99 	bl	80041a4 <RCCEx_PLL2_Config>
 8004672:	4604      	mov	r4, r0
 8004674:	e7ef      	b.n	8004656 <HAL_RCCEx_PeriphCLKConfig+0x2d2>
 8004676:	2101      	movs	r1, #1
 8004678:	f105 0028 	add.w	r0, r5, #40	@ 0x28
 800467c:	f7ff fe0a 	bl	8004294 <RCCEx_PLL3_Config>
 8004680:	e7f7      	b.n	8004672 <HAL_RCCEx_PeriphCLKConfig+0x2ee>
 8004682:	4626      	mov	r6, r4
 8004684:	e792      	b.n	80045ac <HAL_RCCEx_PeriphCLKConfig+0x228>
 8004686:	f1b3 4fa0 	cmp.w	r3, #1342177280	@ 0x50000000
 800468a:	d006      	beq.n	800469a <HAL_RCCEx_PeriphCLKConfig+0x316>
 800468c:	d80f      	bhi.n	80046ae <HAL_RCCEx_PeriphCLKConfig+0x32a>
 800468e:	f1b3 5f40 	cmp.w	r3, #805306368	@ 0x30000000
 8004692:	d002      	beq.n	800469a <HAL_RCCEx_PeriphCLKConfig+0x316>
 8004694:	f1b3 4f80 	cmp.w	r3, #1073741824	@ 0x40000000
 8004698:	d197      	bne.n	80045ca <HAL_RCCEx_PeriphCLKConfig+0x246>
 800469a:	b9c4      	cbnz	r4, 80046ce <HAL_RCCEx_PeriphCLKConfig+0x34a>
 800469c:	4a83      	ldr	r2, [pc, #524]	@ (80048ac <HAL_RCCEx_PeriphCLKConfig+0x528>)
 800469e:	f8d5 10b0 	ldr.w	r1, [r5, #176]	@ 0xb0
 80046a2:	6d93      	ldr	r3, [r2, #88]	@ 0x58
 80046a4:	f023 43e0 	bic.w	r3, r3, #1879048192	@ 0x70000000
 80046a8:	430b      	orrs	r3, r1
 80046aa:	6593      	str	r3, [r2, #88]	@ 0x58
 80046ac:	e78f      	b.n	80045ce <HAL_RCCEx_PeriphCLKConfig+0x24a>
 80046ae:	f1b3 4fc0 	cmp.w	r3, #1610612736	@ 0x60000000
 80046b2:	e7f1      	b.n	8004698 <HAL_RCCEx_PeriphCLKConfig+0x314>
 80046b4:	2101      	movs	r1, #1
 80046b6:	f105 0008 	add.w	r0, r5, #8
 80046ba:	f7ff fd73 	bl	80041a4 <RCCEx_PLL2_Config>
 80046be:	4604      	mov	r4, r0
 80046c0:	e7eb      	b.n	800469a <HAL_RCCEx_PeriphCLKConfig+0x316>
 80046c2:	2101      	movs	r1, #1
 80046c4:	f105 0028 	add.w	r0, r5, #40	@ 0x28
 80046c8:	f7ff fde4 	bl	8004294 <RCCEx_PLL3_Config>
 80046cc:	e7f7      	b.n	80046be <HAL_RCCEx_PeriphCLKConfig+0x33a>
 80046ce:	4626      	mov	r6, r4
 80046d0:	e77d      	b.n	80045ce <HAL_RCCEx_PeriphCLKConfig+0x24a>
 80046d2:	4a76      	ldr	r2, [pc, #472]	@ (80048ac <HAL_RCCEx_PeriphCLKConfig+0x528>)
 80046d4:	6ad3      	ldr	r3, [r2, #44]	@ 0x2c
 80046d6:	f443 3300 	orr.w	r3, r3, #131072	@ 0x20000
 80046da:	62d3      	str	r3, [r2, #44]	@ 0x2c
 80046dc:	e784      	b.n	80045e8 <HAL_RCCEx_PeriphCLKConfig+0x264>
 80046de:	2101      	movs	r1, #1
 80046e0:	f105 0008 	add.w	r0, r5, #8
 80046e4:	f7ff fd5e 	bl	80041a4 <RCCEx_PLL2_Config>
 80046e8:	4604      	mov	r4, r0
 80046ea:	e77d      	b.n	80045e8 <HAL_RCCEx_PeriphCLKConfig+0x264>
 80046ec:	2601      	movs	r6, #1
 80046ee:	4634      	mov	r4, r6
 80046f0:	e784      	b.n	80045fc <HAL_RCCEx_PeriphCLKConfig+0x278>
 80046f2:	4626      	mov	r6, r4
 80046f4:	e782      	b.n	80045fc <HAL_RCCEx_PeriphCLKConfig+0x278>
 80046f6:	4a6d      	ldr	r2, [pc, #436]	@ (80048ac <HAL_RCCEx_PeriphCLKConfig+0x528>)
 80046f8:	6ad3      	ldr	r3, [r2, #44]	@ 0x2c
 80046fa:	f443 3300 	orr.w	r3, r3, #131072	@ 0x20000
 80046fe:	62d3      	str	r3, [r2, #44]	@ 0x2c
 8004700:	2c00      	cmp	r4, #0
 8004702:	d167      	bne.n	80047d4 <HAL_RCCEx_PeriphCLKConfig+0x450>
 8004704:	4a69      	ldr	r2, [pc, #420]	@ (80048ac <HAL_RCCEx_PeriphCLKConfig+0x528>)
 8004706:	6ca9      	ldr	r1, [r5, #72]	@ 0x48
 8004708:	6cd3      	ldr	r3, [r2, #76]	@ 0x4c
 800470a:	f023 0303 	bic.w	r3, r3, #3
 800470e:	430b      	orrs	r3, r1
 8004710:	64d3      	str	r3, [r2, #76]	@ 0x4c
 8004712:	682b      	ldr	r3, [r5, #0]
 8004714:	0259      	lsls	r1, r3, #9
 8004716:	d539      	bpl.n	800478c <HAL_RCCEx_PeriphCLKConfig+0x408>
 8004718:	4f65      	ldr	r7, [pc, #404]	@ (80048b0 <HAL_RCCEx_PeriphCLKConfig+0x52c>)
 800471a:	683b      	ldr	r3, [r7, #0]
 800471c:	f443 7380 	orr.w	r3, r3, #256	@ 0x100
 8004720:	603b      	str	r3, [r7, #0]
 8004722:	f7fd fcaf 	bl	8002084 <HAL_GetTick>
 8004726:	4680      	mov	r8, r0
 8004728:	683b      	ldr	r3, [r7, #0]
 800472a:	05da      	lsls	r2, r3, #23
 800472c:	d554      	bpl.n	80047d8 <HAL_RCCEx_PeriphCLKConfig+0x454>
 800472e:	2c00      	cmp	r4, #0
 8004730:	d170      	bne.n	8004814 <HAL_RCCEx_PeriphCLKConfig+0x490>
 8004732:	4b5e      	ldr	r3, [pc, #376]	@ (80048ac <HAL_RCCEx_PeriphCLKConfig+0x528>)
 8004734:	f8d5 00b4 	ldr.w	r0, [r5, #180]	@ 0xb4
 8004738:	6f1a      	ldr	r2, [r3, #112]	@ 0x70
 800473a:	4042      	eors	r2, r0
 800473c:	f412 7f40 	tst.w	r2, #768	@ 0x300
 8004740:	d00b      	beq.n	800475a <HAL_RCCEx_PeriphCLKConfig+0x3d6>
 8004742:	6f1a      	ldr	r2, [r3, #112]	@ 0x70
 8004744:	6f19      	ldr	r1, [r3, #112]	@ 0x70
 8004746:	f422 7240 	bic.w	r2, r2, #768	@ 0x300
 800474a:	f441 3180 	orr.w	r1, r1, #65536	@ 0x10000
 800474e:	6719      	str	r1, [r3, #112]	@ 0x70
 8004750:	6f19      	ldr	r1, [r3, #112]	@ 0x70
 8004752:	f421 3180 	bic.w	r1, r1, #65536	@ 0x10000
 8004756:	6719      	str	r1, [r3, #112]	@ 0x70
 8004758:	671a      	str	r2, [r3, #112]	@ 0x70
 800475a:	f5b0 7f80 	cmp.w	r0, #256	@ 0x100
 800475e:	d044      	beq.n	80047ea <HAL_RCCEx_PeriphCLKConfig+0x466>
 8004760:	f8d5 30b4 	ldr.w	r3, [r5, #180]	@ 0xb4
 8004764:	4951      	ldr	r1, [pc, #324]	@ (80048ac <HAL_RCCEx_PeriphCLKConfig+0x528>)
 8004766:	f403 7240 	and.w	r2, r3, #768	@ 0x300
 800476a:	f5b2 7f40 	cmp.w	r2, #768	@ 0x300
 800476e:	d14d      	bne.n	800480c <HAL_RCCEx_PeriphCLKConfig+0x488>
 8004770:	6908      	ldr	r0, [r1, #16]
 8004772:	4a50      	ldr	r2, [pc, #320]	@ (80048b4 <HAL_RCCEx_PeriphCLKConfig+0x530>)
 8004774:	f420 507c 	bic.w	r0, r0, #16128	@ 0x3f00
 8004778:	ea02 1213 	and.w	r2, r2, r3, lsr #4
 800477c:	4302      	orrs	r2, r0
 800477e:	610a      	str	r2, [r1, #16]
 8004780:	f3c3 030b 	ubfx	r3, r3, #0, #12
 8004784:	4a49      	ldr	r2, [pc, #292]	@ (80048ac <HAL_RCCEx_PeriphCLKConfig+0x528>)
 8004786:	6f11      	ldr	r1, [r2, #112]	@ 0x70
 8004788:	430b      	orrs	r3, r1
 800478a:	6713      	str	r3, [r2, #112]	@ 0x70
 800478c:	682b      	ldr	r3, [r5, #0]
 800478e:	07d8      	lsls	r0, r3, #31
 8004790:	d50a      	bpl.n	80047a8 <HAL_RCCEx_PeriphCLKConfig+0x424>
 8004792:	f8d5 3084 	ldr.w	r3, [r5, #132]	@ 0x84
 8004796:	2b10      	cmp	r3, #16
 8004798:	d055      	beq.n	8004846 <HAL_RCCEx_PeriphCLKConfig+0x4c2>
 800479a:	d83d      	bhi.n	8004818 <HAL_RCCEx_PeriphCLKConfig+0x494>
 800479c:	2b00      	cmp	r3, #0
 800479e:	d041      	beq.n	8004824 <HAL_RCCEx_PeriphCLKConfig+0x4a0>
 80047a0:	2b08      	cmp	r3, #8
 80047a2:	d049      	beq.n	8004838 <HAL_RCCEx_PeriphCLKConfig+0x4b4>
 80047a4:	2601      	movs	r6, #1
 80047a6:	4634      	mov	r4, r6
 80047a8:	682b      	ldr	r3, [r5, #0]
 80047aa:	0799      	lsls	r1, r3, #30
 80047ac:	d562      	bpl.n	8004874 <HAL_RCCEx_PeriphCLKConfig+0x4f0>
 80047ae:	f8d5 3080 	ldr.w	r3, [r5, #128]	@ 0x80
 80047b2:	2b05      	cmp	r3, #5
 80047b4:	d874      	bhi.n	80048a0 <HAL_RCCEx_PeriphCLKConfig+0x51c>
 80047b6:	e8df f003 	tbb	[pc, r3]
 80047ba:	4e54      	.short	0x4e54
 80047bc:	5454546d 	.word	0x5454546d
 80047c0:	2102      	movs	r1, #2
 80047c2:	f105 0008 	add.w	r0, r5, #8
 80047c6:	f7ff fced 	bl	80041a4 <RCCEx_PLL2_Config>
 80047ca:	4604      	mov	r4, r0
 80047cc:	e798      	b.n	8004700 <HAL_RCCEx_PeriphCLKConfig+0x37c>
 80047ce:	2601      	movs	r6, #1
 80047d0:	4634      	mov	r4, r6
 80047d2:	e79e      	b.n	8004712 <HAL_RCCEx_PeriphCLKConfig+0x38e>
 80047d4:	4626      	mov	r6, r4
 80047d6:	e79c      	b.n	8004712 <HAL_RCCEx_PeriphCLKConfig+0x38e>
 80047d8:	f7fd fc54 	bl	8002084 <HAL_GetTick>
 80047dc:	eba0 0008 	sub.w	r0, r0, r8
 80047e0:	2864      	cmp	r0, #100	@ 0x64
 80047e2:	d9a1      	bls.n	8004728 <HAL_RCCEx_PeriphCLKConfig+0x3a4>
 80047e4:	2603      	movs	r6, #3
 80047e6:	4634      	mov	r4, r6
 80047e8:	e7d0      	b.n	800478c <HAL_RCCEx_PeriphCLKConfig+0x408>
 80047ea:	f7fd fc4b 	bl	8002084 <HAL_GetTick>
 80047ee:	f8df 80bc 	ldr.w	r8, [pc, #188]	@ 80048ac <HAL_RCCEx_PeriphCLKConfig+0x528>
 80047f2:	4607      	mov	r7, r0
 80047f4:	f241 3988 	movw	r9, #5000	@ 0x1388
 80047f8:	f8d8 3070 	ldr.w	r3, [r8, #112]	@ 0x70
 80047fc:	079b      	lsls	r3, r3, #30
 80047fe:	d4af      	bmi.n	8004760 <HAL_RCCEx_PeriphCLKConfig+0x3dc>
 8004800:	f7fd fc40 	bl	8002084 <HAL_GetTick>
 8004804:	1bc0      	subs	r0, r0, r7
 8004806:	4548      	cmp	r0, r9
 8004808:	d9f6      	bls.n	80047f8 <HAL_RCCEx_PeriphCLKConfig+0x474>
 800480a:	e7eb      	b.n	80047e4 <HAL_RCCEx_PeriphCLKConfig+0x460>
 800480c:	690a      	ldr	r2, [r1, #16]
 800480e:	f422 527c 	bic.w	r2, r2, #16128	@ 0x3f00
 8004812:	e7b4      	b.n	800477e <HAL_RCCEx_PeriphCLKConfig+0x3fa>
 8004814:	4626      	mov	r6, r4
 8004816:	e7b9      	b.n	800478c <HAL_RCCEx_PeriphCLKConfig+0x408>
 8004818:	f023 0208 	bic.w	r2, r3, #8
 800481c:	2a20      	cmp	r2, #32
 800481e:	d001      	beq.n	8004824 <HAL_RCCEx_PeriphCLKConfig+0x4a0>
 8004820:	2b18      	cmp	r3, #24
 8004822:	d1bf      	bne.n	80047a4 <HAL_RCCEx_PeriphCLKConfig+0x420>
 8004824:	b9ac      	cbnz	r4, 8004852 <HAL_RCCEx_PeriphCLKConfig+0x4ce>
 8004826:	4a21      	ldr	r2, [pc, #132]	@ (80048ac <HAL_RCCEx_PeriphCLKConfig+0x528>)
 8004828:	f8d5 1084 	ldr.w	r1, [r5, #132]	@ 0x84
 800482c:	6d53      	ldr	r3, [r2, #84]	@ 0x54
 800482e:	f023 0338 	bic.w	r3, r3, #56	@ 0x38
 8004832:	430b      	orrs	r3, r1
 8004834:	6553      	str	r3, [r2, #84]	@ 0x54
 8004836:	e7b7      	b.n	80047a8 <HAL_RCCEx_PeriphCLKConfig+0x424>
 8004838:	2101      	movs	r1, #1
 800483a:	f105 0008 	add.w	r0, r5, #8
 800483e:	f7ff fcb1 	bl	80041a4 <RCCEx_PLL2_Config>
 8004842:	4604      	mov	r4, r0
 8004844:	e7ee      	b.n	8004824 <HAL_RCCEx_PeriphCLKConfig+0x4a0>
 8004846:	2101      	movs	r1, #1
 8004848:	f105 0028 	add.w	r0, r5, #40	@ 0x28
 800484c:	f7ff fd22 	bl	8004294 <RCCEx_PLL3_Config>
 8004850:	e7f7      	b.n	8004842 <HAL_RCCEx_PeriphCLKConfig+0x4be>
 8004852:	4626      	mov	r6, r4
 8004854:	e7a8      	b.n	80047a8 <HAL_RCCEx_PeriphCLKConfig+0x424>
 8004856:	2101      	movs	r1, #1
 8004858:	f105 0008 	add.w	r0, r5, #8
 800485c:	f7ff fca2 	bl	80041a4 <RCCEx_PLL2_Config>
 8004860:	4604      	mov	r4, r0
 8004862:	bb04      	cbnz	r4, 80048a6 <HAL_RCCEx_PeriphCLKConfig+0x522>
 8004864:	4a11      	ldr	r2, [pc, #68]	@ (80048ac <HAL_RCCEx_PeriphCLKConfig+0x528>)
 8004866:	f8d5 1080 	ldr.w	r1, [r5, #128]	@ 0x80
 800486a:	6d53      	ldr	r3, [r2, #84]	@ 0x54
 800486c:	f023 0307 	bic.w	r3, r3, #7
 8004870:	430b      	orrs	r3, r1
 8004872:	6553      	str	r3, [r2, #84]	@ 0x54
 8004874:	682b      	ldr	r3, [r5, #0]
 8004876:	075a      	lsls	r2, r3, #29
 8004878:	d52f      	bpl.n	80048da <HAL_RCCEx_PeriphCLKConfig+0x556>
 800487a:	f8d5 309c 	ldr.w	r3, [r5, #156]	@ 0x9c
 800487e:	2b05      	cmp	r3, #5
 8004880:	f200 8171 	bhi.w	8004b66 <HAL_RCCEx_PeriphCLKConfig+0x7e2>
 8004884:	e8df f013 	tbh	[pc, r3, lsl #1]
 8004888:	0018001e 	.word	0x0018001e
 800488c:	001e0169 	.word	0x001e0169
 8004890:	001e001e 	.word	0x001e001e
 8004894:	2101      	movs	r1, #1
 8004896:	f105 0028 	add.w	r0, r5, #40	@ 0x28
 800489a:	f7ff fcfb 	bl	8004294 <RCCEx_PLL3_Config>
 800489e:	e7df      	b.n	8004860 <HAL_RCCEx_PeriphCLKConfig+0x4dc>
 80048a0:	2601      	movs	r6, #1
 80048a2:	4634      	mov	r4, r6
 80048a4:	e7e6      	b.n	8004874 <HAL_RCCEx_PeriphCLKConfig+0x4f0>
 80048a6:	4626      	mov	r6, r4
 80048a8:	e7e4      	b.n	8004874 <HAL_RCCEx_PeriphCLKConfig+0x4f0>
 80048aa:	bf00      	nop
 80048ac:	58024400 	.word	0x58024400
 80048b0:	58024800 	.word	0x58024800
 80048b4:	00ffffcf 	.word	0x00ffffcf
 80048b8:	2101      	movs	r1, #1
 80048ba:	f105 0008 	add.w	r0, r5, #8
 80048be:	f7ff fc71 	bl	80041a4 <RCCEx_PLL2_Config>
 80048c2:	4604      	mov	r4, r0
 80048c4:	2c00      	cmp	r4, #0
 80048c6:	f040 8151 	bne.w	8004b6c <HAL_RCCEx_PeriphCLKConfig+0x7e8>
 80048ca:	4aa9      	ldr	r2, [pc, #676]	@ (8004b70 <HAL_RCCEx_PeriphCLKConfig+0x7ec>)
 80048cc:	f8d5 109c 	ldr.w	r1, [r5, #156]	@ 0x9c
 80048d0:	6d93      	ldr	r3, [r2, #88]	@ 0x58
 80048d2:	f023 0307 	bic.w	r3, r3, #7
 80048d6:	430b      	orrs	r3, r1
 80048d8:	6593      	str	r3, [r2, #88]	@ 0x58
 80048da:	682b      	ldr	r3, [r5, #0]
 80048dc:	069b      	lsls	r3, r3, #26
 80048de:	d510      	bpl.n	8004902 <HAL_RCCEx_PeriphCLKConfig+0x57e>
 80048e0:	f8d5 3098 	ldr.w	r3, [r5, #152]	@ 0x98
 80048e4:	f1b3 5f00 	cmp.w	r3, #536870912	@ 0x20000000
 80048e8:	f000 815e 	beq.w	8004ba8 <HAL_RCCEx_PeriphCLKConfig+0x824>
 80048ec:	f200 8142 	bhi.w	8004b74 <HAL_RCCEx_PeriphCLKConfig+0x7f0>
 80048f0:	2b00      	cmp	r3, #0
 80048f2:	f000 8148 	beq.w	8004b86 <HAL_RCCEx_PeriphCLKConfig+0x802>
 80048f6:	f1b3 5f80 	cmp.w	r3, #268435456	@ 0x10000000
 80048fa:	f000 814e 	beq.w	8004b9a <HAL_RCCEx_PeriphCLKConfig+0x816>
 80048fe:	2601      	movs	r6, #1
 8004900:	4634      	mov	r4, r6
 8004902:	682b      	ldr	r3, [r5, #0]
 8004904:	065f      	lsls	r7, r3, #25
 8004906:	d510      	bpl.n	800492a <HAL_RCCEx_PeriphCLKConfig+0x5a6>
 8004908:	f8d5 30a4 	ldr.w	r3, [r5, #164]	@ 0xa4
 800490c:	f5b3 6f00 	cmp.w	r3, #2048	@ 0x800
 8004910:	f000 816c 	beq.w	8004bec <HAL_RCCEx_PeriphCLKConfig+0x868>
 8004914:	f200 8150 	bhi.w	8004bb8 <HAL_RCCEx_PeriphCLKConfig+0x834>
 8004918:	2b00      	cmp	r3, #0
 800491a:	f000 8156 	beq.w	8004bca <HAL_RCCEx_PeriphCLKConfig+0x846>
 800491e:	f5b3 6f80 	cmp.w	r3, #1024	@ 0x400
 8004922:	f000 815c 	beq.w	8004bde <HAL_RCCEx_PeriphCLKConfig+0x85a>
 8004926:	2601      	movs	r6, #1
 8004928:	4634      	mov	r4, r6
 800492a:	682b      	ldr	r3, [r5, #0]
 800492c:	0618      	lsls	r0, r3, #24
 800492e:	d510      	bpl.n	8004952 <HAL_RCCEx_PeriphCLKConfig+0x5ce>
 8004930:	f8d5 30a8 	ldr.w	r3, [r5, #168]	@ 0xa8
 8004934:	f5b3 4f80 	cmp.w	r3, #16384	@ 0x4000
 8004938:	f000 817a 	beq.w	8004c30 <HAL_RCCEx_PeriphCLKConfig+0x8ac>
 800493c:	f200 815e 	bhi.w	8004bfc <HAL_RCCEx_PeriphCLKConfig+0x878>
 8004940:	2b00      	cmp	r3, #0
 8004942:	f000 8164 	beq.w	8004c0e <HAL_RCCEx_PeriphCLKConfig+0x88a>
 8004946:	f5b3 5f00 	cmp.w	r3, #8192	@ 0x2000
 800494a:	f000 816a 	beq.w	8004c22 <HAL_RCCEx_PeriphCLKConfig+0x89e>
 800494e:	2601      	movs	r6, #1
 8004950:	4634      	mov	r4, r6
 8004952:	682b      	ldr	r3, [r5, #0]
 8004954:	0719      	lsls	r1, r3, #28
 8004956:	d514      	bpl.n	8004982 <HAL_RCCEx_PeriphCLKConfig+0x5fe>
 8004958:	f8d5 308c 	ldr.w	r3, [r5, #140]	@ 0x8c
 800495c:	f5b3 5f80 	cmp.w	r3, #4096	@ 0x1000
 8004960:	d107      	bne.n	8004972 <HAL_RCCEx_PeriphCLKConfig+0x5ee>
 8004962:	2102      	movs	r1, #2
 8004964:	f105 0028 	add.w	r0, r5, #40	@ 0x28
 8004968:	f7ff fc94 	bl	8004294 <RCCEx_PLL3_Config>
 800496c:	2800      	cmp	r0, #0
 800496e:	bf18      	it	ne
 8004970:	2601      	movne	r6, #1
 8004972:	4a7f      	ldr	r2, [pc, #508]	@ (8004b70 <HAL_RCCEx_PeriphCLKConfig+0x7ec>)
 8004974:	f8d5 108c 	ldr.w	r1, [r5, #140]	@ 0x8c
 8004978:	6d53      	ldr	r3, [r2, #84]	@ 0x54
 800497a:	f423 5340 	bic.w	r3, r3, #12288	@ 0x3000
 800497e:	430b      	orrs	r3, r1
 8004980:	6553      	str	r3, [r2, #84]	@ 0x54
 8004982:	682b      	ldr	r3, [r5, #0]
 8004984:	06da      	lsls	r2, r3, #27
 8004986:	d514      	bpl.n	80049b2 <HAL_RCCEx_PeriphCLKConfig+0x62e>
 8004988:	f8d5 30a0 	ldr.w	r3, [r5, #160]	@ 0xa0
 800498c:	f5b3 7f80 	cmp.w	r3, #256	@ 0x100
 8004990:	d107      	bne.n	80049a2 <HAL_RCCEx_PeriphCLKConfig+0x61e>
 8004992:	2102      	movs	r1, #2
 8004994:	f105 0028 	add.w	r0, r5, #40	@ 0x28
 8004998:	f7ff fc7c 	bl	8004294 <RCCEx_PLL3_Config>
 800499c:	2800      	cmp	r0, #0
 800499e:	bf18      	it	ne
 80049a0:	2601      	movne	r6, #1
 80049a2:	4a73      	ldr	r2, [pc, #460]	@ (8004b70 <HAL_RCCEx_PeriphCLKConfig+0x7ec>)
 80049a4:	f8d5 10a0 	ldr.w	r1, [r5, #160]	@ 0xa0
 80049a8:	6d93      	ldr	r3, [r2, #88]	@ 0x58
 80049aa:	f423 7340 	bic.w	r3, r3, #768	@ 0x300
 80049ae:	430b      	orrs	r3, r1
 80049b0:	6593      	str	r3, [r2, #88]	@ 0x58
 80049b2:	682b      	ldr	r3, [r5, #0]
 80049b4:	031b      	lsls	r3, r3, #12
 80049b6:	d51b      	bpl.n	80049f0 <HAL_RCCEx_PeriphCLKConfig+0x66c>
 80049b8:	f8d5 10ac 	ldr.w	r1, [r5, #172]	@ 0xac
 80049bc:	f5b1 3f80 	cmp.w	r1, #65536	@ 0x10000
 80049c0:	f000 813e 	beq.w	8004c40 <HAL_RCCEx_PeriphCLKConfig+0x8bc>
 80049c4:	f5b1 3f00 	cmp.w	r1, #131072	@ 0x20000
 80049c8:	d007      	beq.n	80049da <HAL_RCCEx_PeriphCLKConfig+0x656>
 80049ca:	2900      	cmp	r1, #0
 80049cc:	f040 813e 	bne.w	8004c4c <HAL_RCCEx_PeriphCLKConfig+0x8c8>
 80049d0:	f105 0008 	add.w	r0, r5, #8
 80049d4:	f7ff fbe6 	bl	80041a4 <RCCEx_PLL2_Config>
 80049d8:	4604      	mov	r4, r0
 80049da:	2c00      	cmp	r4, #0
 80049dc:	f040 8139 	bne.w	8004c52 <HAL_RCCEx_PeriphCLKConfig+0x8ce>
 80049e0:	4a63      	ldr	r2, [pc, #396]	@ (8004b70 <HAL_RCCEx_PeriphCLKConfig+0x7ec>)
 80049e2:	f8d5 10ac 	ldr.w	r1, [r5, #172]	@ 0xac
 80049e6:	6d93      	ldr	r3, [r2, #88]	@ 0x58
 80049e8:	f423 3340 	bic.w	r3, r3, #196608	@ 0x30000
 80049ec:	430b      	orrs	r3, r1
 80049ee:	6593      	str	r3, [r2, #88]	@ 0x58
 80049f0:	682b      	ldr	r3, [r5, #0]
 80049f2:	035f      	lsls	r7, r3, #13
 80049f4:	d50f      	bpl.n	8004a16 <HAL_RCCEx_PeriphCLKConfig+0x692>
 80049f6:	f8d5 3090 	ldr.w	r3, [r5, #144]	@ 0x90
 80049fa:	f5b3 1f00 	cmp.w	r3, #2097152	@ 0x200000
 80049fe:	f000 8139 	beq.w	8004c74 <HAL_RCCEx_PeriphCLKConfig+0x8f0>
 8004a02:	f5b3 1f40 	cmp.w	r3, #3145728	@ 0x300000
 8004a06:	f000 812b 	beq.w	8004c60 <HAL_RCCEx_PeriphCLKConfig+0x8dc>
 8004a0a:	f5b3 1f80 	cmp.w	r3, #1048576	@ 0x100000
 8004a0e:	f000 8122 	beq.w	8004c56 <HAL_RCCEx_PeriphCLKConfig+0x8d2>
 8004a12:	2601      	movs	r6, #1
 8004a14:	4634      	mov	r4, r6
 8004a16:	682b      	ldr	r3, [r5, #0]
 8004a18:	03d8      	lsls	r0, r3, #15
 8004a1a:	d509      	bpl.n	8004a30 <HAL_RCCEx_PeriphCLKConfig+0x6ac>
 8004a1c:	6d2b      	ldr	r3, [r5, #80]	@ 0x50
 8004a1e:	2b00      	cmp	r3, #0
 8004a20:	f000 8131 	beq.w	8004c86 <HAL_RCCEx_PeriphCLKConfig+0x902>
 8004a24:	f5b3 3f80 	cmp.w	r3, #65536	@ 0x10000
 8004a28:	f000 813b 	beq.w	8004ca2 <HAL_RCCEx_PeriphCLKConfig+0x91e>
 8004a2c:	2601      	movs	r6, #1
 8004a2e:	4634      	mov	r4, r6
 8004a30:	682b      	ldr	r3, [r5, #0]
 8004a32:	0099      	lsls	r1, r3, #2
 8004a34:	d507      	bpl.n	8004a46 <HAL_RCCEx_PeriphCLKConfig+0x6c2>
 8004a36:	2102      	movs	r1, #2
 8004a38:	f105 0028 	add.w	r0, r5, #40	@ 0x28
 8004a3c:	f7ff fc2a 	bl	8004294 <RCCEx_PLL3_Config>
 8004a40:	2800      	cmp	r0, #0
 8004a42:	bf18      	it	ne
 8004a44:	2601      	movne	r6, #1
 8004a46:	e9d5 3100 	ldrd	r3, r1, [r5]
 8004a4a:	039a      	lsls	r2, r3, #14
 8004a4c:	f140 8141 	bpl.w	8004cd2 <HAL_RCCEx_PeriphCLKConfig+0x94e>
 8004a50:	f8d5 0088 	ldr.w	r0, [r5, #136]	@ 0x88
 8004a54:	f5b0 7f80 	cmp.w	r0, #256	@ 0x100
 8004a58:	f000 813d 	beq.w	8004cd6 <HAL_RCCEx_PeriphCLKConfig+0x952>
 8004a5c:	f200 812a 	bhi.w	8004cb4 <HAL_RCCEx_PeriphCLKConfig+0x930>
 8004a60:	2800      	cmp	r0, #0
 8004a62:	f000 812d 	beq.w	8004cc0 <HAL_RCCEx_PeriphCLKConfig+0x93c>
 8004a66:	2401      	movs	r4, #1
 8004a68:	02df      	lsls	r7, r3, #11
 8004a6a:	d506      	bpl.n	8004a7a <HAL_RCCEx_PeriphCLKConfig+0x6f6>
 8004a6c:	4840      	ldr	r0, [pc, #256]	@ (8004b70 <HAL_RCCEx_PeriphCLKConfig+0x7ec>)
 8004a6e:	6fee      	ldr	r6, [r5, #124]	@ 0x7c
 8004a70:	6d02      	ldr	r2, [r0, #80]	@ 0x50
 8004a72:	f022 4200 	bic.w	r2, r2, #2147483648	@ 0x80000000
 8004a76:	4332      	orrs	r2, r6
 8004a78:	6502      	str	r2, [r0, #80]	@ 0x50
 8004a7a:	029e      	lsls	r6, r3, #10
 8004a7c:	d506      	bpl.n	8004a8c <HAL_RCCEx_PeriphCLKConfig+0x708>
 8004a7e:	483c      	ldr	r0, [pc, #240]	@ (8004b70 <HAL_RCCEx_PeriphCLKConfig+0x7ec>)
 8004a80:	6f2e      	ldr	r6, [r5, #112]	@ 0x70
 8004a82:	6d02      	ldr	r2, [r0, #80]	@ 0x50
 8004a84:	f022 7280 	bic.w	r2, r2, #16777216	@ 0x1000000
 8004a88:	4332      	orrs	r2, r6
 8004a8a:	6502      	str	r2, [r0, #80]	@ 0x50
 8004a8c:	0518      	lsls	r0, r3, #20
 8004a8e:	d506      	bpl.n	8004a9e <HAL_RCCEx_PeriphCLKConfig+0x71a>
 8004a90:	4837      	ldr	r0, [pc, #220]	@ (8004b70 <HAL_RCCEx_PeriphCLKConfig+0x7ec>)
 8004a92:	6f6e      	ldr	r6, [r5, #116]	@ 0x74
 8004a94:	6d82      	ldr	r2, [r0, #88]	@ 0x58
 8004a96:	f022 6200 	bic.w	r2, r2, #134217728	@ 0x8000000
 8004a9a:	4332      	orrs	r2, r6
 8004a9c:	6582      	str	r2, [r0, #88]	@ 0x58
 8004a9e:	005a      	lsls	r2, r3, #1
 8004aa0:	d509      	bpl.n	8004ab6 <HAL_RCCEx_PeriphCLKConfig+0x732>
 8004aa2:	4a33      	ldr	r2, [pc, #204]	@ (8004b70 <HAL_RCCEx_PeriphCLKConfig+0x7ec>)
 8004aa4:	6910      	ldr	r0, [r2, #16]
 8004aa6:	f420 4000 	bic.w	r0, r0, #32768	@ 0x8000
 8004aaa:	6110      	str	r0, [r2, #16]
 8004aac:	6910      	ldr	r0, [r2, #16]
 8004aae:	f8d5 60b8 	ldr.w	r6, [r5, #184]	@ 0xb8
 8004ab2:	4330      	orrs	r0, r6
 8004ab4:	6110      	str	r0, [r2, #16]
 8004ab6:	2b00      	cmp	r3, #0
 8004ab8:	da06      	bge.n	8004ac8 <HAL_RCCEx_PeriphCLKConfig+0x744>
 8004aba:	482d      	ldr	r0, [pc, #180]	@ (8004b70 <HAL_RCCEx_PeriphCLKConfig+0x7ec>)
 8004abc:	6d6e      	ldr	r6, [r5, #84]	@ 0x54
 8004abe:	6cc2      	ldr	r2, [r0, #76]	@ 0x4c
 8004ac0:	f022 5240 	bic.w	r2, r2, #805306368	@ 0x30000000
 8004ac4:	4332      	orrs	r2, r6
 8004ac6:	64c2      	str	r2, [r0, #76]	@ 0x4c
 8004ac8:	021f      	lsls	r7, r3, #8
 8004aca:	d507      	bpl.n	8004adc <HAL_RCCEx_PeriphCLKConfig+0x758>
 8004acc:	4a28      	ldr	r2, [pc, #160]	@ (8004b70 <HAL_RCCEx_PeriphCLKConfig+0x7ec>)
 8004ace:	f8d5 0094 	ldr.w	r0, [r5, #148]	@ 0x94
 8004ad2:	6d53      	ldr	r3, [r2, #84]	@ 0x54
 8004ad4:	f423 0340 	bic.w	r3, r3, #12582912	@ 0xc00000
 8004ad8:	4303      	orrs	r3, r0
 8004ada:	6553      	str	r3, [r2, #84]	@ 0x54
 8004adc:	07ce      	lsls	r6, r1, #31
 8004ade:	d506      	bpl.n	8004aee <HAL_RCCEx_PeriphCLKConfig+0x76a>
 8004ae0:	2100      	movs	r1, #0
 8004ae2:	f105 0008 	add.w	r0, r5, #8
 8004ae6:	f7ff fb5d 	bl	80041a4 <RCCEx_PLL2_Config>
 8004aea:	4607      	mov	r7, r0
 8004aec:	b900      	cbnz	r0, 8004af0 <HAL_RCCEx_PeriphCLKConfig+0x76c>
 8004aee:	4627      	mov	r7, r4
 8004af0:	686b      	ldr	r3, [r5, #4]
 8004af2:	079c      	lsls	r4, r3, #30
 8004af4:	d506      	bpl.n	8004b04 <HAL_RCCEx_PeriphCLKConfig+0x780>
 8004af6:	2101      	movs	r1, #1
 8004af8:	f105 0008 	add.w	r0, r5, #8
 8004afc:	f7ff fb52 	bl	80041a4 <RCCEx_PLL2_Config>
 8004b00:	4606      	mov	r6, r0
 8004b02:	b900      	cbnz	r0, 8004b06 <HAL_RCCEx_PeriphCLKConfig+0x782>
 8004b04:	463e      	mov	r6, r7
 8004b06:	686b      	ldr	r3, [r5, #4]
 8004b08:	0758      	lsls	r0, r3, #29
 8004b0a:	d506      	bpl.n	8004b1a <HAL_RCCEx_PeriphCLKConfig+0x796>
 8004b0c:	2102      	movs	r1, #2
 8004b0e:	f105 0008 	add.w	r0, r5, #8
 8004b12:	f7ff fb47 	bl	80041a4 <RCCEx_PLL2_Config>
 8004b16:	4604      	mov	r4, r0
 8004b18:	b900      	cbnz	r0, 8004b1c <HAL_RCCEx_PeriphCLKConfig+0x798>
 8004b1a:	4634      	mov	r4, r6
 8004b1c:	686b      	ldr	r3, [r5, #4]
 8004b1e:	0719      	lsls	r1, r3, #28
 8004b20:	d506      	bpl.n	8004b30 <HAL_RCCEx_PeriphCLKConfig+0x7ac>
 8004b22:	2100      	movs	r1, #0
 8004b24:	f105 0028 	add.w	r0, r5, #40	@ 0x28
 8004b28:	f7ff fbb4 	bl	8004294 <RCCEx_PLL3_Config>
 8004b2c:	4606      	mov	r6, r0
 8004b2e:	b900      	cbnz	r0, 8004b32 <HAL_RCCEx_PeriphCLKConfig+0x7ae>
 8004b30:	4626      	mov	r6, r4
 8004b32:	686b      	ldr	r3, [r5, #4]
 8004b34:	06da      	lsls	r2, r3, #27
 8004b36:	d506      	bpl.n	8004b46 <HAL_RCCEx_PeriphCLKConfig+0x7c2>
 8004b38:	2101      	movs	r1, #1
 8004b3a:	f105 0028 	add.w	r0, r5, #40	@ 0x28
 8004b3e:	f7ff fba9 	bl	8004294 <RCCEx_PLL3_Config>
 8004b42:	4604      	mov	r4, r0
 8004b44:	b900      	cbnz	r0, 8004b48 <HAL_RCCEx_PeriphCLKConfig+0x7c4>
 8004b46:	4634      	mov	r4, r6
 8004b48:	686b      	ldr	r3, [r5, #4]
 8004b4a:	069b      	lsls	r3, r3, #26
 8004b4c:	f100 80c9 	bmi.w	8004ce2 <HAL_RCCEx_PeriphCLKConfig+0x95e>
 8004b50:	1e20      	subs	r0, r4, #0
 8004b52:	bf18      	it	ne
 8004b54:	2001      	movne	r0, #1
 8004b56:	e8bd 83f8 	ldmia.w	sp!, {r3, r4, r5, r6, r7, r8, r9, pc}
 8004b5a:	2101      	movs	r1, #1
 8004b5c:	f105 0028 	add.w	r0, r5, #40	@ 0x28
 8004b60:	f7ff fb98 	bl	8004294 <RCCEx_PLL3_Config>
 8004b64:	e6ad      	b.n	80048c2 <HAL_RCCEx_PeriphCLKConfig+0x53e>
 8004b66:	2601      	movs	r6, #1
 8004b68:	4634      	mov	r4, r6
 8004b6a:	e6b6      	b.n	80048da <HAL_RCCEx_PeriphCLKConfig+0x556>
 8004b6c:	4626      	mov	r6, r4
 8004b6e:	e6b4      	b.n	80048da <HAL_RCCEx_PeriphCLKConfig+0x556>
 8004b70:	58024400 	.word	0x58024400
 8004b74:	f023 5280 	bic.w	r2, r3, #268435456	@ 0x10000000
 8004b78:	f1b2 4f80 	cmp.w	r2, #1073741824	@ 0x40000000
 8004b7c:	d003      	beq.n	8004b86 <HAL_RCCEx_PeriphCLKConfig+0x802>
 8004b7e:	f1b3 5f40 	cmp.w	r3, #805306368	@ 0x30000000
 8004b82:	f47f aebc 	bne.w	80048fe <HAL_RCCEx_PeriphCLKConfig+0x57a>
 8004b86:	b9ac      	cbnz	r4, 8004bb4 <HAL_RCCEx_PeriphCLKConfig+0x830>
 8004b88:	4a5b      	ldr	r2, [pc, #364]	@ (8004cf8 <HAL_RCCEx_PeriphCLKConfig+0x974>)
 8004b8a:	f8d5 1098 	ldr.w	r1, [r5, #152]	@ 0x98
 8004b8e:	6d53      	ldr	r3, [r2, #84]	@ 0x54
 8004b90:	f023 43e0 	bic.w	r3, r3, #1879048192	@ 0x70000000
 8004b94:	430b      	orrs	r3, r1
 8004b96:	6553      	str	r3, [r2, #84]	@ 0x54
 8004b98:	e6b3      	b.n	8004902 <HAL_RCCEx_PeriphCLKConfig+0x57e>
 8004b9a:	2100      	movs	r1, #0
 8004b9c:	f105 0008 	add.w	r0, r5, #8
 8004ba0:	f7ff fb00 	bl	80041a4 <RCCEx_PLL2_Config>
 8004ba4:	4604      	mov	r4, r0
 8004ba6:	e7ee      	b.n	8004b86 <HAL_RCCEx_PeriphCLKConfig+0x802>
 8004ba8:	2102      	movs	r1, #2
 8004baa:	f105 0028 	add.w	r0, r5, #40	@ 0x28
 8004bae:	f7ff fb71 	bl	8004294 <RCCEx_PLL3_Config>
 8004bb2:	e7f7      	b.n	8004ba4 <HAL_RCCEx_PeriphCLKConfig+0x820>
 8004bb4:	4626      	mov	r6, r4
 8004bb6:	e6a4      	b.n	8004902 <HAL_RCCEx_PeriphCLKConfig+0x57e>
 8004bb8:	f423 6280 	bic.w	r2, r3, #1024	@ 0x400
 8004bbc:	f5b2 5f80 	cmp.w	r2, #4096	@ 0x1000
 8004bc0:	d003      	beq.n	8004bca <HAL_RCCEx_PeriphCLKConfig+0x846>
 8004bc2:	f5b3 6f40 	cmp.w	r3, #3072	@ 0xc00
 8004bc6:	f47f aeae 	bne.w	8004926 <HAL_RCCEx_PeriphCLKConfig+0x5a2>
 8004bca:	b9ac      	cbnz	r4, 8004bf8 <HAL_RCCEx_PeriphCLKConfig+0x874>
 8004bcc:	4a4a      	ldr	r2, [pc, #296]	@ (8004cf8 <HAL_RCCEx_PeriphCLKConfig+0x974>)
 8004bce:	f8d5 10a4 	ldr.w	r1, [r5, #164]	@ 0xa4
 8004bd2:	6d93      	ldr	r3, [r2, #88]	@ 0x58
 8004bd4:	f423 53e0 	bic.w	r3, r3, #7168	@ 0x1c00
 8004bd8:	430b      	orrs	r3, r1
 8004bda:	6593      	str	r3, [r2, #88]	@ 0x58
 8004bdc:	e6a5      	b.n	800492a <HAL_RCCEx_PeriphCLKConfig+0x5a6>
 8004bde:	2100      	movs	r1, #0
 8004be0:	f105 0008 	add.w	r0, r5, #8
 8004be4:	f7ff fade 	bl	80041a4 <RCCEx_PLL2_Config>
 8004be8:	4604      	mov	r4, r0
 8004bea:	e7ee      	b.n	8004bca <HAL_RCCEx_PeriphCLKConfig+0x846>
 8004bec:	2102      	movs	r1, #2
 8004bee:	f105 0028 	add.w	r0, r5, #40	@ 0x28
 8004bf2:	f7ff fb4f 	bl	8004294 <RCCEx_PLL3_Config>
 8004bf6:	e7f7      	b.n	8004be8 <HAL_RCCEx_PeriphCLKConfig+0x864>
 8004bf8:	4626      	mov	r6, r4
 8004bfa:	e696      	b.n	800492a <HAL_RCCEx_PeriphCLKConfig+0x5a6>
 8004bfc:	f423 5200 	bic.w	r2, r3, #8192	@ 0x2000
 8004c00:	f5b2 4f00 	cmp.w	r2, #32768	@ 0x8000
 8004c04:	d003      	beq.n	8004c0e <HAL_RCCEx_PeriphCLKConfig+0x88a>
 8004c06:	f5b3 4fc0 	cmp.w	r3, #24576	@ 0x6000
 8004c0a:	f47f aea0 	bne.w	800494e <HAL_RCCEx_PeriphCLKConfig+0x5ca>
 8004c0e:	b9ac      	cbnz	r4, 8004c3c <HAL_RCCEx_PeriphCLKConfig+0x8b8>
 8004c10:	4a39      	ldr	r2, [pc, #228]	@ (8004cf8 <HAL_RCCEx_PeriphCLKConfig+0x974>)
 8004c12:	f8d5 10a8 	ldr.w	r1, [r5, #168]	@ 0xa8
 8004c16:	6d93      	ldr	r3, [r2, #88]	@ 0x58
 8004c18:	f423 4360 	bic.w	r3, r3, #57344	@ 0xe000
 8004c1c:	430b      	orrs	r3, r1
 8004c1e:	6593      	str	r3, [r2, #88]	@ 0x58
 8004c20:	e697      	b.n	8004952 <HAL_RCCEx_PeriphCLKConfig+0x5ce>
 8004c22:	2100      	movs	r1, #0
 8004c24:	f105 0008 	add.w	r0, r5, #8
 8004c28:	f7ff fabc 	bl	80041a4 <RCCEx_PLL2_Config>
 8004c2c:	4604      	mov	r4, r0
 8004c2e:	e7ee      	b.n	8004c0e <HAL_RCCEx_PeriphCLKConfig+0x88a>
 8004c30:	2102      	movs	r1, #2
 8004c32:	f105 0028 	add.w	r0, r5, #40	@ 0x28
 8004c36:	f7ff fb2d 	bl	8004294 <RCCEx_PLL3_Config>
 8004c3a:	e7f7      	b.n	8004c2c <HAL_RCCEx_PeriphCLKConfig+0x8a8>
 8004c3c:	4626      	mov	r6, r4
 8004c3e:	e688      	b.n	8004952 <HAL_RCCEx_PeriphCLKConfig+0x5ce>
 8004c40:	2102      	movs	r1, #2
 8004c42:	f105 0028 	add.w	r0, r5, #40	@ 0x28
 8004c46:	f7ff fb25 	bl	8004294 <RCCEx_PLL3_Config>
 8004c4a:	e6c5      	b.n	80049d8 <HAL_RCCEx_PeriphCLKConfig+0x654>
 8004c4c:	2601      	movs	r6, #1
 8004c4e:	4634      	mov	r4, r6
 8004c50:	e6ce      	b.n	80049f0 <HAL_RCCEx_PeriphCLKConfig+0x66c>
 8004c52:	4626      	mov	r6, r4
 8004c54:	e6cc      	b.n	80049f0 <HAL_RCCEx_PeriphCLKConfig+0x66c>
 8004c56:	4a28      	ldr	r2, [pc, #160]	@ (8004cf8 <HAL_RCCEx_PeriphCLKConfig+0x974>)
 8004c58:	6ad3      	ldr	r3, [r2, #44]	@ 0x2c
 8004c5a:	f443 3300 	orr.w	r3, r3, #131072	@ 0x20000
 8004c5e:	62d3      	str	r3, [r2, #44]	@ 0x2c
 8004c60:	b97c      	cbnz	r4, 8004c82 <HAL_RCCEx_PeriphCLKConfig+0x8fe>
 8004c62:	4a25      	ldr	r2, [pc, #148]	@ (8004cf8 <HAL_RCCEx_PeriphCLKConfig+0x974>)
 8004c64:	f8d5 1090 	ldr.w	r1, [r5, #144]	@ 0x90
 8004c68:	6d53      	ldr	r3, [r2, #84]	@ 0x54
 8004c6a:	f423 1340 	bic.w	r3, r3, #3145728	@ 0x300000
 8004c6e:	430b      	orrs	r3, r1
 8004c70:	6553      	str	r3, [r2, #84]	@ 0x54
 8004c72:	e6d0      	b.n	8004a16 <HAL_RCCEx_PeriphCLKConfig+0x692>
 8004c74:	2101      	movs	r1, #1
 8004c76:	f105 0028 	add.w	r0, r5, #40	@ 0x28
 8004c7a:	f7ff fb0b 	bl	8004294 <RCCEx_PLL3_Config>
 8004c7e:	4604      	mov	r4, r0
 8004c80:	e7ee      	b.n	8004c60 <HAL_RCCEx_PeriphCLKConfig+0x8dc>
 8004c82:	4626      	mov	r6, r4
 8004c84:	e6c7      	b.n	8004a16 <HAL_RCCEx_PeriphCLKConfig+0x692>
 8004c86:	4a1c      	ldr	r2, [pc, #112]	@ (8004cf8 <HAL_RCCEx_PeriphCLKConfig+0x974>)
 8004c88:	6ad3      	ldr	r3, [r2, #44]	@ 0x2c
 8004c8a:	f443 3300 	orr.w	r3, r3, #131072	@ 0x20000
 8004c8e:	62d3      	str	r3, [r2, #44]	@ 0x2c
 8004c90:	b974      	cbnz	r4, 8004cb0 <HAL_RCCEx_PeriphCLKConfig+0x92c>
 8004c92:	4a19      	ldr	r2, [pc, #100]	@ (8004cf8 <HAL_RCCEx_PeriphCLKConfig+0x974>)
 8004c94:	6d29      	ldr	r1, [r5, #80]	@ 0x50
 8004c96:	6cd3      	ldr	r3, [r2, #76]	@ 0x4c
 8004c98:	f423 3380 	bic.w	r3, r3, #65536	@ 0x10000
 8004c9c:	430b      	orrs	r3, r1
 8004c9e:	64d3      	str	r3, [r2, #76]	@ 0x4c
 8004ca0:	e6c6      	b.n	8004a30 <HAL_RCCEx_PeriphCLKConfig+0x6ac>
 8004ca2:	2102      	movs	r1, #2
 8004ca4:	f105 0008 	add.w	r0, r5, #8
 8004ca8:	f7ff fa7c 	bl	80041a4 <RCCEx_PLL2_Config>
 8004cac:	4604      	mov	r4, r0
 8004cae:	e7ef      	b.n	8004c90 <HAL_RCCEx_PeriphCLKConfig+0x90c>
 8004cb0:	4626      	mov	r6, r4
 8004cb2:	e6bd      	b.n	8004a30 <HAL_RCCEx_PeriphCLKConfig+0x6ac>
 8004cb4:	f420 7280 	bic.w	r2, r0, #256	@ 0x100
 8004cb8:	f5b2 7f00 	cmp.w	r2, #512	@ 0x200
 8004cbc:	f47f aed3 	bne.w	8004a66 <HAL_RCCEx_PeriphCLKConfig+0x6e2>
 8004cc0:	2c00      	cmp	r4, #0
 8004cc2:	f47f aed1 	bne.w	8004a68 <HAL_RCCEx_PeriphCLKConfig+0x6e4>
 8004cc6:	4c0c      	ldr	r4, [pc, #48]	@ (8004cf8 <HAL_RCCEx_PeriphCLKConfig+0x974>)
 8004cc8:	6d62      	ldr	r2, [r4, #84]	@ 0x54
 8004cca:	f422 7240 	bic.w	r2, r2, #768	@ 0x300
 8004cce:	4302      	orrs	r2, r0
 8004cd0:	6562      	str	r2, [r4, #84]	@ 0x54
 8004cd2:	4634      	mov	r4, r6
 8004cd4:	e6c8      	b.n	8004a68 <HAL_RCCEx_PeriphCLKConfig+0x6e4>
 8004cd6:	4f08      	ldr	r7, [pc, #32]	@ (8004cf8 <HAL_RCCEx_PeriphCLKConfig+0x974>)
 8004cd8:	6afa      	ldr	r2, [r7, #44]	@ 0x2c
 8004cda:	f442 3200 	orr.w	r2, r2, #131072	@ 0x20000
 8004cde:	62fa      	str	r2, [r7, #44]	@ 0x2c
 8004ce0:	e7ee      	b.n	8004cc0 <HAL_RCCEx_PeriphCLKConfig+0x93c>
 8004ce2:	2102      	movs	r1, #2
 8004ce4:	f105 0028 	add.w	r0, r5, #40	@ 0x28
 8004ce8:	f7ff fad4 	bl	8004294 <RCCEx_PLL3_Config>
 8004cec:	2800      	cmp	r0, #0
 8004cee:	f43f af2f 	beq.w	8004b50 <HAL_RCCEx_PeriphCLKConfig+0x7cc>
 8004cf2:	2001      	movs	r0, #1
 8004cf4:	e72f      	b.n	8004b56 <HAL_RCCEx_PeriphCLKConfig+0x7d2>
 8004cf6:	bf00      	nop
 8004cf8:	58024400 	.word	0x58024400

08004cfc <HAL_RCCEx_GetD3PCLK1Freq>:
 8004cfc:	b508      	push	{r3, lr}
 8004cfe:	f7ff fa1d 	bl	800413c <HAL_RCC_GetHCLKFreq>
 8004d02:	4b05      	ldr	r3, [pc, #20]	@ (8004d18 <HAL_RCCEx_GetD3PCLK1Freq+0x1c>)
 8004d04:	4a05      	ldr	r2, [pc, #20]	@ (8004d1c <HAL_RCCEx_GetD3PCLK1Freq+0x20>)
 8004d06:	6a1b      	ldr	r3, [r3, #32]
 8004d08:	f3c3 1302 	ubfx	r3, r3, #4, #3
 8004d0c:	5cd3      	ldrb	r3, [r2, r3]
 8004d0e:	f003 031f 	and.w	r3, r3, #31
 8004d12:	40d8      	lsrs	r0, r3
 8004d14:	bd08      	pop	{r3, pc}
 8004d16:	bf00      	nop
 8004d18:	58024400 	.word	0x58024400
 8004d1c:	08008d0a 	.word	0x08008d0a

08004d20 <HAL_RCCEx_GetPLL2ClockFreq>:
 8004d20:	494f      	ldr	r1, [pc, #316]	@ (8004e60 <HAL_RCCEx_GetPLL2ClockFreq+0x140>)
 8004d22:	b570      	push	{r4, r5, r6, lr}
 8004d24:	6a8c      	ldr	r4, [r1, #40]	@ 0x28
 8004d26:	6a8e      	ldr	r6, [r1, #40]	@ 0x28
 8004d28:	6acd      	ldr	r5, [r1, #44]	@ 0x2c
 8004d2a:	f416 3f7c 	tst.w	r6, #258048	@ 0x3f000
 8004d2e:	f3c6 3305 	ubfx	r3, r6, #12, #6
 8004d32:	6bca      	ldr	r2, [r1, #60]	@ 0x3c
 8004d34:	f000 8090 	beq.w	8004e58 <HAL_RCCEx_GetPLL2ClockFreq+0x138>
 8004d38:	ee07 3a90 	vmov	s15, r3
 8004d3c:	f3c2 03cc 	ubfx	r3, r2, #3, #13
 8004d40:	f3c5 1200 	ubfx	r2, r5, #4, #1
 8004d44:	f004 0403 	and.w	r4, r4, #3
 8004d48:	eeb8 7ae7 	vcvt.f32.s32	s14, s15
 8004d4c:	4353      	muls	r3, r2
 8004d4e:	2c01      	cmp	r4, #1
 8004d50:	eeb7 6a00 	vmov.f32	s12, #112	@ 0x3f800000  1.0
 8004d54:	ee06 3a90 	vmov	s13, r3
 8004d58:	eefa 6ae9 	vcvt.f32.s32	s13, s13, #13
 8004d5c:	d06e      	beq.n	8004e3c <HAL_RCCEx_GetPLL2ClockFreq+0x11c>
 8004d5e:	2c02      	cmp	r4, #2
 8004d60:	d05e      	beq.n	8004e20 <HAL_RCCEx_GetPLL2ClockFreq+0x100>
 8004d62:	2c00      	cmp	r4, #0
 8004d64:	d16a      	bne.n	8004e3c <HAL_RCCEx_GetPLL2ClockFreq+0x11c>
 8004d66:	680b      	ldr	r3, [r1, #0]
 8004d68:	069b      	lsls	r3, r3, #26
 8004d6a:	d547      	bpl.n	8004dfc <HAL_RCCEx_GetPLL2ClockFreq+0xdc>
 8004d6c:	680a      	ldr	r2, [r1, #0]
 8004d6e:	6b8b      	ldr	r3, [r1, #56]	@ 0x38
 8004d70:	f3c2 01c1 	ubfx	r1, r2, #3, #2
 8004d74:	4a3b      	ldr	r2, [pc, #236]	@ (8004e64 <HAL_RCCEx_GetPLL2ClockFreq+0x144>)
 8004d76:	f3c3 0308 	ubfx	r3, r3, #0, #9
 8004d7a:	40ca      	lsrs	r2, r1
 8004d7c:	ee07 2a90 	vmov	s15, r2
 8004d80:	eef8 5ae7 	vcvt.f32.s32	s11, s15
 8004d84:	eec5 7a87 	vdiv.f32	s15, s11, s14
 8004d88:	ee07 3a10 	vmov	s14, r3
 8004d8c:	eeb8 7ac7 	vcvt.f32.s32	s14, s14
 8004d90:	ee37 7a26 	vadd.f32	s14, s14, s13
 8004d94:	ee37 7a06 	vadd.f32	s14, s14, s12
 8004d98:	ee67 7a87 	vmul.f32	s15, s15, s14
 8004d9c:	4a30      	ldr	r2, [pc, #192]	@ (8004e60 <HAL_RCCEx_GetPLL2ClockFreq+0x140>)
 8004d9e:	6b93      	ldr	r3, [r2, #56]	@ 0x38
 8004da0:	f3c3 2346 	ubfx	r3, r3, #9, #7
 8004da4:	ee07 3a10 	vmov	s14, r3
 8004da8:	eeb8 7ac7 	vcvt.f32.s32	s14, s14
 8004dac:	ee37 7a06 	vadd.f32	s14, s14, s12
 8004db0:	eec7 6a87 	vdiv.f32	s13, s15, s14
 8004db4:	eefc 6ae6 	vcvt.u32.f32	s13, s13
 8004db8:	edc0 6a00 	vstr	s13, [r0]
 8004dbc:	6b93      	ldr	r3, [r2, #56]	@ 0x38
 8004dbe:	f3c3 4306 	ubfx	r3, r3, #16, #7
 8004dc2:	ee07 3a10 	vmov	s14, r3
 8004dc6:	eeb8 7ac7 	vcvt.f32.s32	s14, s14
 8004dca:	ee37 7a06 	vadd.f32	s14, s14, s12
 8004dce:	eec7 6a87 	vdiv.f32	s13, s15, s14
 8004dd2:	eefc 6ae6 	vcvt.u32.f32	s13, s13
 8004dd6:	edc0 6a01 	vstr	s13, [r0, #4]
 8004dda:	6b93      	ldr	r3, [r2, #56]	@ 0x38
 8004ddc:	f3c3 6306 	ubfx	r3, r3, #24, #7
 8004de0:	ee06 3a90 	vmov	s13, r3
 8004de4:	eef8 6ae6 	vcvt.f32.s32	s13, s13
 8004de8:	ee76 6a86 	vadd.f32	s13, s13, s12
 8004dec:	ee87 7aa6 	vdiv.f32	s14, s15, s13
 8004df0:	eefc 7ac7 	vcvt.u32.f32	s15, s14
 8004df4:	ee17 3a90 	vmov	r3, s15
 8004df8:	6083      	str	r3, [r0, #8]
 8004dfa:	bd70      	pop	{r4, r5, r6, pc}
 8004dfc:	6b8b      	ldr	r3, [r1, #56]	@ 0x38
 8004dfe:	eddf 5a1a 	vldr	s11, [pc, #104]	@ 8004e68 <HAL_RCCEx_GetPLL2ClockFreq+0x148>
 8004e02:	f3c3 0308 	ubfx	r3, r3, #0, #9
 8004e06:	ee07 3a90 	vmov	s15, r3
 8004e0a:	eef8 7ae7 	vcvt.f32.s32	s15, s15
 8004e0e:	ee77 7aa6 	vadd.f32	s15, s15, s13
 8004e12:	ee77 7a86 	vadd.f32	s15, s15, s12
 8004e16:	eec5 6a87 	vdiv.f32	s13, s11, s14
 8004e1a:	ee67 7aa6 	vmul.f32	s15, s15, s13
 8004e1e:	e7bd      	b.n	8004d9c <HAL_RCCEx_GetPLL2ClockFreq+0x7c>
 8004e20:	6b8b      	ldr	r3, [r1, #56]	@ 0x38
 8004e22:	eddf 5a12 	vldr	s11, [pc, #72]	@ 8004e6c <HAL_RCCEx_GetPLL2ClockFreq+0x14c>
 8004e26:	f3c3 0308 	ubfx	r3, r3, #0, #9
 8004e2a:	ee07 3a90 	vmov	s15, r3
 8004e2e:	eef8 7ae7 	vcvt.f32.s32	s15, s15
 8004e32:	ee77 7aa6 	vadd.f32	s15, s15, s13
 8004e36:	ee77 7a86 	vadd.f32	s15, s15, s12
 8004e3a:	e7ec      	b.n	8004e16 <HAL_RCCEx_GetPLL2ClockFreq+0xf6>
 8004e3c:	6b8b      	ldr	r3, [r1, #56]	@ 0x38
 8004e3e:	eddf 5a0c 	vldr	s11, [pc, #48]	@ 8004e70 <HAL_RCCEx_GetPLL2ClockFreq+0x150>
 8004e42:	f3c3 0308 	ubfx	r3, r3, #0, #9
 8004e46:	ee07 3a90 	vmov	s15, r3
 8004e4a:	eef8 7ae7 	vcvt.f32.s32	s15, s15
 8004e4e:	ee77 7aa6 	vadd.f32	s15, s15, s13
 8004e52:	ee77 7a86 	vadd.f32	s15, s15, s12
 8004e56:	e7de      	b.n	8004e16 <HAL_RCCEx_GetPLL2ClockFreq+0xf6>
 8004e58:	e9c0 3300 	strd	r3, r3, [r0]
 8004e5c:	e7cc      	b.n	8004df8 <HAL_RCCEx_GetPLL2ClockFreq+0xd8>
 8004e5e:	bf00      	nop
 8004e60:	58024400 	.word	0x58024400
 8004e64:	03d09000 	.word	0x03d09000
 8004e68:	4c742400 	.word	0x4c742400
 8004e6c:	4bbebc20 	.word	0x4bbebc20
 8004e70:	4a742400 	.word	0x4a742400

08004e74 <HAL_RCCEx_GetPLL3ClockFreq>:
 8004e74:	494f      	ldr	r1, [pc, #316]	@ (8004fb4 <HAL_RCCEx_GetPLL3ClockFreq+0x140>)
 8004e76:	b570      	push	{r4, r5, r6, lr}
 8004e78:	6a8c      	ldr	r4, [r1, #40]	@ 0x28
 8004e7a:	6a8e      	ldr	r6, [r1, #40]	@ 0x28
 8004e7c:	6acd      	ldr	r5, [r1, #44]	@ 0x2c
 8004e7e:	f016 7f7c 	tst.w	r6, #66060288	@ 0x3f00000
 8004e82:	f3c6 5305 	ubfx	r3, r6, #20, #6
 8004e86:	6c4a      	ldr	r2, [r1, #68]	@ 0x44
 8004e88:	f000 8090 	beq.w	8004fac <HAL_RCCEx_GetPLL3ClockFreq+0x138>
 8004e8c:	ee07 3a90 	vmov	s15, r3
 8004e90:	f3c2 03cc 	ubfx	r3, r2, #3, #13
 8004e94:	f3c5 2200 	ubfx	r2, r5, #8, #1
 8004e98:	f004 0403 	and.w	r4, r4, #3
 8004e9c:	eeb8 7ae7 	vcvt.f32.s32	s14, s15
 8004ea0:	4353      	muls	r3, r2
 8004ea2:	2c01      	cmp	r4, #1
 8004ea4:	eeb7 6a00 	vmov.f32	s12, #112	@ 0x3f800000  1.0
 8004ea8:	ee06 3a90 	vmov	s13, r3
 8004eac:	eefa 6ae9 	vcvt.f32.s32	s13, s13, #13
 8004eb0:	d06e      	beq.n	8004f90 <HAL_RCCEx_GetPLL3ClockFreq+0x11c>
 8004eb2:	2c02      	cmp	r4, #2
 8004eb4:	d05e      	beq.n	8004f74 <HAL_RCCEx_GetPLL3ClockFreq+0x100>
 8004eb6:	2c00      	cmp	r4, #0
 8004eb8:	d16a      	bne.n	8004f90 <HAL_RCCEx_GetPLL3ClockFreq+0x11c>
 8004eba:	680b      	ldr	r3, [r1, #0]
 8004ebc:	069b      	lsls	r3, r3, #26
 8004ebe:	d547      	bpl.n	8004f50 <HAL_RCCEx_GetPLL3ClockFreq+0xdc>
 8004ec0:	680a      	ldr	r2, [r1, #0]
 8004ec2:	6c0b      	ldr	r3, [r1, #64]	@ 0x40
 8004ec4:	f3c2 01c1 	ubfx	r1, r2, #3, #2
 8004ec8:	4a3b      	ldr	r2, [pc, #236]	@ (8004fb8 <HAL_RCCEx_GetPLL3ClockFreq+0x144>)
 8004eca:	f3c3 0308 	ubfx	r3, r3, #0, #9
 8004ece:	40ca      	lsrs	r2, r1
 8004ed0:	ee07 2a90 	vmov	s15, r2
 8004ed4:	eef8 5ae7 	vcvt.f32.s32	s11, s15
 8004ed8:	eec5 7a87 	vdiv.f32	s15, s11, s14
 8004edc:	ee07 3a10 	vmov	s14, r3
 8004ee0:	eeb8 7ac7 	vcvt.f32.s32	s14, s14
 8004ee4:	ee37 7a26 	vadd.f32	s14, s14, s13
 8004ee8:	ee37 7a06 	vadd.f32	s14, s14, s12
 8004eec:	ee67 7a87 	vmul.f32	s15, s15, s14
 8004ef0:	4a30      	ldr	r2, [pc, #192]	@ (8004fb4 <HAL_RCCEx_GetPLL3ClockFreq+0x140>)
 8004ef2:	6c13      	ldr	r3, [r2, #64]	@ 0x40
 8004ef4:	f3c3 2346 	ubfx	r3, r3, #9, #7
 8004ef8:	ee07 3a10 	vmov	s14, r3
 8004efc:	eeb8 7ac7 	vcvt.f32.s32	s14, s14
 8004f00:	ee37 7a06 	vadd.f32	s14, s14, s12
 8004f04:	eec7 6a87 	vdiv.f32	s13, s15, s14
 8004f08:	eefc 6ae6 	vcvt.u32.f32	s13, s13
 8004f0c:	edc0 6a00 	vstr	s13, [r0]
 8004f10:	6c13      	ldr	r3, [r2, #64]	@ 0x40
 8004f12:	f3c3 4306 	ubfx	r3, r3, #16, #7
 8004f16:	ee07 3a10 	vmov	s14, r3
 8004f1a:	eeb8 7ac7 	vcvt.f32.s32	s14, s14
 8004f1e:	ee37 7a06 	vadd.f32	s14, s14, s12
 8004f22:	eec7 6a87 	vdiv.f32	s13, s15, s14
 8004f26:	eefc 6ae6 	vcvt.u32.f32	s13, s13
 8004f2a:	edc0 6a01 	vstr	s13, [r0, #4]
 8004f2e:	6c13      	ldr	r3, [r2, #64]	@ 0x40
 8004f30:	f3c3 6306 	ubfx	r3, r3, #24, #7
 8004f34:	ee06 3a90 	vmov	s13, r3
 8004f38:	eef8 6ae6 	vcvt.f32.s32	s13, s13
 8004f3c:	ee76 6a86 	vadd.f32	s13, s13, s12
 8004f40:	ee87 7aa6 	vdiv.f32	s14, s15, s13
 8004f44:	eefc 7ac7 	vcvt.u32.f32	s15, s14
 8004f48:	ee17 3a90 	vmov	r3, s15
 8004f4c:	6083      	str	r3, [r0, #8]
 8004f4e:	bd70      	pop	{r4, r5, r6, pc}
 8004f50:	6c0b      	ldr	r3, [r1, #64]	@ 0x40
 8004f52:	eddf 5a1a 	vldr	s11, [pc, #104]	@ 8004fbc <HAL_RCCEx_GetPLL3ClockFreq+0x148>
 8004f56:	f3c3 0308 	ubfx	r3, r3, #0, #9
 8004f5a:	ee07 3a90 	vmov	s15, r3
 8004f5e:	eef8 7ae7 	vcvt.f32.s32	s15, s15
 8004f62:	ee77 7aa6 	vadd.f32	s15, s15, s13
 8004f66:	ee77 7a86 	vadd.f32	s15, s15, s12
 8004f6a:	eec5 6a87 	vdiv.f32	s13, s11, s14
 8004f6e:	ee67 7aa6 	vmul.f32	s15, s15, s13
 8004f72:	e7bd      	b.n	8004ef0 <HAL_RCCEx_GetPLL3ClockFreq+0x7c>
 8004f74:	6c0b      	ldr	r3, [r1, #64]	@ 0x40
 8004f76:	eddf 5a12 	vldr	s11, [pc, #72]	@ 8004fc0 <HAL_RCCEx_GetPLL3ClockFreq+0x14c>
 8004f7a:	f3c3 0308 	ubfx	r3, r3, #0, #9
 8004f7e:	ee07 3a90 	vmov	s15, r3
 8004f82:	eef8 7ae7 	vcvt.f32.s32	s15, s15
 8004f86:	ee77 7aa6 	vadd.f32	s15, s15, s13
 8004f8a:	ee77 7a86 	vadd.f32	s15, s15, s12
 8004f8e:	e7ec      	b.n	8004f6a <HAL_RCCEx_GetPLL3ClockFreq+0xf6>
 8004f90:	6c0b      	ldr	r3, [r1, #64]	@ 0x40
 8004f92:	eddf 5a0c 	vldr	s11, [pc, #48]	@ 8004fc4 <HAL_RCCEx_GetPLL3ClockFreq+0x150>
 8004f96:	f3c3 0308 	ubfx	r3, r3, #0, #9
 8004f9a:	ee07 3a90 	vmov	s15, r3
 8004f9e:	eef8 7ae7 	vcvt.f32.s32	s15, s15
 8004fa2:	ee77 7aa6 	vadd.f32	s15, s15, s13
 8004fa6:	ee77 7a86 	vadd.f32	s15, s15, s12
 8004faa:	e7de      	b.n	8004f6a <HAL_RCCEx_GetPLL3ClockFreq+0xf6>
 8004fac:	e9c0 3300 	strd	r3, r3, [r0]
 8004fb0:	e7cc      	b.n	8004f4c <HAL_RCCEx_GetPLL3ClockFreq+0xd8>
 8004fb2:	bf00      	nop
 8004fb4:	58024400 	.word	0x58024400
 8004fb8:	03d09000 	.word	0x03d09000
 8004fbc:	4c742400 	.word	0x4c742400
 8004fc0:	4bbebc20 	.word	0x4bbebc20
 8004fc4:	4a742400 	.word	0x4a742400

08004fc8 <HAL_RCCEx_GetPLL1ClockFreq>:
 8004fc8:	494f      	ldr	r1, [pc, #316]	@ (8005108 <HAL_RCCEx_GetPLL1ClockFreq+0x140>)
 8004fca:	b570      	push	{r4, r5, r6, lr}
 8004fcc:	6a8c      	ldr	r4, [r1, #40]	@ 0x28
 8004fce:	6a8e      	ldr	r6, [r1, #40]	@ 0x28
 8004fd0:	6acd      	ldr	r5, [r1, #44]	@ 0x2c
 8004fd2:	f416 7f7c 	tst.w	r6, #1008	@ 0x3f0
 8004fd6:	f3c6 1305 	ubfx	r3, r6, #4, #6
 8004fda:	6b4a      	ldr	r2, [r1, #52]	@ 0x34
 8004fdc:	f000 8090 	beq.w	8005100 <HAL_RCCEx_GetPLL1ClockFreq+0x138>
 8004fe0:	ee07 3a90 	vmov	s15, r3
 8004fe4:	f3c2 03cc 	ubfx	r3, r2, #3, #13
 8004fe8:	f005 0201 	and.w	r2, r5, #1
 8004fec:	f004 0403 	and.w	r4, r4, #3
 8004ff0:	eeb8 7ae7 	vcvt.f32.s32	s14, s15
 8004ff4:	4353      	muls	r3, r2
 8004ff6:	2c01      	cmp	r4, #1
 8004ff8:	eeb7 6a00 	vmov.f32	s12, #112	@ 0x3f800000  1.0
 8004ffc:	ee06 3a90 	vmov	s13, r3
 8005000:	eefa 6ae9 	vcvt.f32.s32	s13, s13, #13
 8005004:	d04e      	beq.n	80050a4 <HAL_RCCEx_GetPLL1ClockFreq+0xdc>
 8005006:	2c02      	cmp	r4, #2
 8005008:	d05e      	beq.n	80050c8 <HAL_RCCEx_GetPLL1ClockFreq+0x100>
 800500a:	2c00      	cmp	r4, #0
 800500c:	d16a      	bne.n	80050e4 <HAL_RCCEx_GetPLL1ClockFreq+0x11c>
 800500e:	680b      	ldr	r3, [r1, #0]
 8005010:	069b      	lsls	r3, r3, #26
 8005012:	d567      	bpl.n	80050e4 <HAL_RCCEx_GetPLL1ClockFreq+0x11c>
 8005014:	680a      	ldr	r2, [r1, #0]
 8005016:	6b0b      	ldr	r3, [r1, #48]	@ 0x30
 8005018:	f3c2 01c1 	ubfx	r1, r2, #3, #2
 800501c:	4a3b      	ldr	r2, [pc, #236]	@ (800510c <HAL_RCCEx_GetPLL1ClockFreq+0x144>)
 800501e:	f3c3 0308 	ubfx	r3, r3, #0, #9
 8005022:	40ca      	lsrs	r2, r1
 8005024:	ee07 2a90 	vmov	s15, r2
 8005028:	eef8 5ae7 	vcvt.f32.s32	s11, s15
 800502c:	eec5 7a87 	vdiv.f32	s15, s11, s14
 8005030:	ee07 3a10 	vmov	s14, r3
 8005034:	eeb8 7ac7 	vcvt.f32.s32	s14, s14
 8005038:	ee37 7a26 	vadd.f32	s14, s14, s13
 800503c:	ee37 7a06 	vadd.f32	s14, s14, s12
 8005040:	ee67 7a87 	vmul.f32	s15, s15, s14
 8005044:	4a30      	ldr	r2, [pc, #192]	@ (8005108 <HAL_RCCEx_GetPLL1ClockFreq+0x140>)
 8005046:	6b13      	ldr	r3, [r2, #48]	@ 0x30
 8005048:	f3c3 2346 	ubfx	r3, r3, #9, #7
 800504c:	ee07 3a10 	vmov	s14, r3
 8005050:	eeb8 7ac7 	vcvt.f32.s32	s14, s14
 8005054:	ee37 7a06 	vadd.f32	s14, s14, s12
 8005058:	eec7 6a87 	vdiv.f32	s13, s15, s14
 800505c:	eefc 6ae6 	vcvt.u32.f32	s13, s13
 8005060:	edc0 6a00 	vstr	s13, [r0]
 8005064:	6b13      	ldr	r3, [r2, #48]	@ 0x30
 8005066:	f3c3 4306 	ubfx	r3, r3, #16, #7
 800506a:	ee07 3a10 	vmov	s14, r3
 800506e:	eeb8 7ac7 	vcvt.f32.s32	s14, s14
 8005072:	ee37 7a06 	vadd.f32	s14, s14, s12
 8005076:	eec7 6a87 	vdiv.f32	s13, s15, s14
 800507a:	eefc 6ae6 	vcvt.u32.f32	s13, s13
 800507e:	edc0 6a01 	vstr	s13, [r0, #4]
 8005082:	6b13      	ldr	r3, [r2, #48]	@ 0x30
 8005084:	f3c3 6306 	ubfx	r3, r3, #24, #7
 8005088:	ee06 3a90 	vmov	s13, r3
 800508c:	eef8 6ae6 	vcvt.f32.s32	s13, s13
 8005090:	ee76 6a86 	vadd.f32	s13, s13, s12
 8005094:	ee87 7aa6 	vdiv.f32	s14, s15, s13
 8005098:	eefc 7ac7 	vcvt.u32.f32	s15, s14
 800509c:	ee17 3a90 	vmov	r3, s15
 80050a0:	6083      	str	r3, [r0, #8]
 80050a2:	bd70      	pop	{r4, r5, r6, pc}
 80050a4:	6b0b      	ldr	r3, [r1, #48]	@ 0x30
 80050a6:	eddf 5a1a 	vldr	s11, [pc, #104]	@ 8005110 <HAL_RCCEx_GetPLL1ClockFreq+0x148>
 80050aa:	f3c3 0308 	ubfx	r3, r3, #0, #9
 80050ae:	ee07 3a90 	vmov	s15, r3
 80050b2:	eef8 7ae7 	vcvt.f32.s32	s15, s15
 80050b6:	ee77 7aa6 	vadd.f32	s15, s15, s13
 80050ba:	ee77 7a86 	vadd.f32	s15, s15, s12
 80050be:	eec5 6a87 	vdiv.f32	s13, s11, s14
 80050c2:	ee67 7aa6 	vmul.f32	s15, s15, s13
 80050c6:	e7bd      	b.n	8005044 <HAL_RCCEx_GetPLL1ClockFreq+0x7c>
 80050c8:	6b0b      	ldr	r3, [r1, #48]	@ 0x30
 80050ca:	eddf 5a12 	vldr	s11, [pc, #72]	@ 8005114 <HAL_RCCEx_GetPLL1ClockFreq+0x14c>
 80050ce:	f3c3 0308 	ubfx	r3, r3, #0, #9
 80050d2:	ee07 3a90 	vmov	s15, r3
 80050d6:	eef8 7ae7 	vcvt.f32.s32	s15, s15
 80050da:	ee77 7aa6 	vadd.f32	s15, s15, s13
 80050de:	ee77 7a86 	vadd.f32	s15, s15, s12
 80050e2:	e7ec      	b.n	80050be <HAL_RCCEx_GetPLL1ClockFreq+0xf6>
 80050e4:	6b0b      	ldr	r3, [r1, #48]	@ 0x30
 80050e6:	eddf 5a0c 	vldr	s11, [pc, #48]	@ 8005118 <HAL_RCCEx_GetPLL1ClockFreq+0x150>
 80050ea:	f3c3 0308 	ubfx	r3, r3, #0, #9
 80050ee:	ee07 3a90 	vmov	s15, r3
 80050f2:	eef8 7ae7 	vcvt.f32.s32	s15, s15
 80050f6:	ee77 7aa6 	vadd.f32	s15, s15, s13
 80050fa:	ee77 7a86 	vadd.f32	s15, s15, s12
 80050fe:	e7de      	b.n	80050be <HAL_RCCEx_GetPLL1ClockFreq+0xf6>
 8005100:	e9c0 3300 	strd	r3, r3, [r0]
 8005104:	e7cc      	b.n	80050a0 <HAL_RCCEx_GetPLL1ClockFreq+0xd8>
 8005106:	bf00      	nop
 8005108:	58024400 	.word	0x58024400
 800510c:	03d09000 	.word	0x03d09000
 8005110:	4a742400 	.word	0x4a742400
 8005114:	4bbebc20 	.word	0x4bbebc20
 8005118:	4c742400 	.word	0x4c742400

0800511c <HAL_RCCEx_GetPeriphCLKFreq>:
 800511c:	b51f      	push	{r0, r1, r2, r3, r4, lr}
 800511e:	f5a0 7380 	sub.w	r3, r0, #256	@ 0x100
 8005122:	430b      	orrs	r3, r1
 8005124:	d114      	bne.n	8005150 <HAL_RCCEx_GetPeriphCLKFreq+0x34>
 8005126:	4b9d      	ldr	r3, [pc, #628]	@ (800539c <HAL_RCCEx_GetPeriphCLKFreq+0x280>)
 8005128:	6d1a      	ldr	r2, [r3, #80]	@ 0x50
 800512a:	f002 0207 	and.w	r2, r2, #7
 800512e:	2a04      	cmp	r2, #4
 8005130:	d82f      	bhi.n	8005192 <HAL_RCCEx_GetPeriphCLKFreq+0x76>
 8005132:	e8df f012 	tbh	[pc, r2, lsl #1]
 8005136:	00ed      	.short	0x00ed
 8005138:	0005001d 	.word	0x0005001d
 800513c:	00490153 	.word	0x00490153
 8005140:	6818      	ldr	r0, [r3, #0]
 8005142:	f010 5000 	ands.w	r0, r0, #536870912	@ 0x20000000
 8005146:	d01b      	beq.n	8005180 <HAL_RCCEx_GetPeriphCLKFreq+0x64>
 8005148:	a801      	add	r0, sp, #4
 800514a:	f7ff fe93 	bl	8004e74 <HAL_RCCEx_GetPLL3ClockFreq>
 800514e:	e016      	b.n	800517e <HAL_RCCEx_GetPeriphCLKFreq+0x62>
 8005150:	f5a0 7300 	sub.w	r3, r0, #512	@ 0x200
 8005154:	430b      	orrs	r3, r1
 8005156:	d11e      	bne.n	8005196 <HAL_RCCEx_GetPeriphCLKFreq+0x7a>
 8005158:	4b90      	ldr	r3, [pc, #576]	@ (800539c <HAL_RCCEx_GetPeriphCLKFreq+0x280>)
 800515a:	6d1a      	ldr	r2, [r3, #80]	@ 0x50
 800515c:	f402 72e0 	and.w	r2, r2, #448	@ 0x1c0
 8005160:	2a80      	cmp	r2, #128	@ 0x80
 8005162:	d0ed      	beq.n	8005140 <HAL_RCCEx_GetPeriphCLKFreq+0x24>
 8005164:	d80f      	bhi.n	8005186 <HAL_RCCEx_GetPeriphCLKFreq+0x6a>
 8005166:	2a00      	cmp	r2, #0
 8005168:	f000 80d2 	beq.w	8005310 <HAL_RCCEx_GetPeriphCLKFreq+0x1f4>
 800516c:	2a40      	cmp	r2, #64	@ 0x40
 800516e:	d110      	bne.n	8005192 <HAL_RCCEx_GetPeriphCLKFreq+0x76>
 8005170:	6818      	ldr	r0, [r3, #0]
 8005172:	f010 6000 	ands.w	r0, r0, #134217728	@ 0x8000000
 8005176:	d003      	beq.n	8005180 <HAL_RCCEx_GetPeriphCLKFreq+0x64>
 8005178:	a801      	add	r0, sp, #4
 800517a:	f7ff fdd1 	bl	8004d20 <HAL_RCCEx_GetPLL2ClockFreq>
 800517e:	9801      	ldr	r0, [sp, #4]
 8005180:	b005      	add	sp, #20
 8005182:	f85d fb04 	ldr.w	pc, [sp], #4
 8005186:	2ac0      	cmp	r2, #192	@ 0xc0
 8005188:	f000 8128 	beq.w	80053dc <HAL_RCCEx_GetPeriphCLKFreq+0x2c0>
 800518c:	f5b2 7f80 	cmp.w	r2, #256	@ 0x100
 8005190:	d01a      	beq.n	80051c8 <HAL_RCCEx_GetPeriphCLKFreq+0xac>
 8005192:	2000      	movs	r0, #0
 8005194:	e7f4      	b.n	8005180 <HAL_RCCEx_GetPeriphCLKFreq+0x64>
 8005196:	f5a0 6380 	sub.w	r3, r0, #1024	@ 0x400
 800519a:	430b      	orrs	r3, r1
 800519c:	d133      	bne.n	8005206 <HAL_RCCEx_GetPeriphCLKFreq+0xea>
 800519e:	4b7f      	ldr	r3, [pc, #508]	@ (800539c <HAL_RCCEx_GetPeriphCLKFreq+0x280>)
 80051a0:	6d1a      	ldr	r2, [r3, #80]	@ 0x50
 80051a2:	f402 6260 	and.w	r2, r2, #3584	@ 0xe00
 80051a6:	f5b2 6f80 	cmp.w	r2, #1024	@ 0x400
 80051aa:	d0c9      	beq.n	8005140 <HAL_RCCEx_GetPeriphCLKFreq+0x24>
 80051ac:	d805      	bhi.n	80051ba <HAL_RCCEx_GetPeriphCLKFreq+0x9e>
 80051ae:	2a00      	cmp	r2, #0
 80051b0:	f000 80ae 	beq.w	8005310 <HAL_RCCEx_GetPeriphCLKFreq+0x1f4>
 80051b4:	f5b2 7f00 	cmp.w	r2, #512	@ 0x200
 80051b8:	e7d9      	b.n	800516e <HAL_RCCEx_GetPeriphCLKFreq+0x52>
 80051ba:	f5b2 6fc0 	cmp.w	r2, #1536	@ 0x600
 80051be:	f000 810d 	beq.w	80053dc <HAL_RCCEx_GetPeriphCLKFreq+0x2c0>
 80051c2:	f5b2 6f00 	cmp.w	r2, #2048	@ 0x800
 80051c6:	e7e3      	b.n	8005190 <HAL_RCCEx_GetPeriphCLKFreq+0x74>
 80051c8:	6cda      	ldr	r2, [r3, #76]	@ 0x4c
 80051ca:	6819      	ldr	r1, [r3, #0]
 80051cc:	f002 5240 	and.w	r2, r2, #805306368	@ 0x30000000
 80051d0:	0748      	lsls	r0, r1, #29
 80051d2:	d506      	bpl.n	80051e2 <HAL_RCCEx_GetPeriphCLKFreq+0xc6>
 80051d4:	b92a      	cbnz	r2, 80051e2 <HAL_RCCEx_GetPeriphCLKFreq+0xc6>
 80051d6:	681b      	ldr	r3, [r3, #0]
 80051d8:	f3c3 03c1 	ubfx	r3, r3, #3, #2
 80051dc:	4870      	ldr	r0, [pc, #448]	@ (80053a0 <HAL_RCCEx_GetPeriphCLKFreq+0x284>)
 80051de:	40d8      	lsrs	r0, r3
 80051e0:	e7ce      	b.n	8005180 <HAL_RCCEx_GetPeriphCLKFreq+0x64>
 80051e2:	4b6e      	ldr	r3, [pc, #440]	@ (800539c <HAL_RCCEx_GetPeriphCLKFreq+0x280>)
 80051e4:	6819      	ldr	r1, [r3, #0]
 80051e6:	05c9      	lsls	r1, r1, #23
 80051e8:	d503      	bpl.n	80051f2 <HAL_RCCEx_GetPeriphCLKFreq+0xd6>
 80051ea:	f1b2 5f80 	cmp.w	r2, #268435456	@ 0x10000000
 80051ee:	f000 80f3 	beq.w	80053d8 <HAL_RCCEx_GetPeriphCLKFreq+0x2bc>
 80051f2:	6818      	ldr	r0, [r3, #0]
 80051f4:	f410 3000 	ands.w	r0, r0, #131072	@ 0x20000
 80051f8:	d0c2      	beq.n	8005180 <HAL_RCCEx_GetPeriphCLKFreq+0x64>
 80051fa:	f1b2 5f00 	cmp.w	r2, #536870912	@ 0x20000000
 80051fe:	4869      	ldr	r0, [pc, #420]	@ (80053a4 <HAL_RCCEx_GetPeriphCLKFreq+0x288>)
 8005200:	bf18      	it	ne
 8005202:	2000      	movne	r0, #0
 8005204:	e7bc      	b.n	8005180 <HAL_RCCEx_GetPeriphCLKFreq+0x64>
 8005206:	f5a0 5380 	sub.w	r3, r0, #4096	@ 0x1000
 800520a:	430b      	orrs	r3, r1
 800520c:	d124      	bne.n	8005258 <HAL_RCCEx_GetPeriphCLKFreq+0x13c>
 800520e:	4b63      	ldr	r3, [pc, #396]	@ (800539c <HAL_RCCEx_GetPeriphCLKFreq+0x280>)
 8005210:	6d1a      	ldr	r2, [r3, #80]	@ 0x50
 8005212:	f402 42e0 	and.w	r2, r2, #28672	@ 0x7000
 8005216:	f5b2 5f00 	cmp.w	r2, #8192	@ 0x2000
 800521a:	d091      	beq.n	8005140 <HAL_RCCEx_GetPeriphCLKFreq+0x24>
 800521c:	d804      	bhi.n	8005228 <HAL_RCCEx_GetPeriphCLKFreq+0x10c>
 800521e:	2a00      	cmp	r2, #0
 8005220:	d076      	beq.n	8005310 <HAL_RCCEx_GetPeriphCLKFreq+0x1f4>
 8005222:	f5b2 5f80 	cmp.w	r2, #4096	@ 0x1000
 8005226:	e7a2      	b.n	800516e <HAL_RCCEx_GetPeriphCLKFreq+0x52>
 8005228:	f5b2 5f40 	cmp.w	r2, #12288	@ 0x3000
 800522c:	f000 80d6 	beq.w	80053dc <HAL_RCCEx_GetPeriphCLKFreq+0x2c0>
 8005230:	f5b2 4f80 	cmp.w	r2, #16384	@ 0x4000
 8005234:	d1ad      	bne.n	8005192 <HAL_RCCEx_GetPeriphCLKFreq+0x76>
 8005236:	6cda      	ldr	r2, [r3, #76]	@ 0x4c
 8005238:	6819      	ldr	r1, [r3, #0]
 800523a:	f002 5240 	and.w	r2, r2, #805306368	@ 0x30000000
 800523e:	681b      	ldr	r3, [r3, #0]
 8005240:	0748      	lsls	r0, r1, #29
 8005242:	d501      	bpl.n	8005248 <HAL_RCCEx_GetPeriphCLKFreq+0x12c>
 8005244:	2a00      	cmp	r2, #0
 8005246:	d0c7      	beq.n	80051d8 <HAL_RCCEx_GetPeriphCLKFreq+0xbc>
 8005248:	05d9      	lsls	r1, r3, #23
 800524a:	d503      	bpl.n	8005254 <HAL_RCCEx_GetPeriphCLKFreq+0x138>
 800524c:	f1b2 5f80 	cmp.w	r2, #268435456	@ 0x10000000
 8005250:	f000 80c2 	beq.w	80053d8 <HAL_RCCEx_GetPeriphCLKFreq+0x2bc>
 8005254:	4b51      	ldr	r3, [pc, #324]	@ (800539c <HAL_RCCEx_GetPeriphCLKFreq+0x280>)
 8005256:	e7cc      	b.n	80051f2 <HAL_RCCEx_GetPeriphCLKFreq+0xd6>
 8005258:	f5a0 5300 	sub.w	r3, r0, #8192	@ 0x2000
 800525c:	430b      	orrs	r3, r1
 800525e:	d133      	bne.n	80052c8 <HAL_RCCEx_GetPeriphCLKFreq+0x1ac>
 8005260:	4a4e      	ldr	r2, [pc, #312]	@ (800539c <HAL_RCCEx_GetPeriphCLKFreq+0x280>)
 8005262:	6d13      	ldr	r3, [r2, #80]	@ 0x50
 8005264:	f403 23e0 	and.w	r3, r3, #458752	@ 0x70000
 8005268:	f5b3 3f40 	cmp.w	r3, #196608	@ 0x30000
 800526c:	f000 808e 	beq.w	800538c <HAL_RCCEx_GetPeriphCLKFreq+0x270>
 8005270:	d80c      	bhi.n	800528c <HAL_RCCEx_GetPeriphCLKFreq+0x170>
 8005272:	f5b3 3f80 	cmp.w	r3, #65536	@ 0x10000
 8005276:	d015      	beq.n	80052a4 <HAL_RCCEx_GetPeriphCLKFreq+0x188>
 8005278:	f5b3 3f00 	cmp.w	r3, #131072	@ 0x20000
 800527c:	d01b      	beq.n	80052b6 <HAL_RCCEx_GetPeriphCLKFreq+0x19a>
 800527e:	2b00      	cmp	r3, #0
 8005280:	d187      	bne.n	8005192 <HAL_RCCEx_GetPeriphCLKFreq+0x76>
 8005282:	b005      	add	sp, #20
 8005284:	f85d eb04 	ldr.w	lr, [sp], #4
 8005288:	f7fe bf7a 	b.w	8004180 <HAL_RCC_GetPCLK1Freq>
 800528c:	f5b3 2f80 	cmp.w	r3, #262144	@ 0x40000
 8005290:	d075      	beq.n	800537e <HAL_RCCEx_GetPeriphCLKFreq+0x262>
 8005292:	f5b3 2fa0 	cmp.w	r3, #327680	@ 0x50000
 8005296:	f47f af7c 	bne.w	8005192 <HAL_RCCEx_GetPeriphCLKFreq+0x76>
 800529a:	6810      	ldr	r0, [r2, #0]
 800529c:	4b41      	ldr	r3, [pc, #260]	@ (80053a4 <HAL_RCCEx_GetPeriphCLKFreq+0x288>)
 800529e:	f410 3000 	ands.w	r0, r0, #131072	@ 0x20000
 80052a2:	e070      	b.n	8005386 <HAL_RCCEx_GetPeriphCLKFreq+0x26a>
 80052a4:	6810      	ldr	r0, [r2, #0]
 80052a6:	f010 6000 	ands.w	r0, r0, #134217728	@ 0x8000000
 80052aa:	f43f af69 	beq.w	8005180 <HAL_RCCEx_GetPeriphCLKFreq+0x64>
 80052ae:	a801      	add	r0, sp, #4
 80052b0:	f7ff fd36 	bl	8004d20 <HAL_RCCEx_GetPLL2ClockFreq>
 80052b4:	e034      	b.n	8005320 <HAL_RCCEx_GetPeriphCLKFreq+0x204>
 80052b6:	6810      	ldr	r0, [r2, #0]
 80052b8:	f010 5000 	ands.w	r0, r0, #536870912	@ 0x20000000
 80052bc:	f43f af60 	beq.w	8005180 <HAL_RCCEx_GetPeriphCLKFreq+0x64>
 80052c0:	a801      	add	r0, sp, #4
 80052c2:	f7ff fdd7 	bl	8004e74 <HAL_RCCEx_GetPLL3ClockFreq>
 80052c6:	e02b      	b.n	8005320 <HAL_RCCEx_GetPeriphCLKFreq+0x204>
 80052c8:	f5a0 2300 	sub.w	r3, r0, #524288	@ 0x80000
 80052cc:	430b      	orrs	r3, r1
 80052ce:	d117      	bne.n	8005300 <HAL_RCCEx_GetPeriphCLKFreq+0x1e4>
 80052d0:	4b32      	ldr	r3, [pc, #200]	@ (800539c <HAL_RCCEx_GetPeriphCLKFreq+0x280>)
 80052d2:	6d9a      	ldr	r2, [r3, #88]	@ 0x58
 80052d4:	f402 3240 	and.w	r2, r2, #196608	@ 0x30000
 80052d8:	f5b2 3f80 	cmp.w	r2, #65536	@ 0x10000
 80052dc:	d006      	beq.n	80052ec <HAL_RCCEx_GetPeriphCLKFreq+0x1d0>
 80052de:	f5b2 3f00 	cmp.w	r2, #131072	@ 0x20000
 80052e2:	d0a8      	beq.n	8005236 <HAL_RCCEx_GetPeriphCLKFreq+0x11a>
 80052e4:	2a00      	cmp	r2, #0
 80052e6:	f47f af54 	bne.w	8005192 <HAL_RCCEx_GetPeriphCLKFreq+0x76>
 80052ea:	e741      	b.n	8005170 <HAL_RCCEx_GetPeriphCLKFreq+0x54>
 80052ec:	6818      	ldr	r0, [r3, #0]
 80052ee:	f010 5000 	ands.w	r0, r0, #536870912	@ 0x20000000
 80052f2:	f43f af45 	beq.w	8005180 <HAL_RCCEx_GetPeriphCLKFreq+0x64>
 80052f6:	a801      	add	r0, sp, #4
 80052f8:	f7ff fdbc 	bl	8004e74 <HAL_RCCEx_GetPLL3ClockFreq>
 80052fc:	9803      	ldr	r0, [sp, #12]
 80052fe:	e73f      	b.n	8005180 <HAL_RCCEx_GetPeriphCLKFreq+0x64>
 8005300:	f5a0 3380 	sub.w	r3, r0, #65536	@ 0x10000
 8005304:	430b      	orrs	r3, r1
 8005306:	d116      	bne.n	8005336 <HAL_RCCEx_GetPeriphCLKFreq+0x21a>
 8005308:	4b24      	ldr	r3, [pc, #144]	@ (800539c <HAL_RCCEx_GetPeriphCLKFreq+0x280>)
 800530a:	6cda      	ldr	r2, [r3, #76]	@ 0x4c
 800530c:	03d2      	lsls	r2, r2, #15
 800530e:	d409      	bmi.n	8005324 <HAL_RCCEx_GetPeriphCLKFreq+0x208>
 8005310:	6818      	ldr	r0, [r3, #0]
 8005312:	f010 7000 	ands.w	r0, r0, #33554432	@ 0x2000000
 8005316:	f43f af33 	beq.w	8005180 <HAL_RCCEx_GetPeriphCLKFreq+0x64>
 800531a:	a801      	add	r0, sp, #4
 800531c:	f7ff fe54 	bl	8004fc8 <HAL_RCCEx_GetPLL1ClockFreq>
 8005320:	9802      	ldr	r0, [sp, #8]
 8005322:	e72d      	b.n	8005180 <HAL_RCCEx_GetPeriphCLKFreq+0x64>
 8005324:	6818      	ldr	r0, [r3, #0]
 8005326:	f010 6000 	ands.w	r0, r0, #134217728	@ 0x8000000
 800532a:	f43f af29 	beq.w	8005180 <HAL_RCCEx_GetPeriphCLKFreq+0x64>
 800532e:	a801      	add	r0, sp, #4
 8005330:	f7ff fcf6 	bl	8004d20 <HAL_RCCEx_GetPLL2ClockFreq>
 8005334:	e7e2      	b.n	80052fc <HAL_RCCEx_GetPeriphCLKFreq+0x1e0>
 8005336:	f5a0 4380 	sub.w	r3, r0, #16384	@ 0x4000
 800533a:	430b      	orrs	r3, r1
 800533c:	d136      	bne.n	80053ac <HAL_RCCEx_GetPeriphCLKFreq+0x290>
 800533e:	4a17      	ldr	r2, [pc, #92]	@ (800539c <HAL_RCCEx_GetPeriphCLKFreq+0x280>)
 8005340:	6d93      	ldr	r3, [r2, #88]	@ 0x58
 8005342:	f003 43e0 	and.w	r3, r3, #1879048192	@ 0x70000000
 8005346:	f1b3 5f40 	cmp.w	r3, #805306368	@ 0x30000000
 800534a:	d01f      	beq.n	800538c <HAL_RCCEx_GetPeriphCLKFreq+0x270>
 800534c:	d80d      	bhi.n	800536a <HAL_RCCEx_GetPeriphCLKFreq+0x24e>
 800534e:	f1b3 5f80 	cmp.w	r3, #268435456	@ 0x10000000
 8005352:	d0a7      	beq.n	80052a4 <HAL_RCCEx_GetPeriphCLKFreq+0x188>
 8005354:	f1b3 5f00 	cmp.w	r3, #536870912	@ 0x20000000
 8005358:	d0ad      	beq.n	80052b6 <HAL_RCCEx_GetPeriphCLKFreq+0x19a>
 800535a:	2b00      	cmp	r3, #0
 800535c:	f47f af19 	bne.w	8005192 <HAL_RCCEx_GetPeriphCLKFreq+0x76>
 8005360:	b005      	add	sp, #20
 8005362:	f85d eb04 	ldr.w	lr, [sp], #4
 8005366:	f7ff bcc9 	b.w	8004cfc <HAL_RCCEx_GetD3PCLK1Freq>
 800536a:	f1b3 4fa0 	cmp.w	r3, #1342177280	@ 0x50000000
 800536e:	d094      	beq.n	800529a <HAL_RCCEx_GetPeriphCLKFreq+0x17e>
 8005370:	f1b3 4fc0 	cmp.w	r3, #1610612736	@ 0x60000000
 8005374:	d032      	beq.n	80053dc <HAL_RCCEx_GetPeriphCLKFreq+0x2c0>
 8005376:	f1b3 4f80 	cmp.w	r3, #1073741824	@ 0x40000000
 800537a:	f47f af0a 	bne.w	8005192 <HAL_RCCEx_GetPeriphCLKFreq+0x76>
 800537e:	6810      	ldr	r0, [r2, #0]
 8005380:	4b09      	ldr	r3, [pc, #36]	@ (80053a8 <HAL_RCCEx_GetPeriphCLKFreq+0x28c>)
 8005382:	f410 7080 	ands.w	r0, r0, #256	@ 0x100
 8005386:	bf18      	it	ne
 8005388:	4618      	movne	r0, r3
 800538a:	e6f9      	b.n	8005180 <HAL_RCCEx_GetPeriphCLKFreq+0x64>
 800538c:	6810      	ldr	r0, [r2, #0]
 800538e:	f010 0004 	ands.w	r0, r0, #4
 8005392:	f43f aef5 	beq.w	8005180 <HAL_RCCEx_GetPeriphCLKFreq+0x64>
 8005396:	6813      	ldr	r3, [r2, #0]
 8005398:	e71e      	b.n	80051d8 <HAL_RCCEx_GetPeriphCLKFreq+0xbc>
 800539a:	bf00      	nop
 800539c:	58024400 	.word	0x58024400
 80053a0:	03d09000 	.word	0x03d09000
 80053a4:	017d7840 	.word	0x017d7840
 80053a8:	003d0900 	.word	0x003d0900
 80053ac:	f5a0 4000 	sub.w	r0, r0, #32768	@ 0x8000
 80053b0:	4308      	orrs	r0, r1
 80053b2:	f47f aeee 	bne.w	8005192 <HAL_RCCEx_GetPeriphCLKFreq+0x76>
 80053b6:	4a0a      	ldr	r2, [pc, #40]	@ (80053e0 <HAL_RCCEx_GetPeriphCLKFreq+0x2c4>)
 80053b8:	6d13      	ldr	r3, [r2, #80]	@ 0x50
 80053ba:	f003 5340 	and.w	r3, r3, #805306368	@ 0x30000000
 80053be:	f1b3 5f80 	cmp.w	r3, #268435456	@ 0x10000000
 80053c2:	d007      	beq.n	80053d4 <HAL_RCCEx_GetPeriphCLKFreq+0x2b8>
 80053c4:	f1b3 5f00 	cmp.w	r3, #536870912	@ 0x20000000
 80053c8:	f43f af6c 	beq.w	80052a4 <HAL_RCCEx_GetPeriphCLKFreq+0x188>
 80053cc:	2b00      	cmp	r3, #0
 80053ce:	f47f aee0 	bne.w	8005192 <HAL_RCCEx_GetPeriphCLKFreq+0x76>
 80053d2:	e762      	b.n	800529a <HAL_RCCEx_GetPeriphCLKFreq+0x17e>
 80053d4:	6810      	ldr	r0, [r2, #0]
 80053d6:	e79c      	b.n	8005312 <HAL_RCCEx_GetPeriphCLKFreq+0x1f6>
 80053d8:	4802      	ldr	r0, [pc, #8]	@ (80053e4 <HAL_RCCEx_GetPeriphCLKFreq+0x2c8>)
 80053da:	e6d1      	b.n	8005180 <HAL_RCCEx_GetPeriphCLKFreq+0x64>
 80053dc:	4802      	ldr	r0, [pc, #8]	@ (80053e8 <HAL_RCCEx_GetPeriphCLKFreq+0x2cc>)
 80053de:	e6cf      	b.n	8005180 <HAL_RCCEx_GetPeriphCLKFreq+0x64>
 80053e0:	58024400 	.word	0x58024400
 80053e4:	003d0900 	.word	0x003d0900
 80053e8:	00bb8000 	.word	0x00bb8000

080053ec <HAL_RTC_WaitForSynchro>:
 80053ec:	b538      	push	{r3, r4, r5, lr}
 80053ee:	4a0a      	ldr	r2, [pc, #40]	@ (8005418 <HAL_RTC_WaitForSynchro+0x2c>)
 80053f0:	4604      	mov	r4, r0
 80053f2:	6803      	ldr	r3, [r0, #0]
 80053f4:	60da      	str	r2, [r3, #12]
 80053f6:	f7fc fe45 	bl	8002084 <HAL_GetTick>
 80053fa:	4605      	mov	r5, r0
 80053fc:	6823      	ldr	r3, [r4, #0]
 80053fe:	68db      	ldr	r3, [r3, #12]
 8005400:	069b      	lsls	r3, r3, #26
 8005402:	d501      	bpl.n	8005408 <HAL_RTC_WaitForSynchro+0x1c>
 8005404:	2000      	movs	r0, #0
 8005406:	bd38      	pop	{r3, r4, r5, pc}
 8005408:	f7fc fe3c 	bl	8002084 <HAL_GetTick>
 800540c:	1b40      	subs	r0, r0, r5
 800540e:	f5b0 7f7a 	cmp.w	r0, #1000	@ 0x3e8
 8005412:	d9f3      	bls.n	80053fc <HAL_RTC_WaitForSynchro+0x10>
 8005414:	2003      	movs	r0, #3
 8005416:	e7f6      	b.n	8005406 <HAL_RTC_WaitForSynchro+0x1a>
 8005418:	0001005f 	.word	0x0001005f

0800541c <RTC_EnterInitMode>:
 800541c:	6802      	ldr	r2, [r0, #0]
 800541e:	b570      	push	{r4, r5, r6, lr}
 8005420:	68d4      	ldr	r4, [r2, #12]
 8005422:	4605      	mov	r5, r0
 8005424:	f014 0440 	ands.w	r4, r4, #64	@ 0x40
 8005428:	d11b      	bne.n	8005462 <RTC_EnterInitMode+0x46>
 800542a:	68d3      	ldr	r3, [r2, #12]
 800542c:	f043 0380 	orr.w	r3, r3, #128	@ 0x80
 8005430:	60d3      	str	r3, [r2, #12]
 8005432:	f7fc fe27 	bl	8002084 <HAL_GetTick>
 8005436:	4623      	mov	r3, r4
 8005438:	4606      	mov	r6, r0
 800543a:	682a      	ldr	r2, [r5, #0]
 800543c:	68d4      	ldr	r4, [r2, #12]
 800543e:	f014 0440 	ands.w	r4, r4, #64	@ 0x40
 8005442:	d101      	bne.n	8005448 <RTC_EnterInitMode+0x2c>
 8005444:	2b03      	cmp	r3, #3
 8005446:	d101      	bne.n	800544c <RTC_EnterInitMode+0x30>
 8005448:	4618      	mov	r0, r3
 800544a:	bd70      	pop	{r4, r5, r6, pc}
 800544c:	f7fc fe1a 	bl	8002084 <HAL_GetTick>
 8005450:	1b80      	subs	r0, r0, r6
 8005452:	4623      	mov	r3, r4
 8005454:	f5b0 7f7a 	cmp.w	r0, #1000	@ 0x3e8
 8005458:	d9ef      	bls.n	800543a <RTC_EnterInitMode+0x1e>
 800545a:	2303      	movs	r3, #3
 800545c:	f885 3025 	strb.w	r3, [r5, #37]	@ 0x25
 8005460:	e7eb      	b.n	800543a <RTC_EnterInitMode+0x1e>
 8005462:	2300      	movs	r3, #0
 8005464:	e7f0      	b.n	8005448 <RTC_EnterInitMode+0x2c>
	...

08005468 <RTC_ExitInitMode>:
 8005468:	b538      	push	{r3, r4, r5, lr}
 800546a:	4c0f      	ldr	r4, [pc, #60]	@ (80054a8 <RTC_ExitInitMode+0x40>)
 800546c:	4605      	mov	r5, r0
 800546e:	68e3      	ldr	r3, [r4, #12]
 8005470:	f023 0380 	bic.w	r3, r3, #128	@ 0x80
 8005474:	60e3      	str	r3, [r4, #12]
 8005476:	69a3      	ldr	r3, [r4, #24]
 8005478:	069b      	lsls	r3, r3, #26
 800547a:	d406      	bmi.n	800548a <RTC_ExitInitMode+0x22>
 800547c:	f7ff ffb6 	bl	80053ec <HAL_RTC_WaitForSynchro>
 8005480:	b110      	cbz	r0, 8005488 <RTC_ExitInitMode+0x20>
 8005482:	2003      	movs	r0, #3
 8005484:	f885 0025 	strb.w	r0, [r5, #37]	@ 0x25
 8005488:	bd38      	pop	{r3, r4, r5, pc}
 800548a:	69a3      	ldr	r3, [r4, #24]
 800548c:	f023 0320 	bic.w	r3, r3, #32
 8005490:	61a3      	str	r3, [r4, #24]
 8005492:	f7ff ffab 	bl	80053ec <HAL_RTC_WaitForSynchro>
 8005496:	b110      	cbz	r0, 800549e <RTC_ExitInitMode+0x36>
 8005498:	2003      	movs	r0, #3
 800549a:	f885 0025 	strb.w	r0, [r5, #37]	@ 0x25
 800549e:	69a3      	ldr	r3, [r4, #24]
 80054a0:	f043 0320 	orr.w	r3, r3, #32
 80054a4:	61a3      	str	r3, [r4, #24]
 80054a6:	e7ef      	b.n	8005488 <RTC_ExitInitMode+0x20>
 80054a8:	58004000 	.word	0x58004000

080054ac <HAL_RTC_Init>:
 80054ac:	b538      	push	{r3, r4, r5, lr}
 80054ae:	4604      	mov	r4, r0
 80054b0:	2800      	cmp	r0, #0
 80054b2:	d047      	beq.n	8005544 <HAL_RTC_Init+0x98>
 80054b4:	f890 3025 	ldrb.w	r3, [r0, #37]	@ 0x25
 80054b8:	f003 02ff 	and.w	r2, r3, #255	@ 0xff
 80054bc:	b91b      	cbnz	r3, 80054c6 <HAL_RTC_Init+0x1a>
 80054be:	f880 2024 	strb.w	r2, [r0, #36]	@ 0x24
 80054c2:	f7fc fc97 	bl	8001df4 <HAL_RTC_MspInit>
 80054c6:	2302      	movs	r3, #2
 80054c8:	f884 3025 	strb.w	r3, [r4, #37]	@ 0x25
 80054cc:	6823      	ldr	r3, [r4, #0]
 80054ce:	68da      	ldr	r2, [r3, #12]
 80054d0:	06d2      	lsls	r2, r2, #27
 80054d2:	d504      	bpl.n	80054de <HAL_RTC_Init+0x32>
 80054d4:	2301      	movs	r3, #1
 80054d6:	2000      	movs	r0, #0
 80054d8:	f884 3025 	strb.w	r3, [r4, #37]	@ 0x25
 80054dc:	bd38      	pop	{r3, r4, r5, pc}
 80054de:	22ca      	movs	r2, #202	@ 0xca
 80054e0:	4620      	mov	r0, r4
 80054e2:	625a      	str	r2, [r3, #36]	@ 0x24
 80054e4:	2253      	movs	r2, #83	@ 0x53
 80054e6:	625a      	str	r2, [r3, #36]	@ 0x24
 80054e8:	f7ff ff98 	bl	800541c <RTC_EnterInitMode>
 80054ec:	bb20      	cbnz	r0, 8005538 <HAL_RTC_Init+0x8c>
 80054ee:	6822      	ldr	r2, [r4, #0]
 80054f0:	6920      	ldr	r0, [r4, #16]
 80054f2:	6993      	ldr	r3, [r2, #24]
 80054f4:	f023 638e 	bic.w	r3, r3, #74448896	@ 0x4700000
 80054f8:	f023 0340 	bic.w	r3, r3, #64	@ 0x40
 80054fc:	6193      	str	r3, [r2, #24]
 80054fe:	6863      	ldr	r3, [r4, #4]
 8005500:	6991      	ldr	r1, [r2, #24]
 8005502:	4303      	orrs	r3, r0
 8005504:	69a0      	ldr	r0, [r4, #24]
 8005506:	4303      	orrs	r3, r0
 8005508:	4620      	mov	r0, r4
 800550a:	430b      	orrs	r3, r1
 800550c:	6193      	str	r3, [r2, #24]
 800550e:	e9d4 1302 	ldrd	r1, r3, [r4, #8]
 8005512:	ea43 4301 	orr.w	r3, r3, r1, lsl #16
 8005516:	6113      	str	r3, [r2, #16]
 8005518:	f7ff ffa6 	bl	8005468 <RTC_ExitInitMode>
 800551c:	b960      	cbnz	r0, 8005538 <HAL_RTC_Init+0x8c>
 800551e:	6822      	ldr	r2, [r4, #0]
 8005520:	6993      	ldr	r3, [r2, #24]
 8005522:	f023 4360 	bic.w	r3, r3, #3758096384	@ 0xe0000000
 8005526:	6193      	str	r3, [r2, #24]
 8005528:	6991      	ldr	r1, [r2, #24]
 800552a:	e9d4 5307 	ldrd	r5, r3, [r4, #28]
 800552e:	432b      	orrs	r3, r5
 8005530:	6965      	ldr	r5, [r4, #20]
 8005532:	432b      	orrs	r3, r5
 8005534:	430b      	orrs	r3, r1
 8005536:	6193      	str	r3, [r2, #24]
 8005538:	6823      	ldr	r3, [r4, #0]
 800553a:	22ff      	movs	r2, #255	@ 0xff
 800553c:	625a      	str	r2, [r3, #36]	@ 0x24
 800553e:	2800      	cmp	r0, #0
 8005540:	d0c8      	beq.n	80054d4 <HAL_RTC_Init+0x28>
 8005542:	e7cb      	b.n	80054dc <HAL_RTC_Init+0x30>
 8005544:	2001      	movs	r0, #1
 8005546:	e7c9      	b.n	80054dc <HAL_RTC_Init+0x30>

08005548 <RTC_ByteToBcd2>:
 8005548:	2300      	movs	r3, #0
 800554a:	2809      	cmp	r0, #9
 800554c:	d803      	bhi.n	8005556 <RTC_ByteToBcd2+0xe>
 800554e:	ea40 1003 	orr.w	r0, r0, r3, lsl #4
 8005552:	b2c0      	uxtb	r0, r0
 8005554:	4770      	bx	lr
 8005556:	380a      	subs	r0, #10
 8005558:	3301      	adds	r3, #1
 800555a:	b2c0      	uxtb	r0, r0
 800555c:	e7f5      	b.n	800554a <RTC_ByteToBcd2+0x2>

0800555e <HAL_RTC_SetTime>:
 800555e:	e92d 41f0 	stmdb	sp!, {r4, r5, r6, r7, r8, lr}
 8005562:	f890 3024 	ldrb.w	r3, [r0, #36]	@ 0x24
 8005566:	4605      	mov	r5, r0
 8005568:	460e      	mov	r6, r1
 800556a:	4690      	mov	r8, r2
 800556c:	2b01      	cmp	r3, #1
 800556e:	f04f 0302 	mov.w	r3, #2
 8005572:	d054      	beq.n	800561e <HAL_RTC_SetTime+0xc0>
 8005574:	2201      	movs	r2, #1
 8005576:	f880 3025 	strb.w	r3, [r0, #37]	@ 0x25
 800557a:	6803      	ldr	r3, [r0, #0]
 800557c:	f880 2024 	strb.w	r2, [r0, #36]	@ 0x24
 8005580:	22ca      	movs	r2, #202	@ 0xca
 8005582:	625a      	str	r2, [r3, #36]	@ 0x24
 8005584:	2253      	movs	r2, #83	@ 0x53
 8005586:	625a      	str	r2, [r3, #36]	@ 0x24
 8005588:	f7ff ff48 	bl	800541c <RTC_EnterInitMode>
 800558c:	bb70      	cbnz	r0, 80055ec <HAL_RTC_SetTime+0x8e>
 800558e:	6829      	ldr	r1, [r5, #0]
 8005590:	7830      	ldrb	r0, [r6, #0]
 8005592:	7874      	ldrb	r4, [r6, #1]
 8005594:	78b7      	ldrb	r7, [r6, #2]
 8005596:	698b      	ldr	r3, [r1, #24]
 8005598:	f1b8 0f00 	cmp.w	r8, #0
 800559c:	d132      	bne.n	8005604 <HAL_RTC_SetTime+0xa6>
 800559e:	f013 0340 	ands.w	r3, r3, #64	@ 0x40
 80055a2:	bf08      	it	eq
 80055a4:	70f3      	strbeq	r3, [r6, #3]
 80055a6:	f7ff ffcf 	bl	8005548 <RTC_ByteToBcd2>
 80055aa:	4680      	mov	r8, r0
 80055ac:	4620      	mov	r0, r4
 80055ae:	f7ff ffcb 	bl	8005548 <RTC_ByteToBcd2>
 80055b2:	4602      	mov	r2, r0
 80055b4:	4638      	mov	r0, r7
 80055b6:	f7ff ffc7 	bl	8005548 <RTC_ByteToBcd2>
 80055ba:	78f3      	ldrb	r3, [r6, #3]
 80055bc:	ea40 5383 	orr.w	r3, r0, r3, lsl #22
 80055c0:	ea43 4308 	orr.w	r3, r3, r8, lsl #16
 80055c4:	ea43 2302 	orr.w	r3, r3, r2, lsl #8
 80055c8:	f003 337f 	and.w	r3, r3, #2139062143	@ 0x7f7f7f7f
 80055cc:	f023 43fe 	bic.w	r3, r3, #2130706432	@ 0x7f000000
 80055d0:	600b      	str	r3, [r1, #0]
 80055d2:	698b      	ldr	r3, [r1, #24]
 80055d4:	f423 2380 	bic.w	r3, r3, #262144	@ 0x40000
 80055d8:	618b      	str	r3, [r1, #24]
 80055da:	698a      	ldr	r2, [r1, #24]
 80055dc:	e9d6 3003 	ldrd	r3, r0, [r6, #12]
 80055e0:	4303      	orrs	r3, r0
 80055e2:	4628      	mov	r0, r5
 80055e4:	4313      	orrs	r3, r2
 80055e6:	618b      	str	r3, [r1, #24]
 80055e8:	f7ff ff3e 	bl	8005468 <RTC_ExitInitMode>
 80055ec:	682b      	ldr	r3, [r5, #0]
 80055ee:	22ff      	movs	r2, #255	@ 0xff
 80055f0:	625a      	str	r2, [r3, #36]	@ 0x24
 80055f2:	b910      	cbnz	r0, 80055fa <HAL_RTC_SetTime+0x9c>
 80055f4:	2301      	movs	r3, #1
 80055f6:	f885 3025 	strb.w	r3, [r5, #37]	@ 0x25
 80055fa:	2300      	movs	r3, #0
 80055fc:	f885 3024 	strb.w	r3, [r5, #36]	@ 0x24
 8005600:	e8bd 81f0 	ldmia.w	sp!, {r4, r5, r6, r7, r8, pc}
 8005604:	f013 0340 	ands.w	r3, r3, #64	@ 0x40
 8005608:	ea4f 2404 	mov.w	r4, r4, lsl #8
 800560c:	bf08      	it	eq
 800560e:	70f3      	strbeq	r3, [r6, #3]
 8005610:	ea44 4300 	orr.w	r3, r4, r0, lsl #16
 8005614:	78f2      	ldrb	r2, [r6, #3]
 8005616:	433b      	orrs	r3, r7
 8005618:	ea43 5382 	orr.w	r3, r3, r2, lsl #22
 800561c:	e7d4      	b.n	80055c8 <HAL_RTC_SetTime+0x6a>
 800561e:	4618      	mov	r0, r3
 8005620:	e7ee      	b.n	8005600 <HAL_RTC_SetTime+0xa2>

08005622 <HAL_RTC_SetDate>:
 8005622:	b5f8      	push	{r3, r4, r5, r6, r7, lr}
 8005624:	f890 3024 	ldrb.w	r3, [r0, #36]	@ 0x24
 8005628:	4605      	mov	r5, r0
 800562a:	2002      	movs	r0, #2
 800562c:	2b01      	cmp	r3, #1
 800562e:	d02b      	beq.n	8005688 <HAL_RTC_SetDate+0x66>
 8005630:	2301      	movs	r3, #1
 8005632:	f885 0025 	strb.w	r0, [r5, #37]	@ 0x25
 8005636:	f885 3024 	strb.w	r3, [r5, #36]	@ 0x24
 800563a:	780e      	ldrb	r6, [r1, #0]
 800563c:	78c8      	ldrb	r0, [r1, #3]
 800563e:	784c      	ldrb	r4, [r1, #1]
 8005640:	0376      	lsls	r6, r6, #13
 8005642:	788f      	ldrb	r7, [r1, #2]
 8005644:	b30a      	cbz	r2, 800568a <HAL_RTC_SetDate+0x68>
 8005646:	ea46 4300 	orr.w	r3, r6, r0, lsl #16
 800564a:	433b      	orrs	r3, r7
 800564c:	ea43 2404 	orr.w	r4, r3, r4, lsl #8
 8005650:	682b      	ldr	r3, [r5, #0]
 8005652:	22ca      	movs	r2, #202	@ 0xca
 8005654:	4628      	mov	r0, r5
 8005656:	625a      	str	r2, [r3, #36]	@ 0x24
 8005658:	2253      	movs	r2, #83	@ 0x53
 800565a:	625a      	str	r2, [r3, #36]	@ 0x24
 800565c:	f7ff fede 	bl	800541c <RTC_EnterInitMode>
 8005660:	b940      	cbnz	r0, 8005674 <HAL_RTC_SetDate+0x52>
 8005662:	f024 447f 	bic.w	r4, r4, #4278190080	@ 0xff000000
 8005666:	682a      	ldr	r2, [r5, #0]
 8005668:	4628      	mov	r0, r5
 800566a:	f024 04c0 	bic.w	r4, r4, #192	@ 0xc0
 800566e:	6054      	str	r4, [r2, #4]
 8005670:	f7ff fefa 	bl	8005468 <RTC_ExitInitMode>
 8005674:	682b      	ldr	r3, [r5, #0]
 8005676:	22ff      	movs	r2, #255	@ 0xff
 8005678:	625a      	str	r2, [r3, #36]	@ 0x24
 800567a:	b910      	cbnz	r0, 8005682 <HAL_RTC_SetDate+0x60>
 800567c:	2301      	movs	r3, #1
 800567e:	f885 3025 	strb.w	r3, [r5, #37]	@ 0x25
 8005682:	2300      	movs	r3, #0
 8005684:	f885 3024 	strb.w	r3, [r5, #36]	@ 0x24
 8005688:	bdf8      	pop	{r3, r4, r5, r6, r7, pc}
 800568a:	06e3      	lsls	r3, r4, #27
 800568c:	bf42      	ittt	mi
 800568e:	f024 0410 	bicmi.w	r4, r4, #16
 8005692:	340a      	addmi	r4, #10
 8005694:	704c      	strbmi	r4, [r1, #1]
 8005696:	f7ff ff57 	bl	8005548 <RTC_ByteToBcd2>
 800569a:	4604      	mov	r4, r0
 800569c:	7848      	ldrb	r0, [r1, #1]
 800569e:	f7ff ff53 	bl	8005548 <RTC_ByteToBcd2>
 80056a2:	4602      	mov	r2, r0
 80056a4:	4638      	mov	r0, r7
 80056a6:	f7ff ff4f 	bl	8005548 <RTC_ByteToBcd2>
 80056aa:	ea40 0306 	orr.w	r3, r0, r6
 80056ae:	ea43 4304 	orr.w	r3, r3, r4, lsl #16
 80056b2:	ea43 2402 	orr.w	r4, r3, r2, lsl #8
 80056b6:	e7cb      	b.n	8005650 <HAL_RTC_SetDate+0x2e>

080056b8 <RTC_Bcd2ToByte>:
 80056b8:	0903      	lsrs	r3, r0, #4
 80056ba:	f000 000f 	and.w	r0, r0, #15
 80056be:	eb03 0383 	add.w	r3, r3, r3, lsl #2
 80056c2:	eb00 0043 	add.w	r0, r0, r3, lsl #1
 80056c6:	b2c0      	uxtb	r0, r0
 80056c8:	4770      	bx	lr

080056ca <HAL_RTC_GetTime>:
 80056ca:	b538      	push	{r3, r4, r5, lr}
 80056cc:	6803      	ldr	r3, [r0, #0]
 80056ce:	6898      	ldr	r0, [r3, #8]
 80056d0:	6048      	str	r0, [r1, #4]
 80056d2:	6918      	ldr	r0, [r3, #16]
 80056d4:	681b      	ldr	r3, [r3, #0]
 80056d6:	f3c0 000e 	ubfx	r0, r0, #0, #15
 80056da:	f3c3 2506 	ubfx	r5, r3, #8, #7
 80056de:	f003 047f 	and.w	r4, r3, #127	@ 0x7f
 80056e2:	6088      	str	r0, [r1, #8]
 80056e4:	f3c3 4005 	ubfx	r0, r3, #16, #6
 80056e8:	f3c3 5380 	ubfx	r3, r3, #22, #1
 80056ec:	704d      	strb	r5, [r1, #1]
 80056ee:	7008      	strb	r0, [r1, #0]
 80056f0:	708c      	strb	r4, [r1, #2]
 80056f2:	70cb      	strb	r3, [r1, #3]
 80056f4:	b952      	cbnz	r2, 800570c <HAL_RTC_GetTime+0x42>
 80056f6:	f7ff ffdf 	bl	80056b8 <RTC_Bcd2ToByte>
 80056fa:	7008      	strb	r0, [r1, #0]
 80056fc:	4628      	mov	r0, r5
 80056fe:	f7ff ffdb 	bl	80056b8 <RTC_Bcd2ToByte>
 8005702:	7048      	strb	r0, [r1, #1]
 8005704:	4620      	mov	r0, r4
 8005706:	f7ff ffd7 	bl	80056b8 <RTC_Bcd2ToByte>
 800570a:	7088      	strb	r0, [r1, #2]
 800570c:	2000      	movs	r0, #0
 800570e:	bd38      	pop	{r3, r4, r5, pc}

08005710 <HAL_RTC_GetDate>:
 8005710:	b538      	push	{r3, r4, r5, lr}
 8005712:	6803      	ldr	r3, [r0, #0]
 8005714:	685b      	ldr	r3, [r3, #4]
 8005716:	f3c3 4007 	ubfx	r0, r3, #16, #8
 800571a:	f3c3 2504 	ubfx	r5, r3, #8, #5
 800571e:	f003 043f 	and.w	r4, r3, #63	@ 0x3f
 8005722:	f3c3 3342 	ubfx	r3, r3, #13, #3
 8005726:	70c8      	strb	r0, [r1, #3]
 8005728:	704d      	strb	r5, [r1, #1]
 800572a:	708c      	strb	r4, [r1, #2]
 800572c:	700b      	strb	r3, [r1, #0]
 800572e:	b952      	cbnz	r2, 8005746 <HAL_RTC_GetDate+0x36>
 8005730:	f7ff ffc2 	bl	80056b8 <RTC_Bcd2ToByte>
 8005734:	70c8      	strb	r0, [r1, #3]
 8005736:	4628      	mov	r0, r5
 8005738:	f7ff ffbe 	bl	80056b8 <RTC_Bcd2ToByte>
 800573c:	7048      	strb	r0, [r1, #1]
 800573e:	4620      	mov	r0, r4
 8005740:	f7ff ffba 	bl	80056b8 <RTC_Bcd2ToByte>
 8005744:	7088      	strb	r0, [r1, #2]
 8005746:	2000      	movs	r0, #0
 8005748:	bd38      	pop	{r3, r4, r5, pc}
	...

0800574c <SD_FindSCR.constprop.0>:
 800574c:	e92d 47f0 	stmdb	sp!, {r4, r5, r6, r7, r8, r9, sl, lr}
 8005750:	4605      	mov	r5, r0
 8005752:	b086      	sub	sp, #24
 8005754:	4688      	mov	r8, r1
 8005756:	f7fc fc95 	bl	8002084 <HAL_GetTick>
 800575a:	2108      	movs	r1, #8
 800575c:	4681      	mov	r9, r0
 800575e:	6828      	ldr	r0, [r5, #0]
 8005760:	f001 f8ee 	bl	8006940 <SDMMC_CmdBlockLength>
 8005764:	4604      	mov	r4, r0
 8005766:	bb48      	cbnz	r0, 80057bc <SD_FindSCR.constprop.0+0x70>
 8005768:	6c69      	ldr	r1, [r5, #68]	@ 0x44
 800576a:	6828      	ldr	r0, [r5, #0]
 800576c:	0409      	lsls	r1, r1, #16
 800576e:	f001 f9ad 	bl	8006acc <SDMMC_CmdAppCommand>
 8005772:	4604      	mov	r4, r0
 8005774:	bb10      	cbnz	r0, 80057bc <SD_FindSCR.constprop.0+0x70>
 8005776:	f04f 30ff 	mov.w	r0, #4294967295
 800577a:	2308      	movs	r3, #8
 800577c:	2630      	movs	r6, #48	@ 0x30
 800577e:	4669      	mov	r1, sp
 8005780:	9404      	str	r4, [sp, #16]
 8005782:	e9cd 0300 	strd	r0, r3, [sp]
 8005786:	2302      	movs	r3, #2
 8005788:	6828      	ldr	r0, [r5, #0]
 800578a:	e9cd 6302 	strd	r6, r3, [sp, #8]
 800578e:	2301      	movs	r3, #1
 8005790:	9305      	str	r3, [sp, #20]
 8005792:	f001 f808 	bl	80067a6 <SDMMC_ConfigData>
 8005796:	6828      	ldr	r0, [r5, #0]
 8005798:	f001 f9cc 	bl	8006b34 <SDMMC_CmdSendSCR>
 800579c:	4604      	mov	r4, r0
 800579e:	b968      	cbnz	r0, 80057bc <SD_FindSCR.constprop.0+0x70>
 80057a0:	4607      	mov	r7, r0
 80057a2:	4606      	mov	r6, r0
 80057a4:	f240 5a2a 	movw	sl, #1322	@ 0x52a
 80057a8:	6828      	ldr	r0, [r5, #0]
 80057aa:	6b43      	ldr	r3, [r0, #52]	@ 0x34
 80057ac:	ea13 0f0a 	tst.w	r3, sl
 80057b0:	6b43      	ldr	r3, [r0, #52]	@ 0x34
 80057b2:	d007      	beq.n	80057c4 <SD_FindSCR.constprop.0+0x78>
 80057b4:	071a      	lsls	r2, r3, #28
 80057b6:	d519      	bpl.n	80057ec <SD_FindSCR.constprop.0+0xa0>
 80057b8:	2408      	movs	r4, #8
 80057ba:	6384      	str	r4, [r0, #56]	@ 0x38
 80057bc:	4620      	mov	r0, r4
 80057be:	b006      	add	sp, #24
 80057c0:	e8bd 87f0 	ldmia.w	sp!, {r4, r5, r6, r7, r8, r9, sl, pc}
 80057c4:	0319      	lsls	r1, r3, #12
 80057c6:	d408      	bmi.n	80057da <SD_FindSCR.constprop.0+0x8e>
 80057c8:	b93c      	cbnz	r4, 80057da <SD_FindSCR.constprop.0+0x8e>
 80057ca:	f000 ffc3 	bl	8006754 <SDMMC_ReadFIFO>
 80057ce:	4606      	mov	r6, r0
 80057d0:	6828      	ldr	r0, [r5, #0]
 80057d2:	2401      	movs	r4, #1
 80057d4:	f000 ffbe 	bl	8006754 <SDMMC_ReadFIFO>
 80057d8:	4607      	mov	r7, r0
 80057da:	f7fc fc53 	bl	8002084 <HAL_GetTick>
 80057de:	eba0 0009 	sub.w	r0, r0, r9
 80057e2:	3001      	adds	r0, #1
 80057e4:	d1e0      	bne.n	80057a8 <SD_FindSCR.constprop.0+0x5c>
 80057e6:	f04f 4400 	mov.w	r4, #2147483648	@ 0x80000000
 80057ea:	e7e7      	b.n	80057bc <SD_FindSCR.constprop.0+0x70>
 80057ec:	6b43      	ldr	r3, [r0, #52]	@ 0x34
 80057ee:	079b      	lsls	r3, r3, #30
 80057f0:	d501      	bpl.n	80057f6 <SD_FindSCR.constprop.0+0xaa>
 80057f2:	2402      	movs	r4, #2
 80057f4:	e7e1      	b.n	80057ba <SD_FindSCR.constprop.0+0x6e>
 80057f6:	6b44      	ldr	r4, [r0, #52]	@ 0x34
 80057f8:	f014 0420 	ands.w	r4, r4, #32
 80057fc:	d001      	beq.n	8005802 <SD_FindSCR.constprop.0+0xb6>
 80057fe:	2420      	movs	r4, #32
 8005800:	e7db      	b.n	80057ba <SD_FindSCR.constprop.0+0x6e>
 8005802:	4b04      	ldr	r3, [pc, #16]	@ (8005814 <SD_FindSCR.constprop.0+0xc8>)
 8005804:	ba3f      	rev	r7, r7
 8005806:	ba36      	rev	r6, r6
 8005808:	6383      	str	r3, [r0, #56]	@ 0x38
 800580a:	f8c8 7000 	str.w	r7, [r8]
 800580e:	f8c8 6004 	str.w	r6, [r8, #4]
 8005812:	e7d3      	b.n	80057bc <SD_FindSCR.constprop.0+0x70>
 8005814:	18000f3a 	.word	0x18000f3a

08005818 <HAL_SD_ReadBlocks>:
 8005818:	e92d 4bf0 	stmdb	sp!, {r4, r5, r6, r7, r8, r9, fp, lr}
 800581c:	460e      	mov	r6, r1
 800581e:	b086      	sub	sp, #24
 8005820:	4604      	mov	r4, r0
 8005822:	4691      	mov	r9, r2
 8005824:	461f      	mov	r7, r3
 8005826:	f7fc fc2d 	bl	8002084 <HAL_GetTick>
 800582a:	4680      	mov	r8, r0
 800582c:	b93e      	cbnz	r6, 800583e <HAL_SD_ReadBlocks+0x26>
 800582e:	6b63      	ldr	r3, [r4, #52]	@ 0x34
 8005830:	f043 6300 	orr.w	r3, r3, #134217728	@ 0x8000000
 8005834:	6363      	str	r3, [r4, #52]	@ 0x34
 8005836:	2001      	movs	r0, #1
 8005838:	b006      	add	sp, #24
 800583a:	e8bd 8bf0 	ldmia.w	sp!, {r4, r5, r6, r7, r8, r9, fp, pc}
 800583e:	f894 3030 	ldrb.w	r3, [r4, #48]	@ 0x30
 8005842:	2b01      	cmp	r3, #1
 8005844:	f040 80bb 	bne.w	80059be <HAL_SD_ReadBlocks+0x1a6>
 8005848:	eb09 0307 	add.w	r3, r9, r7
 800584c:	6d22      	ldr	r2, [r4, #80]	@ 0x50
 800584e:	2100      	movs	r1, #0
 8005850:	4293      	cmp	r3, r2
 8005852:	6361      	str	r1, [r4, #52]	@ 0x34
 8005854:	d903      	bls.n	800585e <HAL_SD_ReadBlocks+0x46>
 8005856:	6b63      	ldr	r3, [r4, #52]	@ 0x34
 8005858:	f043 7300 	orr.w	r3, r3, #33554432	@ 0x2000000
 800585c:	e7ea      	b.n	8005834 <HAL_SD_ReadBlocks+0x1c>
 800585e:	2303      	movs	r3, #3
 8005860:	2502      	movs	r5, #2
 8005862:	6820      	ldr	r0, [r4, #0]
 8005864:	f884 3030 	strb.w	r3, [r4, #48]	@ 0x30
 8005868:	6ba3      	ldr	r3, [r4, #56]	@ 0x38
 800586a:	62c1      	str	r1, [r0, #44]	@ 0x2c
 800586c:	4669      	mov	r1, sp
 800586e:	2b01      	cmp	r3, #1
 8005870:	f04f 33ff 	mov.w	r3, #4294967295
 8005874:	9300      	str	r3, [sp, #0]
 8005876:	ea4f 2347 	mov.w	r3, r7, lsl #9
 800587a:	bf18      	it	ne
 800587c:	ea4f 2949 	movne.w	r9, r9, lsl #9
 8005880:	9301      	str	r3, [sp, #4]
 8005882:	2390      	movs	r3, #144	@ 0x90
 8005884:	e9cd 3502 	strd	r3, r5, [sp, #8]
 8005888:	2300      	movs	r3, #0
 800588a:	e9cd 3304 	strd	r3, r3, [sp, #16]
 800588e:	f000 ff8a 	bl	80067a6 <SDMMC_ConfigData>
 8005892:	6820      	ldr	r0, [r4, #0]
 8005894:	2f01      	cmp	r7, #1
 8005896:	68c3      	ldr	r3, [r0, #12]
 8005898:	f043 0340 	orr.w	r3, r3, #64	@ 0x40
 800589c:	60c3      	str	r3, [r0, #12]
 800589e:	d910      	bls.n	80058c2 <HAL_SD_ReadBlocks+0xaa>
 80058a0:	4649      	mov	r1, r9
 80058a2:	62e5      	str	r5, [r4, #44]	@ 0x2c
 80058a4:	f001 f880 	bl	80069a8 <SDMMC_CmdReadMultiBlock>
 80058a8:	6823      	ldr	r3, [r4, #0]
 80058aa:	b180      	cbz	r0, 80058ce <HAL_SD_ReadBlocks+0xb6>
 80058ac:	4a46      	ldr	r2, [pc, #280]	@ (80059c8 <HAL_SD_ReadBlocks+0x1b0>)
 80058ae:	639a      	str	r2, [r3, #56]	@ 0x38
 80058b0:	6b63      	ldr	r3, [r4, #52]	@ 0x34
 80058b2:	4303      	orrs	r3, r0
 80058b4:	6363      	str	r3, [r4, #52]	@ 0x34
 80058b6:	2301      	movs	r3, #1
 80058b8:	f884 3030 	strb.w	r3, [r4, #48]	@ 0x30
 80058bc:	2300      	movs	r3, #0
 80058be:	62e3      	str	r3, [r4, #44]	@ 0x2c
 80058c0:	e7b9      	b.n	8005836 <HAL_SD_ReadBlocks+0x1e>
 80058c2:	2301      	movs	r3, #1
 80058c4:	4649      	mov	r1, r9
 80058c6:	62e3      	str	r3, [r4, #44]	@ 0x2c
 80058c8:	f001 f854 	bl	8006974 <SDMMC_CmdReadSingleBlock>
 80058cc:	e7ec      	b.n	80058a8 <HAL_SD_ReadBlocks+0x90>
 80058ce:	9d01      	ldr	r5, [sp, #4]
 80058d0:	6820      	ldr	r0, [r4, #0]
 80058d2:	6b43      	ldr	r3, [r0, #52]	@ 0x34
 80058d4:	f413 7f95 	tst.w	r3, #298	@ 0x12a
 80058d8:	d010      	beq.n	80058fc <HAL_SD_ReadBlocks+0xe4>
 80058da:	68c3      	ldr	r3, [r0, #12]
 80058dc:	f023 0340 	bic.w	r3, r3, #64	@ 0x40
 80058e0:	60c3      	str	r3, [r0, #12]
 80058e2:	6b43      	ldr	r3, [r0, #52]	@ 0x34
 80058e4:	05db      	lsls	r3, r3, #23
 80058e6:	d53b      	bpl.n	8005960 <HAL_SD_ReadBlocks+0x148>
 80058e8:	2f01      	cmp	r7, #1
 80058ea:	d939      	bls.n	8005960 <HAL_SD_ReadBlocks+0x148>
 80058ec:	6ba3      	ldr	r3, [r4, #56]	@ 0x38
 80058ee:	2b03      	cmp	r3, #3
 80058f0:	d036      	beq.n	8005960 <HAL_SD_ReadBlocks+0x148>
 80058f2:	f001 f8a7 	bl	8006a44 <SDMMC_CmdStopTransfer>
 80058f6:	b398      	cbz	r0, 8005960 <HAL_SD_ReadBlocks+0x148>
 80058f8:	6823      	ldr	r3, [r4, #0]
 80058fa:	e7d7      	b.n	80058ac <HAL_SD_ReadBlocks+0x94>
 80058fc:	6b43      	ldr	r3, [r0, #52]	@ 0x34
 80058fe:	041a      	lsls	r2, r3, #16
 8005900:	d519      	bpl.n	8005936 <HAL_SD_ReadBlocks+0x11e>
 8005902:	2d1f      	cmp	r5, #31
 8005904:	d917      	bls.n	8005936 <HAL_SD_ReadBlocks+0x11e>
 8005906:	f106 0904 	add.w	r9, r6, #4
 800590a:	f106 0b24 	add.w	fp, r6, #36	@ 0x24
 800590e:	6820      	ldr	r0, [r4, #0]
 8005910:	f109 0904 	add.w	r9, r9, #4
 8005914:	f000 ff1e 	bl	8006754 <SDMMC_ReadFIFO>
 8005918:	f809 0c08 	strb.w	r0, [r9, #-8]
 800591c:	0a03      	lsrs	r3, r0, #8
 800591e:	0e02      	lsrs	r2, r0, #24
 8005920:	f809 3c07 	strb.w	r3, [r9, #-7]
 8005924:	0c03      	lsrs	r3, r0, #16
 8005926:	f809 2c05 	strb.w	r2, [r9, #-5]
 800592a:	f809 3c06 	strb.w	r3, [r9, #-6]
 800592e:	45d9      	cmp	r9, fp
 8005930:	d1ed      	bne.n	800590e <HAL_SD_ReadBlocks+0xf6>
 8005932:	3620      	adds	r6, #32
 8005934:	3d20      	subs	r5, #32
 8005936:	f7fc fba5 	bl	8002084 <HAL_GetTick>
 800593a:	9b0e      	ldr	r3, [sp, #56]	@ 0x38
 800593c:	eba0 0008 	sub.w	r0, r0, r8
 8005940:	4298      	cmp	r0, r3
 8005942:	d3c5      	bcc.n	80058d0 <HAL_SD_ReadBlocks+0xb8>
 8005944:	6823      	ldr	r3, [r4, #0]
 8005946:	2003      	movs	r0, #3
 8005948:	4a1f      	ldr	r2, [pc, #124]	@ (80059c8 <HAL_SD_ReadBlocks+0x1b0>)
 800594a:	639a      	str	r2, [r3, #56]	@ 0x38
 800594c:	6b63      	ldr	r3, [r4, #52]	@ 0x34
 800594e:	f043 4300 	orr.w	r3, r3, #2147483648	@ 0x80000000
 8005952:	6363      	str	r3, [r4, #52]	@ 0x34
 8005954:	2301      	movs	r3, #1
 8005956:	f884 3030 	strb.w	r3, [r4, #48]	@ 0x30
 800595a:	2300      	movs	r3, #0
 800595c:	62e3      	str	r3, [r4, #44]	@ 0x2c
 800595e:	e76b      	b.n	8005838 <HAL_SD_ReadBlocks+0x20>
 8005960:	6823      	ldr	r3, [r4, #0]
 8005962:	6b59      	ldr	r1, [r3, #52]	@ 0x34
 8005964:	f011 0108 	ands.w	r1, r1, #8
 8005968:	d005      	beq.n	8005976 <HAL_SD_ReadBlocks+0x15e>
 800596a:	4a17      	ldr	r2, [pc, #92]	@ (80059c8 <HAL_SD_ReadBlocks+0x1b0>)
 800596c:	639a      	str	r2, [r3, #56]	@ 0x38
 800596e:	6b63      	ldr	r3, [r4, #52]	@ 0x34
 8005970:	f043 0308 	orr.w	r3, r3, #8
 8005974:	e79e      	b.n	80058b4 <HAL_SD_ReadBlocks+0x9c>
 8005976:	6b5a      	ldr	r2, [r3, #52]	@ 0x34
 8005978:	f012 0202 	ands.w	r2, r2, #2
 800597c:	d00a      	beq.n	8005994 <HAL_SD_ReadBlocks+0x17c>
 800597e:	4a12      	ldr	r2, [pc, #72]	@ (80059c8 <HAL_SD_ReadBlocks+0x1b0>)
 8005980:	639a      	str	r2, [r3, #56]	@ 0x38
 8005982:	6b63      	ldr	r3, [r4, #52]	@ 0x34
 8005984:	f043 0302 	orr.w	r3, r3, #2
 8005988:	6363      	str	r3, [r4, #52]	@ 0x34
 800598a:	2301      	movs	r3, #1
 800598c:	f884 3030 	strb.w	r3, [r4, #48]	@ 0x30
 8005990:	62e1      	str	r1, [r4, #44]	@ 0x2c
 8005992:	e750      	b.n	8005836 <HAL_SD_ReadBlocks+0x1e>
 8005994:	6b58      	ldr	r0, [r3, #52]	@ 0x34
 8005996:	f010 0020 	ands.w	r0, r0, #32
 800599a:	d00a      	beq.n	80059b2 <HAL_SD_ReadBlocks+0x19a>
 800599c:	490a      	ldr	r1, [pc, #40]	@ (80059c8 <HAL_SD_ReadBlocks+0x1b0>)
 800599e:	6399      	str	r1, [r3, #56]	@ 0x38
 80059a0:	6b63      	ldr	r3, [r4, #52]	@ 0x34
 80059a2:	f043 0320 	orr.w	r3, r3, #32
 80059a6:	6363      	str	r3, [r4, #52]	@ 0x34
 80059a8:	2301      	movs	r3, #1
 80059aa:	f884 3030 	strb.w	r3, [r4, #48]	@ 0x30
 80059ae:	62e2      	str	r2, [r4, #44]	@ 0x2c
 80059b0:	e741      	b.n	8005836 <HAL_SD_ReadBlocks+0x1e>
 80059b2:	4a06      	ldr	r2, [pc, #24]	@ (80059cc <HAL_SD_ReadBlocks+0x1b4>)
 80059b4:	639a      	str	r2, [r3, #56]	@ 0x38
 80059b6:	2301      	movs	r3, #1
 80059b8:	f884 3030 	strb.w	r3, [r4, #48]	@ 0x30
 80059bc:	e73c      	b.n	8005838 <HAL_SD_ReadBlocks+0x20>
 80059be:	6b63      	ldr	r3, [r4, #52]	@ 0x34
 80059c0:	f043 5300 	orr.w	r3, r3, #536870912	@ 0x20000000
 80059c4:	e736      	b.n	8005834 <HAL_SD_ReadBlocks+0x1c>
 80059c6:	bf00      	nop
 80059c8:	1fe00fff 	.word	0x1fe00fff
 80059cc:	18000f3a 	.word	0x18000f3a

080059d0 <HAL_SD_WriteBlocks>:
 80059d0:	e92d 47f0 	stmdb	sp!, {r4, r5, r6, r7, r8, r9, sl, lr}
 80059d4:	460d      	mov	r5, r1
 80059d6:	b088      	sub	sp, #32
 80059d8:	4604      	mov	r4, r0
 80059da:	4691      	mov	r9, r2
 80059dc:	461f      	mov	r7, r3
 80059de:	f7fc fb51 	bl	8002084 <HAL_GetTick>
 80059e2:	4680      	mov	r8, r0
 80059e4:	b93d      	cbnz	r5, 80059f6 <HAL_SD_WriteBlocks+0x26>
 80059e6:	6b63      	ldr	r3, [r4, #52]	@ 0x34
 80059e8:	f043 6300 	orr.w	r3, r3, #134217728	@ 0x8000000
 80059ec:	6363      	str	r3, [r4, #52]	@ 0x34
 80059ee:	2001      	movs	r0, #1
 80059f0:	b008      	add	sp, #32
 80059f2:	e8bd 87f0 	ldmia.w	sp!, {r4, r5, r6, r7, r8, r9, sl, pc}
 80059f6:	f894 3030 	ldrb.w	r3, [r4, #48]	@ 0x30
 80059fa:	2b01      	cmp	r3, #1
 80059fc:	f040 80ad 	bne.w	8005b5a <HAL_SD_WriteBlocks+0x18a>
 8005a00:	eb09 0307 	add.w	r3, r9, r7
 8005a04:	6d22      	ldr	r2, [r4, #80]	@ 0x50
 8005a06:	2100      	movs	r1, #0
 8005a08:	4293      	cmp	r3, r2
 8005a0a:	6361      	str	r1, [r4, #52]	@ 0x34
 8005a0c:	d903      	bls.n	8005a16 <HAL_SD_WriteBlocks+0x46>
 8005a0e:	6b63      	ldr	r3, [r4, #52]	@ 0x34
 8005a10:	f043 7300 	orr.w	r3, r3, #33554432	@ 0x2000000
 8005a14:	e7ea      	b.n	80059ec <HAL_SD_WriteBlocks+0x1c>
 8005a16:	2303      	movs	r3, #3
 8005a18:	6820      	ldr	r0, [r4, #0]
 8005a1a:	f884 3030 	strb.w	r3, [r4, #48]	@ 0x30
 8005a1e:	6ba3      	ldr	r3, [r4, #56]	@ 0x38
 8005a20:	62c1      	str	r1, [r0, #44]	@ 0x2c
 8005a22:	2190      	movs	r1, #144	@ 0x90
 8005a24:	2b01      	cmp	r3, #1
 8005a26:	f04f 33ff 	mov.w	r3, #4294967295
 8005a2a:	9302      	str	r3, [sp, #8]
 8005a2c:	ea4f 2347 	mov.w	r3, r7, lsl #9
 8005a30:	bf18      	it	ne
 8005a32:	ea4f 2949 	movne.w	r9, r9, lsl #9
 8005a36:	9303      	str	r3, [sp, #12]
 8005a38:	2300      	movs	r3, #0
 8005a3a:	e9cd 1304 	strd	r1, r3, [sp, #16]
 8005a3e:	a902      	add	r1, sp, #8
 8005a40:	e9cd 3306 	strd	r3, r3, [sp, #24]
 8005a44:	f000 feaf 	bl	80067a6 <SDMMC_ConfigData>
 8005a48:	6820      	ldr	r0, [r4, #0]
 8005a4a:	2f01      	cmp	r7, #1
 8005a4c:	68c3      	ldr	r3, [r0, #12]
 8005a4e:	f043 0340 	orr.w	r3, r3, #64	@ 0x40
 8005a52:	60c3      	str	r3, [r0, #12]
 8005a54:	d911      	bls.n	8005a7a <HAL_SD_WriteBlocks+0xaa>
 8005a56:	2320      	movs	r3, #32
 8005a58:	4649      	mov	r1, r9
 8005a5a:	62e3      	str	r3, [r4, #44]	@ 0x2c
 8005a5c:	f000 ffd8 	bl	8006a10 <SDMMC_CmdWriteMultiBlock>
 8005a60:	6823      	ldr	r3, [r4, #0]
 8005a62:	b180      	cbz	r0, 8005a86 <HAL_SD_WriteBlocks+0xb6>
 8005a64:	4a3f      	ldr	r2, [pc, #252]	@ (8005b64 <HAL_SD_WriteBlocks+0x194>)
 8005a66:	639a      	str	r2, [r3, #56]	@ 0x38
 8005a68:	6b63      	ldr	r3, [r4, #52]	@ 0x34
 8005a6a:	4303      	orrs	r3, r0
 8005a6c:	6363      	str	r3, [r4, #52]	@ 0x34
 8005a6e:	2301      	movs	r3, #1
 8005a70:	f884 3030 	strb.w	r3, [r4, #48]	@ 0x30
 8005a74:	2300      	movs	r3, #0
 8005a76:	62e3      	str	r3, [r4, #44]	@ 0x2c
 8005a78:	e7b9      	b.n	80059ee <HAL_SD_WriteBlocks+0x1e>
 8005a7a:	2310      	movs	r3, #16
 8005a7c:	4649      	mov	r1, r9
 8005a7e:	62e3      	str	r3, [r4, #44]	@ 0x2c
 8005a80:	f000 ffac 	bl	80069dc <SDMMC_CmdWriteSingleBlock>
 8005a84:	e7ec      	b.n	8005a60 <HAL_SD_WriteBlocks+0x90>
 8005a86:	9e03      	ldr	r6, [sp, #12]
 8005a88:	6820      	ldr	r0, [r4, #0]
 8005a8a:	6b43      	ldr	r3, [r0, #52]	@ 0x34
 8005a8c:	f413 7f8d 	tst.w	r3, #282	@ 0x11a
 8005a90:	d010      	beq.n	8005ab4 <HAL_SD_WriteBlocks+0xe4>
 8005a92:	68c3      	ldr	r3, [r0, #12]
 8005a94:	f023 0340 	bic.w	r3, r3, #64	@ 0x40
 8005a98:	60c3      	str	r3, [r0, #12]
 8005a9a:	6b43      	ldr	r3, [r0, #52]	@ 0x34
 8005a9c:	05db      	lsls	r3, r3, #23
 8005a9e:	d52d      	bpl.n	8005afc <HAL_SD_WriteBlocks+0x12c>
 8005aa0:	2f01      	cmp	r7, #1
 8005aa2:	d92b      	bls.n	8005afc <HAL_SD_WriteBlocks+0x12c>
 8005aa4:	6ba3      	ldr	r3, [r4, #56]	@ 0x38
 8005aa6:	2b03      	cmp	r3, #3
 8005aa8:	d028      	beq.n	8005afc <HAL_SD_WriteBlocks+0x12c>
 8005aaa:	f000 ffcb 	bl	8006a44 <SDMMC_CmdStopTransfer>
 8005aae:	b328      	cbz	r0, 8005afc <HAL_SD_WriteBlocks+0x12c>
 8005ab0:	6823      	ldr	r3, [r4, #0]
 8005ab2:	e7d7      	b.n	8005a64 <HAL_SD_WriteBlocks+0x94>
 8005ab4:	6b43      	ldr	r3, [r0, #52]	@ 0x34
 8005ab6:	045a      	lsls	r2, r3, #17
 8005ab8:	d50d      	bpl.n	8005ad6 <HAL_SD_WriteBlocks+0x106>
 8005aba:	2e1f      	cmp	r6, #31
 8005abc:	d90b      	bls.n	8005ad6 <HAL_SD_WriteBlocks+0x106>
 8005abe:	f105 0a20 	add.w	sl, r5, #32
 8005ac2:	f855 3b04 	ldr.w	r3, [r5], #4
 8005ac6:	a901      	add	r1, sp, #4
 8005ac8:	6820      	ldr	r0, [r4, #0]
 8005aca:	9301      	str	r3, [sp, #4]
 8005acc:	f000 fe45 	bl	800675a <SDMMC_WriteFIFO>
 8005ad0:	45aa      	cmp	sl, r5
 8005ad2:	d1f6      	bne.n	8005ac2 <HAL_SD_WriteBlocks+0xf2>
 8005ad4:	3e20      	subs	r6, #32
 8005ad6:	f7fc fad5 	bl	8002084 <HAL_GetTick>
 8005ada:	9b10      	ldr	r3, [sp, #64]	@ 0x40
 8005adc:	eba0 0008 	sub.w	r0, r0, r8
 8005ae0:	4298      	cmp	r0, r3
 8005ae2:	d3d1      	bcc.n	8005a88 <HAL_SD_WriteBlocks+0xb8>
 8005ae4:	6823      	ldr	r3, [r4, #0]
 8005ae6:	2003      	movs	r0, #3
 8005ae8:	4a1e      	ldr	r2, [pc, #120]	@ (8005b64 <HAL_SD_WriteBlocks+0x194>)
 8005aea:	639a      	str	r2, [r3, #56]	@ 0x38
 8005aec:	6b63      	ldr	r3, [r4, #52]	@ 0x34
 8005aee:	6363      	str	r3, [r4, #52]	@ 0x34
 8005af0:	2301      	movs	r3, #1
 8005af2:	f884 3030 	strb.w	r3, [r4, #48]	@ 0x30
 8005af6:	2300      	movs	r3, #0
 8005af8:	62e3      	str	r3, [r4, #44]	@ 0x2c
 8005afa:	e779      	b.n	80059f0 <HAL_SD_WriteBlocks+0x20>
 8005afc:	6823      	ldr	r3, [r4, #0]
 8005afe:	6b59      	ldr	r1, [r3, #52]	@ 0x34
 8005b00:	f011 0108 	ands.w	r1, r1, #8
 8005b04:	d005      	beq.n	8005b12 <HAL_SD_WriteBlocks+0x142>
 8005b06:	4a17      	ldr	r2, [pc, #92]	@ (8005b64 <HAL_SD_WriteBlocks+0x194>)
 8005b08:	639a      	str	r2, [r3, #56]	@ 0x38
 8005b0a:	6b63      	ldr	r3, [r4, #52]	@ 0x34
 8005b0c:	f043 0308 	orr.w	r3, r3, #8
 8005b10:	e7ac      	b.n	8005a6c <HAL_SD_WriteBlocks+0x9c>
 8005b12:	6b5a      	ldr	r2, [r3, #52]	@ 0x34
 8005b14:	f012 0202 	ands.w	r2, r2, #2
 8005b18:	d00a      	beq.n	8005b30 <HAL_SD_WriteBlocks+0x160>
 8005b1a:	4a12      	ldr	r2, [pc, #72]	@ (8005b64 <HAL_SD_WriteBlocks+0x194>)
 8005b1c:	639a      	str	r2, [r3, #56]	@ 0x38
 8005b1e:	6b63      	ldr	r3, [r4, #52]	@ 0x34
 8005b20:	f043 0302 	orr.w	r3, r3, #2
 8005b24:	6363      	str	r3, [r4, #52]	@ 0x34
 8005b26:	2301      	movs	r3, #1
 8005b28:	f884 3030 	strb.w	r3, [r4, #48]	@ 0x30
 8005b2c:	62e1      	str	r1, [r4, #44]	@ 0x2c
 8005b2e:	e75e      	b.n	80059ee <HAL_SD_WriteBlocks+0x1e>
 8005b30:	6b58      	ldr	r0, [r3, #52]	@ 0x34
 8005b32:	f010 0010 	ands.w	r0, r0, #16
 8005b36:	d00a      	beq.n	8005b4e <HAL_SD_WriteBlocks+0x17e>
 8005b38:	490a      	ldr	r1, [pc, #40]	@ (8005b64 <HAL_SD_WriteBlocks+0x194>)
 8005b3a:	6399      	str	r1, [r3, #56]	@ 0x38
 8005b3c:	6b63      	ldr	r3, [r4, #52]	@ 0x34
 8005b3e:	f043 0310 	orr.w	r3, r3, #16
 8005b42:	6363      	str	r3, [r4, #52]	@ 0x34
 8005b44:	2301      	movs	r3, #1
 8005b46:	f884 3030 	strb.w	r3, [r4, #48]	@ 0x30
 8005b4a:	62e2      	str	r2, [r4, #44]	@ 0x2c
 8005b4c:	e74f      	b.n	80059ee <HAL_SD_WriteBlocks+0x1e>
 8005b4e:	4a06      	ldr	r2, [pc, #24]	@ (8005b68 <HAL_SD_WriteBlocks+0x198>)
 8005b50:	639a      	str	r2, [r3, #56]	@ 0x38
 8005b52:	2301      	movs	r3, #1
 8005b54:	f884 3030 	strb.w	r3, [r4, #48]	@ 0x30
 8005b58:	e74a      	b.n	80059f0 <HAL_SD_WriteBlocks+0x20>
 8005b5a:	6b63      	ldr	r3, [r4, #52]	@ 0x34
 8005b5c:	f043 5300 	orr.w	r3, r3, #536870912	@ 0x20000000
 8005b60:	e744      	b.n	80059ec <HAL_SD_WriteBlocks+0x1c>
 8005b62:	bf00      	nop
 8005b64:	1fe00fff 	.word	0x1fe00fff
 8005b68:	18000f3a 	.word	0x18000f3a

08005b6c <HAL_SD_GetCardCSD>:
 8005b6c:	6dc2      	ldr	r2, [r0, #92]	@ 0x5c
 8005b6e:	4603      	mov	r3, r0
 8005b70:	0f90      	lsrs	r0, r2, #30
 8005b72:	b510      	push	{r4, lr}
 8005b74:	7008      	strb	r0, [r1, #0]
 8005b76:	f3c2 6083 	ubfx	r0, r2, #26, #4
 8005b7a:	7048      	strb	r0, [r1, #1]
 8005b7c:	f3c2 6001 	ubfx	r0, r2, #24, #2
 8005b80:	7088      	strb	r0, [r1, #2]
 8005b82:	f3c2 4007 	ubfx	r0, r2, #16, #8
 8005b86:	70c8      	strb	r0, [r1, #3]
 8005b88:	f3c2 2007 	ubfx	r0, r2, #8, #8
 8005b8c:	b2d2      	uxtb	r2, r2
 8005b8e:	7108      	strb	r0, [r1, #4]
 8005b90:	714a      	strb	r2, [r1, #5]
 8005b92:	6e1a      	ldr	r2, [r3, #96]	@ 0x60
 8005b94:	0d10      	lsrs	r0, r2, #20
 8005b96:	80c8      	strh	r0, [r1, #6]
 8005b98:	f3c2 4003 	ubfx	r0, r2, #16, #4
 8005b9c:	7208      	strb	r0, [r1, #8]
 8005b9e:	f3c2 30c0 	ubfx	r0, r2, #15, #1
 8005ba2:	7248      	strb	r0, [r1, #9]
 8005ba4:	f3c2 3080 	ubfx	r0, r2, #14, #1
 8005ba8:	7288      	strb	r0, [r1, #10]
 8005baa:	f3c2 3040 	ubfx	r0, r2, #13, #1
 8005bae:	72c8      	strb	r0, [r1, #11]
 8005bb0:	f3c2 3000 	ubfx	r0, r2, #12, #1
 8005bb4:	7308      	strb	r0, [r1, #12]
 8005bb6:	2000      	movs	r0, #0
 8005bb8:	7348      	strb	r0, [r1, #13]
 8005bba:	6b98      	ldr	r0, [r3, #56]	@ 0x38
 8005bbc:	2800      	cmp	r0, #0
 8005bbe:	d16b      	bne.n	8005c98 <HAL_SD_GetCardCSD+0x12c>
 8005bc0:	f640 74fc 	movw	r4, #4092	@ 0xffc
 8005bc4:	6e58      	ldr	r0, [r3, #100]	@ 0x64
 8005bc6:	ea04 0282 	and.w	r2, r4, r2, lsl #2
 8005bca:	ea42 7290 	orr.w	r2, r2, r0, lsr #30
 8005bce:	610a      	str	r2, [r1, #16]
 8005bd0:	f3c0 62c2 	ubfx	r2, r0, #27, #3
 8005bd4:	750a      	strb	r2, [r1, #20]
 8005bd6:	f3c0 6202 	ubfx	r2, r0, #24, #3
 8005bda:	754a      	strb	r2, [r1, #21]
 8005bdc:	f3c0 5242 	ubfx	r2, r0, #21, #3
 8005be0:	758a      	strb	r2, [r1, #22]
 8005be2:	f3c0 4282 	ubfx	r2, r0, #18, #3
 8005be6:	f3c0 30c2 	ubfx	r0, r0, #15, #3
 8005bea:	75ca      	strb	r2, [r1, #23]
 8005bec:	7608      	strb	r0, [r1, #24]
 8005bee:	6908      	ldr	r0, [r1, #16]
 8005bf0:	7e0a      	ldrb	r2, [r1, #24]
 8005bf2:	3001      	adds	r0, #1
 8005bf4:	f002 0207 	and.w	r2, r2, #7
 8005bf8:	3202      	adds	r2, #2
 8005bfa:	4090      	lsls	r0, r2
 8005bfc:	2201      	movs	r2, #1
 8005bfe:	6498      	str	r0, [r3, #72]	@ 0x48
 8005c00:	7a0c      	ldrb	r4, [r1, #8]
 8005c02:	f004 040f 	and.w	r4, r4, #15
 8005c06:	40a2      	lsls	r2, r4
 8005c08:	64da      	str	r2, [r3, #76]	@ 0x4c
 8005c0a:	0a52      	lsrs	r2, r2, #9
 8005c0c:	4342      	muls	r2, r0
 8005c0e:	651a      	str	r2, [r3, #80]	@ 0x50
 8005c10:	f44f 7200 	mov.w	r2, #512	@ 0x200
 8005c14:	655a      	str	r2, [r3, #84]	@ 0x54
 8005c16:	6e5a      	ldr	r2, [r3, #100]	@ 0x64
 8005c18:	f3c2 3080 	ubfx	r0, r2, #14, #1
 8005c1c:	7648      	strb	r0, [r1, #25]
 8005c1e:	f3c2 10c6 	ubfx	r0, r2, #7, #7
 8005c22:	f002 027f 	and.w	r2, r2, #127	@ 0x7f
 8005c26:	7688      	strb	r0, [r1, #26]
 8005c28:	2000      	movs	r0, #0
 8005c2a:	76ca      	strb	r2, [r1, #27]
 8005c2c:	6e9b      	ldr	r3, [r3, #104]	@ 0x68
 8005c2e:	0fda      	lsrs	r2, r3, #31
 8005c30:	770a      	strb	r2, [r1, #28]
 8005c32:	f3c3 7241 	ubfx	r2, r3, #29, #2
 8005c36:	774a      	strb	r2, [r1, #29]
 8005c38:	f3c3 6282 	ubfx	r2, r3, #26, #3
 8005c3c:	778a      	strb	r2, [r1, #30]
 8005c3e:	f3c3 5283 	ubfx	r2, r3, #22, #4
 8005c42:	77ca      	strb	r2, [r1, #31]
 8005c44:	f3c3 5240 	ubfx	r2, r3, #21, #1
 8005c48:	f881 2020 	strb.w	r2, [r1, #32]
 8005c4c:	f3c3 4200 	ubfx	r2, r3, #16, #1
 8005c50:	f881 0021 	strb.w	r0, [r1, #33]	@ 0x21
 8005c54:	f881 2022 	strb.w	r2, [r1, #34]	@ 0x22
 8005c58:	f3c3 32c0 	ubfx	r2, r3, #15, #1
 8005c5c:	f881 2023 	strb.w	r2, [r1, #35]	@ 0x23
 8005c60:	f3c3 3280 	ubfx	r2, r3, #14, #1
 8005c64:	f881 2024 	strb.w	r2, [r1, #36]	@ 0x24
 8005c68:	f3c3 3240 	ubfx	r2, r3, #13, #1
 8005c6c:	f881 2025 	strb.w	r2, [r1, #37]	@ 0x25
 8005c70:	f3c3 3200 	ubfx	r2, r3, #12, #1
 8005c74:	f881 2026 	strb.w	r2, [r1, #38]	@ 0x26
 8005c78:	f3c3 2281 	ubfx	r2, r3, #10, #2
 8005c7c:	f881 2027 	strb.w	r2, [r1, #39]	@ 0x27
 8005c80:	f3c3 2201 	ubfx	r2, r3, #8, #2
 8005c84:	f3c3 0346 	ubfx	r3, r3, #1, #7
 8005c88:	f881 2028 	strb.w	r2, [r1, #40]	@ 0x28
 8005c8c:	f881 3029 	strb.w	r3, [r1, #41]	@ 0x29
 8005c90:	2301      	movs	r3, #1
 8005c92:	f881 302a 	strb.w	r3, [r1, #42]	@ 0x2a
 8005c96:	e01b      	b.n	8005cd0 <HAL_SD_GetCardCSD+0x164>
 8005c98:	2801      	cmp	r0, #1
 8005c9a:	d10f      	bne.n	8005cbc <HAL_SD_GetCardCSD+0x150>
 8005c9c:	0412      	lsls	r2, r2, #16
 8005c9e:	f8b3 0066 	ldrh.w	r0, [r3, #102]	@ 0x66
 8005ca2:	f402 127c 	and.w	r2, r2, #4128768	@ 0x3f0000
 8005ca6:	4302      	orrs	r2, r0
 8005ca8:	610a      	str	r2, [r1, #16]
 8005caa:	690a      	ldr	r2, [r1, #16]
 8005cac:	3201      	adds	r2, #1
 8005cae:	0292      	lsls	r2, r2, #10
 8005cb0:	649a      	str	r2, [r3, #72]	@ 0x48
 8005cb2:	651a      	str	r2, [r3, #80]	@ 0x50
 8005cb4:	f44f 7200 	mov.w	r2, #512	@ 0x200
 8005cb8:	64da      	str	r2, [r3, #76]	@ 0x4c
 8005cba:	e7a9      	b.n	8005c10 <HAL_SD_GetCardCSD+0xa4>
 8005cbc:	681a      	ldr	r2, [r3, #0]
 8005cbe:	2001      	movs	r0, #1
 8005cc0:	4904      	ldr	r1, [pc, #16]	@ (8005cd4 <HAL_SD_GetCardCSD+0x168>)
 8005cc2:	6391      	str	r1, [r2, #56]	@ 0x38
 8005cc4:	6b5a      	ldr	r2, [r3, #52]	@ 0x34
 8005cc6:	f042 5280 	orr.w	r2, r2, #268435456	@ 0x10000000
 8005cca:	635a      	str	r2, [r3, #52]	@ 0x34
 8005ccc:	f883 0030 	strb.w	r0, [r3, #48]	@ 0x30
 8005cd0:	bd10      	pop	{r4, pc}
 8005cd2:	bf00      	nop
 8005cd4:	1fe00fff 	.word	0x1fe00fff

08005cd8 <HAL_SD_InitCard>:
 8005cd8:	b5f0      	push	{r4, r5, r6, r7, lr}
 8005cda:	2300      	movs	r3, #0
 8005cdc:	b095      	sub	sp, #84	@ 0x54
 8005cde:	4604      	mov	r4, r0
 8005ce0:	2100      	movs	r1, #0
 8005ce2:	f44f 3080 	mov.w	r0, #65536	@ 0x10000
 8005ce6:	e9cd 3304 	strd	r3, r3, [sp, #16]
 8005cea:	e9cd 3306 	strd	r3, r3, [sp, #24]
 8005cee:	f7ff fa15 	bl	800511c <HAL_RCCEx_GetPeriphCLKFreq>
 8005cf2:	4605      	mov	r5, r0
 8005cf4:	b948      	cbnz	r0, 8005d0a <HAL_SD_InitCard+0x32>
 8005cf6:	2301      	movs	r3, #1
 8005cf8:	f884 3030 	strb.w	r3, [r4, #48]	@ 0x30
 8005cfc:	f04f 6300 	mov.w	r3, #134217728	@ 0x8000000
 8005d00:	6363      	str	r3, [r4, #52]	@ 0x34
 8005d02:	2501      	movs	r5, #1
 8005d04:	4628      	mov	r0, r5
 8005d06:	b015      	add	sp, #84	@ 0x54
 8005d08:	bdf0      	pop	{r4, r5, r6, r7, pc}
 8005d0a:	4e7b      	ldr	r6, [pc, #492]	@ (8005ef8 <HAL_SD_InitCard+0x220>)
 8005d0c:	ab04      	add	r3, sp, #16
 8005d0e:	fbb0 f6f6 	udiv	r6, r0, r6
 8005d12:	9807      	ldr	r0, [sp, #28]
 8005d14:	4631      	mov	r1, r6
 8005d16:	9608      	str	r6, [sp, #32]
 8005d18:	e88d 0003 	stmia.w	sp, {r0, r1}
 8005d1c:	cb0e      	ldmia	r3, {r1, r2, r3}
 8005d1e:	6820      	ldr	r0, [r4, #0]
 8005d20:	f000 fcfe 	bl	8006720 <SDMMC_Init>
 8005d24:	6820      	ldr	r0, [r4, #0]
 8005d26:	f000 fd1d 	bl	8006764 <SDMMC_PowerState_ON>
 8005d2a:	4b74      	ldr	r3, [pc, #464]	@ (8005efc <HAL_SD_InitCard+0x224>)
 8005d2c:	4874      	ldr	r0, [pc, #464]	@ (8005f00 <HAL_SD_InitCard+0x228>)
 8005d2e:	429d      	cmp	r5, r3
 8005d30:	bf84      	itt	hi
 8005d32:	0076      	lslhi	r6, r6, #1
 8005d34:	fbb5 f5f6 	udivhi	r5, r5, r6
 8005d38:	fbb0 f0f5 	udiv	r0, r0, r5
 8005d3c:	3001      	adds	r0, #1
 8005d3e:	f7fc f9a7 	bl	8002090 <HAL_Delay>
 8005d42:	2300      	movs	r3, #0
 8005d44:	6820      	ldr	r0, [r4, #0]
 8005d46:	9303      	str	r3, [sp, #12]
 8005d48:	f000 fd40 	bl	80067cc <SDMMC_CmdGoIdleState>
 8005d4c:	4605      	mov	r5, r0
 8005d4e:	b9a8      	cbnz	r0, 8005d7c <HAL_SD_InitCard+0xa4>
 8005d50:	6820      	ldr	r0, [r4, #0]
 8005d52:	f001 f855 	bl	8006e00 <SDMMC_CmdOperCond>
 8005d56:	f1b0 4f00 	cmp.w	r0, #2147483648	@ 0x80000000
 8005d5a:	d106      	bne.n	8005d6a <HAL_SD_InitCard+0x92>
 8005d5c:	6820      	ldr	r0, [r4, #0]
 8005d5e:	63e5      	str	r5, [r4, #60]	@ 0x3c
 8005d60:	f000 fd34 	bl	80067cc <SDMMC_CmdGoIdleState>
 8005d64:	b180      	cbz	r0, 8005d88 <HAL_SD_InitCard+0xb0>
 8005d66:	4605      	mov	r5, r0
 8005d68:	e008      	b.n	8005d7c <HAL_SD_InitCard+0xa4>
 8005d6a:	2301      	movs	r3, #1
 8005d6c:	63e3      	str	r3, [r4, #60]	@ 0x3c
 8005d6e:	2100      	movs	r1, #0
 8005d70:	6820      	ldr	r0, [r4, #0]
 8005d72:	f000 feab 	bl	8006acc <SDMMC_CmdAppCommand>
 8005d76:	b150      	cbz	r0, 8005d8e <HAL_SD_InitCard+0xb6>
 8005d78:	f04f 5580 	mov.w	r5, #268435456	@ 0x10000000
 8005d7c:	2301      	movs	r3, #1
 8005d7e:	f884 3030 	strb.w	r3, [r4, #48]	@ 0x30
 8005d82:	6b63      	ldr	r3, [r4, #52]	@ 0x34
 8005d84:	432b      	orrs	r3, r5
 8005d86:	e7bb      	b.n	8005d00 <HAL_SD_InitCard+0x28>
 8005d88:	6be3      	ldr	r3, [r4, #60]	@ 0x3c
 8005d8a:	2b01      	cmp	r3, #1
 8005d8c:	d0ef      	beq.n	8005d6e <HAL_SD_InitCard+0x96>
 8005d8e:	2100      	movs	r1, #0
 8005d90:	f64f 76fe 	movw	r6, #65534	@ 0xfffe
 8005d94:	4f5b      	ldr	r7, [pc, #364]	@ (8005f04 <HAL_SD_InitCard+0x22c>)
 8005d96:	e014      	b.n	8005dc2 <HAL_SD_InitCard+0xea>
 8005d98:	6820      	ldr	r0, [r4, #0]
 8005d9a:	f000 fe97 	bl	8006acc <SDMMC_CmdAppCommand>
 8005d9e:	4605      	mov	r5, r0
 8005da0:	2800      	cmp	r0, #0
 8005da2:	d1eb      	bne.n	8005d7c <HAL_SD_InitCard+0xa4>
 8005da4:	4639      	mov	r1, r7
 8005da6:	6820      	ldr	r0, [r4, #0]
 8005da8:	f000 ff8c 	bl	8006cc4 <SDMMC_CmdAppOperCommand>
 8005dac:	2800      	cmp	r0, #0
 8005dae:	d1e3      	bne.n	8005d78 <HAL_SD_InitCard+0xa0>
 8005db0:	4629      	mov	r1, r5
 8005db2:	6820      	ldr	r0, [r4, #0]
 8005db4:	f000 fcf4 	bl	80067a0 <SDMMC_GetResponse>
 8005db8:	9b03      	ldr	r3, [sp, #12]
 8005dba:	4605      	mov	r5, r0
 8005dbc:	0fc1      	lsrs	r1, r0, #31
 8005dbe:	3301      	adds	r3, #1
 8005dc0:	9303      	str	r3, [sp, #12]
 8005dc2:	9b03      	ldr	r3, [sp, #12]
 8005dc4:	42b3      	cmp	r3, r6
 8005dc6:	d801      	bhi.n	8005dcc <HAL_SD_InitCard+0xf4>
 8005dc8:	2900      	cmp	r1, #0
 8005dca:	d0e5      	beq.n	8005d98 <HAL_SD_InitCard+0xc0>
 8005dcc:	9b03      	ldr	r3, [sp, #12]
 8005dce:	42b3      	cmp	r3, r6
 8005dd0:	d814      	bhi.n	8005dfc <HAL_SD_InitCard+0x124>
 8005dd2:	f3c5 7580 	ubfx	r5, r5, #30, #1
 8005dd6:	2300      	movs	r3, #0
 8005dd8:	63a5      	str	r5, [r4, #56]	@ 0x38
 8005dda:	f8ad 300a 	strh.w	r3, [sp, #10]
 8005dde:	f7fc f951 	bl	8002084 <HAL_GetTick>
 8005de2:	4605      	mov	r5, r0
 8005de4:	6820      	ldr	r0, [r4, #0]
 8005de6:	f000 fcc3 	bl	8006770 <SDMMC_GetPowerState>
 8005dea:	b950      	cbnz	r0, 8005e02 <HAL_SD_InitCard+0x12a>
 8005dec:	f04f 6180 	mov.w	r1, #67108864	@ 0x4000000
 8005df0:	2301      	movs	r3, #1
 8005df2:	f884 3030 	strb.w	r3, [r4, #48]	@ 0x30
 8005df6:	6b63      	ldr	r3, [r4, #52]	@ 0x34
 8005df8:	430b      	orrs	r3, r1
 8005dfa:	e781      	b.n	8005d00 <HAL_SD_InitCard+0x28>
 8005dfc:	f04f 7580 	mov.w	r5, #16777216	@ 0x1000000
 8005e00:	e7bc      	b.n	8005d7c <HAL_SD_InitCard+0xa4>
 8005e02:	6ba3      	ldr	r3, [r4, #56]	@ 0x38
 8005e04:	6820      	ldr	r0, [r4, #0]
 8005e06:	2b03      	cmp	r3, #3
 8005e08:	d03d      	beq.n	8005e86 <HAL_SD_InitCard+0x1ae>
 8005e0a:	f000 ff09 	bl	8006c20 <SDMMC_CmdSendCID>
 8005e0e:	4601      	mov	r1, r0
 8005e10:	2800      	cmp	r0, #0
 8005e12:	d1ed      	bne.n	8005df0 <HAL_SD_InitCard+0x118>
 8005e14:	6820      	ldr	r0, [r4, #0]
 8005e16:	f000 fcc3 	bl	80067a0 <SDMMC_GetResponse>
 8005e1a:	2104      	movs	r1, #4
 8005e1c:	66e0      	str	r0, [r4, #108]	@ 0x6c
 8005e1e:	6820      	ldr	r0, [r4, #0]
 8005e20:	f000 fcbe 	bl	80067a0 <SDMMC_GetResponse>
 8005e24:	2108      	movs	r1, #8
 8005e26:	6720      	str	r0, [r4, #112]	@ 0x70
 8005e28:	6820      	ldr	r0, [r4, #0]
 8005e2a:	f000 fcb9 	bl	80067a0 <SDMMC_GetResponse>
 8005e2e:	210c      	movs	r1, #12
 8005e30:	6760      	str	r0, [r4, #116]	@ 0x74
 8005e32:	6820      	ldr	r0, [r4, #0]
 8005e34:	f000 fcb4 	bl	80067a0 <SDMMC_GetResponse>
 8005e38:	6ba3      	ldr	r3, [r4, #56]	@ 0x38
 8005e3a:	67a0      	str	r0, [r4, #120]	@ 0x78
 8005e3c:	2b03      	cmp	r3, #3
 8005e3e:	d022      	beq.n	8005e86 <HAL_SD_InitCard+0x1ae>
 8005e40:	f241 3687 	movw	r6, #4999	@ 0x1387
 8005e44:	f8bd 100a 	ldrh.w	r1, [sp, #10]
 8005e48:	6820      	ldr	r0, [r4, #0]
 8005e4a:	b359      	cbz	r1, 8005ea4 <HAL_SD_InitCard+0x1cc>
 8005e4c:	6ba3      	ldr	r3, [r4, #56]	@ 0x38
 8005e4e:	2b03      	cmp	r3, #3
 8005e50:	d019      	beq.n	8005e86 <HAL_SD_InitCard+0x1ae>
 8005e52:	6461      	str	r1, [r4, #68]	@ 0x44
 8005e54:	0409      	lsls	r1, r1, #16
 8005e56:	f000 fefa 	bl	8006c4e <SDMMC_CmdSendCSD>
 8005e5a:	4601      	mov	r1, r0
 8005e5c:	2800      	cmp	r0, #0
 8005e5e:	d1c7      	bne.n	8005df0 <HAL_SD_InitCard+0x118>
 8005e60:	6820      	ldr	r0, [r4, #0]
 8005e62:	f000 fc9d 	bl	80067a0 <SDMMC_GetResponse>
 8005e66:	2104      	movs	r1, #4
 8005e68:	65e0      	str	r0, [r4, #92]	@ 0x5c
 8005e6a:	6820      	ldr	r0, [r4, #0]
 8005e6c:	f000 fc98 	bl	80067a0 <SDMMC_GetResponse>
 8005e70:	2108      	movs	r1, #8
 8005e72:	6620      	str	r0, [r4, #96]	@ 0x60
 8005e74:	6820      	ldr	r0, [r4, #0]
 8005e76:	f000 fc93 	bl	80067a0 <SDMMC_GetResponse>
 8005e7a:	210c      	movs	r1, #12
 8005e7c:	6660      	str	r0, [r4, #100]	@ 0x64
 8005e7e:	6820      	ldr	r0, [r4, #0]
 8005e80:	f000 fc8e 	bl	80067a0 <SDMMC_GetResponse>
 8005e84:	66a0      	str	r0, [r4, #104]	@ 0x68
 8005e86:	2104      	movs	r1, #4
 8005e88:	6820      	ldr	r0, [r4, #0]
 8005e8a:	f000 fc89 	bl	80067a0 <SDMMC_GetResponse>
 8005e8e:	a909      	add	r1, sp, #36	@ 0x24
 8005e90:	0d00      	lsrs	r0, r0, #20
 8005e92:	6420      	str	r0, [r4, #64]	@ 0x40
 8005e94:	4620      	mov	r0, r4
 8005e96:	f7ff fe69 	bl	8005b6c <HAL_SD_GetCardCSD>
 8005e9a:	4605      	mov	r5, r0
 8005e9c:	b188      	cbz	r0, 8005ec2 <HAL_SD_InitCard+0x1ea>
 8005e9e:	f04f 5180 	mov.w	r1, #268435456	@ 0x10000000
 8005ea2:	e7a5      	b.n	8005df0 <HAL_SD_InitCard+0x118>
 8005ea4:	f10d 010a 	add.w	r1, sp, #10
 8005ea8:	f000 ff66 	bl	8006d78 <SDMMC_CmdSetRelAdd>
 8005eac:	4601      	mov	r1, r0
 8005eae:	2800      	cmp	r0, #0
 8005eb0:	d19e      	bne.n	8005df0 <HAL_SD_InitCard+0x118>
 8005eb2:	f7fc f8e7 	bl	8002084 <HAL_GetTick>
 8005eb6:	1b40      	subs	r0, r0, r5
 8005eb8:	42b0      	cmp	r0, r6
 8005eba:	d9c3      	bls.n	8005e44 <HAL_SD_InitCard+0x16c>
 8005ebc:	f04f 4100 	mov.w	r1, #2147483648	@ 0x80000000
 8005ec0:	e796      	b.n	8005df0 <HAL_SD_InitCard+0x118>
 8005ec2:	6c61      	ldr	r1, [r4, #68]	@ 0x44
 8005ec4:	6820      	ldr	r0, [r4, #0]
 8005ec6:	0409      	lsls	r1, r1, #16
 8005ec8:	f000 fde6 	bl	8006a98 <SDMMC_CmdSelDesel>
 8005ecc:	4601      	mov	r1, r0
 8005ece:	2800      	cmp	r0, #0
 8005ed0:	d18e      	bne.n	8005df0 <HAL_SD_InitCard+0x118>
 8005ed2:	f44f 7100 	mov.w	r1, #512	@ 0x200
 8005ed6:	6820      	ldr	r0, [r4, #0]
 8005ed8:	f000 fd32 	bl	8006940 <SDMMC_CmdBlockLength>
 8005edc:	2800      	cmp	r0, #0
 8005ede:	f43f af11 	beq.w	8005d04 <HAL_SD_InitCard+0x2c>
 8005ee2:	6823      	ldr	r3, [r4, #0]
 8005ee4:	4a08      	ldr	r2, [pc, #32]	@ (8005f08 <HAL_SD_InitCard+0x230>)
 8005ee6:	639a      	str	r2, [r3, #56]	@ 0x38
 8005ee8:	6b63      	ldr	r3, [r4, #52]	@ 0x34
 8005eea:	4303      	orrs	r3, r0
 8005eec:	6363      	str	r3, [r4, #52]	@ 0x34
 8005eee:	2301      	movs	r3, #1
 8005ef0:	f884 3030 	strb.w	r3, [r4, #48]	@ 0x30
 8005ef4:	e705      	b.n	8005d02 <HAL_SD_InitCard+0x2a>
 8005ef6:	bf00      	nop
 8005ef8:	000c3500 	.word	0x000c3500
 8005efc:	000c34ff 	.word	0x000c34ff
 8005f00:	00012110 	.word	0x00012110
 8005f04:	c1100000 	.word	0xc1100000
 8005f08:	1fe00fff 	.word	0x1fe00fff

08005f0c <HAL_SD_GetCardStatus>:
 8005f0c:	e92d 41f0 	stmdb	sp!, {r4, r5, r6, r7, r8, lr}
 8005f10:	f890 3030 	ldrb.w	r3, [r0, #48]	@ 0x30
 8005f14:	b096      	sub	sp, #88	@ 0x58
 8005f16:	4604      	mov	r4, r0
 8005f18:	460d      	mov	r5, r1
 8005f1a:	2b03      	cmp	r3, #3
 8005f1c:	f000 80ab 	beq.w	8006076 <HAL_SD_GetCardStatus+0x16a>
 8005f20:	f7fc f8b0 	bl	8002084 <HAL_GetTick>
 8005f24:	2100      	movs	r1, #0
 8005f26:	4606      	mov	r6, r0
 8005f28:	6820      	ldr	r0, [r4, #0]
 8005f2a:	f000 fc39 	bl	80067a0 <SDMMC_GetResponse>
 8005f2e:	0183      	lsls	r3, r0, #6
 8005f30:	f100 80a6 	bmi.w	8006080 <HAL_SD_GetCardStatus+0x174>
 8005f34:	2140      	movs	r1, #64	@ 0x40
 8005f36:	6820      	ldr	r0, [r4, #0]
 8005f38:	f000 fd02 	bl	8006940 <SDMMC_CmdBlockLength>
 8005f3c:	b158      	cbz	r0, 8005f56 <HAL_SD_GetCardStatus+0x4a>
 8005f3e:	6b63      	ldr	r3, [r4, #52]	@ 0x34
 8005f40:	6363      	str	r3, [r4, #52]	@ 0x34
 8005f42:	6823      	ldr	r3, [r4, #0]
 8005f44:	2501      	movs	r5, #1
 8005f46:	4a52      	ldr	r2, [pc, #328]	@ (8006090 <HAL_SD_GetCardStatus+0x184>)
 8005f48:	639a      	str	r2, [r3, #56]	@ 0x38
 8005f4a:	6b63      	ldr	r3, [r4, #52]	@ 0x34
 8005f4c:	4303      	orrs	r3, r0
 8005f4e:	6363      	str	r3, [r4, #52]	@ 0x34
 8005f50:	f884 5030 	strb.w	r5, [r4, #48]	@ 0x30
 8005f54:	e082      	b.n	800605c <HAL_SD_GetCardStatus+0x150>
 8005f56:	6c61      	ldr	r1, [r4, #68]	@ 0x44
 8005f58:	6820      	ldr	r0, [r4, #0]
 8005f5a:	0409      	lsls	r1, r1, #16
 8005f5c:	f000 fdb6 	bl	8006acc <SDMMC_CmdAppCommand>
 8005f60:	2800      	cmp	r0, #0
 8005f62:	d1ec      	bne.n	8005f3e <HAL_SD_GetCardStatus+0x32>
 8005f64:	2340      	movs	r3, #64	@ 0x40
 8005f66:	f04f 37ff 	mov.w	r7, #4294967295
 8005f6a:	f04f 0c60 	mov.w	ip, #96	@ 0x60
 8005f6e:	9004      	str	r0, [sp, #16]
 8005f70:	4669      	mov	r1, sp
 8005f72:	6820      	ldr	r0, [r4, #0]
 8005f74:	e9cd 7300 	strd	r7, r3, [sp]
 8005f78:	2302      	movs	r3, #2
 8005f7a:	e9cd c302 	strd	ip, r3, [sp, #8]
 8005f7e:	2301      	movs	r3, #1
 8005f80:	9305      	str	r3, [sp, #20]
 8005f82:	f000 fc10 	bl	80067a6 <SDMMC_ConfigData>
 8005f86:	6820      	ldr	r0, [r4, #0]
 8005f88:	f000 fe08 	bl	8006b9c <SDMMC_CmdStatusRegister>
 8005f8c:	2800      	cmp	r0, #0
 8005f8e:	d1d6      	bne.n	8005f3e <HAL_SD_GetCardStatus+0x32>
 8005f90:	af06      	add	r7, sp, #24
 8005f92:	6823      	ldr	r3, [r4, #0]
 8005f94:	6b5a      	ldr	r2, [r3, #52]	@ 0x34
 8005f96:	f412 7f95 	tst.w	r2, #298	@ 0x12a
 8005f9a:	d00a      	beq.n	8005fb2 <HAL_SD_GetCardStatus+0xa6>
 8005f9c:	6b5a      	ldr	r2, [r3, #52]	@ 0x34
 8005f9e:	0711      	lsls	r1, r2, #28
 8005fa0:	d471      	bmi.n	8006086 <HAL_SD_GetCardStatus+0x17a>
 8005fa2:	6b5a      	ldr	r2, [r3, #52]	@ 0x34
 8005fa4:	0792      	lsls	r2, r2, #30
 8005fa6:	d470      	bmi.n	800608a <HAL_SD_GetCardStatus+0x17e>
 8005fa8:	6b5b      	ldr	r3, [r3, #52]	@ 0x34
 8005faa:	069b      	lsls	r3, r3, #26
 8005fac:	d51e      	bpl.n	8005fec <HAL_SD_GetCardStatus+0xe0>
 8005fae:	2020      	movs	r0, #32
 8005fb0:	e7c7      	b.n	8005f42 <HAL_SD_GetCardStatus+0x36>
 8005fb2:	6b5b      	ldr	r3, [r3, #52]	@ 0x34
 8005fb4:	0418      	lsls	r0, r3, #16
 8005fb6:	d508      	bpl.n	8005fca <HAL_SD_GetCardStatus+0xbe>
 8005fb8:	f107 0820 	add.w	r8, r7, #32
 8005fbc:	6820      	ldr	r0, [r4, #0]
 8005fbe:	f000 fbc9 	bl	8006754 <SDMMC_ReadFIFO>
 8005fc2:	f847 0b04 	str.w	r0, [r7], #4
 8005fc6:	45b8      	cmp	r8, r7
 8005fc8:	d1f8      	bne.n	8005fbc <HAL_SD_GetCardStatus+0xb0>
 8005fca:	f7fc f85b 	bl	8002084 <HAL_GetTick>
 8005fce:	1b80      	subs	r0, r0, r6
 8005fd0:	3001      	adds	r0, #1
 8005fd2:	d1de      	bne.n	8005f92 <HAL_SD_GetCardStatus+0x86>
 8005fd4:	f04f 4000 	mov.w	r0, #2147483648	@ 0x80000000
 8005fd8:	e7b3      	b.n	8005f42 <HAL_SD_GetCardStatus+0x36>
 8005fda:	f000 fbbb 	bl	8006754 <SDMMC_ReadFIFO>
 8005fde:	f847 0b04 	str.w	r0, [r7], #4
 8005fe2:	f7fc f84f 	bl	8002084 <HAL_GetTick>
 8005fe6:	1b80      	subs	r0, r0, r6
 8005fe8:	3001      	adds	r0, #1
 8005fea:	d0f3      	beq.n	8005fd4 <HAL_SD_GetCardStatus+0xc8>
 8005fec:	6820      	ldr	r0, [r4, #0]
 8005fee:	6b42      	ldr	r2, [r0, #52]	@ 0x34
 8005ff0:	f412 5280 	ands.w	r2, r2, #4096	@ 0x1000
 8005ff4:	d1f1      	bne.n	8005fda <HAL_SD_GetCardStatus+0xce>
 8005ff6:	9906      	ldr	r1, [sp, #24]
 8005ff8:	4b26      	ldr	r3, [pc, #152]	@ (8006094 <HAL_SD_GetCardStatus+0x188>)
 8005ffa:	6383      	str	r3, [r0, #56]	@ 0x38
 8005ffc:	f3c1 1381 	ubfx	r3, r1, #6, #2
 8006000:	702b      	strb	r3, [r5, #0]
 8006002:	f3c1 1340 	ubfx	r3, r1, #5, #1
 8006006:	706b      	strb	r3, [r5, #1]
 8006008:	0a0b      	lsrs	r3, r1, #8
 800600a:	f023 03ff 	bic.w	r3, r3, #255	@ 0xff
 800600e:	ea43 6311 	orr.w	r3, r3, r1, lsr #24
 8006012:	b29b      	uxth	r3, r3
 8006014:	806b      	strh	r3, [r5, #2]
 8006016:	9b07      	ldr	r3, [sp, #28]
 8006018:	ba1b      	rev	r3, r3
 800601a:	606b      	str	r3, [r5, #4]
 800601c:	9b08      	ldr	r3, [sp, #32]
 800601e:	b2d9      	uxtb	r1, r3
 8006020:	7229      	strb	r1, [r5, #8]
 8006022:	f3c3 2107 	ubfx	r1, r3, #8, #8
 8006026:	7269      	strb	r1, [r5, #9]
 8006028:	f3c3 5103 	ubfx	r1, r3, #20, #4
 800602c:	0c1b      	lsrs	r3, r3, #16
 800602e:	72a9      	strb	r1, [r5, #10]
 8006030:	9909      	ldr	r1, [sp, #36]	@ 0x24
 8006032:	f023 03ff 	bic.w	r3, r3, #255	@ 0xff
 8006036:	b2c8      	uxtb	r0, r1
 8006038:	4303      	orrs	r3, r0
 800603a:	81ab      	strh	r3, [r5, #12]
 800603c:	f3c1 2385 	ubfx	r3, r1, #10, #6
 8006040:	73ab      	strb	r3, [r5, #14]
 8006042:	f3c1 2301 	ubfx	r3, r1, #8, #2
 8006046:	73eb      	strb	r3, [r5, #15]
 8006048:	f3c1 1303 	ubfx	r3, r1, #4, #4
 800604c:	f001 010f 	and.w	r1, r1, #15
 8006050:	742b      	strb	r3, [r5, #16]
 8006052:	f89d 302b 	ldrb.w	r3, [sp, #43]	@ 0x2b
 8006056:	7469      	strb	r1, [r5, #17]
 8006058:	74ab      	strb	r3, [r5, #18]
 800605a:	4615      	mov	r5, r2
 800605c:	f44f 7100 	mov.w	r1, #512	@ 0x200
 8006060:	6820      	ldr	r0, [r4, #0]
 8006062:	f000 fc6d 	bl	8006940 <SDMMC_CmdBlockLength>
 8006066:	b138      	cbz	r0, 8006078 <HAL_SD_GetCardStatus+0x16c>
 8006068:	6823      	ldr	r3, [r4, #0]
 800606a:	4a09      	ldr	r2, [pc, #36]	@ (8006090 <HAL_SD_GetCardStatus+0x184>)
 800606c:	639a      	str	r2, [r3, #56]	@ 0x38
 800606e:	2301      	movs	r3, #1
 8006070:	6360      	str	r0, [r4, #52]	@ 0x34
 8006072:	f884 3030 	strb.w	r3, [r4, #48]	@ 0x30
 8006076:	2501      	movs	r5, #1
 8006078:	4628      	mov	r0, r5
 800607a:	b016      	add	sp, #88	@ 0x58
 800607c:	e8bd 81f0 	ldmia.w	sp!, {r4, r5, r6, r7, r8, pc}
 8006080:	f44f 6000 	mov.w	r0, #2048	@ 0x800
 8006084:	e75d      	b.n	8005f42 <HAL_SD_GetCardStatus+0x36>
 8006086:	2008      	movs	r0, #8
 8006088:	e75b      	b.n	8005f42 <HAL_SD_GetCardStatus+0x36>
 800608a:	2002      	movs	r0, #2
 800608c:	e759      	b.n	8005f42 <HAL_SD_GetCardStatus+0x36>
 800608e:	bf00      	nop
 8006090:	1fe00fff 	.word	0x1fe00fff
 8006094:	18000f3a 	.word	0x18000f3a

08006098 <HAL_SD_GetCardInfo>:
 8006098:	6b83      	ldr	r3, [r0, #56]	@ 0x38
 800609a:	600b      	str	r3, [r1, #0]
 800609c:	6bc3      	ldr	r3, [r0, #60]	@ 0x3c
 800609e:	604b      	str	r3, [r1, #4]
 80060a0:	6c03      	ldr	r3, [r0, #64]	@ 0x40
 80060a2:	608b      	str	r3, [r1, #8]
 80060a4:	6c43      	ldr	r3, [r0, #68]	@ 0x44
 80060a6:	60cb      	str	r3, [r1, #12]
 80060a8:	6c83      	ldr	r3, [r0, #72]	@ 0x48
 80060aa:	610b      	str	r3, [r1, #16]
 80060ac:	6cc3      	ldr	r3, [r0, #76]	@ 0x4c
 80060ae:	614b      	str	r3, [r1, #20]
 80060b0:	6d03      	ldr	r3, [r0, #80]	@ 0x50
 80060b2:	618b      	str	r3, [r1, #24]
 80060b4:	6d43      	ldr	r3, [r0, #84]	@ 0x54
 80060b6:	2000      	movs	r0, #0
 80060b8:	61cb      	str	r3, [r1, #28]
 80060ba:	4770      	bx	lr

080060bc <HAL_SD_ConfigWideBusOperation>:
 80060bc:	2303      	movs	r3, #3
 80060be:	b530      	push	{r4, r5, lr}
 80060c0:	f880 3030 	strb.w	r3, [r0, #48]	@ 0x30
 80060c4:	b089      	sub	sp, #36	@ 0x24
 80060c6:	6b83      	ldr	r3, [r0, #56]	@ 0x38
 80060c8:	4604      	mov	r4, r0
 80060ca:	460d      	mov	r5, r1
 80060cc:	2b03      	cmp	r3, #3
 80060ce:	d002      	beq.n	80060d6 <HAL_SD_ConfigWideBusOperation+0x1a>
 80060d0:	f5b1 4f00 	cmp.w	r1, #32768	@ 0x8000
 80060d4:	d103      	bne.n	80060de <HAL_SD_ConfigWideBusOperation+0x22>
 80060d6:	6b63      	ldr	r3, [r4, #52]	@ 0x34
 80060d8:	f043 5380 	orr.w	r3, r3, #268435456	@ 0x10000000
 80060dc:	e01e      	b.n	800611c <HAL_SD_ConfigWideBusOperation+0x60>
 80060de:	f5b1 4f80 	cmp.w	r1, #16384	@ 0x4000
 80060e2:	d123      	bne.n	800612c <HAL_SD_ConfigWideBusOperation+0x70>
 80060e4:	2100      	movs	r1, #0
 80060e6:	6800      	ldr	r0, [r0, #0]
 80060e8:	e9cd 1103 	strd	r1, r1, [sp, #12]
 80060ec:	f000 fb58 	bl	80067a0 <SDMMC_GetResponse>
 80060f0:	0180      	lsls	r0, r0, #6
 80060f2:	d435      	bmi.n	8006160 <HAL_SD_ConfigWideBusOperation+0xa4>
 80060f4:	a903      	add	r1, sp, #12
 80060f6:	4620      	mov	r0, r4
 80060f8:	f7ff fb28 	bl	800574c <SD_FindSCR.constprop.0>
 80060fc:	b960      	cbnz	r0, 8006118 <HAL_SD_ConfigWideBusOperation+0x5c>
 80060fe:	9b04      	ldr	r3, [sp, #16]
 8006100:	0359      	lsls	r1, r3, #13
 8006102:	d530      	bpl.n	8006166 <HAL_SD_ConfigWideBusOperation+0xaa>
 8006104:	6c61      	ldr	r1, [r4, #68]	@ 0x44
 8006106:	6820      	ldr	r0, [r4, #0]
 8006108:	0409      	lsls	r1, r1, #16
 800610a:	f000 fcdf 	bl	8006acc <SDMMC_CmdAppCommand>
 800610e:	b918      	cbnz	r0, 8006118 <HAL_SD_ConfigWideBusOperation+0x5c>
 8006110:	2102      	movs	r1, #2
 8006112:	6820      	ldr	r0, [r4, #0]
 8006114:	f000 fcf4 	bl	8006b00 <SDMMC_CmdBusWidth>
 8006118:	6b63      	ldr	r3, [r4, #52]	@ 0x34
 800611a:	4303      	orrs	r3, r0
 800611c:	6363      	str	r3, [r4, #52]	@ 0x34
 800611e:	6b63      	ldr	r3, [r4, #52]	@ 0x34
 8006120:	b343      	cbz	r3, 8006174 <HAL_SD_ConfigWideBusOperation+0xb8>
 8006122:	6823      	ldr	r3, [r4, #0]
 8006124:	4a3d      	ldr	r2, [pc, #244]	@ (800621c <HAL_SD_ConfigWideBusOperation+0x160>)
 8006126:	639a      	str	r2, [r3, #56]	@ 0x38
 8006128:	2501      	movs	r5, #1
 800612a:	e050      	b.n	80061ce <HAL_SD_ConfigWideBusOperation+0x112>
 800612c:	b9f1      	cbnz	r1, 800616c <HAL_SD_ConfigWideBusOperation+0xb0>
 800612e:	6800      	ldr	r0, [r0, #0]
 8006130:	e9cd 1103 	strd	r1, r1, [sp, #12]
 8006134:	f000 fb34 	bl	80067a0 <SDMMC_GetResponse>
 8006138:	0182      	lsls	r2, r0, #6
 800613a:	d411      	bmi.n	8006160 <HAL_SD_ConfigWideBusOperation+0xa4>
 800613c:	a903      	add	r1, sp, #12
 800613e:	4620      	mov	r0, r4
 8006140:	f7ff fb04 	bl	800574c <SD_FindSCR.constprop.0>
 8006144:	2800      	cmp	r0, #0
 8006146:	d1e7      	bne.n	8006118 <HAL_SD_ConfigWideBusOperation+0x5c>
 8006148:	9b04      	ldr	r3, [sp, #16]
 800614a:	03db      	lsls	r3, r3, #15
 800614c:	d50b      	bpl.n	8006166 <HAL_SD_ConfigWideBusOperation+0xaa>
 800614e:	6c61      	ldr	r1, [r4, #68]	@ 0x44
 8006150:	6820      	ldr	r0, [r4, #0]
 8006152:	0409      	lsls	r1, r1, #16
 8006154:	f000 fcba 	bl	8006acc <SDMMC_CmdAppCommand>
 8006158:	2800      	cmp	r0, #0
 800615a:	d1dd      	bne.n	8006118 <HAL_SD_ConfigWideBusOperation+0x5c>
 800615c:	4601      	mov	r1, r0
 800615e:	e7d8      	b.n	8006112 <HAL_SD_ConfigWideBusOperation+0x56>
 8006160:	f44f 6000 	mov.w	r0, #2048	@ 0x800
 8006164:	e7d8      	b.n	8006118 <HAL_SD_ConfigWideBusOperation+0x5c>
 8006166:	f04f 6080 	mov.w	r0, #67108864	@ 0x4000000
 800616a:	e7d5      	b.n	8006118 <HAL_SD_ConfigWideBusOperation+0x5c>
 800616c:	6b43      	ldr	r3, [r0, #52]	@ 0x34
 800616e:	f043 6300 	orr.w	r3, r3, #134217728	@ 0x8000000
 8006172:	e7d3      	b.n	800611c <HAL_SD_ConfigWideBusOperation+0x60>
 8006174:	f44f 3080 	mov.w	r0, #65536	@ 0x10000
 8006178:	2100      	movs	r1, #0
 800617a:	f7fe ffcf 	bl	800511c <HAL_RCCEx_GetPeriphCLKFreq>
 800617e:	2800      	cmp	r0, #0
 8006180:	d047      	beq.n	8006212 <HAL_SD_ConfigWideBusOperation+0x156>
 8006182:	6863      	ldr	r3, [r4, #4]
 8006184:	4926      	ldr	r1, [pc, #152]	@ (8006220 <HAL_SD_ConfigWideBusOperation+0x164>)
 8006186:	9303      	str	r3, [sp, #12]
 8006188:	68a3      	ldr	r3, [r4, #8]
 800618a:	fbb0 f2f1 	udiv	r2, r0, r1
 800618e:	e9cd 3504 	strd	r3, r5, [sp, #16]
 8006192:	6923      	ldr	r3, [r4, #16]
 8006194:	9306      	str	r3, [sp, #24]
 8006196:	6963      	ldr	r3, [r4, #20]
 8006198:	4293      	cmp	r3, r2
 800619a:	d20c      	bcs.n	80061b6 <HAL_SD_ConfigWideBusOperation+0xfa>
 800619c:	6da5      	ldr	r5, [r4, #88]	@ 0x58
 800619e:	f5b5 7f00 	cmp.w	r5, #512	@ 0x200
 80061a2:	d008      	beq.n	80061b6 <HAL_SD_ConfigWideBusOperation+0xfa>
 80061a4:	f5b5 7f80 	cmp.w	r5, #256	@ 0x100
 80061a8:	d129      	bne.n	80061fe <HAL_SD_ConfigWideBusOperation+0x142>
 80061aa:	bb1b      	cbnz	r3, 80061f4 <HAL_SD_ConfigWideBusOperation+0x138>
 80061ac:	4288      	cmp	r0, r1
 80061ae:	d902      	bls.n	80061b6 <HAL_SD_ConfigWideBusOperation+0xfa>
 80061b0:	4b1c      	ldr	r3, [pc, #112]	@ (8006224 <HAL_SD_ConfigWideBusOperation+0x168>)
 80061b2:	fbb0 f3f3 	udiv	r3, r0, r3
 80061b6:	9307      	str	r3, [sp, #28]
 80061b8:	ab08      	add	r3, sp, #32
 80061ba:	2500      	movs	r5, #0
 80061bc:	e913 0003 	ldmdb	r3, {r0, r1}
 80061c0:	ab03      	add	r3, sp, #12
 80061c2:	e88d 0003 	stmia.w	sp, {r0, r1}
 80061c6:	cb0e      	ldmia	r3, {r1, r2, r3}
 80061c8:	6820      	ldr	r0, [r4, #0]
 80061ca:	f000 faa9 	bl	8006720 <SDMMC_Init>
 80061ce:	f44f 7100 	mov.w	r1, #512	@ 0x200
 80061d2:	6820      	ldr	r0, [r4, #0]
 80061d4:	f000 fbb4 	bl	8006940 <SDMMC_CmdBlockLength>
 80061d8:	b130      	cbz	r0, 80061e8 <HAL_SD_ConfigWideBusOperation+0x12c>
 80061da:	6823      	ldr	r3, [r4, #0]
 80061dc:	2501      	movs	r5, #1
 80061de:	4a0f      	ldr	r2, [pc, #60]	@ (800621c <HAL_SD_ConfigWideBusOperation+0x160>)
 80061e0:	639a      	str	r2, [r3, #56]	@ 0x38
 80061e2:	6b63      	ldr	r3, [r4, #52]	@ 0x34
 80061e4:	4303      	orrs	r3, r0
 80061e6:	6363      	str	r3, [r4, #52]	@ 0x34
 80061e8:	2301      	movs	r3, #1
 80061ea:	4628      	mov	r0, r5
 80061ec:	f884 3030 	strb.w	r3, [r4, #48]	@ 0x30
 80061f0:	b009      	add	sp, #36	@ 0x24
 80061f2:	bd30      	pop	{r4, r5, pc}
 80061f4:	005a      	lsls	r2, r3, #1
 80061f6:	fbb0 f2f2 	udiv	r2, r0, r2
 80061fa:	428a      	cmp	r2, r1
 80061fc:	e7d7      	b.n	80061ae <HAL_SD_ConfigWideBusOperation+0xf2>
 80061fe:	490a      	ldr	r1, [pc, #40]	@ (8006228 <HAL_SD_ConfigWideBusOperation+0x16c>)
 8006200:	b91b      	cbnz	r3, 800620a <HAL_SD_ConfigWideBusOperation+0x14e>
 8006202:	4288      	cmp	r0, r1
 8006204:	bf88      	it	hi
 8006206:	4613      	movhi	r3, r2
 8006208:	e7d5      	b.n	80061b6 <HAL_SD_ConfigWideBusOperation+0xfa>
 800620a:	005d      	lsls	r5, r3, #1
 800620c:	fbb0 f0f5 	udiv	r0, r0, r5
 8006210:	e7f7      	b.n	8006202 <HAL_SD_ConfigWideBusOperation+0x146>
 8006212:	6b63      	ldr	r3, [r4, #52]	@ 0x34
 8006214:	f043 6300 	orr.w	r3, r3, #134217728	@ 0x8000000
 8006218:	6363      	str	r3, [r4, #52]	@ 0x34
 800621a:	e785      	b.n	8006128 <HAL_SD_ConfigWideBusOperation+0x6c>
 800621c:	1fe00fff 	.word	0x1fe00fff
 8006220:	02faf080 	.word	0x02faf080
 8006224:	05f5e100 	.word	0x05f5e100
 8006228:	017d7840 	.word	0x017d7840

0800622c <HAL_SD_GetCardState>:
 800622c:	6c41      	ldr	r1, [r0, #68]	@ 0x44
 800622e:	b510      	push	{r4, lr}
 8006230:	0409      	lsls	r1, r1, #16
 8006232:	4604      	mov	r4, r0
 8006234:	6800      	ldr	r0, [r0, #0]
 8006236:	f000 fc97 	bl	8006b68 <SDMMC_CmdSendStatus>
 800623a:	4601      	mov	r1, r0
 800623c:	b928      	cbnz	r0, 800624a <HAL_SD_GetCardState+0x1e>
 800623e:	6820      	ldr	r0, [r4, #0]
 8006240:	f000 faae 	bl	80067a0 <SDMMC_GetResponse>
 8006244:	f3c0 2043 	ubfx	r0, r0, #9, #4
 8006248:	bd10      	pop	{r4, pc}
 800624a:	6b63      	ldr	r3, [r4, #52]	@ 0x34
 800624c:	4303      	orrs	r3, r0
 800624e:	2000      	movs	r0, #0
 8006250:	6363      	str	r3, [r4, #52]	@ 0x34
 8006252:	e7f7      	b.n	8006244 <HAL_SD_GetCardState+0x18>

08006254 <HAL_SD_Init>:
 8006254:	b570      	push	{r4, r5, r6, lr}
 8006256:	4604      	mov	r4, r0
 8006258:	b086      	sub	sp, #24
 800625a:	b918      	cbnz	r0, 8006264 <HAL_SD_Init+0x10>
 800625c:	2501      	movs	r5, #1
 800625e:	4628      	mov	r0, r5
 8006260:	b006      	add	sp, #24
 8006262:	bd70      	pop	{r4, r5, r6, pc}
 8006264:	f890 3030 	ldrb.w	r3, [r0, #48]	@ 0x30
 8006268:	f003 02ff 	and.w	r2, r3, #255	@ 0xff
 800626c:	b913      	cbnz	r3, 8006274 <HAL_SD_Init+0x20>
 800626e:	7602      	strb	r2, [r0, #24]
 8006270:	f7fb fcec 	bl	8001c4c <HAL_SD_MspInit>
 8006274:	2304      	movs	r3, #4
 8006276:	4620      	mov	r0, r4
 8006278:	f884 3030 	strb.w	r3, [r4, #48]	@ 0x30
 800627c:	f7ff fd2c 	bl	8005cd8 <HAL_SD_InitCard>
 8006280:	2800      	cmp	r0, #0
 8006282:	d1eb      	bne.n	800625c <HAL_SD_Init+0x8>
 8006284:	a901      	add	r1, sp, #4
 8006286:	4620      	mov	r0, r4
 8006288:	f7ff fe40 	bl	8005f0c <HAL_SD_GetCardStatus>
 800628c:	2800      	cmp	r0, #0
 800628e:	d1e5      	bne.n	800625c <HAL_SD_Init+0x8>
 8006290:	6ba1      	ldr	r1, [r4, #56]	@ 0x38
 8006292:	f89d 3014 	ldrb.w	r3, [sp, #20]
 8006296:	2901      	cmp	r1, #1
 8006298:	f89d 2015 	ldrb.w	r2, [sp, #21]
 800629c:	b2db      	uxtb	r3, r3
 800629e:	b2d2      	uxtb	r2, r2
 80062a0:	d105      	bne.n	80062ae <HAL_SD_Init+0x5a>
 80062a2:	4313      	orrs	r3, r2
 80062a4:	bf14      	ite	ne
 80062a6:	f44f 7000 	movne.w	r0, #512	@ 0x200
 80062aa:	f44f 7080 	moveq.w	r0, #256	@ 0x100
 80062ae:	65a0      	str	r0, [r4, #88]	@ 0x58
 80062b0:	4620      	mov	r0, r4
 80062b2:	68e1      	ldr	r1, [r4, #12]
 80062b4:	f7ff ff02 	bl	80060bc <HAL_SD_ConfigWideBusOperation>
 80062b8:	4605      	mov	r5, r0
 80062ba:	2800      	cmp	r0, #0
 80062bc:	d1ce      	bne.n	800625c <HAL_SD_Init+0x8>
 80062be:	f7fb fee1 	bl	8002084 <HAL_GetTick>
 80062c2:	4606      	mov	r6, r0
 80062c4:	4620      	mov	r0, r4
 80062c6:	f7ff ffb1 	bl	800622c <HAL_SD_GetCardState>
 80062ca:	2804      	cmp	r0, #4
 80062cc:	d106      	bne.n	80062dc <HAL_SD_Init+0x88>
 80062ce:	2300      	movs	r3, #0
 80062d0:	6363      	str	r3, [r4, #52]	@ 0x34
 80062d2:	62e3      	str	r3, [r4, #44]	@ 0x2c
 80062d4:	2301      	movs	r3, #1
 80062d6:	f884 3030 	strb.w	r3, [r4, #48]	@ 0x30
 80062da:	e7c0      	b.n	800625e <HAL_SD_Init+0xa>
 80062dc:	f7fb fed2 	bl	8002084 <HAL_GetTick>
 80062e0:	1b80      	subs	r0, r0, r6
 80062e2:	3001      	adds	r0, #1
 80062e4:	d1ee      	bne.n	80062c4 <HAL_SD_Init+0x70>
 80062e6:	f04f 4300 	mov.w	r3, #2147483648	@ 0x80000000
 80062ea:	2503      	movs	r5, #3
 80062ec:	6363      	str	r3, [r4, #52]	@ 0x34
 80062ee:	2301      	movs	r3, #1
 80062f0:	f884 3030 	strb.w	r3, [r4, #48]	@ 0x30
 80062f4:	e7b3      	b.n	800625e <HAL_SD_Init+0xa>

080062f6 <SPI_CloseTransfer>:
 80062f6:	6803      	ldr	r3, [r0, #0]
 80062f8:	6959      	ldr	r1, [r3, #20]
 80062fa:	699a      	ldr	r2, [r3, #24]
 80062fc:	f042 0208 	orr.w	r2, r2, #8
 8006300:	619a      	str	r2, [r3, #24]
 8006302:	699a      	ldr	r2, [r3, #24]
 8006304:	f042 0210 	orr.w	r2, r2, #16
 8006308:	619a      	str	r2, [r3, #24]
 800630a:	681a      	ldr	r2, [r3, #0]
 800630c:	f022 0201 	bic.w	r2, r2, #1
 8006310:	601a      	str	r2, [r3, #0]
 8006312:	691a      	ldr	r2, [r3, #16]
 8006314:	f422 725b 	bic.w	r2, r2, #876	@ 0x36c
 8006318:	f022 0203 	bic.w	r2, r2, #3
 800631c:	611a      	str	r2, [r3, #16]
 800631e:	689a      	ldr	r2, [r3, #8]
 8006320:	f422 4240 	bic.w	r2, r2, #49152	@ 0xc000
 8006324:	609a      	str	r2, [r3, #8]
 8006326:	f890 2081 	ldrb.w	r2, [r0, #129]	@ 0x81
 800632a:	2a04      	cmp	r2, #4
 800632c:	d00b      	beq.n	8006346 <SPI_CloseTransfer+0x50>
 800632e:	068a      	lsls	r2, r1, #26
 8006330:	d509      	bpl.n	8006346 <SPI_CloseTransfer+0x50>
 8006332:	f8d0 2084 	ldr.w	r2, [r0, #132]	@ 0x84
 8006336:	f042 0280 	orr.w	r2, r2, #128	@ 0x80
 800633a:	f8c0 2084 	str.w	r2, [r0, #132]	@ 0x84
 800633e:	699a      	ldr	r2, [r3, #24]
 8006340:	f042 0220 	orr.w	r2, r2, #32
 8006344:	619a      	str	r2, [r3, #24]
 8006346:	f890 2081 	ldrb.w	r2, [r0, #129]	@ 0x81
 800634a:	2a03      	cmp	r2, #3
 800634c:	d00b      	beq.n	8006366 <SPI_CloseTransfer+0x70>
 800634e:	064a      	lsls	r2, r1, #25
 8006350:	d509      	bpl.n	8006366 <SPI_CloseTransfer+0x70>
 8006352:	f8d0 2084 	ldr.w	r2, [r0, #132]	@ 0x84
 8006356:	f042 0204 	orr.w	r2, r2, #4
 800635a:	f8c0 2084 	str.w	r2, [r0, #132]	@ 0x84
 800635e:	699a      	ldr	r2, [r3, #24]
 8006360:	f042 0240 	orr.w	r2, r2, #64	@ 0x40
 8006364:	619a      	str	r2, [r3, #24]
 8006366:	058a      	lsls	r2, r1, #22
 8006368:	d509      	bpl.n	800637e <SPI_CloseTransfer+0x88>
 800636a:	f8d0 2084 	ldr.w	r2, [r0, #132]	@ 0x84
 800636e:	f042 0201 	orr.w	r2, r2, #1
 8006372:	f8c0 2084 	str.w	r2, [r0, #132]	@ 0x84
 8006376:	699a      	ldr	r2, [r3, #24]
 8006378:	f442 7200 	orr.w	r2, r2, #512	@ 0x200
 800637c:	619a      	str	r2, [r3, #24]
 800637e:	05ca      	lsls	r2, r1, #23
 8006380:	d509      	bpl.n	8006396 <SPI_CloseTransfer+0xa0>
 8006382:	f8d0 2084 	ldr.w	r2, [r0, #132]	@ 0x84
 8006386:	f042 0208 	orr.w	r2, r2, #8
 800638a:	f8c0 2084 	str.w	r2, [r0, #132]	@ 0x84
 800638e:	699a      	ldr	r2, [r3, #24]
 8006390:	f442 7280 	orr.w	r2, r2, #256	@ 0x100
 8006394:	619a      	str	r2, [r3, #24]
 8006396:	2300      	movs	r3, #0
 8006398:	f8a0 3062 	strh.w	r3, [r0, #98]	@ 0x62
 800639c:	f8a0 306a 	strh.w	r3, [r0, #106]	@ 0x6a
 80063a0:	4770      	bx	lr
	...

080063a4 <HAL_SPI_Init>:
 80063a4:	b5f8      	push	{r3, r4, r5, r6, r7, lr}
 80063a6:	4604      	mov	r4, r0
 80063a8:	b908      	cbnz	r0, 80063ae <HAL_SPI_Init+0xa>
 80063aa:	2001      	movs	r0, #1
 80063ac:	bdf8      	pop	{r3, r4, r5, r6, r7, pc}
 80063ae:	6802      	ldr	r2, [r0, #0]
 80063b0:	2300      	movs	r3, #0
 80063b2:	494d      	ldr	r1, [pc, #308]	@ (80064e8 <HAL_SPI_Init+0x144>)
 80063b4:	6283      	str	r3, [r0, #40]	@ 0x28
 80063b6:	428a      	cmp	r2, r1
 80063b8:	68c3      	ldr	r3, [r0, #12]
 80063ba:	d009      	beq.n	80063d0 <HAL_SPI_Init+0x2c>
 80063bc:	f5a1 4178 	sub.w	r1, r1, #63488	@ 0xf800
 80063c0:	428a      	cmp	r2, r1
 80063c2:	d005      	beq.n	80063d0 <HAL_SPI_Init+0x2c>
 80063c4:	f501 6180 	add.w	r1, r1, #1024	@ 0x400
 80063c8:	428a      	cmp	r2, r1
 80063ca:	d001      	beq.n	80063d0 <HAL_SPI_Init+0x2c>
 80063cc:	2b0f      	cmp	r3, #15
 80063ce:	d8ec      	bhi.n	80063aa <HAL_SPI_Init+0x6>
 80063d0:	6be1      	ldr	r1, [r4, #60]	@ 0x3c
 80063d2:	3308      	adds	r3, #8
 80063d4:	0949      	lsrs	r1, r1, #5
 80063d6:	08db      	lsrs	r3, r3, #3
 80063d8:	fb01 3303 	mla	r3, r1, r3, r3
 80063dc:	4942      	ldr	r1, [pc, #264]	@ (80064e8 <HAL_SPI_Init+0x144>)
 80063de:	428a      	cmp	r2, r1
 80063e0:	d073      	beq.n	80064ca <HAL_SPI_Init+0x126>
 80063e2:	f5a1 4178 	sub.w	r1, r1, #63488	@ 0xf800
 80063e6:	428a      	cmp	r2, r1
 80063e8:	d06f      	beq.n	80064ca <HAL_SPI_Init+0x126>
 80063ea:	f501 6180 	add.w	r1, r1, #1024	@ 0x400
 80063ee:	428a      	cmp	r2, r1
 80063f0:	d06b      	beq.n	80064ca <HAL_SPI_Init+0x126>
 80063f2:	2b08      	cmp	r3, #8
 80063f4:	d8d9      	bhi.n	80063aa <HAL_SPI_Init+0x6>
 80063f6:	f894 3081 	ldrb.w	r3, [r4, #129]	@ 0x81
 80063fa:	f003 02ff 	and.w	r2, r3, #255	@ 0xff
 80063fe:	b923      	cbnz	r3, 800640a <HAL_SPI_Init+0x66>
 8006400:	4620      	mov	r0, r4
 8006402:	f884 2080 	strb.w	r2, [r4, #128]	@ 0x80
 8006406:	f7fb fcab 	bl	8001d60 <HAL_SPI_MspInit>
 800640a:	6822      	ldr	r2, [r4, #0]
 800640c:	2302      	movs	r3, #2
 800640e:	6861      	ldr	r1, [r4, #4]
 8006410:	f884 3081 	strb.w	r3, [r4, #129]	@ 0x81
 8006414:	6813      	ldr	r3, [r2, #0]
 8006416:	6ba6      	ldr	r6, [r4, #56]	@ 0x38
 8006418:	f023 0301 	bic.w	r3, r3, #1
 800641c:	6013      	str	r3, [r2, #0]
 800641e:	6893      	ldr	r3, [r2, #8]
 8006420:	f403 1cf8 	and.w	ip, r3, #2031616	@ 0x1f0000
 8006424:	69a3      	ldr	r3, [r4, #24]
 8006426:	f1b3 6f80 	cmp.w	r3, #67108864	@ 0x4000000
 800642a:	d104      	bne.n	8006436 <HAL_SPI_Init+0x92>
 800642c:	f5b1 0f80 	cmp.w	r1, #4194304	@ 0x400000
 8006430:	d14d      	bne.n	80064ce <HAL_SPI_Init+0x12a>
 8006432:	2e00      	cmp	r6, #0
 8006434:	d050      	beq.n	80064d8 <HAL_SPI_Init+0x134>
 8006436:	f411 0080 	ands.w	r0, r1, #4194304	@ 0x400000
 800643a:	68e5      	ldr	r5, [r4, #12]
 800643c:	6817      	ldr	r7, [r2, #0]
 800643e:	d050      	beq.n	80064e2 <HAL_SPI_Init+0x13e>
 8006440:	2d06      	cmp	r5, #6
 8006442:	d94e      	bls.n	80064e2 <HAL_SPI_Init+0x13e>
 8006444:	f427 7e80 	bic.w	lr, r7, #256	@ 0x100
 8006448:	6d27      	ldr	r7, [r4, #80]	@ 0x50
 800644a:	ea4e 0707 	orr.w	r7, lr, r7
 800644e:	6017      	str	r7, [r2, #0]
 8006450:	430b      	orrs	r3, r1
 8006452:	69e7      	ldr	r7, [r4, #28]
 8006454:	4333      	orrs	r3, r6
 8006456:	433d      	orrs	r5, r7
 8006458:	6aa7      	ldr	r7, [r4, #40]	@ 0x28
 800645a:	433d      	orrs	r5, r7
 800645c:	6be7      	ldr	r7, [r4, #60]	@ 0x3c
 800645e:	433d      	orrs	r5, r7
 8006460:	ea45 050c 	orr.w	r5, r5, ip
 8006464:	6095      	str	r5, [r2, #8]
 8006466:	6b65      	ldr	r5, [r4, #52]	@ 0x34
 8006468:	432b      	orrs	r3, r5
 800646a:	6a65      	ldr	r5, [r4, #36]	@ 0x24
 800646c:	432b      	orrs	r3, r5
 800646e:	6925      	ldr	r5, [r4, #16]
 8006470:	432b      	orrs	r3, r5
 8006472:	6965      	ldr	r5, [r4, #20]
 8006474:	432b      	orrs	r3, r5
 8006476:	6a25      	ldr	r5, [r4, #32]
 8006478:	432b      	orrs	r3, r5
 800647a:	6ce5      	ldr	r5, [r4, #76]	@ 0x4c
 800647c:	432b      	orrs	r3, r5
 800647e:	68a5      	ldr	r5, [r4, #8]
 8006480:	432b      	orrs	r3, r5
 8006482:	6ca5      	ldr	r5, [r4, #72]	@ 0x48
 8006484:	432b      	orrs	r3, r5
 8006486:	6da5      	ldr	r5, [r4, #88]	@ 0x58
 8006488:	432b      	orrs	r3, r5
 800648a:	60d3      	str	r3, [r2, #12]
 800648c:	b959      	cbnz	r1, 80064a6 <HAL_SPI_Init+0x102>
 800648e:	6893      	ldr	r3, [r2, #8]
 8006490:	f423 53c0 	bic.w	r3, r3, #6144	@ 0x1800
 8006494:	f443 6300 	orr.w	r3, r3, #2048	@ 0x800
 8006498:	6093      	str	r3, [r2, #8]
 800649a:	6893      	ldr	r3, [r2, #8]
 800649c:	f423 63c0 	bic.w	r3, r3, #1536	@ 0x600
 80064a0:	f443 6380 	orr.w	r3, r3, #1024	@ 0x400
 80064a4:	6093      	str	r3, [r2, #8]
 80064a6:	6d13      	ldr	r3, [r2, #80]	@ 0x50
 80064a8:	f023 0301 	bic.w	r3, r3, #1
 80064ac:	6513      	str	r3, [r2, #80]	@ 0x50
 80064ae:	b128      	cbz	r0, 80064bc <HAL_SPI_Init+0x118>
 80064b0:	68d3      	ldr	r3, [r2, #12]
 80064b2:	6d61      	ldr	r1, [r4, #84]	@ 0x54
 80064b4:	f023 4300 	bic.w	r3, r3, #2147483648	@ 0x80000000
 80064b8:	430b      	orrs	r3, r1
 80064ba:	60d3      	str	r3, [r2, #12]
 80064bc:	2000      	movs	r0, #0
 80064be:	2301      	movs	r3, #1
 80064c0:	f8c4 0084 	str.w	r0, [r4, #132]	@ 0x84
 80064c4:	f884 3081 	strb.w	r3, [r4, #129]	@ 0x81
 80064c8:	e770      	b.n	80063ac <HAL_SPI_Init+0x8>
 80064ca:	2b10      	cmp	r3, #16
 80064cc:	e792      	b.n	80063f4 <HAL_SPI_Init+0x50>
 80064ce:	2900      	cmp	r1, #0
 80064d0:	d1b1      	bne.n	8006436 <HAL_SPI_Init+0x92>
 80064d2:	f1b6 5f80 	cmp.w	r6, #268435456	@ 0x10000000
 80064d6:	d1ae      	bne.n	8006436 <HAL_SPI_Init+0x92>
 80064d8:	6810      	ldr	r0, [r2, #0]
 80064da:	f440 5080 	orr.w	r0, r0, #4096	@ 0x1000
 80064de:	6010      	str	r0, [r2, #0]
 80064e0:	e7a9      	b.n	8006436 <HAL_SPI_Init+0x92>
 80064e2:	f427 7780 	bic.w	r7, r7, #256	@ 0x100
 80064e6:	e7b2      	b.n	800644e <HAL_SPI_Init+0xaa>
 80064e8:	40013000 	.word	0x40013000

080064ec <HAL_SPI_Transmit>:
 80064ec:	e92d 43f8 	stmdb	sp!, {r3, r4, r5, r6, r7, r8, r9, lr}
 80064f0:	4604      	mov	r4, r0
 80064f2:	461d      	mov	r5, r3
 80064f4:	4689      	mov	r9, r1
 80064f6:	4690      	mov	r8, r2
 80064f8:	6807      	ldr	r7, [r0, #0]
 80064fa:	f7fb fdc3 	bl	8002084 <HAL_GetTick>
 80064fe:	f894 3081 	ldrb.w	r3, [r4, #129]	@ 0x81
 8006502:	4606      	mov	r6, r0
 8006504:	2b01      	cmp	r3, #1
 8006506:	b2d8      	uxtb	r0, r3
 8006508:	f040 8108 	bne.w	800671c <HAL_SPI_Transmit+0x230>
 800650c:	f1b9 0f00 	cmp.w	r9, #0
 8006510:	f000 80a3 	beq.w	800665a <HAL_SPI_Transmit+0x16e>
 8006514:	f1b8 0f00 	cmp.w	r8, #0
 8006518:	f000 809f 	beq.w	800665a <HAL_SPI_Transmit+0x16e>
 800651c:	f894 3080 	ldrb.w	r3, [r4, #128]	@ 0x80
 8006520:	2b01      	cmp	r3, #1
 8006522:	f000 80fb 	beq.w	800671c <HAL_SPI_Transmit+0x230>
 8006526:	2303      	movs	r3, #3
 8006528:	68a2      	ldr	r2, [r4, #8]
 800652a:	f884 0080 	strb.w	r0, [r4, #128]	@ 0x80
 800652e:	f884 3081 	strb.w	r3, [r4, #129]	@ 0x81
 8006532:	f5b2 2fc0 	cmp.w	r2, #393216	@ 0x60000
 8006536:	f04f 0300 	mov.w	r3, #0
 800653a:	f8c4 905c 	str.w	r9, [r4, #92]	@ 0x5c
 800653e:	f8a4 8060 	strh.w	r8, [r4, #96]	@ 0x60
 8006542:	f8c4 3084 	str.w	r3, [r4, #132]	@ 0x84
 8006546:	6663      	str	r3, [r4, #100]	@ 0x64
 8006548:	f8a4 8062 	strh.w	r8, [r4, #98]	@ 0x62
 800654c:	f8a4 3068 	strh.w	r3, [r4, #104]	@ 0x68
 8006550:	f8a4 306a 	strh.w	r3, [r4, #106]	@ 0x6a
 8006554:	e9c4 331c 	strd	r3, r3, [r4, #112]	@ 0x70
 8006558:	6823      	ldr	r3, [r4, #0]
 800655a:	d139      	bne.n	80065d0 <HAL_SPI_Transmit+0xe4>
 800655c:	681a      	ldr	r2, [r3, #0]
 800655e:	f442 6200 	orr.w	r2, r2, #2048	@ 0x800
 8006562:	601a      	str	r2, [r3, #0]
 8006564:	6859      	ldr	r1, [r3, #4]
 8006566:	0c09      	lsrs	r1, r1, #16
 8006568:	0409      	lsls	r1, r1, #16
 800656a:	ea41 0108 	orr.w	r1, r1, r8
 800656e:	6059      	str	r1, [r3, #4]
 8006570:	681a      	ldr	r2, [r3, #0]
 8006572:	f042 0201 	orr.w	r2, r2, #1
 8006576:	601a      	str	r2, [r3, #0]
 8006578:	6862      	ldr	r2, [r4, #4]
 800657a:	f5b2 0f80 	cmp.w	r2, #4194304	@ 0x400000
 800657e:	d103      	bne.n	8006588 <HAL_SPI_Transmit+0x9c>
 8006580:	681a      	ldr	r2, [r3, #0]
 8006582:	f442 7200 	orr.w	r2, r2, #512	@ 0x200
 8006586:	601a      	str	r2, [r3, #0]
 8006588:	68e3      	ldr	r3, [r4, #12]
 800658a:	2b0f      	cmp	r3, #15
 800658c:	d835      	bhi.n	80065fa <HAL_SPI_Transmit+0x10e>
 800658e:	2b07      	cmp	r3, #7
 8006590:	d87a      	bhi.n	8006688 <HAL_SPI_Transmit+0x19c>
 8006592:	f8b4 3062 	ldrh.w	r3, [r4, #98]	@ 0x62
 8006596:	6821      	ldr	r1, [r4, #0]
 8006598:	b29b      	uxth	r3, r3
 800659a:	2b00      	cmp	r3, #0
 800659c:	d033      	beq.n	8006606 <HAL_SPI_Transmit+0x11a>
 800659e:	694b      	ldr	r3, [r1, #20]
 80065a0:	0798      	lsls	r0, r3, #30
 80065a2:	f140 80a1 	bpl.w	80066e8 <HAL_SPI_Transmit+0x1fc>
 80065a6:	f8b4 3062 	ldrh.w	r3, [r4, #98]	@ 0x62
 80065aa:	6de2      	ldr	r2, [r4, #92]	@ 0x5c
 80065ac:	b29b      	uxth	r3, r3
 80065ae:	2b03      	cmp	r3, #3
 80065b0:	f240 8081 	bls.w	80066b6 <HAL_SPI_Transmit+0x1ca>
 80065b4:	6be3      	ldr	r3, [r4, #60]	@ 0x3c
 80065b6:	2b40      	cmp	r3, #64	@ 0x40
 80065b8:	d97d      	bls.n	80066b6 <HAL_SPI_Transmit+0x1ca>
 80065ba:	f852 3b04 	ldr.w	r3, [r2], #4
 80065be:	620b      	str	r3, [r1, #32]
 80065c0:	f8b4 3062 	ldrh.w	r3, [r4, #98]	@ 0x62
 80065c4:	65e2      	str	r2, [r4, #92]	@ 0x5c
 80065c6:	3b04      	subs	r3, #4
 80065c8:	b29b      	uxth	r3, r3
 80065ca:	f8a4 3062 	strh.w	r3, [r4, #98]	@ 0x62
 80065ce:	e7e0      	b.n	8006592 <HAL_SPI_Transmit+0xa6>
 80065d0:	68da      	ldr	r2, [r3, #12]
 80065d2:	f422 22c0 	bic.w	r2, r2, #393216	@ 0x60000
 80065d6:	f442 3200 	orr.w	r2, r2, #131072	@ 0x20000
 80065da:	60da      	str	r2, [r3, #12]
 80065dc:	e7c2      	b.n	8006564 <HAL_SPI_Transmit+0x78>
 80065de:	6953      	ldr	r3, [r2, #20]
 80065e0:	0798      	lsls	r0, r3, #30
 80065e2:	d523      	bpl.n	800662c <HAL_SPI_Transmit+0x140>
 80065e4:	6de3      	ldr	r3, [r4, #92]	@ 0x5c
 80065e6:	f853 1b04 	ldr.w	r1, [r3], #4
 80065ea:	6211      	str	r1, [r2, #32]
 80065ec:	65e3      	str	r3, [r4, #92]	@ 0x5c
 80065ee:	f8b4 3062 	ldrh.w	r3, [r4, #98]	@ 0x62
 80065f2:	3b01      	subs	r3, #1
 80065f4:	b29b      	uxth	r3, r3
 80065f6:	f8a4 3062 	strh.w	r3, [r4, #98]	@ 0x62
 80065fa:	f8b4 3062 	ldrh.w	r3, [r4, #98]	@ 0x62
 80065fe:	6822      	ldr	r2, [r4, #0]
 8006600:	b29b      	uxth	r3, r3
 8006602:	2b00      	cmp	r3, #0
 8006604:	d1eb      	bne.n	80065de <HAL_SPI_Transmit+0xf2>
 8006606:	6823      	ldr	r3, [r4, #0]
 8006608:	695b      	ldr	r3, [r3, #20]
 800660a:	071b      	lsls	r3, r3, #28
 800660c:	d576      	bpl.n	80066fc <HAL_SPI_Transmit+0x210>
 800660e:	4620      	mov	r0, r4
 8006610:	f7ff fe71 	bl	80062f6 <SPI_CloseTransfer>
 8006614:	2301      	movs	r3, #1
 8006616:	f884 3081 	strb.w	r3, [r4, #129]	@ 0x81
 800661a:	2300      	movs	r3, #0
 800661c:	f8d4 0084 	ldr.w	r0, [r4, #132]	@ 0x84
 8006620:	f884 3080 	strb.w	r3, [r4, #128]	@ 0x80
 8006624:	1ac0      	subs	r0, r0, r3
 8006626:	bf18      	it	ne
 8006628:	2001      	movne	r0, #1
 800662a:	e016      	b.n	800665a <HAL_SPI_Transmit+0x16e>
 800662c:	f7fb fd2a 	bl	8002084 <HAL_GetTick>
 8006630:	1b80      	subs	r0, r0, r6
 8006632:	42a8      	cmp	r0, r5
 8006634:	d3e1      	bcc.n	80065fa <HAL_SPI_Transmit+0x10e>
 8006636:	1c69      	adds	r1, r5, #1
 8006638:	d0df      	beq.n	80065fa <HAL_SPI_Transmit+0x10e>
 800663a:	4620      	mov	r0, r4
 800663c:	f7ff fe5b 	bl	80062f6 <SPI_CloseTransfer>
 8006640:	f8d4 3084 	ldr.w	r3, [r4, #132]	@ 0x84
 8006644:	2003      	movs	r0, #3
 8006646:	f443 7380 	orr.w	r3, r3, #256	@ 0x100
 800664a:	f8c4 3084 	str.w	r3, [r4, #132]	@ 0x84
 800664e:	2301      	movs	r3, #1
 8006650:	f884 3081 	strb.w	r3, [r4, #129]	@ 0x81
 8006654:	2300      	movs	r3, #0
 8006656:	f884 3080 	strb.w	r3, [r4, #128]	@ 0x80
 800665a:	e8bd 83f8 	ldmia.w	sp!, {r3, r4, r5, r6, r7, r8, r9, pc}
 800665e:	694b      	ldr	r3, [r1, #20]
 8006660:	079a      	lsls	r2, r3, #30
 8006662:	d520      	bpl.n	80066a6 <HAL_SPI_Transmit+0x1ba>
 8006664:	f8b4 2062 	ldrh.w	r2, [r4, #98]	@ 0x62
 8006668:	6de3      	ldr	r3, [r4, #92]	@ 0x5c
 800666a:	b292      	uxth	r2, r2
 800666c:	2a01      	cmp	r2, #1
 800666e:	d912      	bls.n	8006696 <HAL_SPI_Transmit+0x1aa>
 8006670:	6be2      	ldr	r2, [r4, #60]	@ 0x3c
 8006672:	b182      	cbz	r2, 8006696 <HAL_SPI_Transmit+0x1aa>
 8006674:	f853 2b04 	ldr.w	r2, [r3], #4
 8006678:	620a      	str	r2, [r1, #32]
 800667a:	65e3      	str	r3, [r4, #92]	@ 0x5c
 800667c:	f8b4 3062 	ldrh.w	r3, [r4, #98]	@ 0x62
 8006680:	3b02      	subs	r3, #2
 8006682:	b29b      	uxth	r3, r3
 8006684:	f8a4 3062 	strh.w	r3, [r4, #98]	@ 0x62
 8006688:	f8b4 3062 	ldrh.w	r3, [r4, #98]	@ 0x62
 800668c:	6821      	ldr	r1, [r4, #0]
 800668e:	b29b      	uxth	r3, r3
 8006690:	2b00      	cmp	r3, #0
 8006692:	d1e4      	bne.n	800665e <HAL_SPI_Transmit+0x172>
 8006694:	e7b7      	b.n	8006606 <HAL_SPI_Transmit+0x11a>
 8006696:	f833 2b02 	ldrh.w	r2, [r3], #2
 800669a:	843a      	strh	r2, [r7, #32]
 800669c:	65e3      	str	r3, [r4, #92]	@ 0x5c
 800669e:	f8b4 3062 	ldrh.w	r3, [r4, #98]	@ 0x62
 80066a2:	3b01      	subs	r3, #1
 80066a4:	e7ed      	b.n	8006682 <HAL_SPI_Transmit+0x196>
 80066a6:	f7fb fced 	bl	8002084 <HAL_GetTick>
 80066aa:	1b80      	subs	r0, r0, r6
 80066ac:	42a8      	cmp	r0, r5
 80066ae:	d3eb      	bcc.n	8006688 <HAL_SPI_Transmit+0x19c>
 80066b0:	1c6b      	adds	r3, r5, #1
 80066b2:	d0e9      	beq.n	8006688 <HAL_SPI_Transmit+0x19c>
 80066b4:	e7c1      	b.n	800663a <HAL_SPI_Transmit+0x14e>
 80066b6:	f8b4 3062 	ldrh.w	r3, [r4, #98]	@ 0x62
 80066ba:	b29b      	uxth	r3, r3
 80066bc:	2b01      	cmp	r3, #1
 80066be:	d909      	bls.n	80066d4 <HAL_SPI_Transmit+0x1e8>
 80066c0:	6be3      	ldr	r3, [r4, #60]	@ 0x3c
 80066c2:	b13b      	cbz	r3, 80066d4 <HAL_SPI_Transmit+0x1e8>
 80066c4:	f832 3b02 	ldrh.w	r3, [r2], #2
 80066c8:	843b      	strh	r3, [r7, #32]
 80066ca:	f8b4 3062 	ldrh.w	r3, [r4, #98]	@ 0x62
 80066ce:	65e2      	str	r2, [r4, #92]	@ 0x5c
 80066d0:	3b02      	subs	r3, #2
 80066d2:	e779      	b.n	80065c8 <HAL_SPI_Transmit+0xdc>
 80066d4:	7813      	ldrb	r3, [r2, #0]
 80066d6:	f881 3020 	strb.w	r3, [r1, #32]
 80066da:	6de3      	ldr	r3, [r4, #92]	@ 0x5c
 80066dc:	3301      	adds	r3, #1
 80066de:	65e3      	str	r3, [r4, #92]	@ 0x5c
 80066e0:	f8b4 3062 	ldrh.w	r3, [r4, #98]	@ 0x62
 80066e4:	3b01      	subs	r3, #1
 80066e6:	e76f      	b.n	80065c8 <HAL_SPI_Transmit+0xdc>
 80066e8:	f7fb fccc 	bl	8002084 <HAL_GetTick>
 80066ec:	1b80      	subs	r0, r0, r6
 80066ee:	42a8      	cmp	r0, r5
 80066f0:	f4ff af4f 	bcc.w	8006592 <HAL_SPI_Transmit+0xa6>
 80066f4:	1c69      	adds	r1, r5, #1
 80066f6:	f43f af4c 	beq.w	8006592 <HAL_SPI_Transmit+0xa6>
 80066fa:	e79e      	b.n	800663a <HAL_SPI_Transmit+0x14e>
 80066fc:	f7fb fcc2 	bl	8002084 <HAL_GetTick>
 8006700:	1b80      	subs	r0, r0, r6
 8006702:	4285      	cmp	r5, r0
 8006704:	f63f af7f 	bhi.w	8006606 <HAL_SPI_Transmit+0x11a>
 8006708:	1c6a      	adds	r2, r5, #1
 800670a:	f43f af7c 	beq.w	8006606 <HAL_SPI_Transmit+0x11a>
 800670e:	f8d4 3084 	ldr.w	r3, [r4, #132]	@ 0x84
 8006712:	f043 0320 	orr.w	r3, r3, #32
 8006716:	f8c4 3084 	str.w	r3, [r4, #132]	@ 0x84
 800671a:	e778      	b.n	800660e <HAL_SPI_Transmit+0x122>
 800671c:	2002      	movs	r0, #2
 800671e:	e79c      	b.n	800665a <HAL_SPI_Transmit+0x16e>

08006720 <SDMMC_Init>:
 8006720:	b084      	sub	sp, #16
 8006722:	b510      	push	{r4, lr}
 8006724:	ac03      	add	r4, sp, #12
 8006726:	e884 000e 	stmia.w	r4, {r1, r2, r3}
 800672a:	9b03      	ldr	r3, [sp, #12]
 800672c:	6841      	ldr	r1, [r0, #4]
 800672e:	4313      	orrs	r3, r2
 8006730:	9a05      	ldr	r2, [sp, #20]
 8006732:	4313      	orrs	r3, r2
 8006734:	9a06      	ldr	r2, [sp, #24]
 8006736:	4313      	orrs	r3, r2
 8006738:	9a07      	ldr	r2, [sp, #28]
 800673a:	4313      	orrs	r3, r2
 800673c:	4a04      	ldr	r2, [pc, #16]	@ (8006750 <SDMMC_Init+0x30>)
 800673e:	400a      	ands	r2, r1
 8006740:	e8bd 4010 	ldmia.w	sp!, {r4, lr}
 8006744:	4313      	orrs	r3, r2
 8006746:	b004      	add	sp, #16
 8006748:	6043      	str	r3, [r0, #4]
 800674a:	2000      	movs	r0, #0
 800674c:	4770      	bx	lr
 800674e:	bf00      	nop
 8006750:	ffc02c00 	.word	0xffc02c00

08006754 <SDMMC_ReadFIFO>:
 8006754:	f8d0 0080 	ldr.w	r0, [r0, #128]	@ 0x80
 8006758:	4770      	bx	lr

0800675a <SDMMC_WriteFIFO>:
 800675a:	680b      	ldr	r3, [r1, #0]
 800675c:	f8c0 3080 	str.w	r3, [r0, #128]	@ 0x80
 8006760:	2000      	movs	r0, #0
 8006762:	4770      	bx	lr

08006764 <SDMMC_PowerState_ON>:
 8006764:	6803      	ldr	r3, [r0, #0]
 8006766:	f043 0303 	orr.w	r3, r3, #3
 800676a:	6003      	str	r3, [r0, #0]
 800676c:	2000      	movs	r0, #0
 800676e:	4770      	bx	lr

08006770 <SDMMC_GetPowerState>:
 8006770:	6800      	ldr	r0, [r0, #0]
 8006772:	f000 0003 	and.w	r0, r0, #3
 8006776:	4770      	bx	lr

08006778 <SDMMC_SendCommand>:
 8006778:	680b      	ldr	r3, [r1, #0]
 800677a:	b510      	push	{r4, lr}
 800677c:	6083      	str	r3, [r0, #8]
 800677e:	68c4      	ldr	r4, [r0, #12]
 8006780:	e9d1 3201 	ldrd	r3, r2, [r1, #4]
 8006784:	4313      	orrs	r3, r2
 8006786:	68ca      	ldr	r2, [r1, #12]
 8006788:	4313      	orrs	r3, r2
 800678a:	690a      	ldr	r2, [r1, #16]
 800678c:	4313      	orrs	r3, r2
 800678e:	4a03      	ldr	r2, [pc, #12]	@ (800679c <SDMMC_SendCommand+0x24>)
 8006790:	4022      	ands	r2, r4
 8006792:	4313      	orrs	r3, r2
 8006794:	60c3      	str	r3, [r0, #12]
 8006796:	2000      	movs	r0, #0
 8006798:	bd10      	pop	{r4, pc}
 800679a:	bf00      	nop
 800679c:	fffee0c0 	.word	0xfffee0c0

080067a0 <SDMMC_GetResponse>:
 80067a0:	3014      	adds	r0, #20
 80067a2:	5840      	ldr	r0, [r0, r1]
 80067a4:	4770      	bx	lr

080067a6 <SDMMC_ConfigData>:
 80067a6:	680b      	ldr	r3, [r1, #0]
 80067a8:	b510      	push	{r4, lr}
 80067aa:	6243      	str	r3, [r0, #36]	@ 0x24
 80067ac:	684b      	ldr	r3, [r1, #4]
 80067ae:	6283      	str	r3, [r0, #40]	@ 0x28
 80067b0:	6ac2      	ldr	r2, [r0, #44]	@ 0x2c
 80067b2:	e9d1 3402 	ldrd	r3, r4, [r1, #8]
 80067b6:	f022 02ff 	bic.w	r2, r2, #255	@ 0xff
 80067ba:	4323      	orrs	r3, r4
 80067bc:	690c      	ldr	r4, [r1, #16]
 80067be:	6949      	ldr	r1, [r1, #20]
 80067c0:	4323      	orrs	r3, r4
 80067c2:	430b      	orrs	r3, r1
 80067c4:	4313      	orrs	r3, r2
 80067c6:	62c3      	str	r3, [r0, #44]	@ 0x2c
 80067c8:	2000      	movs	r0, #0
 80067ca:	bd10      	pop	{r4, pc}

080067cc <SDMMC_CmdGoIdleState>:
 80067cc:	b510      	push	{r4, lr}
 80067ce:	2300      	movs	r3, #0
 80067d0:	b086      	sub	sp, #24
 80067d2:	4604      	mov	r4, r0
 80067d4:	a901      	add	r1, sp, #4
 80067d6:	e9cd 3301 	strd	r3, r3, [sp, #4]
 80067da:	e9cd 3303 	strd	r3, r3, [sp, #12]
 80067de:	f44f 5380 	mov.w	r3, #4096	@ 0x1000
 80067e2:	9305      	str	r3, [sp, #20]
 80067e4:	f7ff ffc8 	bl	8006778 <SDMMC_SendCommand>
 80067e8:	4b0a      	ldr	r3, [pc, #40]	@ (8006814 <SDMMC_CmdGoIdleState+0x48>)
 80067ea:	f44f 52fa 	mov.w	r2, #8000	@ 0x1f40
 80067ee:	681b      	ldr	r3, [r3, #0]
 80067f0:	fbb3 f3f2 	udiv	r3, r3, r2
 80067f4:	f241 3288 	movw	r2, #5000	@ 0x1388
 80067f8:	4353      	muls	r3, r2
 80067fa:	3b01      	subs	r3, #1
 80067fc:	d307      	bcc.n	800680e <SDMMC_CmdGoIdleState+0x42>
 80067fe:	6b62      	ldr	r2, [r4, #52]	@ 0x34
 8006800:	0612      	lsls	r2, r2, #24
 8006802:	d5fa      	bpl.n	80067fa <SDMMC_CmdGoIdleState+0x2e>
 8006804:	4b04      	ldr	r3, [pc, #16]	@ (8006818 <SDMMC_CmdGoIdleState+0x4c>)
 8006806:	2000      	movs	r0, #0
 8006808:	63a3      	str	r3, [r4, #56]	@ 0x38
 800680a:	b006      	add	sp, #24
 800680c:	bd10      	pop	{r4, pc}
 800680e:	f04f 4000 	mov.w	r0, #2147483648	@ 0x80000000
 8006812:	e7fa      	b.n	800680a <SDMMC_CmdGoIdleState+0x3e>
 8006814:	2400000c 	.word	0x2400000c
 8006818:	002000c5 	.word	0x002000c5

0800681c <SDMMC_GetCmdResp1>:
 800681c:	4603      	mov	r3, r0
 800681e:	4844      	ldr	r0, [pc, #272]	@ (8006930 <SDMMC_GetCmdResp1+0x114>)
 8006820:	b510      	push	{r4, lr}
 8006822:	6800      	ldr	r0, [r0, #0]
 8006824:	f44f 54fa 	mov.w	r4, #8000	@ 0x1f40
 8006828:	fbb0 f0f4 	udiv	r0, r0, r4
 800682c:	4c41      	ldr	r4, [pc, #260]	@ (8006934 <SDMMC_GetCmdResp1+0x118>)
 800682e:	4342      	muls	r2, r0
 8006830:	2a00      	cmp	r2, #0
 8006832:	d048      	beq.n	80068c6 <SDMMC_GetCmdResp1+0xaa>
 8006834:	6b58      	ldr	r0, [r3, #52]	@ 0x34
 8006836:	4220      	tst	r0, r4
 8006838:	d007      	beq.n	800684a <SDMMC_GetCmdResp1+0x2e>
 800683a:	0480      	lsls	r0, r0, #18
 800683c:	d405      	bmi.n	800684a <SDMMC_GetCmdResp1+0x2e>
 800683e:	6b5a      	ldr	r2, [r3, #52]	@ 0x34
 8006840:	0754      	lsls	r4, r2, #29
 8006842:	d504      	bpl.n	800684e <SDMMC_GetCmdResp1+0x32>
 8006844:	2004      	movs	r0, #4
 8006846:	6398      	str	r0, [r3, #56]	@ 0x38
 8006848:	bd10      	pop	{r4, pc}
 800684a:	3a01      	subs	r2, #1
 800684c:	e7f0      	b.n	8006830 <SDMMC_GetCmdResp1+0x14>
 800684e:	6b5a      	ldr	r2, [r3, #52]	@ 0x34
 8006850:	07d0      	lsls	r0, r2, #31
 8006852:	d503      	bpl.n	800685c <SDMMC_GetCmdResp1+0x40>
 8006854:	2201      	movs	r2, #1
 8006856:	639a      	str	r2, [r3, #56]	@ 0x38
 8006858:	2001      	movs	r0, #1
 800685a:	e7f5      	b.n	8006848 <SDMMC_GetCmdResp1+0x2c>
 800685c:	4a36      	ldr	r2, [pc, #216]	@ (8006938 <SDMMC_GetCmdResp1+0x11c>)
 800685e:	639a      	str	r2, [r3, #56]	@ 0x38
 8006860:	691a      	ldr	r2, [r3, #16]
 8006862:	b2d2      	uxtb	r2, r2
 8006864:	4291      	cmp	r1, r2
 8006866:	d1f7      	bne.n	8006858 <SDMMC_GetCmdResp1+0x3c>
 8006868:	695b      	ldr	r3, [r3, #20]
 800686a:	4834      	ldr	r0, [pc, #208]	@ (800693c <SDMMC_GetCmdResp1+0x120>)
 800686c:	4018      	ands	r0, r3
 800686e:	2800      	cmp	r0, #0
 8006870:	d0ea      	beq.n	8006848 <SDMMC_GetCmdResp1+0x2c>
 8006872:	2b00      	cmp	r3, #0
 8006874:	db2a      	blt.n	80068cc <SDMMC_GetCmdResp1+0xb0>
 8006876:	005a      	lsls	r2, r3, #1
 8006878:	d42b      	bmi.n	80068d2 <SDMMC_GetCmdResp1+0xb6>
 800687a:	009c      	lsls	r4, r3, #2
 800687c:	d42b      	bmi.n	80068d6 <SDMMC_GetCmdResp1+0xba>
 800687e:	00d9      	lsls	r1, r3, #3
 8006880:	d42b      	bmi.n	80068da <SDMMC_GetCmdResp1+0xbe>
 8006882:	011a      	lsls	r2, r3, #4
 8006884:	d42c      	bmi.n	80068e0 <SDMMC_GetCmdResp1+0xc4>
 8006886:	015c      	lsls	r4, r3, #5
 8006888:	d42d      	bmi.n	80068e6 <SDMMC_GetCmdResp1+0xca>
 800688a:	01d9      	lsls	r1, r3, #7
 800688c:	d42e      	bmi.n	80068ec <SDMMC_GetCmdResp1+0xd0>
 800688e:	021a      	lsls	r2, r3, #8
 8006890:	d42f      	bmi.n	80068f2 <SDMMC_GetCmdResp1+0xd6>
 8006892:	025c      	lsls	r4, r3, #9
 8006894:	d430      	bmi.n	80068f8 <SDMMC_GetCmdResp1+0xdc>
 8006896:	0299      	lsls	r1, r3, #10
 8006898:	d431      	bmi.n	80068fe <SDMMC_GetCmdResp1+0xe2>
 800689a:	02da      	lsls	r2, r3, #11
 800689c:	d432      	bmi.n	8006904 <SDMMC_GetCmdResp1+0xe8>
 800689e:	035c      	lsls	r4, r3, #13
 80068a0:	d433      	bmi.n	800690a <SDMMC_GetCmdResp1+0xee>
 80068a2:	0399      	lsls	r1, r3, #14
 80068a4:	d434      	bmi.n	8006910 <SDMMC_GetCmdResp1+0xf4>
 80068a6:	03da      	lsls	r2, r3, #15
 80068a8:	d435      	bmi.n	8006916 <SDMMC_GetCmdResp1+0xfa>
 80068aa:	041c      	lsls	r4, r3, #16
 80068ac:	d436      	bmi.n	800691c <SDMMC_GetCmdResp1+0x100>
 80068ae:	0459      	lsls	r1, r3, #17
 80068b0:	d437      	bmi.n	8006922 <SDMMC_GetCmdResp1+0x106>
 80068b2:	049a      	lsls	r2, r3, #18
 80068b4:	d438      	bmi.n	8006928 <SDMMC_GetCmdResp1+0x10c>
 80068b6:	f013 0f08 	tst.w	r3, #8
 80068ba:	bf0c      	ite	eq
 80068bc:	f44f 3080 	moveq.w	r0, #65536	@ 0x10000
 80068c0:	f44f 0000 	movne.w	r0, #8388608	@ 0x800000
 80068c4:	e7c0      	b.n	8006848 <SDMMC_GetCmdResp1+0x2c>
 80068c6:	f04f 4000 	mov.w	r0, #2147483648	@ 0x80000000
 80068ca:	e7bd      	b.n	8006848 <SDMMC_GetCmdResp1+0x2c>
 80068cc:	f04f 7000 	mov.w	r0, #33554432	@ 0x2000000
 80068d0:	e7ba      	b.n	8006848 <SDMMC_GetCmdResp1+0x2c>
 80068d2:	2040      	movs	r0, #64	@ 0x40
 80068d4:	e7b8      	b.n	8006848 <SDMMC_GetCmdResp1+0x2c>
 80068d6:	2080      	movs	r0, #128	@ 0x80
 80068d8:	e7b6      	b.n	8006848 <SDMMC_GetCmdResp1+0x2c>
 80068da:	f44f 7080 	mov.w	r0, #256	@ 0x100
 80068de:	e7b3      	b.n	8006848 <SDMMC_GetCmdResp1+0x2c>
 80068e0:	f44f 7000 	mov.w	r0, #512	@ 0x200
 80068e4:	e7b0      	b.n	8006848 <SDMMC_GetCmdResp1+0x2c>
 80068e6:	f44f 6080 	mov.w	r0, #1024	@ 0x400
 80068ea:	e7ad      	b.n	8006848 <SDMMC_GetCmdResp1+0x2c>
 80068ec:	f44f 6000 	mov.w	r0, #2048	@ 0x800
 80068f0:	e7aa      	b.n	8006848 <SDMMC_GetCmdResp1+0x2c>
 80068f2:	f44f 5080 	mov.w	r0, #4096	@ 0x1000
 80068f6:	e7a7      	b.n	8006848 <SDMMC_GetCmdResp1+0x2c>
 80068f8:	f44f 5000 	mov.w	r0, #8192	@ 0x2000
 80068fc:	e7a4      	b.n	8006848 <SDMMC_GetCmdResp1+0x2c>
 80068fe:	f44f 4080 	mov.w	r0, #16384	@ 0x4000
 8006902:	e7a1      	b.n	8006848 <SDMMC_GetCmdResp1+0x2c>
 8006904:	f44f 4000 	mov.w	r0, #32768	@ 0x8000
 8006908:	e79e      	b.n	8006848 <SDMMC_GetCmdResp1+0x2c>
 800690a:	f44f 3000 	mov.w	r0, #131072	@ 0x20000
 800690e:	e79b      	b.n	8006848 <SDMMC_GetCmdResp1+0x2c>
 8006910:	f44f 2080 	mov.w	r0, #262144	@ 0x40000
 8006914:	e798      	b.n	8006848 <SDMMC_GetCmdResp1+0x2c>
 8006916:	f44f 2000 	mov.w	r0, #524288	@ 0x80000
 800691a:	e795      	b.n	8006848 <SDMMC_GetCmdResp1+0x2c>
 800691c:	f44f 1080 	mov.w	r0, #1048576	@ 0x100000
 8006920:	e792      	b.n	8006848 <SDMMC_GetCmdResp1+0x2c>
 8006922:	f44f 1000 	mov.w	r0, #2097152	@ 0x200000
 8006926:	e78f      	b.n	8006848 <SDMMC_GetCmdResp1+0x2c>
 8006928:	f44f 0080 	mov.w	r0, #4194304	@ 0x400000
 800692c:	e78c      	b.n	8006848 <SDMMC_GetCmdResp1+0x2c>
 800692e:	bf00      	nop
 8006930:	2400000c 	.word	0x2400000c
 8006934:	00200045 	.word	0x00200045
 8006938:	002000c5 	.word	0x002000c5
 800693c:	fdffe008 	.word	0xfdffe008

08006940 <SDMMC_CmdBlockLength>:
 8006940:	b530      	push	{r4, r5, lr}
 8006942:	f44f 7380 	mov.w	r3, #256	@ 0x100
 8006946:	b087      	sub	sp, #28
 8006948:	2510      	movs	r5, #16
 800694a:	4604      	mov	r4, r0
 800694c:	2200      	movs	r2, #0
 800694e:	9101      	str	r1, [sp, #4]
 8006950:	a901      	add	r1, sp, #4
 8006952:	e9cd 5302 	strd	r5, r3, [sp, #8]
 8006956:	f44f 5380 	mov.w	r3, #4096	@ 0x1000
 800695a:	e9cd 2304 	strd	r2, r3, [sp, #16]
 800695e:	f7ff ff0b 	bl	8006778 <SDMMC_SendCommand>
 8006962:	f241 3288 	movw	r2, #5000	@ 0x1388
 8006966:	4629      	mov	r1, r5
 8006968:	4620      	mov	r0, r4
 800696a:	b007      	add	sp, #28
 800696c:	e8bd 4030 	ldmia.w	sp!, {r4, r5, lr}
 8006970:	f7ff bf54 	b.w	800681c <SDMMC_GetCmdResp1>

08006974 <SDMMC_CmdReadSingleBlock>:
 8006974:	b530      	push	{r4, r5, lr}
 8006976:	f44f 7380 	mov.w	r3, #256	@ 0x100
 800697a:	b087      	sub	sp, #28
 800697c:	2511      	movs	r5, #17
 800697e:	4604      	mov	r4, r0
 8006980:	2200      	movs	r2, #0
 8006982:	9101      	str	r1, [sp, #4]
 8006984:	a901      	add	r1, sp, #4
 8006986:	e9cd 5302 	strd	r5, r3, [sp, #8]
 800698a:	f44f 5380 	mov.w	r3, #4096	@ 0x1000
 800698e:	e9cd 2304 	strd	r2, r3, [sp, #16]
 8006992:	f7ff fef1 	bl	8006778 <SDMMC_SendCommand>
 8006996:	f241 3288 	movw	r2, #5000	@ 0x1388
 800699a:	4629      	mov	r1, r5
 800699c:	4620      	mov	r0, r4
 800699e:	b007      	add	sp, #28
 80069a0:	e8bd 4030 	ldmia.w	sp!, {r4, r5, lr}
 80069a4:	f7ff bf3a 	b.w	800681c <SDMMC_GetCmdResp1>

080069a8 <SDMMC_CmdReadMultiBlock>:
 80069a8:	b530      	push	{r4, r5, lr}
 80069aa:	f44f 7380 	mov.w	r3, #256	@ 0x100
 80069ae:	b087      	sub	sp, #28
 80069b0:	2512      	movs	r5, #18
 80069b2:	4604      	mov	r4, r0
 80069b4:	2200      	movs	r2, #0
 80069b6:	9101      	str	r1, [sp, #4]
 80069b8:	a901      	add	r1, sp, #4
 80069ba:	e9cd 5302 	strd	r5, r3, [sp, #8]
 80069be:	f44f 5380 	mov.w	r3, #4096	@ 0x1000
 80069c2:	e9cd 2304 	strd	r2, r3, [sp, #16]
 80069c6:	f7ff fed7 	bl	8006778 <SDMMC_SendCommand>
 80069ca:	f241 3288 	movw	r2, #5000	@ 0x1388
 80069ce:	4629      	mov	r1, r5
 80069d0:	4620      	mov	r0, r4
 80069d2:	b007      	add	sp, #28
 80069d4:	e8bd 4030 	ldmia.w	sp!, {r4, r5, lr}
 80069d8:	f7ff bf20 	b.w	800681c <SDMMC_GetCmdResp1>

080069dc <SDMMC_CmdWriteSingleBlock>:
 80069dc:	b530      	push	{r4, r5, lr}
 80069de:	f44f 7380 	mov.w	r3, #256	@ 0x100
 80069e2:	b087      	sub	sp, #28
 80069e4:	2518      	movs	r5, #24
 80069e6:	4604      	mov	r4, r0
 80069e8:	2200      	movs	r2, #0
 80069ea:	9101      	str	r1, [sp, #4]
 80069ec:	a901      	add	r1, sp, #4
 80069ee:	e9cd 5302 	strd	r5, r3, [sp, #8]
 80069f2:	f44f 5380 	mov.w	r3, #4096	@ 0x1000
 80069f6:	e9cd 2304 	strd	r2, r3, [sp, #16]
 80069fa:	f7ff febd 	bl	8006778 <SDMMC_SendCommand>
 80069fe:	f241 3288 	movw	r2, #5000	@ 0x1388
 8006a02:	4629      	mov	r1, r5
 8006a04:	4620      	mov	r0, r4
 8006a06:	b007      	add	sp, #28
 8006a08:	e8bd 4030 	ldmia.w	sp!, {r4, r5, lr}
 8006a0c:	f7ff bf06 	b.w	800681c <SDMMC_GetCmdResp1>

08006a10 <SDMMC_CmdWriteMultiBlock>:
 8006a10:	b530      	push	{r4, r5, lr}
 8006a12:	f44f 7380 	mov.w	r3, #256	@ 0x100
 8006a16:	b087      	sub	sp, #28
 8006a18:	2519      	movs	r5, #25
 8006a1a:	4604      	mov	r4, r0
 8006a1c:	2200      	movs	r2, #0
 8006a1e:	9101      	str	r1, [sp, #4]
 8006a20:	a901      	add	r1, sp, #4
 8006a22:	e9cd 5302 	strd	r5, r3, [sp, #8]
 8006a26:	f44f 5380 	mov.w	r3, #4096	@ 0x1000
 8006a2a:	e9cd 2304 	strd	r2, r3, [sp, #16]
 8006a2e:	f7ff fea3 	bl	8006778 <SDMMC_SendCommand>
 8006a32:	f241 3288 	movw	r2, #5000	@ 0x1388
 8006a36:	4629      	mov	r1, r5
 8006a38:	4620      	mov	r0, r4
 8006a3a:	b007      	add	sp, #28
 8006a3c:	e8bd 4030 	ldmia.w	sp!, {r4, r5, lr}
 8006a40:	f7ff beec 	b.w	800681c <SDMMC_GetCmdResp1>

08006a44 <SDMMC_CmdStopTransfer>:
 8006a44:	b530      	push	{r4, r5, lr}
 8006a46:	2300      	movs	r3, #0
 8006a48:	b087      	sub	sp, #28
 8006a4a:	250c      	movs	r5, #12
 8006a4c:	f44f 7280 	mov.w	r2, #256	@ 0x100
 8006a50:	4604      	mov	r4, r0
 8006a52:	a901      	add	r1, sp, #4
 8006a54:	e9cd 2303 	strd	r2, r3, [sp, #12]
 8006a58:	e9cd 3501 	strd	r3, r5, [sp, #4]
 8006a5c:	f44f 5380 	mov.w	r3, #4096	@ 0x1000
 8006a60:	9305      	str	r3, [sp, #20]
 8006a62:	68c3      	ldr	r3, [r0, #12]
 8006a64:	f043 0380 	orr.w	r3, r3, #128	@ 0x80
 8006a68:	60c3      	str	r3, [r0, #12]
 8006a6a:	68c3      	ldr	r3, [r0, #12]
 8006a6c:	f023 0340 	bic.w	r3, r3, #64	@ 0x40
 8006a70:	60c3      	str	r3, [r0, #12]
 8006a72:	f7ff fe81 	bl	8006778 <SDMMC_SendCommand>
 8006a76:	4a07      	ldr	r2, [pc, #28]	@ (8006a94 <SDMMC_CmdStopTransfer+0x50>)
 8006a78:	4629      	mov	r1, r5
 8006a7a:	4620      	mov	r0, r4
 8006a7c:	f7ff fece 	bl	800681c <SDMMC_GetCmdResp1>
 8006a80:	68e3      	ldr	r3, [r4, #12]
 8006a82:	f1b0 7f00 	cmp.w	r0, #33554432	@ 0x2000000
 8006a86:	f023 0380 	bic.w	r3, r3, #128	@ 0x80
 8006a8a:	bf08      	it	eq
 8006a8c:	2000      	moveq	r0, #0
 8006a8e:	60e3      	str	r3, [r4, #12]
 8006a90:	b007      	add	sp, #28
 8006a92:	bd30      	pop	{r4, r5, pc}
 8006a94:	05f5e100 	.word	0x05f5e100

08006a98 <SDMMC_CmdSelDesel>:
 8006a98:	b530      	push	{r4, r5, lr}
 8006a9a:	f44f 7380 	mov.w	r3, #256	@ 0x100
 8006a9e:	b087      	sub	sp, #28
 8006aa0:	2507      	movs	r5, #7
 8006aa2:	4604      	mov	r4, r0
 8006aa4:	2200      	movs	r2, #0
 8006aa6:	9101      	str	r1, [sp, #4]
 8006aa8:	a901      	add	r1, sp, #4
 8006aaa:	e9cd 5302 	strd	r5, r3, [sp, #8]
 8006aae:	f44f 5380 	mov.w	r3, #4096	@ 0x1000
 8006ab2:	e9cd 2304 	strd	r2, r3, [sp, #16]
 8006ab6:	f7ff fe5f 	bl	8006778 <SDMMC_SendCommand>
 8006aba:	f241 3288 	movw	r2, #5000	@ 0x1388
 8006abe:	4629      	mov	r1, r5
 8006ac0:	4620      	mov	r0, r4
 8006ac2:	b007      	add	sp, #28
 8006ac4:	e8bd 4030 	ldmia.w	sp!, {r4, r5, lr}
 8006ac8:	f7ff bea8 	b.w	800681c <SDMMC_GetCmdResp1>

08006acc <SDMMC_CmdAppCommand>:
 8006acc:	b530      	push	{r4, r5, lr}
 8006ace:	f44f 7380 	mov.w	r3, #256	@ 0x100
 8006ad2:	b087      	sub	sp, #28
 8006ad4:	2537      	movs	r5, #55	@ 0x37
 8006ad6:	4604      	mov	r4, r0
 8006ad8:	2200      	movs	r2, #0
 8006ada:	9101      	str	r1, [sp, #4]
 8006adc:	a901      	add	r1, sp, #4
 8006ade:	e9cd 5302 	strd	r5, r3, [sp, #8]
 8006ae2:	f44f 5380 	mov.w	r3, #4096	@ 0x1000
 8006ae6:	e9cd 2304 	strd	r2, r3, [sp, #16]
 8006aea:	f7ff fe45 	bl	8006778 <SDMMC_SendCommand>
 8006aee:	f241 3288 	movw	r2, #5000	@ 0x1388
 8006af2:	4629      	mov	r1, r5
 8006af4:	4620      	mov	r0, r4
 8006af6:	b007      	add	sp, #28
 8006af8:	e8bd 4030 	ldmia.w	sp!, {r4, r5, lr}
 8006afc:	f7ff be8e 	b.w	800681c <SDMMC_GetCmdResp1>

08006b00 <SDMMC_CmdBusWidth>:
 8006b00:	b530      	push	{r4, r5, lr}
 8006b02:	f44f 7380 	mov.w	r3, #256	@ 0x100
 8006b06:	b087      	sub	sp, #28
 8006b08:	2506      	movs	r5, #6
 8006b0a:	4604      	mov	r4, r0
 8006b0c:	2200      	movs	r2, #0
 8006b0e:	9101      	str	r1, [sp, #4]
 8006b10:	a901      	add	r1, sp, #4
 8006b12:	e9cd 5302 	strd	r5, r3, [sp, #8]
 8006b16:	f44f 5380 	mov.w	r3, #4096	@ 0x1000
 8006b1a:	e9cd 2304 	strd	r2, r3, [sp, #16]
 8006b1e:	f7ff fe2b 	bl	8006778 <SDMMC_SendCommand>
 8006b22:	f241 3288 	movw	r2, #5000	@ 0x1388
 8006b26:	4629      	mov	r1, r5
 8006b28:	4620      	mov	r0, r4
 8006b2a:	b007      	add	sp, #28
 8006b2c:	e8bd 4030 	ldmia.w	sp!, {r4, r5, lr}
 8006b30:	f7ff be74 	b.w	800681c <SDMMC_GetCmdResp1>

08006b34 <SDMMC_CmdSendSCR>:
 8006b34:	b530      	push	{r4, r5, lr}
 8006b36:	2300      	movs	r3, #0
 8006b38:	b087      	sub	sp, #28
 8006b3a:	2533      	movs	r5, #51	@ 0x33
 8006b3c:	f44f 7280 	mov.w	r2, #256	@ 0x100
 8006b40:	4604      	mov	r4, r0
 8006b42:	a901      	add	r1, sp, #4
 8006b44:	e9cd 2303 	strd	r2, r3, [sp, #12]
 8006b48:	e9cd 3501 	strd	r3, r5, [sp, #4]
 8006b4c:	f44f 5380 	mov.w	r3, #4096	@ 0x1000
 8006b50:	9305      	str	r3, [sp, #20]
 8006b52:	f7ff fe11 	bl	8006778 <SDMMC_SendCommand>
 8006b56:	f241 3288 	movw	r2, #5000	@ 0x1388
 8006b5a:	4629      	mov	r1, r5
 8006b5c:	4620      	mov	r0, r4
 8006b5e:	b007      	add	sp, #28
 8006b60:	e8bd 4030 	ldmia.w	sp!, {r4, r5, lr}
 8006b64:	f7ff be5a 	b.w	800681c <SDMMC_GetCmdResp1>

08006b68 <SDMMC_CmdSendStatus>:
 8006b68:	b530      	push	{r4, r5, lr}
 8006b6a:	f44f 7380 	mov.w	r3, #256	@ 0x100
 8006b6e:	b087      	sub	sp, #28
 8006b70:	250d      	movs	r5, #13
 8006b72:	4604      	mov	r4, r0
 8006b74:	2200      	movs	r2, #0
 8006b76:	9101      	str	r1, [sp, #4]
 8006b78:	a901      	add	r1, sp, #4
 8006b7a:	e9cd 5302 	strd	r5, r3, [sp, #8]
 8006b7e:	f44f 5380 	mov.w	r3, #4096	@ 0x1000
 8006b82:	e9cd 2304 	strd	r2, r3, [sp, #16]
 8006b86:	f7ff fdf7 	bl	8006778 <SDMMC_SendCommand>
 8006b8a:	f241 3288 	movw	r2, #5000	@ 0x1388
 8006b8e:	4629      	mov	r1, r5
 8006b90:	4620      	mov	r0, r4
 8006b92:	b007      	add	sp, #28
 8006b94:	e8bd 4030 	ldmia.w	sp!, {r4, r5, lr}
 8006b98:	f7ff be40 	b.w	800681c <SDMMC_GetCmdResp1>

08006b9c <SDMMC_CmdStatusRegister>:
 8006b9c:	b530      	push	{r4, r5, lr}
 8006b9e:	2300      	movs	r3, #0
 8006ba0:	b087      	sub	sp, #28
 8006ba2:	250d      	movs	r5, #13
 8006ba4:	f44f 7280 	mov.w	r2, #256	@ 0x100
 8006ba8:	4604      	mov	r4, r0
 8006baa:	a901      	add	r1, sp, #4
 8006bac:	e9cd 2303 	strd	r2, r3, [sp, #12]
 8006bb0:	e9cd 3501 	strd	r3, r5, [sp, #4]
 8006bb4:	f44f 5380 	mov.w	r3, #4096	@ 0x1000
 8006bb8:	9305      	str	r3, [sp, #20]
 8006bba:	f7ff fddd 	bl	8006778 <SDMMC_SendCommand>
 8006bbe:	f241 3288 	movw	r2, #5000	@ 0x1388
 8006bc2:	4629      	mov	r1, r5
 8006bc4:	4620      	mov	r0, r4
 8006bc6:	b007      	add	sp, #28
 8006bc8:	e8bd 4030 	ldmia.w	sp!, {r4, r5, lr}
 8006bcc:	f7ff be26 	b.w	800681c <SDMMC_GetCmdResp1>

08006bd0 <SDMMC_GetCmdResp2>:
 8006bd0:	4b11      	ldr	r3, [pc, #68]	@ (8006c18 <SDMMC_GetCmdResp2+0x48>)
 8006bd2:	f44f 51fa 	mov.w	r1, #8000	@ 0x1f40
 8006bd6:	4602      	mov	r2, r0
 8006bd8:	681b      	ldr	r3, [r3, #0]
 8006bda:	fbb3 f3f1 	udiv	r3, r3, r1
 8006bde:	f241 3188 	movw	r1, #5000	@ 0x1388
 8006be2:	434b      	muls	r3, r1
 8006be4:	3b01      	subs	r3, #1
 8006be6:	d313      	bcc.n	8006c10 <SDMMC_GetCmdResp2+0x40>
 8006be8:	6b51      	ldr	r1, [r2, #52]	@ 0x34
 8006bea:	f011 0f45 	tst.w	r1, #69	@ 0x45
 8006bee:	d0f9      	beq.n	8006be4 <SDMMC_GetCmdResp2+0x14>
 8006bf0:	0489      	lsls	r1, r1, #18
 8006bf2:	d4f7      	bmi.n	8006be4 <SDMMC_GetCmdResp2+0x14>
 8006bf4:	6b53      	ldr	r3, [r2, #52]	@ 0x34
 8006bf6:	075b      	lsls	r3, r3, #29
 8006bf8:	d502      	bpl.n	8006c00 <SDMMC_GetCmdResp2+0x30>
 8006bfa:	2004      	movs	r0, #4
 8006bfc:	6390      	str	r0, [r2, #56]	@ 0x38
 8006bfe:	4770      	bx	lr
 8006c00:	6b50      	ldr	r0, [r2, #52]	@ 0x34
 8006c02:	f010 0001 	ands.w	r0, r0, #1
 8006c06:	bf14      	ite	ne
 8006c08:	2301      	movne	r3, #1
 8006c0a:	4b04      	ldreq	r3, [pc, #16]	@ (8006c1c <SDMMC_GetCmdResp2+0x4c>)
 8006c0c:	6393      	str	r3, [r2, #56]	@ 0x38
 8006c0e:	4770      	bx	lr
 8006c10:	f04f 4000 	mov.w	r0, #2147483648	@ 0x80000000
 8006c14:	4770      	bx	lr
 8006c16:	bf00      	nop
 8006c18:	2400000c 	.word	0x2400000c
 8006c1c:	002000c5 	.word	0x002000c5

08006c20 <SDMMC_CmdSendCID>:
 8006c20:	b510      	push	{r4, lr}
 8006c22:	2300      	movs	r3, #0
 8006c24:	b086      	sub	sp, #24
 8006c26:	2202      	movs	r2, #2
 8006c28:	4604      	mov	r4, r0
 8006c2a:	a901      	add	r1, sp, #4
 8006c2c:	e9cd 3201 	strd	r3, r2, [sp, #4]
 8006c30:	f44f 7240 	mov.w	r2, #768	@ 0x300
 8006c34:	e9cd 2303 	strd	r2, r3, [sp, #12]
 8006c38:	f44f 5380 	mov.w	r3, #4096	@ 0x1000
 8006c3c:	9305      	str	r3, [sp, #20]
 8006c3e:	f7ff fd9b 	bl	8006778 <SDMMC_SendCommand>
 8006c42:	4620      	mov	r0, r4
 8006c44:	b006      	add	sp, #24
 8006c46:	e8bd 4010 	ldmia.w	sp!, {r4, lr}
 8006c4a:	f7ff bfc1 	b.w	8006bd0 <SDMMC_GetCmdResp2>

08006c4e <SDMMC_CmdSendCSD>:
 8006c4e:	b510      	push	{r4, lr}
 8006c50:	2209      	movs	r2, #9
 8006c52:	b086      	sub	sp, #24
 8006c54:	f44f 7340 	mov.w	r3, #768	@ 0x300
 8006c58:	4604      	mov	r4, r0
 8006c5a:	9101      	str	r1, [sp, #4]
 8006c5c:	2100      	movs	r1, #0
 8006c5e:	e9cd 2302 	strd	r2, r3, [sp, #8]
 8006c62:	f44f 5380 	mov.w	r3, #4096	@ 0x1000
 8006c66:	e9cd 1304 	strd	r1, r3, [sp, #16]
 8006c6a:	a901      	add	r1, sp, #4
 8006c6c:	f7ff fd84 	bl	8006778 <SDMMC_SendCommand>
 8006c70:	4620      	mov	r0, r4
 8006c72:	b006      	add	sp, #24
 8006c74:	e8bd 4010 	ldmia.w	sp!, {r4, lr}
 8006c78:	f7ff bfaa 	b.w	8006bd0 <SDMMC_GetCmdResp2>

08006c7c <SDMMC_GetCmdResp3>:
 8006c7c:	4b0f      	ldr	r3, [pc, #60]	@ (8006cbc <SDMMC_GetCmdResp3+0x40>)
 8006c7e:	f44f 51fa 	mov.w	r1, #8000	@ 0x1f40
 8006c82:	4602      	mov	r2, r0
 8006c84:	681b      	ldr	r3, [r3, #0]
 8006c86:	fbb3 f3f1 	udiv	r3, r3, r1
 8006c8a:	f241 3188 	movw	r1, #5000	@ 0x1388
 8006c8e:	434b      	muls	r3, r1
 8006c90:	3b01      	subs	r3, #1
 8006c92:	d30f      	bcc.n	8006cb4 <SDMMC_GetCmdResp3+0x38>
 8006c94:	6b51      	ldr	r1, [r2, #52]	@ 0x34
 8006c96:	f011 0f45 	tst.w	r1, #69	@ 0x45
 8006c9a:	d0f9      	beq.n	8006c90 <SDMMC_GetCmdResp3+0x14>
 8006c9c:	0489      	lsls	r1, r1, #18
 8006c9e:	d4f7      	bmi.n	8006c90 <SDMMC_GetCmdResp3+0x14>
 8006ca0:	6b50      	ldr	r0, [r2, #52]	@ 0x34
 8006ca2:	f010 0004 	ands.w	r0, r0, #4
 8006ca6:	d002      	beq.n	8006cae <SDMMC_GetCmdResp3+0x32>
 8006ca8:	2004      	movs	r0, #4
 8006caa:	6390      	str	r0, [r2, #56]	@ 0x38
 8006cac:	4770      	bx	lr
 8006cae:	4b04      	ldr	r3, [pc, #16]	@ (8006cc0 <SDMMC_GetCmdResp3+0x44>)
 8006cb0:	6393      	str	r3, [r2, #56]	@ 0x38
 8006cb2:	4770      	bx	lr
 8006cb4:	f04f 4000 	mov.w	r0, #2147483648	@ 0x80000000
 8006cb8:	4770      	bx	lr
 8006cba:	bf00      	nop
 8006cbc:	2400000c 	.word	0x2400000c
 8006cc0:	002000c5 	.word	0x002000c5

08006cc4 <SDMMC_CmdAppOperCommand>:
 8006cc4:	b510      	push	{r4, lr}
 8006cc6:	2229      	movs	r2, #41	@ 0x29
 8006cc8:	b086      	sub	sp, #24
 8006cca:	f44f 7380 	mov.w	r3, #256	@ 0x100
 8006cce:	4604      	mov	r4, r0
 8006cd0:	9101      	str	r1, [sp, #4]
 8006cd2:	2100      	movs	r1, #0
 8006cd4:	e9cd 2302 	strd	r2, r3, [sp, #8]
 8006cd8:	f44f 5380 	mov.w	r3, #4096	@ 0x1000
 8006cdc:	e9cd 1304 	strd	r1, r3, [sp, #16]
 8006ce0:	a901      	add	r1, sp, #4
 8006ce2:	f7ff fd49 	bl	8006778 <SDMMC_SendCommand>
 8006ce6:	4620      	mov	r0, r4
 8006ce8:	b006      	add	sp, #24
 8006cea:	e8bd 4010 	ldmia.w	sp!, {r4, lr}
 8006cee:	f7ff bfc5 	b.w	8006c7c <SDMMC_GetCmdResp3>
	...

08006cf4 <SDMMC_GetCmdResp6>:
 8006cf4:	4603      	mov	r3, r0
 8006cf6:	481e      	ldr	r0, [pc, #120]	@ (8006d70 <SDMMC_GetCmdResp6+0x7c>)
 8006cf8:	b510      	push	{r4, lr}
 8006cfa:	6800      	ldr	r0, [r0, #0]
 8006cfc:	f44f 54fa 	mov.w	r4, #8000	@ 0x1f40
 8006d00:	fbb0 f0f4 	udiv	r0, r0, r4
 8006d04:	f241 3488 	movw	r4, #5000	@ 0x1388
 8006d08:	4360      	muls	r0, r4
 8006d0a:	3801      	subs	r0, #1
 8006d0c:	d329      	bcc.n	8006d62 <SDMMC_GetCmdResp6+0x6e>
 8006d0e:	6b5c      	ldr	r4, [r3, #52]	@ 0x34
 8006d10:	f014 0f45 	tst.w	r4, #69	@ 0x45
 8006d14:	d0f9      	beq.n	8006d0a <SDMMC_GetCmdResp6+0x16>
 8006d16:	04a4      	lsls	r4, r4, #18
 8006d18:	d4f7      	bmi.n	8006d0a <SDMMC_GetCmdResp6+0x16>
 8006d1a:	6b58      	ldr	r0, [r3, #52]	@ 0x34
 8006d1c:	0744      	lsls	r4, r0, #29
 8006d1e:	d502      	bpl.n	8006d26 <SDMMC_GetCmdResp6+0x32>
 8006d20:	2004      	movs	r0, #4
 8006d22:	6398      	str	r0, [r3, #56]	@ 0x38
 8006d24:	bd10      	pop	{r4, pc}
 8006d26:	6b58      	ldr	r0, [r3, #52]	@ 0x34
 8006d28:	07c0      	lsls	r0, r0, #31
 8006d2a:	d503      	bpl.n	8006d34 <SDMMC_GetCmdResp6+0x40>
 8006d2c:	2201      	movs	r2, #1
 8006d2e:	639a      	str	r2, [r3, #56]	@ 0x38
 8006d30:	2001      	movs	r0, #1
 8006d32:	e7f7      	b.n	8006d24 <SDMMC_GetCmdResp6+0x30>
 8006d34:	6918      	ldr	r0, [r3, #16]
 8006d36:	b2c0      	uxtb	r0, r0
 8006d38:	4281      	cmp	r1, r0
 8006d3a:	d1f9      	bne.n	8006d30 <SDMMC_GetCmdResp6+0x3c>
 8006d3c:	490d      	ldr	r1, [pc, #52]	@ (8006d74 <SDMMC_GetCmdResp6+0x80>)
 8006d3e:	6399      	str	r1, [r3, #56]	@ 0x38
 8006d40:	695b      	ldr	r3, [r3, #20]
 8006d42:	f413 4060 	ands.w	r0, r3, #57344	@ 0xe000
 8006d46:	d102      	bne.n	8006d4e <SDMMC_GetCmdResp6+0x5a>
 8006d48:	0c1b      	lsrs	r3, r3, #16
 8006d4a:	8013      	strh	r3, [r2, #0]
 8006d4c:	e7ea      	b.n	8006d24 <SDMMC_GetCmdResp6+0x30>
 8006d4e:	045a      	lsls	r2, r3, #17
 8006d50:	d40a      	bmi.n	8006d68 <SDMMC_GetCmdResp6+0x74>
 8006d52:	f413 4f00 	tst.w	r3, #32768	@ 0x8000
 8006d56:	bf0c      	ite	eq
 8006d58:	f44f 3080 	moveq.w	r0, #65536	@ 0x10000
 8006d5c:	f44f 5080 	movne.w	r0, #4096	@ 0x1000
 8006d60:	e7e0      	b.n	8006d24 <SDMMC_GetCmdResp6+0x30>
 8006d62:	f04f 4000 	mov.w	r0, #2147483648	@ 0x80000000
 8006d66:	e7dd      	b.n	8006d24 <SDMMC_GetCmdResp6+0x30>
 8006d68:	f44f 5000 	mov.w	r0, #8192	@ 0x2000
 8006d6c:	e7da      	b.n	8006d24 <SDMMC_GetCmdResp6+0x30>
 8006d6e:	bf00      	nop
 8006d70:	2400000c 	.word	0x2400000c
 8006d74:	002000c5 	.word	0x002000c5

08006d78 <SDMMC_CmdSetRelAdd>:
 8006d78:	b570      	push	{r4, r5, r6, lr}
 8006d7a:	2300      	movs	r3, #0
 8006d7c:	b086      	sub	sp, #24
 8006d7e:	2603      	movs	r6, #3
 8006d80:	f44f 7280 	mov.w	r2, #256	@ 0x100
 8006d84:	4604      	mov	r4, r0
 8006d86:	460d      	mov	r5, r1
 8006d88:	a901      	add	r1, sp, #4
 8006d8a:	e9cd 2303 	strd	r2, r3, [sp, #12]
 8006d8e:	e9cd 3601 	strd	r3, r6, [sp, #4]
 8006d92:	f44f 5380 	mov.w	r3, #4096	@ 0x1000
 8006d96:	9305      	str	r3, [sp, #20]
 8006d98:	f7ff fcee 	bl	8006778 <SDMMC_SendCommand>
 8006d9c:	462a      	mov	r2, r5
 8006d9e:	4631      	mov	r1, r6
 8006da0:	4620      	mov	r0, r4
 8006da2:	b006      	add	sp, #24
 8006da4:	e8bd 4070 	ldmia.w	sp!, {r4, r5, r6, lr}
 8006da8:	f7ff bfa4 	b.w	8006cf4 <SDMMC_GetCmdResp6>

08006dac <SDMMC_GetCmdResp7>:
 8006dac:	4b13      	ldr	r3, [pc, #76]	@ (8006dfc <SDMMC_GetCmdResp7+0x50>)
 8006dae:	f44f 51fa 	mov.w	r1, #8000	@ 0x1f40
 8006db2:	4602      	mov	r2, r0
 8006db4:	681b      	ldr	r3, [r3, #0]
 8006db6:	fbb3 f3f1 	udiv	r3, r3, r1
 8006dba:	f241 3188 	movw	r1, #5000	@ 0x1388
 8006dbe:	434b      	muls	r3, r1
 8006dc0:	3b01      	subs	r3, #1
 8006dc2:	d317      	bcc.n	8006df4 <SDMMC_GetCmdResp7+0x48>
 8006dc4:	6b51      	ldr	r1, [r2, #52]	@ 0x34
 8006dc6:	f011 0f45 	tst.w	r1, #69	@ 0x45
 8006dca:	d0f9      	beq.n	8006dc0 <SDMMC_GetCmdResp7+0x14>
 8006dcc:	0488      	lsls	r0, r1, #18
 8006dce:	d4f7      	bmi.n	8006dc0 <SDMMC_GetCmdResp7+0x14>
 8006dd0:	6b53      	ldr	r3, [r2, #52]	@ 0x34
 8006dd2:	0759      	lsls	r1, r3, #29
 8006dd4:	d502      	bpl.n	8006ddc <SDMMC_GetCmdResp7+0x30>
 8006dd6:	2004      	movs	r0, #4
 8006dd8:	6390      	str	r0, [r2, #56]	@ 0x38
 8006dda:	4770      	bx	lr
 8006ddc:	6b50      	ldr	r0, [r2, #52]	@ 0x34
 8006dde:	f010 0001 	ands.w	r0, r0, #1
 8006de2:	d002      	beq.n	8006dea <SDMMC_GetCmdResp7+0x3e>
 8006de4:	2301      	movs	r3, #1
 8006de6:	6393      	str	r3, [r2, #56]	@ 0x38
 8006de8:	4770      	bx	lr
 8006dea:	6b53      	ldr	r3, [r2, #52]	@ 0x34
 8006dec:	065b      	lsls	r3, r3, #25
 8006dee:	d503      	bpl.n	8006df8 <SDMMC_GetCmdResp7+0x4c>
 8006df0:	2340      	movs	r3, #64	@ 0x40
 8006df2:	e7f8      	b.n	8006de6 <SDMMC_GetCmdResp7+0x3a>
 8006df4:	f04f 4000 	mov.w	r0, #2147483648	@ 0x80000000
 8006df8:	4770      	bx	lr
 8006dfa:	bf00      	nop
 8006dfc:	2400000c 	.word	0x2400000c

08006e00 <SDMMC_CmdOperCond>:
 8006e00:	b510      	push	{r4, lr}
 8006e02:	f44f 72d5 	mov.w	r2, #426	@ 0x1aa
 8006e06:	b086      	sub	sp, #24
 8006e08:	2308      	movs	r3, #8
 8006e0a:	f44f 7180 	mov.w	r1, #256	@ 0x100
 8006e0e:	4604      	mov	r4, r0
 8006e10:	e9cd 2301 	strd	r2, r3, [sp, #4]
 8006e14:	2300      	movs	r3, #0
 8006e16:	e9cd 1303 	strd	r1, r3, [sp, #12]
 8006e1a:	f44f 5380 	mov.w	r3, #4096	@ 0x1000
 8006e1e:	a901      	add	r1, sp, #4
 8006e20:	9305      	str	r3, [sp, #20]
 8006e22:	f7ff fca9 	bl	8006778 <SDMMC_SendCommand>
 8006e26:	4620      	mov	r0, r4
 8006e28:	b006      	add	sp, #24
 8006e2a:	e8bd 4010 	ldmia.w	sp!, {r4, lr}
 8006e2e:	f7ff bfbd 	b.w	8006dac <SDMMC_GetCmdResp7>

08006e32 <get_fattime>:
 8006e32:	2000      	movs	r0, #0
 8006e34:	4770      	bx	lr
	...

08006e38 <BSP_SD_ReadBlocks>:
 8006e38:	b507      	push	{r0, r1, r2, lr}
 8006e3a:	9300      	str	r3, [sp, #0]
 8006e3c:	4613      	mov	r3, r2
 8006e3e:	460a      	mov	r2, r1
 8006e40:	4601      	mov	r1, r0
 8006e42:	4804      	ldr	r0, [pc, #16]	@ (8006e54 <BSP_SD_ReadBlocks+0x1c>)
 8006e44:	f7fe fce8 	bl	8005818 <HAL_SD_ReadBlocks>
 8006e48:	3800      	subs	r0, #0
 8006e4a:	bf18      	it	ne
 8006e4c:	2001      	movne	r0, #1
 8006e4e:	b003      	add	sp, #12
 8006e50:	f85d fb04 	ldr.w	pc, [sp], #4
 8006e54:	24000224 	.word	0x24000224

08006e58 <BSP_SD_WriteBlocks>:
 8006e58:	b507      	push	{r0, r1, r2, lr}
 8006e5a:	9300      	str	r3, [sp, #0]
 8006e5c:	4613      	mov	r3, r2
 8006e5e:	460a      	mov	r2, r1
 8006e60:	4601      	mov	r1, r0
 8006e62:	4804      	ldr	r0, [pc, #16]	@ (8006e74 <BSP_SD_WriteBlocks+0x1c>)
 8006e64:	f7fe fdb4 	bl	80059d0 <HAL_SD_WriteBlocks>
 8006e68:	3800      	subs	r0, #0
 8006e6a:	bf18      	it	ne
 8006e6c:	2001      	movne	r0, #1
 8006e6e:	b003      	add	sp, #12
 8006e70:	f85d fb04 	ldr.w	pc, [sp], #4
 8006e74:	24000224 	.word	0x24000224

08006e78 <BSP_SD_GetCardState>:
 8006e78:	b508      	push	{r3, lr}
 8006e7a:	4803      	ldr	r0, [pc, #12]	@ (8006e88 <BSP_SD_GetCardState+0x10>)
 8006e7c:	f7ff f9d6 	bl	800622c <HAL_SD_GetCardState>
 8006e80:	3804      	subs	r0, #4
 8006e82:	bf18      	it	ne
 8006e84:	2001      	movne	r0, #1
 8006e86:	bd08      	pop	{r3, pc}
 8006e88:	24000224 	.word	0x24000224

08006e8c <BSP_SD_GetCardInfo>:
 8006e8c:	4601      	mov	r1, r0
 8006e8e:	4801      	ldr	r0, [pc, #4]	@ (8006e94 <BSP_SD_GetCardInfo+0x8>)
 8006e90:	f7ff b902 	b.w	8006098 <HAL_SD_GetCardInfo>
 8006e94:	24000224 	.word	0x24000224

08006e98 <BSP_SD_IsDetected>:
 8006e98:	2301      	movs	r3, #1
 8006e9a:	b507      	push	{r0, r1, r2, lr}
 8006e9c:	f88d 3007 	strb.w	r3, [sp, #7]
 8006ea0:	f000 f81e 	bl	8006ee0 <BSP_PlatformIsDetected>
 8006ea4:	b908      	cbnz	r0, 8006eaa <BSP_SD_IsDetected+0x12>
 8006ea6:	f88d 0007 	strb.w	r0, [sp, #7]
 8006eaa:	f89d 0007 	ldrb.w	r0, [sp, #7]
 8006eae:	b003      	add	sp, #12
 8006eb0:	f85d fb04 	ldr.w	pc, [sp], #4

08006eb4 <BSP_SD_Init>:
 8006eb4:	b508      	push	{r3, lr}
 8006eb6:	f7ff ffef 	bl	8006e98 <BSP_SD_IsDetected>
 8006eba:	2801      	cmp	r0, #1
 8006ebc:	d10c      	bne.n	8006ed8 <BSP_SD_Init+0x24>
 8006ebe:	4807      	ldr	r0, [pc, #28]	@ (8006edc <BSP_SD_Init+0x28>)
 8006ec0:	f7ff f9c8 	bl	8006254 <HAL_SD_Init>
 8006ec4:	b938      	cbnz	r0, 8006ed6 <BSP_SD_Init+0x22>
 8006ec6:	f44f 4180 	mov.w	r1, #16384	@ 0x4000
 8006eca:	4804      	ldr	r0, [pc, #16]	@ (8006edc <BSP_SD_Init+0x28>)
 8006ecc:	f7ff f8f6 	bl	80060bc <HAL_SD_ConfigWideBusOperation>
 8006ed0:	3800      	subs	r0, #0
 8006ed2:	bf18      	it	ne
 8006ed4:	2001      	movne	r0, #1
 8006ed6:	bd08      	pop	{r3, pc}
 8006ed8:	2002      	movs	r0, #2
 8006eda:	e7fc      	b.n	8006ed6 <BSP_SD_Init+0x22>
 8006edc:	24000224 	.word	0x24000224

08006ee0 <BSP_PlatformIsDetected>:
 8006ee0:	f44f 5180 	mov.w	r1, #4096	@ 0x1000
 8006ee4:	4803      	ldr	r0, [pc, #12]	@ (8006ef4 <BSP_PlatformIsDetected+0x14>)
 8006ee6:	b508      	push	{r3, lr}
 8006ee8:	f7fb fbdc 	bl	80026a4 <HAL_GPIO_ReadPin>
 8006eec:	fab0 f080 	clz	r0, r0
 8006ef0:	0940      	lsrs	r0, r0, #5
 8006ef2:	bd08      	pop	{r3, pc}
 8006ef4:	58020000 	.word	0x58020000

08006ef8 <SD_ioctl>:
 8006ef8:	4b12      	ldr	r3, [pc, #72]	@ (8006f44 <SD_ioctl+0x4c>)
 8006efa:	b530      	push	{r4, r5, lr}
 8006efc:	781c      	ldrb	r4, [r3, #0]
 8006efe:	b08b      	sub	sp, #44	@ 0x2c
 8006f00:	4615      	mov	r5, r2
 8006f02:	f014 0401 	ands.w	r4, r4, #1
 8006f06:	d119      	bne.n	8006f3c <SD_ioctl+0x44>
 8006f08:	2903      	cmp	r1, #3
 8006f0a:	d819      	bhi.n	8006f40 <SD_ioctl+0x48>
 8006f0c:	e8df f001 	tbb	[pc, r1]
 8006f10:	1008020d 	.word	0x1008020d
 8006f14:	a801      	add	r0, sp, #4
 8006f16:	f7ff ffb9 	bl	8006e8c <BSP_SD_GetCardInfo>
 8006f1a:	9b07      	ldr	r3, [sp, #28]
 8006f1c:	602b      	str	r3, [r5, #0]
 8006f1e:	e004      	b.n	8006f2a <SD_ioctl+0x32>
 8006f20:	a801      	add	r0, sp, #4
 8006f22:	f7ff ffb3 	bl	8006e8c <BSP_SD_GetCardInfo>
 8006f26:	9b08      	ldr	r3, [sp, #32]
 8006f28:	802b      	strh	r3, [r5, #0]
 8006f2a:	4620      	mov	r0, r4
 8006f2c:	b00b      	add	sp, #44	@ 0x2c
 8006f2e:	bd30      	pop	{r4, r5, pc}
 8006f30:	a801      	add	r0, sp, #4
 8006f32:	f7ff ffab 	bl	8006e8c <BSP_SD_GetCardInfo>
 8006f36:	9b08      	ldr	r3, [sp, #32]
 8006f38:	0a5b      	lsrs	r3, r3, #9
 8006f3a:	e7ef      	b.n	8006f1c <SD_ioctl+0x24>
 8006f3c:	2403      	movs	r4, #3
 8006f3e:	e7f4      	b.n	8006f2a <SD_ioctl+0x32>
 8006f40:	2404      	movs	r4, #4
 8006f42:	e7f2      	b.n	8006f2a <SD_ioctl+0x32>
 8006f44:	24000018 	.word	0x24000018

08006f48 <SD_read>:
 8006f48:	b508      	push	{r3, lr}
 8006f4a:	4608      	mov	r0, r1
 8006f4c:	4611      	mov	r1, r2
 8006f4e:	461a      	mov	r2, r3
 8006f50:	f04f 33ff 	mov.w	r3, #4294967295
 8006f54:	f7ff ff70 	bl	8006e38 <BSP_SD_ReadBlocks>
 8006f58:	b920      	cbnz	r0, 8006f64 <SD_read+0x1c>
 8006f5a:	f7ff ff8d 	bl	8006e78 <BSP_SD_GetCardState>
 8006f5e:	2800      	cmp	r0, #0
 8006f60:	d1fb      	bne.n	8006f5a <SD_read+0x12>
 8006f62:	bd08      	pop	{r3, pc}
 8006f64:	2001      	movs	r0, #1
 8006f66:	e7fc      	b.n	8006f62 <SD_read+0x1a>

08006f68 <SD_status>:
 8006f68:	b510      	push	{r4, lr}
 8006f6a:	2301      	movs	r3, #1
 8006f6c:	4c05      	ldr	r4, [pc, #20]	@ (8006f84 <SD_status+0x1c>)
 8006f6e:	7023      	strb	r3, [r4, #0]
 8006f70:	f7ff ff82 	bl	8006e78 <BSP_SD_GetCardState>
 8006f74:	b918      	cbnz	r0, 8006f7e <SD_status+0x16>
 8006f76:	7823      	ldrb	r3, [r4, #0]
 8006f78:	f003 03fe 	and.w	r3, r3, #254	@ 0xfe
 8006f7c:	7023      	strb	r3, [r4, #0]
 8006f7e:	7820      	ldrb	r0, [r4, #0]
 8006f80:	bd10      	pop	{r4, pc}
 8006f82:	bf00      	nop
 8006f84:	24000018 	.word	0x24000018

08006f88 <SD_write>:
 8006f88:	b508      	push	{r3, lr}
 8006f8a:	4608      	mov	r0, r1
 8006f8c:	4611      	mov	r1, r2
 8006f8e:	461a      	mov	r2, r3
 8006f90:	f04f 33ff 	mov.w	r3, #4294967295
 8006f94:	f7ff ff60 	bl	8006e58 <BSP_SD_WriteBlocks>
 8006f98:	b920      	cbnz	r0, 8006fa4 <SD_write+0x1c>
 8006f9a:	f7ff ff6d 	bl	8006e78 <BSP_SD_GetCardState>
 8006f9e:	2800      	cmp	r0, #0
 8006fa0:	d1fb      	bne.n	8006f9a <SD_write+0x12>
 8006fa2:	bd08      	pop	{r3, pc}
 8006fa4:	2001      	movs	r0, #1
 8006fa6:	e7fc      	b.n	8006fa2 <SD_write+0x1a>

08006fa8 <SD_initialize>:
 8006fa8:	b538      	push	{r3, r4, r5, lr}
 8006faa:	4c09      	ldr	r4, [pc, #36]	@ (8006fd0 <SD_initialize+0x28>)
 8006fac:	2501      	movs	r5, #1
 8006fae:	7025      	strb	r5, [r4, #0]
 8006fb0:	f7ff ff80 	bl	8006eb4 <BSP_SD_Init>
 8006fb4:	b950      	cbnz	r0, 8006fcc <SD_initialize+0x24>
 8006fb6:	7025      	strb	r5, [r4, #0]
 8006fb8:	f7ff ff5e 	bl	8006e78 <BSP_SD_GetCardState>
 8006fbc:	b918      	cbnz	r0, 8006fc6 <SD_initialize+0x1e>
 8006fbe:	7823      	ldrb	r3, [r4, #0]
 8006fc0:	f003 03fe 	and.w	r3, r3, #254	@ 0xfe
 8006fc4:	7023      	strb	r3, [r4, #0]
 8006fc6:	7823      	ldrb	r3, [r4, #0]
 8006fc8:	b2db      	uxtb	r3, r3
 8006fca:	7023      	strb	r3, [r4, #0]
 8006fcc:	7820      	ldrb	r0, [r4, #0]
 8006fce:	bd38      	pop	{r3, r4, r5, pc}
 8006fd0:	24000018 	.word	0x24000018

08006fd4 <disk_status>:
 8006fd4:	4b03      	ldr	r3, [pc, #12]	@ (8006fe4 <disk_status+0x10>)
 8006fd6:	181a      	adds	r2, r3, r0
 8006fd8:	eb03 0380 	add.w	r3, r3, r0, lsl #2
 8006fdc:	685b      	ldr	r3, [r3, #4]
 8006fde:	7a10      	ldrb	r0, [r2, #8]
 8006fe0:	685b      	ldr	r3, [r3, #4]
 8006fe2:	4718      	bx	r3
 8006fe4:	240bc0ac 	.word	0x240bc0ac

08006fe8 <disk_initialize>:
 8006fe8:	b538      	push	{r3, r4, r5, lr}
 8006fea:	4d08      	ldr	r5, [pc, #32]	@ (800700c <disk_initialize+0x24>)
 8006fec:	4604      	mov	r4, r0
 8006fee:	5c2b      	ldrb	r3, [r5, r0]
 8006ff0:	b94b      	cbnz	r3, 8007006 <disk_initialize+0x1e>
 8006ff2:	eb05 0280 	add.w	r2, r5, r0, lsl #2
 8006ff6:	182b      	adds	r3, r5, r0
 8006ff8:	6852      	ldr	r2, [r2, #4]
 8006ffa:	7a18      	ldrb	r0, [r3, #8]
 8006ffc:	6812      	ldr	r2, [r2, #0]
 8006ffe:	4790      	blx	r2
 8007000:	b910      	cbnz	r0, 8007008 <disk_initialize+0x20>
 8007002:	2301      	movs	r3, #1
 8007004:	552b      	strb	r3, [r5, r4]
 8007006:	2000      	movs	r0, #0
 8007008:	bd38      	pop	{r3, r4, r5, pc}
 800700a:	bf00      	nop
 800700c:	240bc0ac 	.word	0x240bc0ac

08007010 <disk_read>:
 8007010:	b430      	push	{r4, r5}
 8007012:	4c05      	ldr	r4, [pc, #20]	@ (8007028 <disk_read+0x18>)
 8007014:	1825      	adds	r5, r4, r0
 8007016:	eb04 0480 	add.w	r4, r4, r0, lsl #2
 800701a:	6860      	ldr	r0, [r4, #4]
 800701c:	6884      	ldr	r4, [r0, #8]
 800701e:	7a28      	ldrb	r0, [r5, #8]
 8007020:	46a4      	mov	ip, r4
 8007022:	bc30      	pop	{r4, r5}
 8007024:	4760      	bx	ip
 8007026:	bf00      	nop
 8007028:	240bc0ac 	.word	0x240bc0ac

0800702c <disk_write>:
 800702c:	b430      	push	{r4, r5}
 800702e:	4c05      	ldr	r4, [pc, #20]	@ (8007044 <disk_write+0x18>)
 8007030:	1825      	adds	r5, r4, r0
 8007032:	eb04 0480 	add.w	r4, r4, r0, lsl #2
 8007036:	6860      	ldr	r0, [r4, #4]
 8007038:	68c4      	ldr	r4, [r0, #12]
 800703a:	7a28      	ldrb	r0, [r5, #8]
 800703c:	46a4      	mov	ip, r4
 800703e:	bc30      	pop	{r4, r5}
 8007040:	4760      	bx	ip
 8007042:	bf00      	nop
 8007044:	240bc0ac 	.word	0x240bc0ac

08007048 <disk_ioctl>:
 8007048:	4b05      	ldr	r3, [pc, #20]	@ (8007060 <disk_ioctl+0x18>)
 800704a:	b410      	push	{r4}
 800704c:	181c      	adds	r4, r3, r0
 800704e:	eb03 0380 	add.w	r3, r3, r0, lsl #2
 8007052:	685b      	ldr	r3, [r3, #4]
 8007054:	7a20      	ldrb	r0, [r4, #8]
 8007056:	691b      	ldr	r3, [r3, #16]
 8007058:	f85d 4b04 	ldr.w	r4, [sp], #4
 800705c:	4718      	bx	r3
 800705e:	bf00      	nop
 8007060:	240bc0ac 	.word	0x240bc0ac

08007064 <ld_dword>:
 8007064:	6800      	ldr	r0, [r0, #0]
 8007066:	4770      	bx	lr

08007068 <st_dword>:
 8007068:	0a0b      	lsrs	r3, r1, #8
 800706a:	7001      	strb	r1, [r0, #0]
 800706c:	7043      	strb	r3, [r0, #1]
 800706e:	0c0b      	lsrs	r3, r1, #16
 8007070:	0e09      	lsrs	r1, r1, #24
 8007072:	7083      	strb	r3, [r0, #2]
 8007074:	70c1      	strb	r1, [r0, #3]
 8007076:	4770      	bx	lr

08007078 <mem_set>:
 8007078:	4402      	add	r2, r0
 800707a:	f800 1b01 	strb.w	r1, [r0], #1
 800707e:	4290      	cmp	r0, r2
 8007080:	d1fb      	bne.n	800707a <mem_set+0x2>
 8007082:	4770      	bx	lr

08007084 <chk_lock>:
 8007084:	4b1b      	ldr	r3, [pc, #108]	@ (80070f4 <chk_lock+0x70>)
 8007086:	4602      	mov	r2, r0
 8007088:	6818      	ldr	r0, [r3, #0]
 800708a:	b530      	push	{r4, r5, lr}
 800708c:	b160      	cbz	r0, 80070a8 <chk_lock+0x24>
 800708e:	6814      	ldr	r4, [r2, #0]
 8007090:	42a0      	cmp	r0, r4
 8007092:	d107      	bne.n	80070a4 <chk_lock+0x20>
 8007094:	685c      	ldr	r4, [r3, #4]
 8007096:	6890      	ldr	r0, [r2, #8]
 8007098:	4284      	cmp	r4, r0
 800709a:	d103      	bne.n	80070a4 <chk_lock+0x20>
 800709c:	689c      	ldr	r4, [r3, #8]
 800709e:	6950      	ldr	r0, [r2, #20]
 80070a0:	4284      	cmp	r4, r0
 80070a2:	d012      	beq.n	80070ca <chk_lock+0x46>
 80070a4:	2400      	movs	r4, #0
 80070a6:	e000      	b.n	80070aa <chk_lock+0x26>
 80070a8:	2401      	movs	r4, #1
 80070aa:	6918      	ldr	r0, [r3, #16]
 80070ac:	b1b8      	cbz	r0, 80070de <chk_lock+0x5a>
 80070ae:	6815      	ldr	r5, [r2, #0]
 80070b0:	42a8      	cmp	r0, r5
 80070b2:	d107      	bne.n	80070c4 <chk_lock+0x40>
 80070b4:	695d      	ldr	r5, [r3, #20]
 80070b6:	6890      	ldr	r0, [r2, #8]
 80070b8:	4285      	cmp	r5, r0
 80070ba:	d103      	bne.n	80070c4 <chk_lock+0x40>
 80070bc:	6998      	ldr	r0, [r3, #24]
 80070be:	6952      	ldr	r2, [r2, #20]
 80070c0:	4290      	cmp	r0, r2
 80070c2:	d006      	beq.n	80070d2 <chk_lock+0x4e>
 80070c4:	b13c      	cbz	r4, 80070d6 <chk_lock+0x52>
 80070c6:	2000      	movs	r0, #0
 80070c8:	e009      	b.n	80070de <chk_lock+0x5a>
 80070ca:	2200      	movs	r2, #0
 80070cc:	b141      	cbz	r1, 80070e0 <chk_lock+0x5c>
 80070ce:	2010      	movs	r0, #16
 80070d0:	e005      	b.n	80070de <chk_lock+0x5a>
 80070d2:	2201      	movs	r2, #1
 80070d4:	e7fa      	b.n	80070cc <chk_lock+0x48>
 80070d6:	2902      	cmp	r1, #2
 80070d8:	bf14      	ite	ne
 80070da:	2012      	movne	r0, #18
 80070dc:	2000      	moveq	r0, #0
 80070de:	bd30      	pop	{r4, r5, pc}
 80070e0:	eb03 1302 	add.w	r3, r3, r2, lsl #4
 80070e4:	8998      	ldrh	r0, [r3, #12]
 80070e6:	f5a0 7380 	sub.w	r3, r0, #256	@ 0x100
 80070ea:	4258      	negs	r0, r3
 80070ec:	4158      	adcs	r0, r3
 80070ee:	0100      	lsls	r0, r0, #4
 80070f0:	e7f5      	b.n	80070de <chk_lock+0x5a>
 80070f2:	bf00      	nop
 80070f4:	240bc084 	.word	0x240bc084

080070f8 <inc_lock>:
 80070f8:	4a1f      	ldr	r2, [pc, #124]	@ (8007178 <inc_lock+0x80>)
 80070fa:	b5f0      	push	{r4, r5, r6, r7, lr}
 80070fc:	6813      	ldr	r3, [r2, #0]
 80070fe:	6806      	ldr	r6, [r0, #0]
 8007100:	429e      	cmp	r6, r3
 8007102:	d107      	bne.n	8007114 <inc_lock+0x1c>
 8007104:	6885      	ldr	r5, [r0, #8]
 8007106:	6854      	ldr	r4, [r2, #4]
 8007108:	42a5      	cmp	r5, r4
 800710a:	d103      	bne.n	8007114 <inc_lock+0x1c>
 800710c:	6895      	ldr	r5, [r2, #8]
 800710e:	6944      	ldr	r4, [r0, #20]
 8007110:	42a5      	cmp	r5, r4
 8007112:	d019      	beq.n	8007148 <inc_lock+0x50>
 8007114:	6914      	ldr	r4, [r2, #16]
 8007116:	42b4      	cmp	r4, r6
 8007118:	d118      	bne.n	800714c <inc_lock+0x54>
 800711a:	6957      	ldr	r7, [r2, #20]
 800711c:	6885      	ldr	r5, [r0, #8]
 800711e:	42af      	cmp	r7, r5
 8007120:	d114      	bne.n	800714c <inc_lock+0x54>
 8007122:	6997      	ldr	r7, [r2, #24]
 8007124:	6945      	ldr	r5, [r0, #20]
 8007126:	42af      	cmp	r7, r5
 8007128:	d110      	bne.n	800714c <inc_lock+0x54>
 800712a:	2301      	movs	r3, #1
 800712c:	eb02 1003 	add.w	r0, r2, r3, lsl #4
 8007130:	8980      	ldrh	r0, [r0, #12]
 8007132:	b9e9      	cbnz	r1, 8007170 <inc_lock+0x78>
 8007134:	eb02 1103 	add.w	r1, r2, r3, lsl #4
 8007138:	8989      	ldrh	r1, [r1, #12]
 800713a:	3101      	adds	r1, #1
 800713c:	b289      	uxth	r1, r1
 800713e:	eb02 1203 	add.w	r2, r2, r3, lsl #4
 8007142:	1c58      	adds	r0, r3, #1
 8007144:	8191      	strh	r1, [r2, #12]
 8007146:	bdf0      	pop	{r4, r5, r6, r7, pc}
 8007148:	2300      	movs	r3, #0
 800714a:	e7ef      	b.n	800712c <inc_lock+0x34>
 800714c:	b10b      	cbz	r3, 8007152 <inc_lock+0x5a>
 800714e:	b98c      	cbnz	r4, 8007174 <inc_lock+0x7c>
 8007150:	2301      	movs	r3, #1
 8007152:	011d      	lsls	r5, r3, #4
 8007154:	eb02 1403 	add.w	r4, r2, r3, lsl #4
 8007158:	5156      	str	r6, [r2, r5]
 800715a:	6885      	ldr	r5, [r0, #8]
 800715c:	6940      	ldr	r0, [r0, #20]
 800715e:	6065      	str	r5, [r4, #4]
 8007160:	60a0      	str	r0, [r4, #8]
 8007162:	2000      	movs	r0, #0
 8007164:	81a0      	strh	r0, [r4, #12]
 8007166:	2900      	cmp	r1, #0
 8007168:	d0e4      	beq.n	8007134 <inc_lock+0x3c>
 800716a:	f44f 7180 	mov.w	r1, #256	@ 0x100
 800716e:	e7e6      	b.n	800713e <inc_lock+0x46>
 8007170:	2800      	cmp	r0, #0
 8007172:	d0fa      	beq.n	800716a <inc_lock+0x72>
 8007174:	2000      	movs	r0, #0
 8007176:	e7e6      	b.n	8007146 <inc_lock+0x4e>
 8007178:	240bc084 	.word	0x240bc084

0800717c <dec_lock>:
 800717c:	3801      	subs	r0, #1
 800717e:	2801      	cmp	r0, #1
 8007180:	d815      	bhi.n	80071ae <dec_lock+0x32>
 8007182:	4a0c      	ldr	r2, [pc, #48]	@ (80071b4 <dec_lock+0x38>)
 8007184:	0101      	lsls	r1, r0, #4
 8007186:	eb02 1000 	add.w	r0, r2, r0, lsl #4
 800718a:	8983      	ldrh	r3, [r0, #12]
 800718c:	f5b3 7f80 	cmp.w	r3, #256	@ 0x100
 8007190:	d104      	bne.n	800719c <dec_lock+0x20>
 8007192:	2300      	movs	r3, #0
 8007194:	8183      	strh	r3, [r0, #12]
 8007196:	2300      	movs	r3, #0
 8007198:	5053      	str	r3, [r2, r1]
 800719a:	e006      	b.n	80071aa <dec_lock+0x2e>
 800719c:	2b00      	cmp	r3, #0
 800719e:	d0fa      	beq.n	8007196 <dec_lock+0x1a>
 80071a0:	3b01      	subs	r3, #1
 80071a2:	b29b      	uxth	r3, r3
 80071a4:	8183      	strh	r3, [r0, #12]
 80071a6:	2b00      	cmp	r3, #0
 80071a8:	d0f5      	beq.n	8007196 <dec_lock+0x1a>
 80071aa:	2000      	movs	r0, #0
 80071ac:	4770      	bx	lr
 80071ae:	2002      	movs	r0, #2
 80071b0:	4770      	bx	lr
 80071b2:	bf00      	nop
 80071b4:	240bc084 	.word	0x240bc084

080071b8 <clear_lock>:
 80071b8:	4b05      	ldr	r3, [pc, #20]	@ (80071d0 <clear_lock+0x18>)
 80071ba:	681a      	ldr	r2, [r3, #0]
 80071bc:	4290      	cmp	r0, r2
 80071be:	bf04      	itt	eq
 80071c0:	2200      	moveq	r2, #0
 80071c2:	601a      	streq	r2, [r3, #0]
 80071c4:	691a      	ldr	r2, [r3, #16]
 80071c6:	4290      	cmp	r0, r2
 80071c8:	bf04      	itt	eq
 80071ca:	2200      	moveq	r2, #0
 80071cc:	611a      	streq	r2, [r3, #16]
 80071ce:	4770      	bx	lr
 80071d0:	240bc084 	.word	0x240bc084

080071d4 <clust2sect>:
 80071d4:	6943      	ldr	r3, [r0, #20]
 80071d6:	3902      	subs	r1, #2
 80071d8:	3b02      	subs	r3, #2
 80071da:	428b      	cmp	r3, r1
 80071dc:	bf83      	ittte	hi
 80071de:	8943      	ldrhhi	r3, [r0, #10]
 80071e0:	6a80      	ldrhi	r0, [r0, #40]	@ 0x28
 80071e2:	fb01 0003 	mlahi	r0, r1, r3, r0
 80071e6:	2000      	movls	r0, #0
 80071e8:	4770      	bx	lr

080071ea <clmt_clust>:
 80071ea:	6802      	ldr	r2, [r0, #0]
 80071ec:	0a49      	lsrs	r1, r1, #9
 80071ee:	6ac3      	ldr	r3, [r0, #44]	@ 0x2c
 80071f0:	8952      	ldrh	r2, [r2, #10]
 80071f2:	3304      	adds	r3, #4
 80071f4:	fbb1 f1f2 	udiv	r1, r1, r2
 80071f8:	6818      	ldr	r0, [r3, #0]
 80071fa:	b130      	cbz	r0, 800720a <clmt_clust+0x20>
 80071fc:	4281      	cmp	r1, r0
 80071fe:	d302      	bcc.n	8007206 <clmt_clust+0x1c>
 8007200:	1a09      	subs	r1, r1, r0
 8007202:	3308      	adds	r3, #8
 8007204:	e7f8      	b.n	80071f8 <clmt_clust+0xe>
 8007206:	6858      	ldr	r0, [r3, #4]
 8007208:	4408      	add	r0, r1
 800720a:	4770      	bx	lr

0800720c <get_ldnumber>:
 800720c:	6803      	ldr	r3, [r0, #0]
 800720e:	b510      	push	{r4, lr}
 8007210:	b153      	cbz	r3, 8007228 <get_ldnumber+0x1c>
 8007212:	4619      	mov	r1, r3
 8007214:	460a      	mov	r2, r1
 8007216:	f811 4b01 	ldrb.w	r4, [r1], #1
 800721a:	2c20      	cmp	r4, #32
 800721c:	d90c      	bls.n	8007238 <get_ldnumber+0x2c>
 800721e:	2c3a      	cmp	r4, #58	@ 0x3a
 8007220:	d1f8      	bne.n	8007214 <get_ldnumber+0x8>
 8007222:	7819      	ldrb	r1, [r3, #0]
 8007224:	2930      	cmp	r1, #48	@ 0x30
 8007226:	d002      	beq.n	800722e <get_ldnumber+0x22>
 8007228:	f04f 30ff 	mov.w	r0, #4294967295
 800722c:	e005      	b.n	800723a <get_ldnumber+0x2e>
 800722e:	3301      	adds	r3, #1
 8007230:	429a      	cmp	r2, r3
 8007232:	d1f9      	bne.n	8007228 <get_ldnumber+0x1c>
 8007234:	3201      	adds	r2, #1
 8007236:	6002      	str	r2, [r0, #0]
 8007238:	2000      	movs	r0, #0
 800723a:	bd10      	pop	{r4, pc}

0800723c <validate>:
 800723c:	b538      	push	{r3, r4, r5, lr}
 800723e:	460d      	mov	r5, r1
 8007240:	4604      	mov	r4, r0
 8007242:	b918      	cbnz	r0, 800724c <validate+0x10>
 8007244:	2009      	movs	r0, #9
 8007246:	2300      	movs	r3, #0
 8007248:	602b      	str	r3, [r5, #0]
 800724a:	bd38      	pop	{r3, r4, r5, pc}
 800724c:	6803      	ldr	r3, [r0, #0]
 800724e:	2b00      	cmp	r3, #0
 8007250:	d0f8      	beq.n	8007244 <validate+0x8>
 8007252:	781a      	ldrb	r2, [r3, #0]
 8007254:	2a00      	cmp	r2, #0
 8007256:	d0f5      	beq.n	8007244 <validate+0x8>
 8007258:	8881      	ldrh	r1, [r0, #4]
 800725a:	88da      	ldrh	r2, [r3, #6]
 800725c:	4291      	cmp	r1, r2
 800725e:	d1f1      	bne.n	8007244 <validate+0x8>
 8007260:	7858      	ldrb	r0, [r3, #1]
 8007262:	f7ff feb7 	bl	8006fd4 <disk_status>
 8007266:	f010 0001 	ands.w	r0, r0, #1
 800726a:	d1eb      	bne.n	8007244 <validate+0x8>
 800726c:	6823      	ldr	r3, [r4, #0]
 800726e:	e7eb      	b.n	8007248 <validate+0xc>

08007270 <sync_window>:
 8007270:	b5f8      	push	{r3, r4, r5, r6, r7, lr}
 8007272:	78c3      	ldrb	r3, [r0, #3]
 8007274:	4604      	mov	r4, r0
 8007276:	b90b      	cbnz	r3, 800727c <sync_window+0xc>
 8007278:	2000      	movs	r0, #0
 800727a:	bdf8      	pop	{r3, r4, r5, r6, r7, pc}
 800727c:	6ac5      	ldr	r5, [r0, #44]	@ 0x2c
 800727e:	f100 0730 	add.w	r7, r0, #48	@ 0x30
 8007282:	2301      	movs	r3, #1
 8007284:	7840      	ldrb	r0, [r0, #1]
 8007286:	462a      	mov	r2, r5
 8007288:	4639      	mov	r1, r7
 800728a:	f7ff fecf 	bl	800702c <disk_write>
 800728e:	b990      	cbnz	r0, 80072b6 <sync_window+0x46>
 8007290:	6a23      	ldr	r3, [r4, #32]
 8007292:	69a2      	ldr	r2, [r4, #24]
 8007294:	1aeb      	subs	r3, r5, r3
 8007296:	70e0      	strb	r0, [r4, #3]
 8007298:	4293      	cmp	r3, r2
 800729a:	d2ed      	bcs.n	8007278 <sync_window+0x8>
 800729c:	78a6      	ldrb	r6, [r4, #2]
 800729e:	2e01      	cmp	r6, #1
 80072a0:	d9ea      	bls.n	8007278 <sync_window+0x8>
 80072a2:	69a3      	ldr	r3, [r4, #24]
 80072a4:	4639      	mov	r1, r7
 80072a6:	7860      	ldrb	r0, [r4, #1]
 80072a8:	3e01      	subs	r6, #1
 80072aa:	441d      	add	r5, r3
 80072ac:	2301      	movs	r3, #1
 80072ae:	462a      	mov	r2, r5
 80072b0:	f7ff febc 	bl	800702c <disk_write>
 80072b4:	e7f3      	b.n	800729e <sync_window+0x2e>
 80072b6:	2001      	movs	r0, #1
 80072b8:	e7df      	b.n	800727a <sync_window+0xa>

080072ba <mem_cpy.part.0>:
 80072ba:	3801      	subs	r0, #1
 80072bc:	440a      	add	r2, r1
 80072be:	f811 3b01 	ldrb.w	r3, [r1], #1
 80072c2:	4291      	cmp	r1, r2
 80072c4:	f800 3f01 	strb.w	r3, [r0, #1]!
 80072c8:	d1f9      	bne.n	80072be <mem_cpy.part.0+0x4>
 80072ca:	4770      	bx	lr

080072cc <st_clust>:
 80072cc:	f3c2 2307 	ubfx	r3, r2, #8, #8
 80072d0:	768a      	strb	r2, [r1, #26]
 80072d2:	76cb      	strb	r3, [r1, #27]
 80072d4:	7803      	ldrb	r3, [r0, #0]
 80072d6:	2b03      	cmp	r3, #3
 80072d8:	bf01      	itttt	eq
 80072da:	0c12      	lsreq	r2, r2, #16
 80072dc:	750a      	strbeq	r2, [r1, #20]
 80072de:	0a12      	lsreq	r2, r2, #8
 80072e0:	754a      	strbeq	r2, [r1, #21]
 80072e2:	4770      	bx	lr

080072e4 <move_window>:
 80072e4:	b538      	push	{r3, r4, r5, lr}
 80072e6:	6ac3      	ldr	r3, [r0, #44]	@ 0x2c
 80072e8:	4605      	mov	r5, r0
 80072ea:	460c      	mov	r4, r1
 80072ec:	428b      	cmp	r3, r1
 80072ee:	d010      	beq.n	8007312 <move_window+0x2e>
 80072f0:	f7ff ffbe 	bl	8007270 <sync_window>
 80072f4:	b960      	cbnz	r0, 8007310 <move_window+0x2c>
 80072f6:	4622      	mov	r2, r4
 80072f8:	2301      	movs	r3, #1
 80072fa:	f105 0130 	add.w	r1, r5, #48	@ 0x30
 80072fe:	7868      	ldrb	r0, [r5, #1]
 8007300:	f7ff fe86 	bl	8007010 <disk_read>
 8007304:	2800      	cmp	r0, #0
 8007306:	bf1c      	itt	ne
 8007308:	f04f 34ff 	movne.w	r4, #4294967295
 800730c:	2001      	movne	r0, #1
 800730e:	62ec      	str	r4, [r5, #44]	@ 0x2c
 8007310:	bd38      	pop	{r3, r4, r5, pc}
 8007312:	2000      	movs	r0, #0
 8007314:	e7fc      	b.n	8007310 <move_window+0x2c>
	...

08007318 <check_fs>:
 8007318:	2300      	movs	r3, #0
 800731a:	b510      	push	{r4, lr}
 800731c:	70c3      	strb	r3, [r0, #3]
 800731e:	f04f 33ff 	mov.w	r3, #4294967295
 8007322:	4604      	mov	r4, r0
 8007324:	62c3      	str	r3, [r0, #44]	@ 0x2c
 8007326:	f7ff ffdd 	bl	80072e4 <move_window>
 800732a:	4603      	mov	r3, r0
 800732c:	bb18      	cbnz	r0, 8007376 <check_fs+0x5e>
 800732e:	f8b4 122e 	ldrh.w	r1, [r4, #558]	@ 0x22e
 8007332:	f64a 2255 	movw	r2, #43605	@ 0xaa55
 8007336:	4291      	cmp	r1, r2
 8007338:	d11f      	bne.n	800737a <check_fs+0x62>
 800733a:	f894 2030 	ldrb.w	r2, [r4, #48]	@ 0x30
 800733e:	2ae9      	cmp	r2, #233	@ 0xe9
 8007340:	d005      	beq.n	800734e <check_fs+0x36>
 8007342:	6b22      	ldr	r2, [r4, #48]	@ 0x30
 8007344:	490f      	ldr	r1, [pc, #60]	@ (8007384 <check_fs+0x6c>)
 8007346:	f002 12ff 	and.w	r2, r2, #16711935	@ 0xff00ff
 800734a:	428a      	cmp	r2, r1
 800734c:	d117      	bne.n	800737e <check_fs+0x66>
 800734e:	f104 0066 	add.w	r0, r4, #102	@ 0x66
 8007352:	4a0d      	ldr	r2, [pc, #52]	@ (8007388 <check_fs+0x70>)
 8007354:	f7ff fe86 	bl	8007064 <ld_dword>
 8007358:	f020 407f 	bic.w	r0, r0, #4278190080	@ 0xff000000
 800735c:	4290      	cmp	r0, r2
 800735e:	d008      	beq.n	8007372 <check_fs+0x5a>
 8007360:	4b0a      	ldr	r3, [pc, #40]	@ (800738c <check_fs+0x74>)
 8007362:	f104 0082 	add.w	r0, r4, #130	@ 0x82
 8007366:	f7ff fe7d 	bl	8007064 <ld_dword>
 800736a:	1ac3      	subs	r3, r0, r3
 800736c:	bf18      	it	ne
 800736e:	2301      	movne	r3, #1
 8007370:	005b      	lsls	r3, r3, #1
 8007372:	4618      	mov	r0, r3
 8007374:	bd10      	pop	{r4, pc}
 8007376:	2304      	movs	r3, #4
 8007378:	e7fb      	b.n	8007372 <check_fs+0x5a>
 800737a:	2303      	movs	r3, #3
 800737c:	e7f9      	b.n	8007372 <check_fs+0x5a>
 800737e:	2302      	movs	r3, #2
 8007380:	e7f7      	b.n	8007372 <check_fs+0x5a>
 8007382:	bf00      	nop
 8007384:	009000eb 	.word	0x009000eb
 8007388:	00544146 	.word	0x00544146
 800738c:	33544146 	.word	0x33544146

08007390 <find_volume>:
 8007390:	2300      	movs	r3, #0
 8007392:	b5f0      	push	{r4, r5, r6, r7, lr}
 8007394:	600b      	str	r3, [r1, #0]
 8007396:	b085      	sub	sp, #20
 8007398:	460f      	mov	r7, r1
 800739a:	4616      	mov	r6, r2
 800739c:	f7ff ff36 	bl	800720c <get_ldnumber>
 80073a0:	1e05      	subs	r5, r0, #0
 80073a2:	f2c0 810e 	blt.w	80075c2 <find_volume+0x232>
 80073a6:	4b8a      	ldr	r3, [pc, #552]	@ (80075d0 <find_volume+0x240>)
 80073a8:	f853 4025 	ldr.w	r4, [r3, r5, lsl #2]
 80073ac:	2c00      	cmp	r4, #0
 80073ae:	f000 810a 	beq.w	80075c6 <find_volume+0x236>
 80073b2:	603c      	str	r4, [r7, #0]
 80073b4:	f006 06fe 	and.w	r6, r6, #254	@ 0xfe
 80073b8:	7823      	ldrb	r3, [r4, #0]
 80073ba:	b16b      	cbz	r3, 80073d8 <find_volume+0x48>
 80073bc:	7860      	ldrb	r0, [r4, #1]
 80073be:	f7ff fe09 	bl	8006fd4 <disk_status>
 80073c2:	07c7      	lsls	r7, r0, #31
 80073c4:	d408      	bmi.n	80073d8 <find_volume+0x48>
 80073c6:	2e00      	cmp	r6, #0
 80073c8:	f000 80d6 	beq.w	8007578 <find_volume+0x1e8>
 80073cc:	0740      	lsls	r0, r0, #29
 80073ce:	f140 80d3 	bpl.w	8007578 <find_volume+0x1e8>
 80073d2:	200a      	movs	r0, #10
 80073d4:	b005      	add	sp, #20
 80073d6:	bdf0      	pop	{r4, r5, r6, r7, pc}
 80073d8:	2300      	movs	r3, #0
 80073da:	b2e8      	uxtb	r0, r5
 80073dc:	7023      	strb	r3, [r4, #0]
 80073de:	7060      	strb	r0, [r4, #1]
 80073e0:	f7ff fe02 	bl	8006fe8 <disk_initialize>
 80073e4:	07c1      	lsls	r1, r0, #31
 80073e6:	f100 80f0 	bmi.w	80075ca <find_volume+0x23a>
 80073ea:	b10e      	cbz	r6, 80073f0 <find_volume+0x60>
 80073ec:	0742      	lsls	r2, r0, #29
 80073ee:	d4f0      	bmi.n	80073d2 <find_volume+0x42>
 80073f0:	2100      	movs	r1, #0
 80073f2:	4620      	mov	r0, r4
 80073f4:	f7ff ff90 	bl	8007318 <check_fs>
 80073f8:	2802      	cmp	r0, #2
 80073fa:	f040 80c7 	bne.w	800758c <find_volume+0x1fc>
 80073fe:	466f      	mov	r7, sp
 8007400:	f504 73fb 	add.w	r3, r4, #502	@ 0x1f6
 8007404:	f204 2136 	addw	r1, r4, #566	@ 0x236
 8007408:	463a      	mov	r2, r7
 800740a:	f813 0c04 	ldrb.w	r0, [r3, #-4]
 800740e:	b110      	cbz	r0, 8007416 <find_volume+0x86>
 8007410:	4618      	mov	r0, r3
 8007412:	f7ff fe27 	bl	8007064 <ld_dword>
 8007416:	3310      	adds	r3, #16
 8007418:	f842 0b04 	str.w	r0, [r2], #4
 800741c:	428b      	cmp	r3, r1
 800741e:	d1f4      	bne.n	800740a <find_volume+0x7a>
 8007420:	2500      	movs	r5, #0
 8007422:	f857 6b04 	ldr.w	r6, [r7], #4
 8007426:	2e00      	cmp	r6, #0
 8007428:	f000 80a8 	beq.w	800757c <find_volume+0x1ec>
 800742c:	4631      	mov	r1, r6
 800742e:	4620      	mov	r0, r4
 8007430:	f7ff ff72 	bl	8007318 <check_fs>
 8007434:	2801      	cmp	r0, #1
 8007436:	f200 80a2 	bhi.w	800757e <find_volume+0x1ee>
 800743a:	f8b4 303b 	ldrh.w	r3, [r4, #59]	@ 0x3b
 800743e:	f5b3 7f00 	cmp.w	r3, #512	@ 0x200
 8007442:	f040 80a9 	bne.w	8007598 <find_volume+0x208>
 8007446:	f8b4 1046 	ldrh.w	r1, [r4, #70]	@ 0x46
 800744a:	b921      	cbnz	r1, 8007456 <find_volume+0xc6>
 800744c:	f104 0054 	add.w	r0, r4, #84	@ 0x54
 8007450:	f7ff fe08 	bl	8007064 <ld_dword>
 8007454:	4601      	mov	r1, r0
 8007456:	f894 2040 	ldrb.w	r2, [r4, #64]	@ 0x40
 800745a:	61a1      	str	r1, [r4, #24]
 800745c:	1e53      	subs	r3, r2, #1
 800745e:	70a2      	strb	r2, [r4, #2]
 8007460:	2b01      	cmp	r3, #1
 8007462:	f200 8099 	bhi.w	8007598 <find_volume+0x208>
 8007466:	f894 503d 	ldrb.w	r5, [r4, #61]	@ 0x3d
 800746a:	8165      	strh	r5, [r4, #10]
 800746c:	2d00      	cmp	r5, #0
 800746e:	f000 8093 	beq.w	8007598 <find_volume+0x208>
 8007472:	1e6b      	subs	r3, r5, #1
 8007474:	422b      	tst	r3, r5
 8007476:	f040 808f 	bne.w	8007598 <find_volume+0x208>
 800747a:	f8b4 7041 	ldrh.w	r7, [r4, #65]	@ 0x41
 800747e:	073b      	lsls	r3, r7, #28
 8007480:	8127      	strh	r7, [r4, #8]
 8007482:	f040 8089 	bne.w	8007598 <find_volume+0x208>
 8007486:	f8b4 0043 	ldrh.w	r0, [r4, #67]	@ 0x43
 800748a:	b918      	cbnz	r0, 8007494 <find_volume+0x104>
 800748c:	f104 0050 	add.w	r0, r4, #80	@ 0x50
 8007490:	f7ff fde8 	bl	8007064 <ld_dword>
 8007494:	8fe3      	ldrh	r3, [r4, #62]	@ 0x3e
 8007496:	2b00      	cmp	r3, #0
 8007498:	d07e      	beq.n	8007598 <find_volume+0x208>
 800749a:	fb01 fe02 	mul.w	lr, r1, r2
 800749e:	eb03 1c17 	add.w	ip, r3, r7, lsr #4
 80074a2:	44f4      	add	ip, lr
 80074a4:	4560      	cmp	r0, ip
 80074a6:	d377      	bcc.n	8007598 <find_volume+0x208>
 80074a8:	eba0 000c 	sub.w	r0, r0, ip
 80074ac:	42a8      	cmp	r0, r5
 80074ae:	fbb0 f2f5 	udiv	r2, r0, r5
 80074b2:	d371      	bcc.n	8007598 <find_volume+0x208>
 80074b4:	f64f 70f5 	movw	r0, #65525	@ 0xfff5
 80074b8:	4282      	cmp	r2, r0
 80074ba:	d871      	bhi.n	80075a0 <find_volume+0x210>
 80074bc:	f640 75f5 	movw	r5, #4085	@ 0xff5
 80074c0:	42aa      	cmp	r2, r5
 80074c2:	bf8c      	ite	hi
 80074c4:	2502      	movhi	r5, #2
 80074c6:	2501      	movls	r5, #1
 80074c8:	3202      	adds	r2, #2
 80074ca:	4433      	add	r3, r6
 80074cc:	eb06 000c 	add.w	r0, r6, ip
 80074d0:	2d03      	cmp	r5, #3
 80074d2:	6162      	str	r2, [r4, #20]
 80074d4:	61e6      	str	r6, [r4, #28]
 80074d6:	6223      	str	r3, [r4, #32]
 80074d8:	62a0      	str	r0, [r4, #40]	@ 0x28
 80074da:	d163      	bne.n	80075a4 <find_volume+0x214>
 80074dc:	f8b4 305a 	ldrh.w	r3, [r4, #90]	@ 0x5a
 80074e0:	433b      	orrs	r3, r7
 80074e2:	d159      	bne.n	8007598 <find_volume+0x208>
 80074e4:	0092      	lsls	r2, r2, #2
 80074e6:	f104 005c 	add.w	r0, r4, #92	@ 0x5c
 80074ea:	f7ff fdbb 	bl	8007064 <ld_dword>
 80074ee:	f202 12ff 	addw	r2, r2, #511	@ 0x1ff
 80074f2:	6260      	str	r0, [r4, #36]	@ 0x24
 80074f4:	ebb1 2f52 	cmp.w	r1, r2, lsr #9
 80074f8:	d34e      	bcc.n	8007598 <find_volume+0x208>
 80074fa:	f04f 33ff 	mov.w	r3, #4294967295
 80074fe:	2d03      	cmp	r5, #3
 8007500:	e9c4 3303 	strd	r3, r3, [r4, #12]
 8007504:	f04f 0380 	mov.w	r3, #128	@ 0x80
 8007508:	7123      	strb	r3, [r4, #4]
 800750a:	d12b      	bne.n	8007564 <find_volume+0x1d4>
 800750c:	f8b4 3060 	ldrh.w	r3, [r4, #96]	@ 0x60
 8007510:	2b01      	cmp	r3, #1
 8007512:	d127      	bne.n	8007564 <find_volume+0x1d4>
 8007514:	1c71      	adds	r1, r6, #1
 8007516:	4620      	mov	r0, r4
 8007518:	f7ff fee4 	bl	80072e4 <move_window>
 800751c:	bb10      	cbnz	r0, 8007564 <find_volume+0x1d4>
 800751e:	f8b4 222e 	ldrh.w	r2, [r4, #558]	@ 0x22e
 8007522:	f64a 2355 	movw	r3, #43605	@ 0xaa55
 8007526:	7120      	strb	r0, [r4, #4]
 8007528:	429a      	cmp	r2, r3
 800752a:	d11b      	bne.n	8007564 <find_volume+0x1d4>
 800752c:	4b29      	ldr	r3, [pc, #164]	@ (80075d4 <find_volume+0x244>)
 800752e:	f104 0030 	add.w	r0, r4, #48	@ 0x30
 8007532:	f7ff fd97 	bl	8007064 <ld_dword>
 8007536:	4298      	cmp	r0, r3
 8007538:	d114      	bne.n	8007564 <find_volume+0x1d4>
 800753a:	f103 53ff 	add.w	r3, r3, #534773760	@ 0x1fe00000
 800753e:	f504 7005 	add.w	r0, r4, #532	@ 0x214
 8007542:	f7ff fd8f 	bl	8007064 <ld_dword>
 8007546:	f503 5300 	add.w	r3, r3, #8192	@ 0x2000
 800754a:	3320      	adds	r3, #32
 800754c:	4298      	cmp	r0, r3
 800754e:	d109      	bne.n	8007564 <find_volume+0x1d4>
 8007550:	f504 7006 	add.w	r0, r4, #536	@ 0x218
 8007554:	f7ff fd86 	bl	8007064 <ld_dword>
 8007558:	6120      	str	r0, [r4, #16]
 800755a:	f504 7007 	add.w	r0, r4, #540	@ 0x21c
 800755e:	f7ff fd81 	bl	8007064 <ld_dword>
 8007562:	60e0      	str	r0, [r4, #12]
 8007564:	4a1c      	ldr	r2, [pc, #112]	@ (80075d8 <find_volume+0x248>)
 8007566:	4620      	mov	r0, r4
 8007568:	7025      	strb	r5, [r4, #0]
 800756a:	8813      	ldrh	r3, [r2, #0]
 800756c:	3301      	adds	r3, #1
 800756e:	b29b      	uxth	r3, r3
 8007570:	80e3      	strh	r3, [r4, #6]
 8007572:	8013      	strh	r3, [r2, #0]
 8007574:	f7ff fe20 	bl	80071b8 <clear_lock>
 8007578:	2000      	movs	r0, #0
 800757a:	e72b      	b.n	80073d4 <find_volume+0x44>
 800757c:	2003      	movs	r0, #3
 800757e:	3501      	adds	r5, #1
 8007580:	2d04      	cmp	r5, #4
 8007582:	f47f af4e 	bne.w	8007422 <find_volume+0x92>
 8007586:	2804      	cmp	r0, #4
 8007588:	d106      	bne.n	8007598 <find_volume+0x208>
 800758a:	e001      	b.n	8007590 <find_volume+0x200>
 800758c:	2804      	cmp	r0, #4
 800758e:	d101      	bne.n	8007594 <find_volume+0x204>
 8007590:	2001      	movs	r0, #1
 8007592:	e71f      	b.n	80073d4 <find_volume+0x44>
 8007594:	2801      	cmp	r0, #1
 8007596:	d901      	bls.n	800759c <find_volume+0x20c>
 8007598:	200d      	movs	r0, #13
 800759a:	e71b      	b.n	80073d4 <find_volume+0x44>
 800759c:	2600      	movs	r6, #0
 800759e:	e74c      	b.n	800743a <find_volume+0xaa>
 80075a0:	2503      	movs	r5, #3
 80075a2:	e791      	b.n	80074c8 <find_volume+0x138>
 80075a4:	2f00      	cmp	r7, #0
 80075a6:	d0f7      	beq.n	8007598 <find_volume+0x208>
 80075a8:	2d02      	cmp	r5, #2
 80075aa:	eb03 000e 	add.w	r0, r3, lr
 80075ae:	ea4f 0342 	mov.w	r3, r2, lsl #1
 80075b2:	bf1b      	ittet	ne
 80075b4:	189b      	addne	r3, r3, r2
 80075b6:	f002 0201 	andne.w	r2, r2, #1
 80075ba:	461a      	moveq	r2, r3
 80075bc:	eb02 0253 	addne.w	r2, r2, r3, lsr #1
 80075c0:	e795      	b.n	80074ee <find_volume+0x15e>
 80075c2:	200b      	movs	r0, #11
 80075c4:	e706      	b.n	80073d4 <find_volume+0x44>
 80075c6:	200c      	movs	r0, #12
 80075c8:	e704      	b.n	80073d4 <find_volume+0x44>
 80075ca:	2003      	movs	r0, #3
 80075cc:	e702      	b.n	80073d4 <find_volume+0x44>
 80075ce:	bf00      	nop
 80075d0:	240bc0a8 	.word	0x240bc0a8
 80075d4:	41615252 	.word	0x41615252
 80075d8:	240bc0a4 	.word	0x240bc0a4

080075dc <put_fat>:
 80075dc:	2901      	cmp	r1, #1
 80075de:	e92d 43f8 	stmdb	sp!, {r3, r4, r5, r6, r7, r8, r9, lr}
 80075e2:	4605      	mov	r5, r0
 80075e4:	460e      	mov	r6, r1
 80075e6:	4614      	mov	r4, r2
 80075e8:	d96f      	bls.n	80076ca <put_fat+0xee>
 80075ea:	6943      	ldr	r3, [r0, #20]
 80075ec:	428b      	cmp	r3, r1
 80075ee:	d96c      	bls.n	80076ca <put_fat+0xee>
 80075f0:	7803      	ldrb	r3, [r0, #0]
 80075f2:	2b02      	cmp	r3, #2
 80075f4:	d03e      	beq.n	8007674 <put_fat+0x98>
 80075f6:	2b03      	cmp	r3, #3
 80075f8:	d04e      	beq.n	8007698 <put_fat+0xbc>
 80075fa:	2b01      	cmp	r3, #1
 80075fc:	d165      	bne.n	80076ca <put_fat+0xee>
 80075fe:	eb01 0851 	add.w	r8, r1, r1, lsr #1
 8007602:	6a01      	ldr	r1, [r0, #32]
 8007604:	eb01 2158 	add.w	r1, r1, r8, lsr #9
 8007608:	f7ff fe6c 	bl	80072e4 <move_window>
 800760c:	bb40      	cbnz	r0, 8007660 <put_fat+0x84>
 800760e:	f016 0601 	ands.w	r6, r6, #1
 8007612:	f105 0730 	add.w	r7, r5, #48	@ 0x30
 8007616:	f108 0901 	add.w	r9, r8, #1
 800761a:	f3c8 0808 	ubfx	r8, r8, #0, #9
 800761e:	bf18      	it	ne
 8007620:	0123      	lslne	r3, r4, #4
 8007622:	4628      	mov	r0, r5
 8007624:	bf17      	itett	ne
 8007626:	f817 2008 	ldrbne.w	r2, [r7, r8]
 800762a:	b2e3      	uxtbeq	r3, r4
 800762c:	f003 03f0 	andne.w	r3, r3, #240	@ 0xf0
 8007630:	f002 020f 	andne.w	r2, r2, #15
 8007634:	bf18      	it	ne
 8007636:	4313      	orrne	r3, r2
 8007638:	f807 3008 	strb.w	r3, [r7, r8]
 800763c:	2301      	movs	r3, #1
 800763e:	6a29      	ldr	r1, [r5, #32]
 8007640:	70eb      	strb	r3, [r5, #3]
 8007642:	eb01 2159 	add.w	r1, r1, r9, lsr #9
 8007646:	f7ff fe4d 	bl	80072e4 <move_window>
 800764a:	b948      	cbnz	r0, 8007660 <put_fat+0x84>
 800764c:	f3c9 0908 	ubfx	r9, r9, #0, #9
 8007650:	b146      	cbz	r6, 8007664 <put_fat+0x88>
 8007652:	f3c4 1407 	ubfx	r4, r4, #4, #8
 8007656:	f807 4009 	strb.w	r4, [r7, r9]
 800765a:	2301      	movs	r3, #1
 800765c:	2000      	movs	r0, #0
 800765e:	70eb      	strb	r3, [r5, #3]
 8007660:	e8bd 83f8 	ldmia.w	sp!, {r3, r4, r5, r6, r7, r8, r9, pc}
 8007664:	f817 3009 	ldrb.w	r3, [r7, r9]
 8007668:	f3c4 2403 	ubfx	r4, r4, #8, #4
 800766c:	f023 030f 	bic.w	r3, r3, #15
 8007670:	431c      	orrs	r4, r3
 8007672:	e7f0      	b.n	8007656 <put_fat+0x7a>
 8007674:	6a01      	ldr	r1, [r0, #32]
 8007676:	eb01 2116 	add.w	r1, r1, r6, lsr #8
 800767a:	f7ff fe33 	bl	80072e4 <move_window>
 800767e:	2800      	cmp	r0, #0
 8007680:	d1ee      	bne.n	8007660 <put_fat+0x84>
 8007682:	0076      	lsls	r6, r6, #1
 8007684:	f105 0330 	add.w	r3, r5, #48	@ 0x30
 8007688:	f406 76ff 	and.w	r6, r6, #510	@ 0x1fe
 800768c:	559c      	strb	r4, [r3, r6]
 800768e:	199a      	adds	r2, r3, r6
 8007690:	f3c4 2407 	ubfx	r4, r4, #8, #8
 8007694:	7054      	strb	r4, [r2, #1]
 8007696:	e7e0      	b.n	800765a <put_fat+0x7e>
 8007698:	6a01      	ldr	r1, [r0, #32]
 800769a:	eb01 11d6 	add.w	r1, r1, r6, lsr #7
 800769e:	f7ff fe21 	bl	80072e4 <move_window>
 80076a2:	2800      	cmp	r0, #0
 80076a4:	d1dc      	bne.n	8007660 <put_fat+0x84>
 80076a6:	00b6      	lsls	r6, r6, #2
 80076a8:	f105 0330 	add.w	r3, r5, #48	@ 0x30
 80076ac:	f024 4470 	bic.w	r4, r4, #4026531840	@ 0xf0000000
 80076b0:	f406 76fe 	and.w	r6, r6, #508	@ 0x1fc
 80076b4:	4433      	add	r3, r6
 80076b6:	4618      	mov	r0, r3
 80076b8:	f7ff fcd4 	bl	8007064 <ld_dword>
 80076bc:	f000 4170 	and.w	r1, r0, #4026531840	@ 0xf0000000
 80076c0:	4618      	mov	r0, r3
 80076c2:	4321      	orrs	r1, r4
 80076c4:	f7ff fcd0 	bl	8007068 <st_dword>
 80076c8:	e7c7      	b.n	800765a <put_fat+0x7e>
 80076ca:	2002      	movs	r0, #2
 80076cc:	e7c8      	b.n	8007660 <put_fat+0x84>

080076ce <sync_fs>:
 80076ce:	b5f8      	push	{r3, r4, r5, r6, r7, lr}
 80076d0:	4604      	mov	r4, r0
 80076d2:	f7ff fdcd 	bl	8007270 <sync_window>
 80076d6:	4605      	mov	r5, r0
 80076d8:	2800      	cmp	r0, #0
 80076da:	d142      	bne.n	8007762 <sync_fs+0x94>
 80076dc:	7823      	ldrb	r3, [r4, #0]
 80076de:	2b03      	cmp	r3, #3
 80076e0:	d137      	bne.n	8007752 <sync_fs+0x84>
 80076e2:	7927      	ldrb	r7, [r4, #4]
 80076e4:	2f01      	cmp	r7, #1
 80076e6:	d134      	bne.n	8007752 <sync_fs+0x84>
 80076e8:	f104 0630 	add.w	r6, r4, #48	@ 0x30
 80076ec:	2355      	movs	r3, #85	@ 0x55
 80076ee:	4601      	mov	r1, r0
 80076f0:	f44f 7200 	mov.w	r2, #512	@ 0x200
 80076f4:	4630      	mov	r0, r6
 80076f6:	f7ff fcbf 	bl	8007078 <mem_set>
 80076fa:	f884 322e 	strb.w	r3, [r4, #558]	@ 0x22e
 80076fe:	23aa      	movs	r3, #170	@ 0xaa
 8007700:	2241      	movs	r2, #65	@ 0x41
 8007702:	2172      	movs	r1, #114	@ 0x72
 8007704:	f504 7006 	add.w	r0, r4, #536	@ 0x218
 8007708:	f884 322f 	strb.w	r3, [r4, #559]	@ 0x22f
 800770c:	2352      	movs	r3, #82	@ 0x52
 800770e:	f884 2033 	strb.w	r2, [r4, #51]	@ 0x33
 8007712:	f884 3030 	strb.w	r3, [r4, #48]	@ 0x30
 8007716:	f884 3031 	strb.w	r3, [r4, #49]	@ 0x31
 800771a:	2361      	movs	r3, #97	@ 0x61
 800771c:	f884 1214 	strb.w	r1, [r4, #532]	@ 0x214
 8007720:	f884 3032 	strb.w	r3, [r4, #50]	@ 0x32
 8007724:	f884 3217 	strb.w	r3, [r4, #535]	@ 0x217
 8007728:	f884 1215 	strb.w	r1, [r4, #533]	@ 0x215
 800772c:	f884 2216 	strb.w	r2, [r4, #534]	@ 0x216
 8007730:	6921      	ldr	r1, [r4, #16]
 8007732:	f7ff fc99 	bl	8007068 <st_dword>
 8007736:	68e1      	ldr	r1, [r4, #12]
 8007738:	f504 7007 	add.w	r0, r4, #540	@ 0x21c
 800773c:	f7ff fc94 	bl	8007068 <st_dword>
 8007740:	69e2      	ldr	r2, [r4, #28]
 8007742:	463b      	mov	r3, r7
 8007744:	4631      	mov	r1, r6
 8007746:	3201      	adds	r2, #1
 8007748:	7860      	ldrb	r0, [r4, #1]
 800774a:	62e2      	str	r2, [r4, #44]	@ 0x2c
 800774c:	f7ff fc6e 	bl	800702c <disk_write>
 8007750:	7125      	strb	r5, [r4, #4]
 8007752:	2200      	movs	r2, #0
 8007754:	7860      	ldrb	r0, [r4, #1]
 8007756:	4611      	mov	r1, r2
 8007758:	f7ff fc76 	bl	8007048 <disk_ioctl>
 800775c:	3800      	subs	r0, #0
 800775e:	bf18      	it	ne
 8007760:	2001      	movne	r0, #1
 8007762:	bdf8      	pop	{r3, r4, r5, r6, r7, pc}

08007764 <ld_clust.isra.0>:
 8007764:	2803      	cmp	r0, #3
 8007766:	8b4b      	ldrh	r3, [r1, #26]
 8007768:	bf04      	itt	eq
 800776a:	8a8a      	ldrheq	r2, [r1, #20]
 800776c:	ea43 4302 	orreq.w	r3, r3, r2, lsl #16
 8007770:	4618      	mov	r0, r3
 8007772:	4770      	bx	lr

08007774 <get_fat.isra.0>:
 8007774:	2901      	cmp	r1, #1
 8007776:	b5f8      	push	{r3, r4, r5, r6, r7, lr}
 8007778:	4606      	mov	r6, r0
 800777a:	460c      	mov	r4, r1
 800777c:	d94e      	bls.n	800781c <get_fat.isra.0+0xa8>
 800777e:	6943      	ldr	r3, [r0, #20]
 8007780:	4299      	cmp	r1, r3
 8007782:	d24b      	bcs.n	800781c <get_fat.isra.0+0xa8>
 8007784:	7803      	ldrb	r3, [r0, #0]
 8007786:	2b02      	cmp	r3, #2
 8007788:	d029      	beq.n	80077de <get_fat.isra.0+0x6a>
 800778a:	2b03      	cmp	r3, #3
 800778c:	d034      	beq.n	80077f8 <get_fat.isra.0+0x84>
 800778e:	2b01      	cmp	r3, #1
 8007790:	d144      	bne.n	800781c <get_fat.isra.0+0xa8>
 8007792:	eb01 0551 	add.w	r5, r1, r1, lsr #1
 8007796:	6a01      	ldr	r1, [r0, #32]
 8007798:	eb01 2155 	add.w	r1, r1, r5, lsr #9
 800779c:	f7ff fda2 	bl	80072e4 <move_window>
 80077a0:	b110      	cbz	r0, 80077a8 <get_fat.isra.0+0x34>
 80077a2:	f04f 30ff 	mov.w	r0, #4294967295
 80077a6:	bdf8      	pop	{r3, r4, r5, r6, r7, pc}
 80077a8:	1c6f      	adds	r7, r5, #1
 80077aa:	f3c5 0508 	ubfx	r5, r5, #0, #9
 80077ae:	6a31      	ldr	r1, [r6, #32]
 80077b0:	4630      	mov	r0, r6
 80077b2:	4435      	add	r5, r6
 80077b4:	eb01 2157 	add.w	r1, r1, r7, lsr #9
 80077b8:	f895 5030 	ldrb.w	r5, [r5, #48]	@ 0x30
 80077bc:	f7ff fd92 	bl	80072e4 <move_window>
 80077c0:	2800      	cmp	r0, #0
 80077c2:	d1ee      	bne.n	80077a2 <get_fat.isra.0+0x2e>
 80077c4:	f3c7 0708 	ubfx	r7, r7, #0, #9
 80077c8:	4437      	add	r7, r6
 80077ca:	f897 3030 	ldrb.w	r3, [r7, #48]	@ 0x30
 80077ce:	ea45 2003 	orr.w	r0, r5, r3, lsl #8
 80077d2:	07e3      	lsls	r3, r4, #31
 80077d4:	bf4c      	ite	mi
 80077d6:	0900      	lsrmi	r0, r0, #4
 80077d8:	f3c0 000b 	ubfxpl	r0, r0, #0, #12
 80077dc:	e7e3      	b.n	80077a6 <get_fat.isra.0+0x32>
 80077de:	6a01      	ldr	r1, [r0, #32]
 80077e0:	eb01 2114 	add.w	r1, r1, r4, lsr #8
 80077e4:	f7ff fd7e 	bl	80072e4 <move_window>
 80077e8:	2800      	cmp	r0, #0
 80077ea:	d1da      	bne.n	80077a2 <get_fat.isra.0+0x2e>
 80077ec:	0064      	lsls	r4, r4, #1
 80077ee:	f404 74ff 	and.w	r4, r4, #510	@ 0x1fe
 80077f2:	4434      	add	r4, r6
 80077f4:	8e20      	ldrh	r0, [r4, #48]	@ 0x30
 80077f6:	e7d6      	b.n	80077a6 <get_fat.isra.0+0x32>
 80077f8:	6a01      	ldr	r1, [r0, #32]
 80077fa:	eb01 11d4 	add.w	r1, r1, r4, lsr #7
 80077fe:	f7ff fd71 	bl	80072e4 <move_window>
 8007802:	2800      	cmp	r0, #0
 8007804:	d1cd      	bne.n	80077a2 <get_fat.isra.0+0x2e>
 8007806:	00a4      	lsls	r4, r4, #2
 8007808:	f106 0030 	add.w	r0, r6, #48	@ 0x30
 800780c:	f404 74fe 	and.w	r4, r4, #508	@ 0x1fc
 8007810:	4420      	add	r0, r4
 8007812:	f7ff fc27 	bl	8007064 <ld_dword>
 8007816:	f020 4070 	bic.w	r0, r0, #4026531840	@ 0xf0000000
 800781a:	e7c4      	b.n	80077a6 <get_fat.isra.0+0x32>
 800781c:	2001      	movs	r0, #1
 800781e:	e7c2      	b.n	80077a6 <get_fat.isra.0+0x32>

08007820 <dir_sdi.constprop.0>:
 8007820:	b538      	push	{r3, r4, r5, lr}
 8007822:	6882      	ldr	r2, [r0, #8]
 8007824:	2300      	movs	r3, #0
 8007826:	4605      	mov	r5, r0
 8007828:	6804      	ldr	r4, [r0, #0]
 800782a:	6143      	str	r3, [r0, #20]
 800782c:	b992      	cbnz	r2, 8007854 <dir_sdi.constprop.0+0x34>
 800782e:	7823      	ldrb	r3, [r4, #0]
 8007830:	2b02      	cmp	r3, #2
 8007832:	d901      	bls.n	8007838 <dir_sdi.constprop.0+0x18>
 8007834:	6a63      	ldr	r3, [r4, #36]	@ 0x24
 8007836:	b963      	cbnz	r3, 8007852 <dir_sdi.constprop.0+0x32>
 8007838:	8923      	ldrh	r3, [r4, #8]
 800783a:	b90b      	cbnz	r3, 8007840 <dir_sdi.constprop.0+0x20>
 800783c:	2002      	movs	r0, #2
 800783e:	bd38      	pop	{r3, r4, r5, pc}
 8007840:	6a60      	ldr	r0, [r4, #36]	@ 0x24
 8007842:	e9c5 2006 	strd	r2, r0, [r5, #24]
 8007846:	2800      	cmp	r0, #0
 8007848:	d0f8      	beq.n	800783c <dir_sdi.constprop.0+0x1c>
 800784a:	3430      	adds	r4, #48	@ 0x30
 800784c:	2000      	movs	r0, #0
 800784e:	622c      	str	r4, [r5, #32]
 8007850:	e7f5      	b.n	800783e <dir_sdi.constprop.0+0x1e>
 8007852:	461a      	mov	r2, r3
 8007854:	8963      	ldrh	r3, [r4, #10]
 8007856:	b963      	cbnz	r3, 8007872 <dir_sdi.constprop.0+0x52>
 8007858:	4611      	mov	r1, r2
 800785a:	6828      	ldr	r0, [r5, #0]
 800785c:	f7ff ff8a 	bl	8007774 <get_fat.isra.0>
 8007860:	1c43      	adds	r3, r0, #1
 8007862:	4602      	mov	r2, r0
 8007864:	d00a      	beq.n	800787c <dir_sdi.constprop.0+0x5c>
 8007866:	2801      	cmp	r0, #1
 8007868:	d9e8      	bls.n	800783c <dir_sdi.constprop.0+0x1c>
 800786a:	6963      	ldr	r3, [r4, #20]
 800786c:	4298      	cmp	r0, r3
 800786e:	d3f3      	bcc.n	8007858 <dir_sdi.constprop.0+0x38>
 8007870:	e7e4      	b.n	800783c <dir_sdi.constprop.0+0x1c>
 8007872:	4611      	mov	r1, r2
 8007874:	4620      	mov	r0, r4
 8007876:	f7ff fcad 	bl	80071d4 <clust2sect>
 800787a:	e7e2      	b.n	8007842 <dir_sdi.constprop.0+0x22>
 800787c:	2001      	movs	r0, #1
 800787e:	e7de      	b.n	800783e <dir_sdi.constprop.0+0x1e>

08007880 <remove_chain>:
 8007880:	b5f8      	push	{r3, r4, r5, r6, r7, lr}
 8007882:	460c      	mov	r4, r1
 8007884:	4606      	mov	r6, r0
 8007886:	4611      	mov	r1, r2
 8007888:	6805      	ldr	r5, [r0, #0]
 800788a:	2c01      	cmp	r4, #1
 800788c:	d92b      	bls.n	80078e6 <remove_chain+0x66>
 800788e:	696b      	ldr	r3, [r5, #20]
 8007890:	42a3      	cmp	r3, r4
 8007892:	d928      	bls.n	80078e6 <remove_chain+0x66>
 8007894:	b12a      	cbz	r2, 80078a2 <remove_chain+0x22>
 8007896:	f04f 32ff 	mov.w	r2, #4294967295
 800789a:	4628      	mov	r0, r5
 800789c:	f7ff fe9e 	bl	80075dc <put_fat>
 80078a0:	b938      	cbnz	r0, 80078b2 <remove_chain+0x32>
 80078a2:	4621      	mov	r1, r4
 80078a4:	6830      	ldr	r0, [r6, #0]
 80078a6:	4627      	mov	r7, r4
 80078a8:	f7ff ff64 	bl	8007774 <get_fat.isra.0>
 80078ac:	4604      	mov	r4, r0
 80078ae:	b908      	cbnz	r0, 80078b4 <remove_chain+0x34>
 80078b0:	2000      	movs	r0, #0
 80078b2:	bdf8      	pop	{r3, r4, r5, r6, r7, pc}
 80078b4:	2801      	cmp	r0, #1
 80078b6:	d016      	beq.n	80078e6 <remove_chain+0x66>
 80078b8:	1c43      	adds	r3, r0, #1
 80078ba:	d016      	beq.n	80078ea <remove_chain+0x6a>
 80078bc:	2200      	movs	r2, #0
 80078be:	4639      	mov	r1, r7
 80078c0:	4628      	mov	r0, r5
 80078c2:	f7ff fe8b 	bl	80075dc <put_fat>
 80078c6:	2800      	cmp	r0, #0
 80078c8:	d1f3      	bne.n	80078b2 <remove_chain+0x32>
 80078ca:	e9d5 3204 	ldrd	r3, r2, [r5, #16]
 80078ce:	1e91      	subs	r1, r2, #2
 80078d0:	428b      	cmp	r3, r1
 80078d2:	d205      	bcs.n	80078e0 <remove_chain+0x60>
 80078d4:	3301      	adds	r3, #1
 80078d6:	612b      	str	r3, [r5, #16]
 80078d8:	792b      	ldrb	r3, [r5, #4]
 80078da:	f043 0301 	orr.w	r3, r3, #1
 80078de:	712b      	strb	r3, [r5, #4]
 80078e0:	42a2      	cmp	r2, r4
 80078e2:	d8de      	bhi.n	80078a2 <remove_chain+0x22>
 80078e4:	e7e4      	b.n	80078b0 <remove_chain+0x30>
 80078e6:	2002      	movs	r0, #2
 80078e8:	e7e3      	b.n	80078b2 <remove_chain+0x32>
 80078ea:	2001      	movs	r0, #1
 80078ec:	e7e1      	b.n	80078b2 <remove_chain+0x32>

080078ee <create_chain>:
 80078ee:	e92d 41f0 	stmdb	sp!, {r4, r5, r6, r7, r8, lr}
 80078f2:	4680      	mov	r8, r0
 80078f4:	6805      	ldr	r5, [r0, #0]
 80078f6:	460f      	mov	r7, r1
 80078f8:	b971      	cbnz	r1, 8007918 <create_chain+0x2a>
 80078fa:	68ee      	ldr	r6, [r5, #12]
 80078fc:	b1ee      	cbz	r6, 800793a <create_chain+0x4c>
 80078fe:	696b      	ldr	r3, [r5, #20]
 8007900:	429e      	cmp	r6, r3
 8007902:	bf28      	it	cs
 8007904:	2601      	movcs	r6, #1
 8007906:	4634      	mov	r4, r6
 8007908:	3401      	adds	r4, #1
 800790a:	696b      	ldr	r3, [r5, #20]
 800790c:	42a3      	cmp	r3, r4
 800790e:	d817      	bhi.n	8007940 <create_chain+0x52>
 8007910:	2e01      	cmp	r6, #1
 8007912:	d114      	bne.n	800793e <create_chain+0x50>
 8007914:	2400      	movs	r4, #0
 8007916:	e006      	b.n	8007926 <create_chain+0x38>
 8007918:	4628      	mov	r0, r5
 800791a:	f7ff ff2b 	bl	8007774 <get_fat.isra.0>
 800791e:	2801      	cmp	r0, #1
 8007920:	4604      	mov	r4, r0
 8007922:	d803      	bhi.n	800792c <create_chain+0x3e>
 8007924:	2401      	movs	r4, #1
 8007926:	4620      	mov	r0, r4
 8007928:	e8bd 81f0 	ldmia.w	sp!, {r4, r5, r6, r7, r8, pc}
 800792c:	1c43      	adds	r3, r0, #1
 800792e:	d030      	beq.n	8007992 <create_chain+0xa4>
 8007930:	696b      	ldr	r3, [r5, #20]
 8007932:	4283      	cmp	r3, r0
 8007934:	d8f7      	bhi.n	8007926 <create_chain+0x38>
 8007936:	463e      	mov	r6, r7
 8007938:	e7e5      	b.n	8007906 <create_chain+0x18>
 800793a:	2601      	movs	r6, #1
 800793c:	e7e3      	b.n	8007906 <create_chain+0x18>
 800793e:	2402      	movs	r4, #2
 8007940:	4621      	mov	r1, r4
 8007942:	f8d8 0000 	ldr.w	r0, [r8]
 8007946:	f7ff ff15 	bl	8007774 <get_fat.isra.0>
 800794a:	b130      	cbz	r0, 800795a <create_chain+0x6c>
 800794c:	2801      	cmp	r0, #1
 800794e:	d0e9      	beq.n	8007924 <create_chain+0x36>
 8007950:	3001      	adds	r0, #1
 8007952:	d01e      	beq.n	8007992 <create_chain+0xa4>
 8007954:	42b4      	cmp	r4, r6
 8007956:	d1d7      	bne.n	8007908 <create_chain+0x1a>
 8007958:	e7dc      	b.n	8007914 <create_chain+0x26>
 800795a:	f04f 32ff 	mov.w	r2, #4294967295
 800795e:	4621      	mov	r1, r4
 8007960:	4628      	mov	r0, r5
 8007962:	f7ff fe3b 	bl	80075dc <put_fat>
 8007966:	b990      	cbnz	r0, 800798e <create_chain+0xa0>
 8007968:	b957      	cbnz	r7, 8007980 <create_chain+0x92>
 800796a:	60ec      	str	r4, [r5, #12]
 800796c:	e9d5 3204 	ldrd	r3, r2, [r5, #16]
 8007970:	3a02      	subs	r2, #2
 8007972:	4293      	cmp	r3, r2
 8007974:	d910      	bls.n	8007998 <create_chain+0xaa>
 8007976:	792b      	ldrb	r3, [r5, #4]
 8007978:	f043 0301 	orr.w	r3, r3, #1
 800797c:	712b      	strb	r3, [r5, #4]
 800797e:	e7d2      	b.n	8007926 <create_chain+0x38>
 8007980:	4622      	mov	r2, r4
 8007982:	4639      	mov	r1, r7
 8007984:	4628      	mov	r0, r5
 8007986:	f7ff fe29 	bl	80075dc <put_fat>
 800798a:	2800      	cmp	r0, #0
 800798c:	d0ed      	beq.n	800796a <create_chain+0x7c>
 800798e:	2801      	cmp	r0, #1
 8007990:	d1c8      	bne.n	8007924 <create_chain+0x36>
 8007992:	f04f 34ff 	mov.w	r4, #4294967295
 8007996:	e7c6      	b.n	8007926 <create_chain+0x38>
 8007998:	3b01      	subs	r3, #1
 800799a:	612b      	str	r3, [r5, #16]
 800799c:	e7eb      	b.n	8007976 <create_chain+0x88>

0800799e <dir_next>:
 800799e:	6943      	ldr	r3, [r0, #20]
 80079a0:	e92d 47f0 	stmdb	sp!, {r4, r5, r6, r7, r8, r9, sl, lr}
 80079a4:	f103 0820 	add.w	r8, r3, #32
 80079a8:	69c3      	ldr	r3, [r0, #28]
 80079aa:	4605      	mov	r5, r0
 80079ac:	468a      	mov	sl, r1
 80079ae:	b18b      	cbz	r3, 80079d4 <dir_next+0x36>
 80079b0:	f5b8 1f00 	cmp.w	r8, #2097152	@ 0x200000
 80079b4:	d20e      	bcs.n	80079d4 <dir_next+0x36>
 80079b6:	f3c8 0708 	ubfx	r7, r8, #0, #9
 80079ba:	6804      	ldr	r4, [r0, #0]
 80079bc:	2f00      	cmp	r7, #0
 80079be:	d14f      	bne.n	8007a60 <dir_next+0xc2>
 80079c0:	3301      	adds	r3, #1
 80079c2:	6981      	ldr	r1, [r0, #24]
 80079c4:	61c3      	str	r3, [r0, #28]
 80079c6:	b941      	cbnz	r1, 80079da <dir_next+0x3c>
 80079c8:	8923      	ldrh	r3, [r4, #8]
 80079ca:	ebb3 1f58 	cmp.w	r3, r8, lsr #5
 80079ce:	d847      	bhi.n	8007a60 <dir_next+0xc2>
 80079d0:	2300      	movs	r3, #0
 80079d2:	61eb      	str	r3, [r5, #28]
 80079d4:	2004      	movs	r0, #4
 80079d6:	e8bd 87f0 	ldmia.w	sp!, {r4, r5, r6, r7, r8, r9, sl, pc}
 80079da:	f8b4 900a 	ldrh.w	r9, [r4, #10]
 80079de:	f109 39ff 	add.w	r9, r9, #4294967295
 80079e2:	ea19 2958 	ands.w	r9, r9, r8, lsr #9
 80079e6:	d13b      	bne.n	8007a60 <dir_next+0xc2>
 80079e8:	4620      	mov	r0, r4
 80079ea:	f7ff fec3 	bl	8007774 <get_fat.isra.0>
 80079ee:	2801      	cmp	r0, #1
 80079f0:	4606      	mov	r6, r0
 80079f2:	d801      	bhi.n	80079f8 <dir_next+0x5a>
 80079f4:	2002      	movs	r0, #2
 80079f6:	e7ee      	b.n	80079d6 <dir_next+0x38>
 80079f8:	1c42      	adds	r2, r0, #1
 80079fa:	d101      	bne.n	8007a00 <dir_next+0x62>
 80079fc:	2001      	movs	r0, #1
 80079fe:	e7ea      	b.n	80079d6 <dir_next+0x38>
 8007a00:	6963      	ldr	r3, [r4, #20]
 8007a02:	4283      	cmp	r3, r0
 8007a04:	d826      	bhi.n	8007a54 <dir_next+0xb6>
 8007a06:	f1ba 0f00 	cmp.w	sl, #0
 8007a0a:	d0e1      	beq.n	80079d0 <dir_next+0x32>
 8007a0c:	69a9      	ldr	r1, [r5, #24]
 8007a0e:	4628      	mov	r0, r5
 8007a10:	f7ff ff6d 	bl	80078ee <create_chain>
 8007a14:	4606      	mov	r6, r0
 8007a16:	2800      	cmp	r0, #0
 8007a18:	d035      	beq.n	8007a86 <dir_next+0xe8>
 8007a1a:	2801      	cmp	r0, #1
 8007a1c:	d0ea      	beq.n	80079f4 <dir_next+0x56>
 8007a1e:	1c43      	adds	r3, r0, #1
 8007a20:	d0ec      	beq.n	80079fc <dir_next+0x5e>
 8007a22:	4620      	mov	r0, r4
 8007a24:	f7ff fc24 	bl	8007270 <sync_window>
 8007a28:	4601      	mov	r1, r0
 8007a2a:	2800      	cmp	r0, #0
 8007a2c:	d1e6      	bne.n	80079fc <dir_next+0x5e>
 8007a2e:	f104 0030 	add.w	r0, r4, #48	@ 0x30
 8007a32:	f44f 7200 	mov.w	r2, #512	@ 0x200
 8007a36:	f04f 0a01 	mov.w	sl, #1
 8007a3a:	f7ff fb1d 	bl	8007078 <mem_set>
 8007a3e:	4631      	mov	r1, r6
 8007a40:	4620      	mov	r0, r4
 8007a42:	f7ff fbc7 	bl	80071d4 <clust2sect>
 8007a46:	8963      	ldrh	r3, [r4, #10]
 8007a48:	62e0      	str	r0, [r4, #44]	@ 0x2c
 8007a4a:	4599      	cmp	r9, r3
 8007a4c:	d30f      	bcc.n	8007a6e <dir_next+0xd0>
 8007a4e:	eba0 0009 	sub.w	r0, r0, r9
 8007a52:	62e0      	str	r0, [r4, #44]	@ 0x2c
 8007a54:	4631      	mov	r1, r6
 8007a56:	4620      	mov	r0, r4
 8007a58:	61ae      	str	r6, [r5, #24]
 8007a5a:	f7ff fbbb 	bl	80071d4 <clust2sect>
 8007a5e:	61e8      	str	r0, [r5, #28]
 8007a60:	3430      	adds	r4, #48	@ 0x30
 8007a62:	2000      	movs	r0, #0
 8007a64:	f8c5 8014 	str.w	r8, [r5, #20]
 8007a68:	443c      	add	r4, r7
 8007a6a:	622c      	str	r4, [r5, #32]
 8007a6c:	e7b3      	b.n	80079d6 <dir_next+0x38>
 8007a6e:	4620      	mov	r0, r4
 8007a70:	f884 a003 	strb.w	sl, [r4, #3]
 8007a74:	f7ff fbfc 	bl	8007270 <sync_window>
 8007a78:	2800      	cmp	r0, #0
 8007a7a:	d1bf      	bne.n	80079fc <dir_next+0x5e>
 8007a7c:	6ae0      	ldr	r0, [r4, #44]	@ 0x2c
 8007a7e:	f109 0901 	add.w	r9, r9, #1
 8007a82:	3001      	adds	r0, #1
 8007a84:	e7df      	b.n	8007a46 <dir_next+0xa8>
 8007a86:	2007      	movs	r0, #7
 8007a88:	e7a5      	b.n	80079d6 <dir_next+0x38>
	...

08007a8c <follow_path>:
 8007a8c:	e92d 43f8 	stmdb	sp!, {r3, r4, r5, r6, r7, r8, r9, lr}
 8007a90:	4681      	mov	r9, r0
 8007a92:	6806      	ldr	r6, [r0, #0]
 8007a94:	460c      	mov	r4, r1
 8007a96:	f811 3b01 	ldrb.w	r3, [r1], #1
 8007a9a:	2b2f      	cmp	r3, #47	@ 0x2f
 8007a9c:	d0fa      	beq.n	8007a94 <follow_path+0x8>
 8007a9e:	2b5c      	cmp	r3, #92	@ 0x5c
 8007aa0:	d0f8      	beq.n	8007a94 <follow_path+0x8>
 8007aa2:	2300      	movs	r3, #0
 8007aa4:	f8c9 3008 	str.w	r3, [r9, #8]
 8007aa8:	7823      	ldrb	r3, [r4, #0]
 8007aaa:	2b1f      	cmp	r3, #31
 8007aac:	d95d      	bls.n	8007b6a <follow_path+0xde>
 8007aae:	f109 0524 	add.w	r5, r9, #36	@ 0x24
 8007ab2:	4f54      	ldr	r7, [pc, #336]	@ (8007c04 <follow_path+0x178>)
 8007ab4:	220b      	movs	r2, #11
 8007ab6:	4628      	mov	r0, r5
 8007ab8:	2120      	movs	r1, #32
 8007aba:	f1c4 0802 	rsb	r8, r4, #2
 8007abe:	f7ff fadb 	bl	8007078 <mem_set>
 8007ac2:	f104 3cff 	add.w	ip, r4, #4294967295
 8007ac6:	2200      	movs	r2, #0
 8007ac8:	2008      	movs	r0, #8
 8007aca:	eb08 010c 	add.w	r1, r8, ip
 8007ace:	f81c 3f01 	ldrb.w	r3, [ip, #1]!
 8007ad2:	2b20      	cmp	r3, #32
 8007ad4:	d908      	bls.n	8007ae8 <follow_path+0x5c>
 8007ad6:	2b2f      	cmp	r3, #47	@ 0x2f
 8007ad8:	d001      	beq.n	8007ade <follow_path+0x52>
 8007ada:	2b5c      	cmp	r3, #92	@ 0x5c
 8007adc:	d14f      	bne.n	8007b7e <follow_path+0xf2>
 8007ade:	5c60      	ldrb	r0, [r4, r1]
 8007ae0:	282f      	cmp	r0, #47	@ 0x2f
 8007ae2:	d04a      	beq.n	8007b7a <follow_path+0xee>
 8007ae4:	285c      	cmp	r0, #92	@ 0x5c
 8007ae6:	d048      	beq.n	8007b7a <follow_path+0xee>
 8007ae8:	440c      	add	r4, r1
 8007aea:	2a00      	cmp	r2, #0
 8007aec:	d056      	beq.n	8007b9c <follow_path+0x110>
 8007aee:	f899 2024 	ldrb.w	r2, [r9, #36]	@ 0x24
 8007af2:	4648      	mov	r0, r9
 8007af4:	f8d9 8000 	ldr.w	r8, [r9]
 8007af8:	2ae5      	cmp	r2, #229	@ 0xe5
 8007afa:	bf04      	itt	eq
 8007afc:	2205      	moveq	r2, #5
 8007afe:	f889 2024 	strbeq.w	r2, [r9, #36]	@ 0x24
 8007b02:	2b20      	cmp	r3, #32
 8007b04:	bf8c      	ite	hi
 8007b06:	2300      	movhi	r3, #0
 8007b08:	2301      	movls	r3, #1
 8007b0a:	009b      	lsls	r3, r3, #2
 8007b0c:	f889 302f 	strb.w	r3, [r9, #47]	@ 0x2f
 8007b10:	f7ff fe86 	bl	8007820 <dir_sdi.constprop.0>
 8007b14:	2800      	cmp	r0, #0
 8007b16:	d164      	bne.n	8007be2 <follow_path+0x156>
 8007b18:	f8d9 101c 	ldr.w	r1, [r9, #28]
 8007b1c:	4640      	mov	r0, r8
 8007b1e:	f7ff fbe1 	bl	80072e4 <move_window>
 8007b22:	2800      	cmp	r0, #0
 8007b24:	d147      	bne.n	8007bb6 <follow_path+0x12a>
 8007b26:	f8d9 3020 	ldr.w	r3, [r9, #32]
 8007b2a:	781a      	ldrb	r2, [r3, #0]
 8007b2c:	2a00      	cmp	r2, #0
 8007b2e:	d060      	beq.n	8007bf2 <follow_path+0x166>
 8007b30:	7ada      	ldrb	r2, [r3, #11]
 8007b32:	f002 023f 	and.w	r2, r2, #63	@ 0x3f
 8007b36:	f889 2006 	strb.w	r2, [r9, #6]
 8007b3a:	7ad8      	ldrb	r0, [r3, #11]
 8007b3c:	f010 0008 	ands.w	r0, r0, #8
 8007b40:	d10c      	bne.n	8007b5c <follow_path+0xd0>
 8007b42:	f103 0c0b 	add.w	ip, r3, #11
 8007b46:	4629      	mov	r1, r5
 8007b48:	f813 2b01 	ldrb.w	r2, [r3], #1
 8007b4c:	f811 eb01 	ldrb.w	lr, [r1], #1
 8007b50:	4563      	cmp	r3, ip
 8007b52:	eba2 020e 	sub.w	r2, r2, lr
 8007b56:	d02c      	beq.n	8007bb2 <follow_path+0x126>
 8007b58:	2a00      	cmp	r2, #0
 8007b5a:	d0f5      	beq.n	8007b48 <follow_path+0xbc>
 8007b5c:	2100      	movs	r1, #0
 8007b5e:	4648      	mov	r0, r9
 8007b60:	f7ff ff1d 	bl	800799e <dir_next>
 8007b64:	2800      	cmp	r0, #0
 8007b66:	d0d7      	beq.n	8007b18 <follow_path+0x8c>
 8007b68:	e025      	b.n	8007bb6 <follow_path+0x12a>
 8007b6a:	2380      	movs	r3, #128	@ 0x80
 8007b6c:	4648      	mov	r0, r9
 8007b6e:	f889 302f 	strb.w	r3, [r9, #47]	@ 0x2f
 8007b72:	e8bd 43f8 	ldmia.w	sp!, {r3, r4, r5, r6, r7, r8, r9, lr}
 8007b76:	f7ff be53 	b.w	8007820 <dir_sdi.constprop.0>
 8007b7a:	3101      	adds	r1, #1
 8007b7c:	e7af      	b.n	8007ade <follow_path+0x52>
 8007b7e:	2b2e      	cmp	r3, #46	@ 0x2e
 8007b80:	d03b      	beq.n	8007bfa <follow_path+0x16e>
 8007b82:	4290      	cmp	r0, r2
 8007b84:	d90a      	bls.n	8007b9c <follow_path+0x110>
 8007b86:	0619      	lsls	r1, r3, #24
 8007b88:	f8df e07c 	ldr.w	lr, [pc, #124]	@ 8007c08 <follow_path+0x17c>
 8007b8c:	bf44      	itt	mi
 8007b8e:	3b80      	submi	r3, #128	@ 0x80
 8007b90:	5cfb      	ldrbmi	r3, [r7, r3]
 8007b92:	f81e 1b01 	ldrb.w	r1, [lr], #1
 8007b96:	b119      	cbz	r1, 8007ba0 <follow_path+0x114>
 8007b98:	428b      	cmp	r3, r1
 8007b9a:	d1fa      	bne.n	8007b92 <follow_path+0x106>
 8007b9c:	2006      	movs	r0, #6
 8007b9e:	e026      	b.n	8007bee <follow_path+0x162>
 8007ba0:	f1a3 0161 	sub.w	r1, r3, #97	@ 0x61
 8007ba4:	2919      	cmp	r1, #25
 8007ba6:	bf9c      	itt	ls
 8007ba8:	3b20      	subls	r3, #32
 8007baa:	b2db      	uxtbls	r3, r3
 8007bac:	54ab      	strb	r3, [r5, r2]
 8007bae:	3201      	adds	r2, #1
 8007bb0:	e78b      	b.n	8007aca <follow_path+0x3e>
 8007bb2:	2a00      	cmp	r2, #0
 8007bb4:	d1d2      	bne.n	8007b5c <follow_path+0xd0>
 8007bb6:	f899 302f 	ldrb.w	r3, [r9, #47]	@ 0x2f
 8007bba:	b9a0      	cbnz	r0, 8007be6 <follow_path+0x15a>
 8007bbc:	075a      	lsls	r2, r3, #29
 8007bbe:	d416      	bmi.n	8007bee <follow_path+0x162>
 8007bc0:	f899 3006 	ldrb.w	r3, [r9, #6]
 8007bc4:	06db      	lsls	r3, r3, #27
 8007bc6:	d516      	bpl.n	8007bf6 <follow_path+0x16a>
 8007bc8:	f8d9 3014 	ldr.w	r3, [r9, #20]
 8007bcc:	f106 0130 	add.w	r1, r6, #48	@ 0x30
 8007bd0:	7830      	ldrb	r0, [r6, #0]
 8007bd2:	f3c3 0308 	ubfx	r3, r3, #0, #9
 8007bd6:	4419      	add	r1, r3
 8007bd8:	f7ff fdc4 	bl	8007764 <ld_clust.isra.0>
 8007bdc:	f8c9 0008 	str.w	r0, [r9, #8]
 8007be0:	e768      	b.n	8007ab4 <follow_path+0x28>
 8007be2:	f899 302f 	ldrb.w	r3, [r9, #47]	@ 0x2f
 8007be6:	2804      	cmp	r0, #4
 8007be8:	d101      	bne.n	8007bee <follow_path+0x162>
 8007bea:	0759      	lsls	r1, r3, #29
 8007bec:	d503      	bpl.n	8007bf6 <follow_path+0x16a>
 8007bee:	e8bd 83f8 	ldmia.w	sp!, {r3, r4, r5, r6, r7, r8, r9, pc}
 8007bf2:	2004      	movs	r0, #4
 8007bf4:	e7df      	b.n	8007bb6 <follow_path+0x12a>
 8007bf6:	2005      	movs	r0, #5
 8007bf8:	e7f9      	b.n	8007bee <follow_path+0x162>
 8007bfa:	280b      	cmp	r0, #11
 8007bfc:	d0ce      	beq.n	8007b9c <follow_path+0x110>
 8007bfe:	2208      	movs	r2, #8
 8007c00:	200b      	movs	r0, #11
 8007c02:	e762      	b.n	8007aca <follow_path+0x3e>
 8007c04:	08008f9b 	.word	0x08008f9b
 8007c08:	08008f8c 	.word	0x08008f8c

08007c0c <dir_register>:
 8007c0c:	b570      	push	{r4, r5, r6, lr}
 8007c0e:	4605      	mov	r5, r0
 8007c10:	6806      	ldr	r6, [r0, #0]
 8007c12:	f7ff fe05 	bl	8007820 <dir_sdi.constprop.0>
 8007c16:	4604      	mov	r4, r0
 8007c18:	b978      	cbnz	r0, 8007c3a <dir_register+0x2e>
 8007c1a:	69e9      	ldr	r1, [r5, #28]
 8007c1c:	4630      	mov	r0, r6
 8007c1e:	f7ff fb61 	bl	80072e4 <move_window>
 8007c22:	4604      	mov	r4, r0
 8007c24:	b948      	cbnz	r0, 8007c3a <dir_register+0x2e>
 8007c26:	6a2b      	ldr	r3, [r5, #32]
 8007c28:	781b      	ldrb	r3, [r3, #0]
 8007c2a:	2be5      	cmp	r3, #229	@ 0xe5
 8007c2c:	d00a      	beq.n	8007c44 <dir_register+0x38>
 8007c2e:	b14b      	cbz	r3, 8007c44 <dir_register+0x38>
 8007c30:	2101      	movs	r1, #1
 8007c32:	4628      	mov	r0, r5
 8007c34:	f7ff feb3 	bl	800799e <dir_next>
 8007c38:	e7ed      	b.n	8007c16 <dir_register+0xa>
 8007c3a:	2c04      	cmp	r4, #4
 8007c3c:	bf08      	it	eq
 8007c3e:	2407      	moveq	r4, #7
 8007c40:	4620      	mov	r0, r4
 8007c42:	bd70      	pop	{r4, r5, r6, pc}
 8007c44:	69e9      	ldr	r1, [r5, #28]
 8007c46:	4630      	mov	r0, r6
 8007c48:	f7ff fb4c 	bl	80072e4 <move_window>
 8007c4c:	4604      	mov	r4, r0
 8007c4e:	2800      	cmp	r0, #0
 8007c50:	d1f6      	bne.n	8007c40 <dir_register+0x34>
 8007c52:	2220      	movs	r2, #32
 8007c54:	4621      	mov	r1, r4
 8007c56:	6a28      	ldr	r0, [r5, #32]
 8007c58:	f7ff fa0e 	bl	8007078 <mem_set>
 8007c5c:	220b      	movs	r2, #11
 8007c5e:	f105 0124 	add.w	r1, r5, #36	@ 0x24
 8007c62:	6a28      	ldr	r0, [r5, #32]
 8007c64:	f7ff fb29 	bl	80072ba <mem_cpy.part.0>
 8007c68:	2301      	movs	r3, #1
 8007c6a:	70f3      	strb	r3, [r6, #3]
 8007c6c:	e7e8      	b.n	8007c40 <dir_register+0x34>
	...

08007c70 <f_mount>:
 8007c70:	b530      	push	{r4, r5, lr}
 8007c72:	b085      	sub	sp, #20
 8007c74:	4614      	mov	r4, r2
 8007c76:	e9cd 1000 	strd	r1, r0, [sp]
 8007c7a:	a803      	add	r0, sp, #12
 8007c7c:	9103      	str	r1, [sp, #12]
 8007c7e:	f7ff fac5 	bl	800720c <get_ldnumber>
 8007c82:	1e01      	subs	r1, r0, #0
 8007c84:	db19      	blt.n	8007cba <f_mount+0x4a>
 8007c86:	4d0e      	ldr	r5, [pc, #56]	@ (8007cc0 <f_mount+0x50>)
 8007c88:	f855 0021 	ldr.w	r0, [r5, r1, lsl #2]
 8007c8c:	b118      	cbz	r0, 8007c96 <f_mount+0x26>
 8007c8e:	f7ff fa93 	bl	80071b8 <clear_lock>
 8007c92:	2300      	movs	r3, #0
 8007c94:	7003      	strb	r3, [r0, #0]
 8007c96:	9b01      	ldr	r3, [sp, #4]
 8007c98:	b923      	cbnz	r3, 8007ca4 <f_mount+0x34>
 8007c9a:	f845 3021 	str.w	r3, [r5, r1, lsl #2]
 8007c9e:	2000      	movs	r0, #0
 8007ca0:	b005      	add	sp, #20
 8007ca2:	bd30      	pop	{r4, r5, pc}
 8007ca4:	2200      	movs	r2, #0
 8007ca6:	2c01      	cmp	r4, #1
 8007ca8:	f845 3021 	str.w	r3, [r5, r1, lsl #2]
 8007cac:	701a      	strb	r2, [r3, #0]
 8007cae:	d1f6      	bne.n	8007c9e <f_mount+0x2e>
 8007cb0:	a901      	add	r1, sp, #4
 8007cb2:	4668      	mov	r0, sp
 8007cb4:	f7ff fb6c 	bl	8007390 <find_volume>
 8007cb8:	e7f2      	b.n	8007ca0 <f_mount+0x30>
 8007cba:	200b      	movs	r0, #11
 8007cbc:	e7f0      	b.n	8007ca0 <f_mount+0x30>
 8007cbe:	bf00      	nop
 8007cc0:	240bc0a8 	.word	0x240bc0a8

08007cc4 <f_open>:
 8007cc4:	e92d 43f0 	stmdb	sp!, {r4, r5, r6, r7, r8, r9, lr}
 8007cc8:	b091      	sub	sp, #68	@ 0x44
 8007cca:	4690      	mov	r8, r2
 8007ccc:	4604      	mov	r4, r0
 8007cce:	9101      	str	r1, [sp, #4]
 8007cd0:	2800      	cmp	r0, #0
 8007cd2:	f000 80f1 	beq.w	8007eb8 <f_open+0x1f4>
 8007cd6:	f002 063f 	and.w	r6, r2, #63	@ 0x3f
 8007cda:	a903      	add	r1, sp, #12
 8007cdc:	a801      	add	r0, sp, #4
 8007cde:	4632      	mov	r2, r6
 8007ce0:	f7ff fb56 	bl	8007390 <find_volume>
 8007ce4:	4607      	mov	r7, r0
 8007ce6:	2800      	cmp	r0, #0
 8007ce8:	d171      	bne.n	8007dce <f_open+0x10a>
 8007cea:	9d03      	ldr	r5, [sp, #12]
 8007cec:	a804      	add	r0, sp, #16
 8007cee:	9901      	ldr	r1, [sp, #4]
 8007cf0:	9504      	str	r5, [sp, #16]
 8007cf2:	f7ff fecb 	bl	8007a8c <follow_path>
 8007cf6:	b958      	cbnz	r0, 8007d10 <f_open+0x4c>
 8007cf8:	f99d 303f 	ldrsb.w	r3, [sp, #63]	@ 0x3f
 8007cfc:	2b00      	cmp	r3, #0
 8007cfe:	db6d      	blt.n	8007ddc <f_open+0x118>
 8007d00:	f018 0f3e 	tst.w	r8, #62	@ 0x3e
 8007d04:	a804      	add	r0, sp, #16
 8007d06:	bf14      	ite	ne
 8007d08:	2101      	movne	r1, #1
 8007d0a:	2100      	moveq	r1, #0
 8007d0c:	f7ff f9ba 	bl	8007084 <chk_lock>
 8007d10:	f018 0f1c 	tst.w	r8, #28
 8007d14:	d06e      	beq.n	8007df4 <f_open+0x130>
 8007d16:	2800      	cmp	r0, #0
 8007d18:	d062      	beq.n	8007de0 <f_open+0x11c>
 8007d1a:	2804      	cmp	r0, #4
 8007d1c:	d157      	bne.n	8007dce <f_open+0x10a>
 8007d1e:	4b67      	ldr	r3, [pc, #412]	@ (8007ebc <f_open+0x1f8>)
 8007d20:	681a      	ldr	r2, [r3, #0]
 8007d22:	b11a      	cbz	r2, 8007d2c <f_open+0x68>
 8007d24:	691b      	ldr	r3, [r3, #16]
 8007d26:	2b00      	cmp	r3, #0
 8007d28:	f040 80c2 	bne.w	8007eb0 <f_open+0x1ec>
 8007d2c:	a804      	add	r0, sp, #16
 8007d2e:	f7ff ff6d 	bl	8007c0c <dir_register>
 8007d32:	2800      	cmp	r0, #0
 8007d34:	d14b      	bne.n	8007dce <f_open+0x10a>
 8007d36:	f046 0608 	orr.w	r6, r6, #8
 8007d3a:	0730      	lsls	r0, r6, #28
 8007d3c:	f8dd 8030 	ldr.w	r8, [sp, #48]	@ 0x30
 8007d40:	d535      	bpl.n	8007dae <f_open+0xea>
 8007d42:	f7ff f876 	bl	8006e32 <get_fattime>
 8007d46:	4602      	mov	r2, r0
 8007d48:	4601      	mov	r1, r0
 8007d4a:	f108 000e 	add.w	r0, r8, #14
 8007d4e:	f7ff f98b 	bl	8007068 <st_dword>
 8007d52:	4611      	mov	r1, r2
 8007d54:	f108 0016 	add.w	r0, r8, #22
 8007d58:	f7ff f986 	bl	8007068 <st_dword>
 8007d5c:	2320      	movs	r3, #32
 8007d5e:	4641      	mov	r1, r8
 8007d60:	f888 300b 	strb.w	r3, [r8, #11]
 8007d64:	7828      	ldrb	r0, [r5, #0]
 8007d66:	f7ff fcfd 	bl	8007764 <ld_clust.isra.0>
 8007d6a:	2200      	movs	r2, #0
 8007d6c:	4680      	mov	r8, r0
 8007d6e:	4628      	mov	r0, r5
 8007d70:	f7ff faac 	bl	80072cc <st_clust>
 8007d74:	2200      	movs	r2, #0
 8007d76:	2301      	movs	r3, #1
 8007d78:	770a      	strb	r2, [r1, #28]
 8007d7a:	774a      	strb	r2, [r1, #29]
 8007d7c:	778a      	strb	r2, [r1, #30]
 8007d7e:	77ca      	strb	r2, [r1, #31]
 8007d80:	70eb      	strb	r3, [r5, #3]
 8007d82:	f1b8 0f00 	cmp.w	r8, #0
 8007d86:	d00e      	beq.n	8007da6 <f_open+0xe2>
 8007d88:	4641      	mov	r1, r8
 8007d8a:	a804      	add	r0, sp, #16
 8007d8c:	f8d5 902c 	ldr.w	r9, [r5, #44]	@ 0x2c
 8007d90:	f7ff fd76 	bl	8007880 <remove_chain>
 8007d94:	b9d8      	cbnz	r0, 8007dce <f_open+0x10a>
 8007d96:	4649      	mov	r1, r9
 8007d98:	4628      	mov	r0, r5
 8007d9a:	f7ff faa3 	bl	80072e4 <move_window>
 8007d9e:	f108 33ff 	add.w	r3, r8, #4294967295
 8007da2:	60eb      	str	r3, [r5, #12]
 8007da4:	b998      	cbnz	r0, 8007dce <f_open+0x10a>
 8007da6:	0730      	lsls	r0, r6, #28
 8007da8:	bf48      	it	mi
 8007daa:	f046 0640 	orrmi.w	r6, r6, #64	@ 0x40
 8007dae:	6aeb      	ldr	r3, [r5, #44]	@ 0x2c
 8007db0:	2e01      	cmp	r6, #1
 8007db2:	f8dd 8030 	ldr.w	r8, [sp, #48]	@ 0x30
 8007db6:	a804      	add	r0, sp, #16
 8007db8:	bf94      	ite	ls
 8007dba:	2100      	movls	r1, #0
 8007dbc:	2101      	movhi	r1, #1
 8007dbe:	6263      	str	r3, [r4, #36]	@ 0x24
 8007dc0:	f8c4 8028 	str.w	r8, [r4, #40]	@ 0x28
 8007dc4:	f7ff f998 	bl	80070f8 <inc_lock>
 8007dc8:	6120      	str	r0, [r4, #16]
 8007dca:	bb00      	cbnz	r0, 8007e0e <f_open+0x14a>
 8007dcc:	2002      	movs	r0, #2
 8007dce:	2300      	movs	r3, #0
 8007dd0:	4607      	mov	r7, r0
 8007dd2:	6023      	str	r3, [r4, #0]
 8007dd4:	4638      	mov	r0, r7
 8007dd6:	b011      	add	sp, #68	@ 0x44
 8007dd8:	e8bd 83f0 	ldmia.w	sp!, {r4, r5, r6, r7, r8, r9, pc}
 8007ddc:	2006      	movs	r0, #6
 8007dde:	e797      	b.n	8007d10 <f_open+0x4c>
 8007de0:	f89d 3016 	ldrb.w	r3, [sp, #22]
 8007de4:	f013 0f11 	tst.w	r3, #17
 8007de8:	d10f      	bne.n	8007e0a <f_open+0x146>
 8007dea:	f018 0f04 	tst.w	r8, #4
 8007dee:	d0a4      	beq.n	8007d3a <f_open+0x76>
 8007df0:	2008      	movs	r0, #8
 8007df2:	e7ec      	b.n	8007dce <f_open+0x10a>
 8007df4:	2800      	cmp	r0, #0
 8007df6:	d1ea      	bne.n	8007dce <f_open+0x10a>
 8007df8:	f89d 3016 	ldrb.w	r3, [sp, #22]
 8007dfc:	06da      	lsls	r2, r3, #27
 8007dfe:	d459      	bmi.n	8007eb4 <f_open+0x1f0>
 8007e00:	f018 0f02 	tst.w	r8, #2
 8007e04:	d0cf      	beq.n	8007da6 <f_open+0xe2>
 8007e06:	07db      	lsls	r3, r3, #31
 8007e08:	d5cd      	bpl.n	8007da6 <f_open+0xe2>
 8007e0a:	2007      	movs	r0, #7
 8007e0c:	e7df      	b.n	8007dce <f_open+0x10a>
 8007e0e:	7828      	ldrb	r0, [r5, #0]
 8007e10:	4641      	mov	r1, r8
 8007e12:	f7ff fca7 	bl	8007764 <ld_clust.isra.0>
 8007e16:	60a0      	str	r0, [r4, #8]
 8007e18:	f108 001c 	add.w	r0, r8, #28
 8007e1c:	2300      	movs	r3, #0
 8007e1e:	f7ff f921 	bl	8007064 <ld_dword>
 8007e22:	f104 0830 	add.w	r8, r4, #48	@ 0x30
 8007e26:	88ea      	ldrh	r2, [r5, #6]
 8007e28:	4619      	mov	r1, r3
 8007e2a:	60e0      	str	r0, [r4, #12]
 8007e2c:	4640      	mov	r0, r8
 8007e2e:	80a2      	strh	r2, [r4, #4]
 8007e30:	f44f 7200 	mov.w	r2, #512	@ 0x200
 8007e34:	62e3      	str	r3, [r4, #44]	@ 0x2c
 8007e36:	6025      	str	r5, [r4, #0]
 8007e38:	7526      	strb	r6, [r4, #20]
 8007e3a:	7563      	strb	r3, [r4, #21]
 8007e3c:	6223      	str	r3, [r4, #32]
 8007e3e:	61a3      	str	r3, [r4, #24]
 8007e40:	f7ff f91a 	bl	8007078 <mem_set>
 8007e44:	06b2      	lsls	r2, r6, #26
 8007e46:	d5c5      	bpl.n	8007dd4 <f_open+0x110>
 8007e48:	68e6      	ldr	r6, [r4, #12]
 8007e4a:	2e00      	cmp	r6, #0
 8007e4c:	d0c2      	beq.n	8007dd4 <f_open+0x110>
 8007e4e:	896a      	ldrh	r2, [r5, #10]
 8007e50:	68a1      	ldr	r1, [r4, #8]
 8007e52:	ebb6 2f42 	cmp.w	r6, r2, lsl #9
 8007e56:	61a6      	str	r6, [r4, #24]
 8007e58:	ea4f 2942 	mov.w	r9, r2, lsl #9
 8007e5c:	d90b      	bls.n	8007e76 <f_open+0x1b2>
 8007e5e:	6820      	ldr	r0, [r4, #0]
 8007e60:	eba6 0609 	sub.w	r6, r6, r9
 8007e64:	f7ff fc86 	bl	8007774 <get_fat.isra.0>
 8007e68:	2801      	cmp	r0, #1
 8007e6a:	4601      	mov	r1, r0
 8007e6c:	d91c      	bls.n	8007ea8 <f_open+0x1e4>
 8007e6e:	1c43      	adds	r3, r0, #1
 8007e70:	d01c      	beq.n	8007eac <f_open+0x1e8>
 8007e72:	454e      	cmp	r6, r9
 8007e74:	d8f3      	bhi.n	8007e5e <f_open+0x19a>
 8007e76:	2000      	movs	r0, #0
 8007e78:	61e1      	str	r1, [r4, #28]
 8007e7a:	2800      	cmp	r0, #0
 8007e7c:	d1a7      	bne.n	8007dce <f_open+0x10a>
 8007e7e:	f3c6 0308 	ubfx	r3, r6, #0, #9
 8007e82:	2b00      	cmp	r3, #0
 8007e84:	d0a6      	beq.n	8007dd4 <f_open+0x110>
 8007e86:	4628      	mov	r0, r5
 8007e88:	f7ff f9a4 	bl	80071d4 <clust2sect>
 8007e8c:	2800      	cmp	r0, #0
 8007e8e:	d09d      	beq.n	8007dcc <f_open+0x108>
 8007e90:	eb00 2256 	add.w	r2, r0, r6, lsr #9
 8007e94:	2301      	movs	r3, #1
 8007e96:	4641      	mov	r1, r8
 8007e98:	6222      	str	r2, [r4, #32]
 8007e9a:	7868      	ldrb	r0, [r5, #1]
 8007e9c:	f7ff f8b8 	bl	8007010 <disk_read>
 8007ea0:	2800      	cmp	r0, #0
 8007ea2:	d097      	beq.n	8007dd4 <f_open+0x110>
 8007ea4:	2001      	movs	r0, #1
 8007ea6:	e792      	b.n	8007dce <f_open+0x10a>
 8007ea8:	2002      	movs	r0, #2
 8007eaa:	e7e5      	b.n	8007e78 <f_open+0x1b4>
 8007eac:	2001      	movs	r0, #1
 8007eae:	e7e3      	b.n	8007e78 <f_open+0x1b4>
 8007eb0:	2012      	movs	r0, #18
 8007eb2:	e78c      	b.n	8007dce <f_open+0x10a>
 8007eb4:	2004      	movs	r0, #4
 8007eb6:	e78a      	b.n	8007dce <f_open+0x10a>
 8007eb8:	2709      	movs	r7, #9
 8007eba:	e78b      	b.n	8007dd4 <f_open+0x110>
 8007ebc:	240bc084 	.word	0x240bc084

08007ec0 <f_read>:
 8007ec0:	e92d 4ff0 	stmdb	sp!, {r4, r5, r6, r7, r8, r9, sl, fp, lr}
 8007ec4:	469b      	mov	fp, r3
 8007ec6:	b087      	sub	sp, #28
 8007ec8:	2300      	movs	r3, #0
 8007eca:	4689      	mov	r9, r1
 8007ecc:	a905      	add	r1, sp, #20
 8007ece:	4604      	mov	r4, r0
 8007ed0:	f8cb 3000 	str.w	r3, [fp]
 8007ed4:	4617      	mov	r7, r2
 8007ed6:	f7ff f9b1 	bl	800723c <validate>
 8007eda:	4605      	mov	r5, r0
 8007edc:	bb28      	cbnz	r0, 8007f2a <f_read+0x6a>
 8007ede:	7d65      	ldrb	r5, [r4, #21]
 8007ee0:	bb1d      	cbnz	r5, 8007f2a <f_read+0x6a>
 8007ee2:	7d23      	ldrb	r3, [r4, #20]
 8007ee4:	f013 0301 	ands.w	r3, r3, #1
 8007ee8:	9301      	str	r3, [sp, #4]
 8007eea:	f000 809d 	beq.w	8008028 <f_read+0x168>
 8007eee:	69a3      	ldr	r3, [r4, #24]
 8007ef0:	68e6      	ldr	r6, [r4, #12]
 8007ef2:	1af6      	subs	r6, r6, r3
 8007ef4:	f104 0330 	add.w	r3, r4, #48	@ 0x30
 8007ef8:	42be      	cmp	r6, r7
 8007efa:	9302      	str	r3, [sp, #8]
 8007efc:	bf28      	it	cs
 8007efe:	463e      	movcs	r6, r7
 8007f00:	b19e      	cbz	r6, 8007f2a <f_read+0x6a>
 8007f02:	69a1      	ldr	r1, [r4, #24]
 8007f04:	f3c1 0308 	ubfx	r3, r1, #0, #9
 8007f08:	2b00      	cmp	r3, #0
 8007f0a:	d17e      	bne.n	800800a <f_read+0x14a>
 8007f0c:	f8dd a014 	ldr.w	sl, [sp, #20]
 8007f10:	f8ba 800a 	ldrh.w	r8, [sl, #10]
 8007f14:	f108 38ff 	add.w	r8, r8, #4294967295
 8007f18:	ea18 2851 	ands.w	r8, r8, r1, lsr #9
 8007f1c:	d11b      	bne.n	8007f56 <f_read+0x96>
 8007f1e:	b941      	cbnz	r1, 8007f32 <f_read+0x72>
 8007f20:	68a0      	ldr	r0, [r4, #8]
 8007f22:	2801      	cmp	r0, #1
 8007f24:	d810      	bhi.n	8007f48 <f_read+0x88>
 8007f26:	2502      	movs	r5, #2
 8007f28:	7565      	strb	r5, [r4, #21]
 8007f2a:	4628      	mov	r0, r5
 8007f2c:	b007      	add	sp, #28
 8007f2e:	e8bd 8ff0 	ldmia.w	sp!, {r4, r5, r6, r7, r8, r9, sl, fp, pc}
 8007f32:	6ae3      	ldr	r3, [r4, #44]	@ 0x2c
 8007f34:	b11b      	cbz	r3, 8007f3e <f_read+0x7e>
 8007f36:	4620      	mov	r0, r4
 8007f38:	f7ff f957 	bl	80071ea <clmt_clust>
 8007f3c:	e7f1      	b.n	8007f22 <f_read+0x62>
 8007f3e:	69e1      	ldr	r1, [r4, #28]
 8007f40:	6820      	ldr	r0, [r4, #0]
 8007f42:	f7ff fc17 	bl	8007774 <get_fat.isra.0>
 8007f46:	e7ec      	b.n	8007f22 <f_read+0x62>
 8007f48:	1c43      	adds	r3, r0, #1
 8007f4a:	d103      	bne.n	8007f54 <f_read+0x94>
 8007f4c:	2301      	movs	r3, #1
 8007f4e:	9d01      	ldr	r5, [sp, #4]
 8007f50:	7563      	strb	r3, [r4, #21]
 8007f52:	e7ea      	b.n	8007f2a <f_read+0x6a>
 8007f54:	61e0      	str	r0, [r4, #28]
 8007f56:	69e1      	ldr	r1, [r4, #28]
 8007f58:	4650      	mov	r0, sl
 8007f5a:	f7ff f93b 	bl	80071d4 <clust2sect>
 8007f5e:	2800      	cmp	r0, #0
 8007f60:	d0e1      	beq.n	8007f26 <f_read+0x66>
 8007f62:	f5b6 7f00 	cmp.w	r6, #512	@ 0x200
 8007f66:	eb08 0700 	add.w	r7, r8, r0
 8007f6a:	d32f      	bcc.n	8007fcc <f_read+0x10c>
 8007f6c:	f8ba 200a 	ldrh.w	r2, [sl, #10]
 8007f70:	eb08 2156 	add.w	r1, r8, r6, lsr #9
 8007f74:	0a73      	lsrs	r3, r6, #9
 8007f76:	f89a 0001 	ldrb.w	r0, [sl, #1]
 8007f7a:	4291      	cmp	r1, r2
 8007f7c:	4649      	mov	r1, r9
 8007f7e:	bf88      	it	hi
 8007f80:	eba2 0308 	subhi.w	r3, r2, r8
 8007f84:	463a      	mov	r2, r7
 8007f86:	9303      	str	r3, [sp, #12]
 8007f88:	f7ff f842 	bl	8007010 <disk_read>
 8007f8c:	2800      	cmp	r0, #0
 8007f8e:	d1dd      	bne.n	8007f4c <f_read+0x8c>
 8007f90:	f994 2014 	ldrsb.w	r2, [r4, #20]
 8007f94:	9b03      	ldr	r3, [sp, #12]
 8007f96:	2a00      	cmp	r2, #0
 8007f98:	da0c      	bge.n	8007fb4 <f_read+0xf4>
 8007f9a:	6a20      	ldr	r0, [r4, #32]
 8007f9c:	1bc0      	subs	r0, r0, r7
 8007f9e:	4298      	cmp	r0, r3
 8007fa0:	d208      	bcs.n	8007fb4 <f_read+0xf4>
 8007fa2:	f44f 7200 	mov.w	r2, #512	@ 0x200
 8007fa6:	f104 0130 	add.w	r1, r4, #48	@ 0x30
 8007faa:	eb09 2040 	add.w	r0, r9, r0, lsl #9
 8007fae:	f7ff f984 	bl	80072ba <mem_cpy.part.0>
 8007fb2:	9b03      	ldr	r3, [sp, #12]
 8007fb4:	025f      	lsls	r7, r3, #9
 8007fb6:	69a3      	ldr	r3, [r4, #24]
 8007fb8:	44b9      	add	r9, r7
 8007fba:	1bf6      	subs	r6, r6, r7
 8007fbc:	443b      	add	r3, r7
 8007fbe:	61a3      	str	r3, [r4, #24]
 8007fc0:	f8db 3000 	ldr.w	r3, [fp]
 8007fc4:	443b      	add	r3, r7
 8007fc6:	f8cb 3000 	str.w	r3, [fp]
 8007fca:	e799      	b.n	8007f00 <f_read+0x40>
 8007fcc:	6a22      	ldr	r2, [r4, #32]
 8007fce:	42ba      	cmp	r2, r7
 8007fd0:	d01a      	beq.n	8008008 <f_read+0x148>
 8007fd2:	f994 3014 	ldrsb.w	r3, [r4, #20]
 8007fd6:	f104 0830 	add.w	r8, r4, #48	@ 0x30
 8007fda:	f89a 0001 	ldrb.w	r0, [sl, #1]
 8007fde:	2b00      	cmp	r3, #0
 8007fe0:	da09      	bge.n	8007ff6 <f_read+0x136>
 8007fe2:	2301      	movs	r3, #1
 8007fe4:	4641      	mov	r1, r8
 8007fe6:	f7ff f821 	bl	800702c <disk_write>
 8007fea:	2800      	cmp	r0, #0
 8007fec:	d1ae      	bne.n	8007f4c <f_read+0x8c>
 8007fee:	7d23      	ldrb	r3, [r4, #20]
 8007ff0:	f003 037f 	and.w	r3, r3, #127	@ 0x7f
 8007ff4:	7523      	strb	r3, [r4, #20]
 8007ff6:	2301      	movs	r3, #1
 8007ff8:	463a      	mov	r2, r7
 8007ffa:	4641      	mov	r1, r8
 8007ffc:	f89a 0001 	ldrb.w	r0, [sl, #1]
 8008000:	f7ff f806 	bl	8007010 <disk_read>
 8008004:	2800      	cmp	r0, #0
 8008006:	d1a1      	bne.n	8007f4c <f_read+0x8c>
 8008008:	6227      	str	r7, [r4, #32]
 800800a:	69a1      	ldr	r1, [r4, #24]
 800800c:	4648      	mov	r0, r9
 800800e:	9b02      	ldr	r3, [sp, #8]
 8008010:	f3c1 0108 	ubfx	r1, r1, #0, #9
 8008014:	f5c1 7700 	rsb	r7, r1, #512	@ 0x200
 8008018:	4419      	add	r1, r3
 800801a:	42b7      	cmp	r7, r6
 800801c:	bf28      	it	cs
 800801e:	4637      	movcs	r7, r6
 8008020:	463a      	mov	r2, r7
 8008022:	f7ff f94a 	bl	80072ba <mem_cpy.part.0>
 8008026:	e7c6      	b.n	8007fb6 <f_read+0xf6>
 8008028:	2507      	movs	r5, #7
 800802a:	e77e      	b.n	8007f2a <f_read+0x6a>

0800802c <f_sync>:
 800802c:	e92d 41f3 	stmdb	sp!, {r0, r1, r4, r5, r6, r7, r8, lr}
 8008030:	a901      	add	r1, sp, #4
 8008032:	4605      	mov	r5, r0
 8008034:	f7ff f902 	bl	800723c <validate>
 8008038:	4604      	mov	r4, r0
 800803a:	2800      	cmp	r0, #0
 800803c:	d13b      	bne.n	80080b6 <f_sync+0x8a>
 800803e:	7d2b      	ldrb	r3, [r5, #20]
 8008040:	f013 0440 	ands.w	r4, r3, #64	@ 0x40
 8008044:	d037      	beq.n	80080b6 <f_sync+0x8a>
 8008046:	061b      	lsls	r3, r3, #24
 8008048:	9f01      	ldr	r7, [sp, #4]
 800804a:	d50b      	bpl.n	8008064 <f_sync+0x38>
 800804c:	2301      	movs	r3, #1
 800804e:	6a2a      	ldr	r2, [r5, #32]
 8008050:	f105 0130 	add.w	r1, r5, #48	@ 0x30
 8008054:	7878      	ldrb	r0, [r7, #1]
 8008056:	f7fe ffe9 	bl	800702c <disk_write>
 800805a:	bb80      	cbnz	r0, 80080be <f_sync+0x92>
 800805c:	7d2b      	ldrb	r3, [r5, #20]
 800805e:	f003 037f 	and.w	r3, r3, #127	@ 0x7f
 8008062:	752b      	strb	r3, [r5, #20]
 8008064:	f7fe fee5 	bl	8006e32 <get_fattime>
 8008068:	6a69      	ldr	r1, [r5, #36]	@ 0x24
 800806a:	4680      	mov	r8, r0
 800806c:	4638      	mov	r0, r7
 800806e:	f7ff f939 	bl	80072e4 <move_window>
 8008072:	4604      	mov	r4, r0
 8008074:	b9f8      	cbnz	r0, 80080b6 <f_sync+0x8a>
 8008076:	6aae      	ldr	r6, [r5, #40]	@ 0x28
 8008078:	7af3      	ldrb	r3, [r6, #11]
 800807a:	4631      	mov	r1, r6
 800807c:	f043 0320 	orr.w	r3, r3, #32
 8008080:	72f3      	strb	r3, [r6, #11]
 8008082:	68aa      	ldr	r2, [r5, #8]
 8008084:	6828      	ldr	r0, [r5, #0]
 8008086:	f7ff f921 	bl	80072cc <st_clust>
 800808a:	68e9      	ldr	r1, [r5, #12]
 800808c:	f106 001c 	add.w	r0, r6, #28
 8008090:	f7fe ffea 	bl	8007068 <st_dword>
 8008094:	4641      	mov	r1, r8
 8008096:	f106 0016 	add.w	r0, r6, #22
 800809a:	f7fe ffe5 	bl	8007068 <st_dword>
 800809e:	2301      	movs	r3, #1
 80080a0:	74b4      	strb	r4, [r6, #18]
 80080a2:	4638      	mov	r0, r7
 80080a4:	74f4      	strb	r4, [r6, #19]
 80080a6:	70fb      	strb	r3, [r7, #3]
 80080a8:	f7ff fb11 	bl	80076ce <sync_fs>
 80080ac:	7d2b      	ldrb	r3, [r5, #20]
 80080ae:	4604      	mov	r4, r0
 80080b0:	f023 0340 	bic.w	r3, r3, #64	@ 0x40
 80080b4:	752b      	strb	r3, [r5, #20]
 80080b6:	4620      	mov	r0, r4
 80080b8:	b002      	add	sp, #8
 80080ba:	e8bd 81f0 	ldmia.w	sp!, {r4, r5, r6, r7, r8, pc}
 80080be:	2401      	movs	r4, #1
 80080c0:	e7f9      	b.n	80080b6 <f_sync+0x8a>

080080c2 <f_close>:
 80080c2:	b513      	push	{r0, r1, r4, lr}
 80080c4:	4604      	mov	r4, r0
 80080c6:	f7ff ffb1 	bl	800802c <f_sync>
 80080ca:	b948      	cbnz	r0, 80080e0 <f_close+0x1e>
 80080cc:	a901      	add	r1, sp, #4
 80080ce:	4620      	mov	r0, r4
 80080d0:	f7ff f8b4 	bl	800723c <validate>
 80080d4:	b920      	cbnz	r0, 80080e0 <f_close+0x1e>
 80080d6:	6920      	ldr	r0, [r4, #16]
 80080d8:	f7ff f850 	bl	800717c <dec_lock>
 80080dc:	b900      	cbnz	r0, 80080e0 <f_close+0x1e>
 80080de:	6020      	str	r0, [r4, #0]
 80080e0:	b002      	add	sp, #8
 80080e2:	bd10      	pop	{r4, pc}

080080e4 <f_lseek>:
 80080e4:	e92d 4ff7 	stmdb	sp!, {r0, r1, r2, r4, r5, r6, r7, r8, r9, sl, fp, lr}
 80080e8:	460d      	mov	r5, r1
 80080ea:	a901      	add	r1, sp, #4
 80080ec:	4604      	mov	r4, r0
 80080ee:	f7ff f8a5 	bl	800723c <validate>
 80080f2:	4606      	mov	r6, r0
 80080f4:	b9e8      	cbnz	r0, 8008132 <f_lseek+0x4e>
 80080f6:	7d66      	ldrb	r6, [r4, #21]
 80080f8:	b9de      	cbnz	r6, 8008132 <f_lseek+0x4e>
 80080fa:	6ae3      	ldr	r3, [r4, #44]	@ 0x2c
 80080fc:	2b00      	cmp	r3, #0
 80080fe:	d07b      	beq.n	80081f8 <f_lseek+0x114>
 8008100:	1c6a      	adds	r2, r5, #1
 8008102:	d139      	bne.n	8008178 <f_lseek+0x94>
 8008104:	461d      	mov	r5, r3
 8008106:	f8d4 8008 	ldr.w	r8, [r4, #8]
 800810a:	2702      	movs	r7, #2
 800810c:	f855 bb04 	ldr.w	fp, [r5], #4
 8008110:	f1b8 0f00 	cmp.w	r8, #0
 8008114:	d028      	beq.n	8008168 <f_lseek+0x84>
 8008116:	4640      	mov	r0, r8
 8008118:	f04f 0a00 	mov.w	sl, #0
 800811c:	4601      	mov	r1, r0
 800811e:	4681      	mov	r9, r0
 8008120:	6820      	ldr	r0, [r4, #0]
 8008122:	f10a 0a01 	add.w	sl, sl, #1
 8008126:	f7ff fb25 	bl	8007774 <get_fat.isra.0>
 800812a:	2801      	cmp	r0, #1
 800812c:	d807      	bhi.n	800813e <f_lseek+0x5a>
 800812e:	2602      	movs	r6, #2
 8008130:	7566      	strb	r6, [r4, #21]
 8008132:	4630      	mov	r0, r6
 8008134:	b003      	add	sp, #12
 8008136:	e8bd 8ff0 	ldmia.w	sp!, {r4, r5, r6, r7, r8, r9, sl, fp, pc}
 800813a:	4680      	mov	r8, r0
 800813c:	e7eb      	b.n	8008116 <f_lseek+0x32>
 800813e:	1c43      	adds	r3, r0, #1
 8008140:	d101      	bne.n	8008146 <f_lseek+0x62>
 8008142:	2601      	movs	r6, #1
 8008144:	e7f4      	b.n	8008130 <f_lseek+0x4c>
 8008146:	f109 0901 	add.w	r9, r9, #1
 800814a:	4581      	cmp	r9, r0
 800814c:	d0e6      	beq.n	800811c <f_lseek+0x38>
 800814e:	3702      	adds	r7, #2
 8008150:	45bb      	cmp	fp, r7
 8008152:	bf21      	itttt	cs
 8008154:	462b      	movcs	r3, r5
 8008156:	f843 ab08 	strcs.w	sl, [r3], #8
 800815a:	f8c5 8004 	strcs.w	r8, [r5, #4]
 800815e:	461d      	movcs	r5, r3
 8008160:	9b01      	ldr	r3, [sp, #4]
 8008162:	695b      	ldr	r3, [r3, #20]
 8008164:	4283      	cmp	r3, r0
 8008166:	d8e8      	bhi.n	800813a <f_lseek+0x56>
 8008168:	6ae3      	ldr	r3, [r4, #44]	@ 0x2c
 800816a:	455f      	cmp	r7, fp
 800816c:	601f      	str	r7, [r3, #0]
 800816e:	f200 80d2 	bhi.w	8008316 <f_lseek+0x232>
 8008172:	2300      	movs	r3, #0
 8008174:	602b      	str	r3, [r5, #0]
 8008176:	e7dc      	b.n	8008132 <f_lseek+0x4e>
 8008178:	68e7      	ldr	r7, [r4, #12]
 800817a:	42af      	cmp	r7, r5
 800817c:	bf28      	it	cs
 800817e:	462f      	movcs	r7, r5
 8008180:	61a7      	str	r7, [r4, #24]
 8008182:	2f00      	cmp	r7, #0
 8008184:	d0d5      	beq.n	8008132 <f_lseek+0x4e>
 8008186:	f107 39ff 	add.w	r9, r7, #4294967295
 800818a:	4620      	mov	r0, r4
 800818c:	4649      	mov	r1, r9
 800818e:	f7ff f82c 	bl	80071ea <clmt_clust>
 8008192:	f8dd 8004 	ldr.w	r8, [sp, #4]
 8008196:	4601      	mov	r1, r0
 8008198:	61e0      	str	r0, [r4, #28]
 800819a:	4640      	mov	r0, r8
 800819c:	f7ff f81a 	bl	80071d4 <clust2sect>
 80081a0:	2800      	cmp	r0, #0
 80081a2:	d0c4      	beq.n	800812e <f_lseek+0x4a>
 80081a4:	f3c7 0708 	ubfx	r7, r7, #0, #9
 80081a8:	f8b8 500a 	ldrh.w	r5, [r8, #10]
 80081ac:	2f00      	cmp	r7, #0
 80081ae:	d0c0      	beq.n	8008132 <f_lseek+0x4e>
 80081b0:	3d01      	subs	r5, #1
 80081b2:	6a22      	ldr	r2, [r4, #32]
 80081b4:	ea05 2559 	and.w	r5, r5, r9, lsr #9
 80081b8:	4405      	add	r5, r0
 80081ba:	42aa      	cmp	r2, r5
 80081bc:	d0b9      	beq.n	8008132 <f_lseek+0x4e>
 80081be:	f994 3014 	ldrsb.w	r3, [r4, #20]
 80081c2:	f104 0730 	add.w	r7, r4, #48	@ 0x30
 80081c6:	f898 0001 	ldrb.w	r0, [r8, #1]
 80081ca:	2b00      	cmp	r3, #0
 80081cc:	da09      	bge.n	80081e2 <f_lseek+0xfe>
 80081ce:	2301      	movs	r3, #1
 80081d0:	4639      	mov	r1, r7
 80081d2:	f7fe ff2b 	bl	800702c <disk_write>
 80081d6:	2800      	cmp	r0, #0
 80081d8:	d1b3      	bne.n	8008142 <f_lseek+0x5e>
 80081da:	7d23      	ldrb	r3, [r4, #20]
 80081dc:	f003 037f 	and.w	r3, r3, #127	@ 0x7f
 80081e0:	7523      	strb	r3, [r4, #20]
 80081e2:	2301      	movs	r3, #1
 80081e4:	462a      	mov	r2, r5
 80081e6:	4639      	mov	r1, r7
 80081e8:	f898 0001 	ldrb.w	r0, [r8, #1]
 80081ec:	f7fe ff10 	bl	8007010 <disk_read>
 80081f0:	2800      	cmp	r0, #0
 80081f2:	d1a6      	bne.n	8008142 <f_lseek+0x5e>
 80081f4:	6225      	str	r5, [r4, #32]
 80081f6:	e79c      	b.n	8008132 <f_lseek+0x4e>
 80081f8:	68e3      	ldr	r3, [r4, #12]
 80081fa:	42ab      	cmp	r3, r5
 80081fc:	d204      	bcs.n	8008208 <f_lseek+0x124>
 80081fe:	7d22      	ldrb	r2, [r4, #20]
 8008200:	f012 0f02 	tst.w	r2, #2
 8008204:	bf08      	it	eq
 8008206:	461d      	moveq	r5, r3
 8008208:	2200      	movs	r2, #0
 800820a:	69a3      	ldr	r3, [r4, #24]
 800820c:	61a2      	str	r2, [r4, #24]
 800820e:	bb55      	cbnz	r5, 8008266 <f_lseek+0x182>
 8008210:	2500      	movs	r5, #0
 8008212:	68e2      	ldr	r2, [r4, #12]
 8008214:	69a3      	ldr	r3, [r4, #24]
 8008216:	4293      	cmp	r3, r2
 8008218:	bf84      	itt	hi
 800821a:	7d22      	ldrbhi	r2, [r4, #20]
 800821c:	60e3      	strhi	r3, [r4, #12]
 800821e:	f3c3 0308 	ubfx	r3, r3, #0, #9
 8008222:	bf84      	itt	hi
 8008224:	f042 0240 	orrhi.w	r2, r2, #64	@ 0x40
 8008228:	7522      	strbhi	r2, [r4, #20]
 800822a:	2b00      	cmp	r3, #0
 800822c:	d081      	beq.n	8008132 <f_lseek+0x4e>
 800822e:	6a22      	ldr	r2, [r4, #32]
 8008230:	42aa      	cmp	r2, r5
 8008232:	f43f af7e 	beq.w	8008132 <f_lseek+0x4e>
 8008236:	f994 3014 	ldrsb.w	r3, [r4, #20]
 800823a:	f104 0830 	add.w	r8, r4, #48	@ 0x30
 800823e:	9f01      	ldr	r7, [sp, #4]
 8008240:	2b00      	cmp	r3, #0
 8008242:	7878      	ldrb	r0, [r7, #1]
 8008244:	da0a      	bge.n	800825c <f_lseek+0x178>
 8008246:	2301      	movs	r3, #1
 8008248:	4641      	mov	r1, r8
 800824a:	f7fe feef 	bl	800702c <disk_write>
 800824e:	2800      	cmp	r0, #0
 8008250:	f47f af77 	bne.w	8008142 <f_lseek+0x5e>
 8008254:	7d23      	ldrb	r3, [r4, #20]
 8008256:	f003 037f 	and.w	r3, r3, #127	@ 0x7f
 800825a:	7523      	strb	r3, [r4, #20]
 800825c:	2301      	movs	r3, #1
 800825e:	462a      	mov	r2, r5
 8008260:	4641      	mov	r1, r8
 8008262:	7878      	ldrb	r0, [r7, #1]
 8008264:	e7c2      	b.n	80081ec <f_lseek+0x108>
 8008266:	9f01      	ldr	r7, [sp, #4]
 8008268:	f8b7 800a 	ldrh.w	r8, [r7, #10]
 800826c:	ea4f 2848 	mov.w	r8, r8, lsl #9
 8008270:	b313      	cbz	r3, 80082b8 <f_lseek+0x1d4>
 8008272:	3b01      	subs	r3, #1
 8008274:	1e6a      	subs	r2, r5, #1
 8008276:	fbb3 f1f8 	udiv	r1, r3, r8
 800827a:	fbb2 f2f8 	udiv	r2, r2, r8
 800827e:	428a      	cmp	r2, r1
 8008280:	d31a      	bcc.n	80082b8 <f_lseek+0x1d4>
 8008282:	f1c8 0200 	rsb	r2, r8, #0
 8008286:	69e1      	ldr	r1, [r4, #28]
 8008288:	4013      	ands	r3, r2
 800828a:	1aed      	subs	r5, r5, r3
 800828c:	61a3      	str	r3, [r4, #24]
 800828e:	2900      	cmp	r1, #0
 8008290:	d0be      	beq.n	8008210 <f_lseek+0x12c>
 8008292:	4545      	cmp	r5, r8
 8008294:	69a3      	ldr	r3, [r4, #24]
 8008296:	d81e      	bhi.n	80082d6 <f_lseek+0x1f2>
 8008298:	69a3      	ldr	r3, [r4, #24]
 800829a:	442b      	add	r3, r5
 800829c:	61a3      	str	r3, [r4, #24]
 800829e:	f3c5 0308 	ubfx	r3, r5, #0, #9
 80082a2:	2b00      	cmp	r3, #0
 80082a4:	d0b4      	beq.n	8008210 <f_lseek+0x12c>
 80082a6:	4638      	mov	r0, r7
 80082a8:	f7fe ff94 	bl	80071d4 <clust2sect>
 80082ac:	2800      	cmp	r0, #0
 80082ae:	f43f af3e 	beq.w	800812e <f_lseek+0x4a>
 80082b2:	eb00 2555 	add.w	r5, r0, r5, lsr #9
 80082b6:	e7ac      	b.n	8008212 <f_lseek+0x12e>
 80082b8:	68a1      	ldr	r1, [r4, #8]
 80082ba:	b951      	cbnz	r1, 80082d2 <f_lseek+0x1ee>
 80082bc:	4620      	mov	r0, r4
 80082be:	f7ff fb16 	bl	80078ee <create_chain>
 80082c2:	2801      	cmp	r0, #1
 80082c4:	4601      	mov	r1, r0
 80082c6:	f43f af32 	beq.w	800812e <f_lseek+0x4a>
 80082ca:	1c48      	adds	r0, r1, #1
 80082cc:	f43f af39 	beq.w	8008142 <f_lseek+0x5e>
 80082d0:	60a1      	str	r1, [r4, #8]
 80082d2:	61e1      	str	r1, [r4, #28]
 80082d4:	e7db      	b.n	800828e <f_lseek+0x1aa>
 80082d6:	4443      	add	r3, r8
 80082d8:	eba5 0908 	sub.w	r9, r5, r8
 80082dc:	61a3      	str	r3, [r4, #24]
 80082de:	7d23      	ldrb	r3, [r4, #20]
 80082e0:	079a      	lsls	r2, r3, #30
 80082e2:	d506      	bpl.n	80082f2 <f_lseek+0x20e>
 80082e4:	4620      	mov	r0, r4
 80082e6:	f7ff fb02 	bl	80078ee <create_chain>
 80082ea:	4605      	mov	r5, r0
 80082ec:	b928      	cbnz	r0, 80082fa <f_lseek+0x216>
 80082ee:	4601      	mov	r1, r0
 80082f0:	e7d2      	b.n	8008298 <f_lseek+0x1b4>
 80082f2:	6820      	ldr	r0, [r4, #0]
 80082f4:	f7ff fa3e 	bl	8007774 <get_fat.isra.0>
 80082f8:	4605      	mov	r5, r0
 80082fa:	1c6b      	adds	r3, r5, #1
 80082fc:	f43f af21 	beq.w	8008142 <f_lseek+0x5e>
 8008300:	2d01      	cmp	r5, #1
 8008302:	f67f af14 	bls.w	800812e <f_lseek+0x4a>
 8008306:	697b      	ldr	r3, [r7, #20]
 8008308:	42ab      	cmp	r3, r5
 800830a:	f67f af10 	bls.w	800812e <f_lseek+0x4a>
 800830e:	4629      	mov	r1, r5
 8008310:	61e5      	str	r5, [r4, #28]
 8008312:	464d      	mov	r5, r9
 8008314:	e7bd      	b.n	8008292 <f_lseek+0x1ae>
 8008316:	2611      	movs	r6, #17
 8008318:	e70b      	b.n	8008132 <f_lseek+0x4e>
	...

0800831c <FATFS_LinkDriverEx>:
 800831c:	4b0e      	ldr	r3, [pc, #56]	@ (8008358 <FATFS_LinkDriverEx+0x3c>)
 800831e:	b530      	push	{r4, r5, lr}
 8008320:	7a5c      	ldrb	r4, [r3, #9]
 8008322:	4605      	mov	r5, r0
 8008324:	f004 00ff 	and.w	r0, r4, #255	@ 0xff
 8008328:	b9a4      	cbnz	r4, 8008354 <FATFS_LinkDriverEx+0x38>
 800832a:	7a5c      	ldrb	r4, [r3, #9]
 800832c:	5518      	strb	r0, [r3, r4]
 800832e:	7a5c      	ldrb	r4, [r3, #9]
 8008330:	eb03 0484 	add.w	r4, r3, r4, lsl #2
 8008334:	6065      	str	r5, [r4, #4]
 8008336:	7a5c      	ldrb	r4, [r3, #9]
 8008338:	441c      	add	r4, r3
 800833a:	7222      	strb	r2, [r4, #8]
 800833c:	7a5a      	ldrb	r2, [r3, #9]
 800833e:	1c54      	adds	r4, r2, #1
 8008340:	3230      	adds	r2, #48	@ 0x30
 8008342:	b2e4      	uxtb	r4, r4
 8008344:	725c      	strb	r4, [r3, #9]
 8008346:	233a      	movs	r3, #58	@ 0x3a
 8008348:	700a      	strb	r2, [r1, #0]
 800834a:	704b      	strb	r3, [r1, #1]
 800834c:	232f      	movs	r3, #47	@ 0x2f
 800834e:	70c8      	strb	r0, [r1, #3]
 8008350:	708b      	strb	r3, [r1, #2]
 8008352:	bd30      	pop	{r4, r5, pc}
 8008354:	2001      	movs	r0, #1
 8008356:	e7fc      	b.n	8008352 <FATFS_LinkDriverEx+0x36>
 8008358:	240bc0ac 	.word	0x240bc0ac

0800835c <FATFS_LinkDriver>:
 800835c:	2200      	movs	r2, #0
 800835e:	f7ff bfdd 	b.w	800831c <FATFS_LinkDriverEx>
	...

08008364 <sniprintf>:
 8008364:	b40c      	push	{r2, r3}
 8008366:	b530      	push	{r4, r5, lr}
 8008368:	4b17      	ldr	r3, [pc, #92]	@ (80083c8 <sniprintf+0x64>)
 800836a:	1e0c      	subs	r4, r1, #0
 800836c:	681d      	ldr	r5, [r3, #0]
 800836e:	b09d      	sub	sp, #116	@ 0x74
 8008370:	da08      	bge.n	8008384 <sniprintf+0x20>
 8008372:	238b      	movs	r3, #139	@ 0x8b
 8008374:	602b      	str	r3, [r5, #0]
 8008376:	f04f 30ff 	mov.w	r0, #4294967295
 800837a:	b01d      	add	sp, #116	@ 0x74
 800837c:	e8bd 4030 	ldmia.w	sp!, {r4, r5, lr}
 8008380:	b002      	add	sp, #8
 8008382:	4770      	bx	lr
 8008384:	f44f 7302 	mov.w	r3, #520	@ 0x208
 8008388:	f8ad 3014 	strh.w	r3, [sp, #20]
 800838c:	bf14      	ite	ne
 800838e:	f104 33ff 	addne.w	r3, r4, #4294967295
 8008392:	4623      	moveq	r3, r4
 8008394:	9304      	str	r3, [sp, #16]
 8008396:	9307      	str	r3, [sp, #28]
 8008398:	f64f 73ff 	movw	r3, #65535	@ 0xffff
 800839c:	9002      	str	r0, [sp, #8]
 800839e:	9006      	str	r0, [sp, #24]
 80083a0:	f8ad 3016 	strh.w	r3, [sp, #22]
 80083a4:	9a20      	ldr	r2, [sp, #128]	@ 0x80
 80083a6:	ab21      	add	r3, sp, #132	@ 0x84
 80083a8:	a902      	add	r1, sp, #8
 80083aa:	4628      	mov	r0, r5
 80083ac:	9301      	str	r3, [sp, #4]
 80083ae:	f000 f995 	bl	80086dc <_svfiprintf_r>
 80083b2:	1c43      	adds	r3, r0, #1
 80083b4:	bfbc      	itt	lt
 80083b6:	238b      	movlt	r3, #139	@ 0x8b
 80083b8:	602b      	strlt	r3, [r5, #0]
 80083ba:	2c00      	cmp	r4, #0
 80083bc:	d0dd      	beq.n	800837a <sniprintf+0x16>
 80083be:	9b02      	ldr	r3, [sp, #8]
 80083c0:	2200      	movs	r2, #0
 80083c2:	701a      	strb	r2, [r3, #0]
 80083c4:	e7d9      	b.n	800837a <sniprintf+0x16>
 80083c6:	bf00      	nop
 80083c8:	2400001c 	.word	0x2400001c

080083cc <memset>:
 80083cc:	4402      	add	r2, r0
 80083ce:	4603      	mov	r3, r0
 80083d0:	4293      	cmp	r3, r2
 80083d2:	d100      	bne.n	80083d6 <memset+0xa>
 80083d4:	4770      	bx	lr
 80083d6:	f803 1b01 	strb.w	r1, [r3], #1
 80083da:	e7f9      	b.n	80083d0 <memset+0x4>

080083dc <__errno>:
 80083dc:	4b01      	ldr	r3, [pc, #4]	@ (80083e4 <__errno+0x8>)
 80083de:	6818      	ldr	r0, [r3, #0]
 80083e0:	4770      	bx	lr
 80083e2:	bf00      	nop
 80083e4:	2400001c 	.word	0x2400001c

080083e8 <__libc_init_array>:
 80083e8:	b570      	push	{r4, r5, r6, lr}
 80083ea:	4d0d      	ldr	r5, [pc, #52]	@ (8008420 <__libc_init_array+0x38>)
 80083ec:	4c0d      	ldr	r4, [pc, #52]	@ (8008424 <__libc_init_array+0x3c>)
 80083ee:	1b64      	subs	r4, r4, r5
 80083f0:	10a4      	asrs	r4, r4, #2
 80083f2:	2600      	movs	r6, #0
 80083f4:	42a6      	cmp	r6, r4
 80083f6:	d109      	bne.n	800840c <__libc_init_array+0x24>
 80083f8:	4d0b      	ldr	r5, [pc, #44]	@ (8008428 <__libc_init_array+0x40>)
 80083fa:	4c0c      	ldr	r4, [pc, #48]	@ (800842c <__libc_init_array+0x44>)
 80083fc:	f000 fc66 	bl	8008ccc <_init>
 8008400:	1b64      	subs	r4, r4, r5
 8008402:	10a4      	asrs	r4, r4, #2
 8008404:	2600      	movs	r6, #0
 8008406:	42a6      	cmp	r6, r4
 8008408:	d105      	bne.n	8008416 <__libc_init_array+0x2e>
 800840a:	bd70      	pop	{r4, r5, r6, pc}
 800840c:	f855 3b04 	ldr.w	r3, [r5], #4
 8008410:	4798      	blx	r3
 8008412:	3601      	adds	r6, #1
 8008414:	e7ee      	b.n	80083f4 <__libc_init_array+0xc>
 8008416:	f855 3b04 	ldr.w	r3, [r5], #4
 800841a:	4798      	blx	r3
 800841c:	3601      	adds	r6, #1
 800841e:	e7f2      	b.n	8008406 <__libc_init_array+0x1e>
 8008420:	08009058 	.word	0x08009058
 8008424:	08009058 	.word	0x08009058
 8008428:	08009058 	.word	0x08009058
 800842c:	0800905c 	.word	0x0800905c

08008430 <__retarget_lock_acquire_recursive>:
 8008430:	4770      	bx	lr

08008432 <__retarget_lock_release_recursive>:
 8008432:	4770      	bx	lr

08008434 <_free_r>:
 8008434:	b538      	push	{r3, r4, r5, lr}
 8008436:	4605      	mov	r5, r0
 8008438:	2900      	cmp	r1, #0
 800843a:	d041      	beq.n	80084c0 <_free_r+0x8c>
 800843c:	f851 3c04 	ldr.w	r3, [r1, #-4]
 8008440:	1f0c      	subs	r4, r1, #4
 8008442:	2b00      	cmp	r3, #0
 8008444:	bfb8      	it	lt
 8008446:	18e4      	addlt	r4, r4, r3
 8008448:	f000 f8e0 	bl	800860c <__malloc_lock>
 800844c:	4a1d      	ldr	r2, [pc, #116]	@ (80084c4 <_free_r+0x90>)
 800844e:	6813      	ldr	r3, [r2, #0]
 8008450:	b933      	cbnz	r3, 8008460 <_free_r+0x2c>
 8008452:	6063      	str	r3, [r4, #4]
 8008454:	6014      	str	r4, [r2, #0]
 8008456:	4628      	mov	r0, r5
 8008458:	e8bd 4038 	ldmia.w	sp!, {r3, r4, r5, lr}
 800845c:	f000 b8dc 	b.w	8008618 <__malloc_unlock>
 8008460:	42a3      	cmp	r3, r4
 8008462:	d908      	bls.n	8008476 <_free_r+0x42>
 8008464:	6820      	ldr	r0, [r4, #0]
 8008466:	1821      	adds	r1, r4, r0
 8008468:	428b      	cmp	r3, r1
 800846a:	bf01      	itttt	eq
 800846c:	6819      	ldreq	r1, [r3, #0]
 800846e:	685b      	ldreq	r3, [r3, #4]
 8008470:	1809      	addeq	r1, r1, r0
 8008472:	6021      	streq	r1, [r4, #0]
 8008474:	e7ed      	b.n	8008452 <_free_r+0x1e>
 8008476:	461a      	mov	r2, r3
 8008478:	685b      	ldr	r3, [r3, #4]
 800847a:	b10b      	cbz	r3, 8008480 <_free_r+0x4c>
 800847c:	42a3      	cmp	r3, r4
 800847e:	d9fa      	bls.n	8008476 <_free_r+0x42>
 8008480:	6811      	ldr	r1, [r2, #0]
 8008482:	1850      	adds	r0, r2, r1
 8008484:	42a0      	cmp	r0, r4
 8008486:	d10b      	bne.n	80084a0 <_free_r+0x6c>
 8008488:	6820      	ldr	r0, [r4, #0]
 800848a:	4401      	add	r1, r0
 800848c:	1850      	adds	r0, r2, r1
 800848e:	4283      	cmp	r3, r0
 8008490:	6011      	str	r1, [r2, #0]
 8008492:	d1e0      	bne.n	8008456 <_free_r+0x22>
 8008494:	6818      	ldr	r0, [r3, #0]
 8008496:	685b      	ldr	r3, [r3, #4]
 8008498:	6053      	str	r3, [r2, #4]
 800849a:	4408      	add	r0, r1
 800849c:	6010      	str	r0, [r2, #0]
 800849e:	e7da      	b.n	8008456 <_free_r+0x22>
 80084a0:	d902      	bls.n	80084a8 <_free_r+0x74>
 80084a2:	230c      	movs	r3, #12
 80084a4:	602b      	str	r3, [r5, #0]
 80084a6:	e7d6      	b.n	8008456 <_free_r+0x22>
 80084a8:	6820      	ldr	r0, [r4, #0]
 80084aa:	1821      	adds	r1, r4, r0
 80084ac:	428b      	cmp	r3, r1
 80084ae:	bf04      	itt	eq
 80084b0:	6819      	ldreq	r1, [r3, #0]
 80084b2:	685b      	ldreq	r3, [r3, #4]
 80084b4:	6063      	str	r3, [r4, #4]
 80084b6:	bf04      	itt	eq
 80084b8:	1809      	addeq	r1, r1, r0
 80084ba:	6021      	streq	r1, [r4, #0]
 80084bc:	6054      	str	r4, [r2, #4]
 80084be:	e7ca      	b.n	8008456 <_free_r+0x22>
 80084c0:	bd38      	pop	{r3, r4, r5, pc}
 80084c2:	bf00      	nop
 80084c4:	240bc1fc 	.word	0x240bc1fc

080084c8 <sbrk_aligned>:
 80084c8:	b570      	push	{r4, r5, r6, lr}
 80084ca:	4e0f      	ldr	r6, [pc, #60]	@ (8008508 <sbrk_aligned+0x40>)
 80084cc:	460c      	mov	r4, r1
 80084ce:	6831      	ldr	r1, [r6, #0]
 80084d0:	4605      	mov	r5, r0
 80084d2:	b911      	cbnz	r1, 80084da <sbrk_aligned+0x12>
 80084d4:	f000 fba6 	bl	8008c24 <_sbrk_r>
 80084d8:	6030      	str	r0, [r6, #0]
 80084da:	4621      	mov	r1, r4
 80084dc:	4628      	mov	r0, r5
 80084de:	f000 fba1 	bl	8008c24 <_sbrk_r>
 80084e2:	1c43      	adds	r3, r0, #1
 80084e4:	d103      	bne.n	80084ee <sbrk_aligned+0x26>
 80084e6:	f04f 34ff 	mov.w	r4, #4294967295
 80084ea:	4620      	mov	r0, r4
 80084ec:	bd70      	pop	{r4, r5, r6, pc}
 80084ee:	1cc4      	adds	r4, r0, #3
 80084f0:	f024 0403 	bic.w	r4, r4, #3
 80084f4:	42a0      	cmp	r0, r4
 80084f6:	d0f8      	beq.n	80084ea <sbrk_aligned+0x22>
 80084f8:	1a21      	subs	r1, r4, r0
 80084fa:	4628      	mov	r0, r5
 80084fc:	f000 fb92 	bl	8008c24 <_sbrk_r>
 8008500:	3001      	adds	r0, #1
 8008502:	d1f2      	bne.n	80084ea <sbrk_aligned+0x22>
 8008504:	e7ef      	b.n	80084e6 <sbrk_aligned+0x1e>
 8008506:	bf00      	nop
 8008508:	240bc1f8 	.word	0x240bc1f8

0800850c <_malloc_r>:
 800850c:	e92d 43f8 	stmdb	sp!, {r3, r4, r5, r6, r7, r8, r9, lr}
 8008510:	1ccd      	adds	r5, r1, #3
 8008512:	f025 0503 	bic.w	r5, r5, #3
 8008516:	3508      	adds	r5, #8
 8008518:	2d0c      	cmp	r5, #12
 800851a:	bf38      	it	cc
 800851c:	250c      	movcc	r5, #12
 800851e:	2d00      	cmp	r5, #0
 8008520:	4606      	mov	r6, r0
 8008522:	db01      	blt.n	8008528 <_malloc_r+0x1c>
 8008524:	42a9      	cmp	r1, r5
 8008526:	d904      	bls.n	8008532 <_malloc_r+0x26>
 8008528:	230c      	movs	r3, #12
 800852a:	6033      	str	r3, [r6, #0]
 800852c:	2000      	movs	r0, #0
 800852e:	e8bd 83f8 	ldmia.w	sp!, {r3, r4, r5, r6, r7, r8, r9, pc}
 8008532:	f8df 80d4 	ldr.w	r8, [pc, #212]	@ 8008608 <_malloc_r+0xfc>
 8008536:	f000 f869 	bl	800860c <__malloc_lock>
 800853a:	f8d8 3000 	ldr.w	r3, [r8]
 800853e:	461c      	mov	r4, r3
 8008540:	bb44      	cbnz	r4, 8008594 <_malloc_r+0x88>
 8008542:	4629      	mov	r1, r5
 8008544:	4630      	mov	r0, r6
 8008546:	f7ff ffbf 	bl	80084c8 <sbrk_aligned>
 800854a:	1c43      	adds	r3, r0, #1
 800854c:	4604      	mov	r4, r0
 800854e:	d158      	bne.n	8008602 <_malloc_r+0xf6>
 8008550:	f8d8 4000 	ldr.w	r4, [r8]
 8008554:	4627      	mov	r7, r4
 8008556:	2f00      	cmp	r7, #0
 8008558:	d143      	bne.n	80085e2 <_malloc_r+0xd6>
 800855a:	2c00      	cmp	r4, #0
 800855c:	d04b      	beq.n	80085f6 <_malloc_r+0xea>
 800855e:	6823      	ldr	r3, [r4, #0]
 8008560:	4639      	mov	r1, r7
 8008562:	4630      	mov	r0, r6
 8008564:	eb04 0903 	add.w	r9, r4, r3
 8008568:	f000 fb5c 	bl	8008c24 <_sbrk_r>
 800856c:	4581      	cmp	r9, r0
 800856e:	d142      	bne.n	80085f6 <_malloc_r+0xea>
 8008570:	6821      	ldr	r1, [r4, #0]
 8008572:	1a6d      	subs	r5, r5, r1
 8008574:	4629      	mov	r1, r5
 8008576:	4630      	mov	r0, r6
 8008578:	f7ff ffa6 	bl	80084c8 <sbrk_aligned>
 800857c:	3001      	adds	r0, #1
 800857e:	d03a      	beq.n	80085f6 <_malloc_r+0xea>
 8008580:	6823      	ldr	r3, [r4, #0]
 8008582:	442b      	add	r3, r5
 8008584:	6023      	str	r3, [r4, #0]
 8008586:	f8d8 3000 	ldr.w	r3, [r8]
 800858a:	685a      	ldr	r2, [r3, #4]
 800858c:	bb62      	cbnz	r2, 80085e8 <_malloc_r+0xdc>
 800858e:	f8c8 7000 	str.w	r7, [r8]
 8008592:	e00f      	b.n	80085b4 <_malloc_r+0xa8>
 8008594:	6822      	ldr	r2, [r4, #0]
 8008596:	1b52      	subs	r2, r2, r5
 8008598:	d420      	bmi.n	80085dc <_malloc_r+0xd0>
 800859a:	2a0b      	cmp	r2, #11
 800859c:	d917      	bls.n	80085ce <_malloc_r+0xc2>
 800859e:	1961      	adds	r1, r4, r5
 80085a0:	42a3      	cmp	r3, r4
 80085a2:	6025      	str	r5, [r4, #0]
 80085a4:	bf18      	it	ne
 80085a6:	6059      	strne	r1, [r3, #4]
 80085a8:	6863      	ldr	r3, [r4, #4]
 80085aa:	bf08      	it	eq
 80085ac:	f8c8 1000 	streq.w	r1, [r8]
 80085b0:	5162      	str	r2, [r4, r5]
 80085b2:	604b      	str	r3, [r1, #4]
 80085b4:	4630      	mov	r0, r6
 80085b6:	f000 f82f 	bl	8008618 <__malloc_unlock>
 80085ba:	f104 000b 	add.w	r0, r4, #11
 80085be:	1d23      	adds	r3, r4, #4
 80085c0:	f020 0007 	bic.w	r0, r0, #7
 80085c4:	1ac2      	subs	r2, r0, r3
 80085c6:	bf1c      	itt	ne
 80085c8:	1a1b      	subne	r3, r3, r0
 80085ca:	50a3      	strne	r3, [r4, r2]
 80085cc:	e7af      	b.n	800852e <_malloc_r+0x22>
 80085ce:	6862      	ldr	r2, [r4, #4]
 80085d0:	42a3      	cmp	r3, r4
 80085d2:	bf0c      	ite	eq
 80085d4:	f8c8 2000 	streq.w	r2, [r8]
 80085d8:	605a      	strne	r2, [r3, #4]
 80085da:	e7eb      	b.n	80085b4 <_malloc_r+0xa8>
 80085dc:	4623      	mov	r3, r4
 80085de:	6864      	ldr	r4, [r4, #4]
 80085e0:	e7ae      	b.n	8008540 <_malloc_r+0x34>
 80085e2:	463c      	mov	r4, r7
 80085e4:	687f      	ldr	r7, [r7, #4]
 80085e6:	e7b6      	b.n	8008556 <_malloc_r+0x4a>
 80085e8:	461a      	mov	r2, r3
 80085ea:	685b      	ldr	r3, [r3, #4]
 80085ec:	42a3      	cmp	r3, r4
 80085ee:	d1fb      	bne.n	80085e8 <_malloc_r+0xdc>
 80085f0:	2300      	movs	r3, #0
 80085f2:	6053      	str	r3, [r2, #4]
 80085f4:	e7de      	b.n	80085b4 <_malloc_r+0xa8>
 80085f6:	230c      	movs	r3, #12
 80085f8:	6033      	str	r3, [r6, #0]
 80085fa:	4630      	mov	r0, r6
 80085fc:	f000 f80c 	bl	8008618 <__malloc_unlock>
 8008600:	e794      	b.n	800852c <_malloc_r+0x20>
 8008602:	6005      	str	r5, [r0, #0]
 8008604:	e7d6      	b.n	80085b4 <_malloc_r+0xa8>
 8008606:	bf00      	nop
 8008608:	240bc1fc 	.word	0x240bc1fc

0800860c <__malloc_lock>:
 800860c:	4801      	ldr	r0, [pc, #4]	@ (8008614 <__malloc_lock+0x8>)
 800860e:	f7ff bf0f 	b.w	8008430 <__retarget_lock_acquire_recursive>
 8008612:	bf00      	nop
 8008614:	240bc1f4 	.word	0x240bc1f4

08008618 <__malloc_unlock>:
 8008618:	4801      	ldr	r0, [pc, #4]	@ (8008620 <__malloc_unlock+0x8>)
 800861a:	f7ff bf0a 	b.w	8008432 <__retarget_lock_release_recursive>
 800861e:	bf00      	nop
 8008620:	240bc1f4 	.word	0x240bc1f4

08008624 <__ssputs_r>:
 8008624:	e92d 47f0 	stmdb	sp!, {r4, r5, r6, r7, r8, r9, sl, lr}
 8008628:	688e      	ldr	r6, [r1, #8]
 800862a:	461f      	mov	r7, r3
 800862c:	42be      	cmp	r6, r7
 800862e:	680b      	ldr	r3, [r1, #0]
 8008630:	4682      	mov	sl, r0
 8008632:	460c      	mov	r4, r1
 8008634:	4690      	mov	r8, r2
 8008636:	d82d      	bhi.n	8008694 <__ssputs_r+0x70>
 8008638:	f9b1 200c 	ldrsh.w	r2, [r1, #12]
 800863c:	f412 6f90 	tst.w	r2, #1152	@ 0x480
 8008640:	d026      	beq.n	8008690 <__ssputs_r+0x6c>
 8008642:	6965      	ldr	r5, [r4, #20]
 8008644:	6909      	ldr	r1, [r1, #16]
 8008646:	eb05 0545 	add.w	r5, r5, r5, lsl #1
 800864a:	eba3 0901 	sub.w	r9, r3, r1
 800864e:	eb05 75d5 	add.w	r5, r5, r5, lsr #31
 8008652:	1c7b      	adds	r3, r7, #1
 8008654:	444b      	add	r3, r9
 8008656:	106d      	asrs	r5, r5, #1
 8008658:	429d      	cmp	r5, r3
 800865a:	bf38      	it	cc
 800865c:	461d      	movcc	r5, r3
 800865e:	0553      	lsls	r3, r2, #21
 8008660:	d527      	bpl.n	80086b2 <__ssputs_r+0x8e>
 8008662:	4629      	mov	r1, r5
 8008664:	f7ff ff52 	bl	800850c <_malloc_r>
 8008668:	4606      	mov	r6, r0
 800866a:	b360      	cbz	r0, 80086c6 <__ssputs_r+0xa2>
 800866c:	6921      	ldr	r1, [r4, #16]
 800866e:	464a      	mov	r2, r9
 8008670:	f000 fae8 	bl	8008c44 <memcpy>
 8008674:	89a3      	ldrh	r3, [r4, #12]
 8008676:	f423 6390 	bic.w	r3, r3, #1152	@ 0x480
 800867a:	f043 0380 	orr.w	r3, r3, #128	@ 0x80
 800867e:	81a3      	strh	r3, [r4, #12]
 8008680:	6126      	str	r6, [r4, #16]
 8008682:	6165      	str	r5, [r4, #20]
 8008684:	444e      	add	r6, r9
 8008686:	eba5 0509 	sub.w	r5, r5, r9
 800868a:	6026      	str	r6, [r4, #0]
 800868c:	60a5      	str	r5, [r4, #8]
 800868e:	463e      	mov	r6, r7
 8008690:	42be      	cmp	r6, r7
 8008692:	d900      	bls.n	8008696 <__ssputs_r+0x72>
 8008694:	463e      	mov	r6, r7
 8008696:	6820      	ldr	r0, [r4, #0]
 8008698:	4632      	mov	r2, r6
 800869a:	4641      	mov	r1, r8
 800869c:	f000 faa8 	bl	8008bf0 <memmove>
 80086a0:	68a3      	ldr	r3, [r4, #8]
 80086a2:	1b9b      	subs	r3, r3, r6
 80086a4:	60a3      	str	r3, [r4, #8]
 80086a6:	6823      	ldr	r3, [r4, #0]
 80086a8:	4433      	add	r3, r6
 80086aa:	6023      	str	r3, [r4, #0]
 80086ac:	2000      	movs	r0, #0
 80086ae:	e8bd 87f0 	ldmia.w	sp!, {r4, r5, r6, r7, r8, r9, sl, pc}
 80086b2:	462a      	mov	r2, r5
 80086b4:	f000 fad4 	bl	8008c60 <_realloc_r>
 80086b8:	4606      	mov	r6, r0
 80086ba:	2800      	cmp	r0, #0
 80086bc:	d1e0      	bne.n	8008680 <__ssputs_r+0x5c>
 80086be:	6921      	ldr	r1, [r4, #16]
 80086c0:	4650      	mov	r0, sl
 80086c2:	f7ff feb7 	bl	8008434 <_free_r>
 80086c6:	230c      	movs	r3, #12
 80086c8:	f8ca 3000 	str.w	r3, [sl]
 80086cc:	89a3      	ldrh	r3, [r4, #12]
 80086ce:	f043 0340 	orr.w	r3, r3, #64	@ 0x40
 80086d2:	81a3      	strh	r3, [r4, #12]
 80086d4:	f04f 30ff 	mov.w	r0, #4294967295
 80086d8:	e7e9      	b.n	80086ae <__ssputs_r+0x8a>
	...

080086dc <_svfiprintf_r>:
 80086dc:	e92d 4ff0 	stmdb	sp!, {r4, r5, r6, r7, r8, r9, sl, fp, lr}
 80086e0:	4698      	mov	r8, r3
 80086e2:	898b      	ldrh	r3, [r1, #12]
 80086e4:	061b      	lsls	r3, r3, #24
 80086e6:	b09d      	sub	sp, #116	@ 0x74
 80086e8:	4607      	mov	r7, r0
 80086ea:	460d      	mov	r5, r1
 80086ec:	4614      	mov	r4, r2
 80086ee:	d510      	bpl.n	8008712 <_svfiprintf_r+0x36>
 80086f0:	690b      	ldr	r3, [r1, #16]
 80086f2:	b973      	cbnz	r3, 8008712 <_svfiprintf_r+0x36>
 80086f4:	2140      	movs	r1, #64	@ 0x40
 80086f6:	f7ff ff09 	bl	800850c <_malloc_r>
 80086fa:	6028      	str	r0, [r5, #0]
 80086fc:	6128      	str	r0, [r5, #16]
 80086fe:	b930      	cbnz	r0, 800870e <_svfiprintf_r+0x32>
 8008700:	230c      	movs	r3, #12
 8008702:	603b      	str	r3, [r7, #0]
 8008704:	f04f 30ff 	mov.w	r0, #4294967295
 8008708:	b01d      	add	sp, #116	@ 0x74
 800870a:	e8bd 8ff0 	ldmia.w	sp!, {r4, r5, r6, r7, r8, r9, sl, fp, pc}
 800870e:	2340      	movs	r3, #64	@ 0x40
 8008710:	616b      	str	r3, [r5, #20]
 8008712:	2300      	movs	r3, #0
 8008714:	9309      	str	r3, [sp, #36]	@ 0x24
 8008716:	2320      	movs	r3, #32
 8008718:	f88d 3029 	strb.w	r3, [sp, #41]	@ 0x29
 800871c:	f8cd 800c 	str.w	r8, [sp, #12]
 8008720:	2330      	movs	r3, #48	@ 0x30
 8008722:	f8df 819c 	ldr.w	r8, [pc, #412]	@ 80088c0 <_svfiprintf_r+0x1e4>
 8008726:	f88d 302a 	strb.w	r3, [sp, #42]	@ 0x2a
 800872a:	f04f 0901 	mov.w	r9, #1
 800872e:	4623      	mov	r3, r4
 8008730:	469a      	mov	sl, r3
 8008732:	f813 2b01 	ldrb.w	r2, [r3], #1
 8008736:	b10a      	cbz	r2, 800873c <_svfiprintf_r+0x60>
 8008738:	2a25      	cmp	r2, #37	@ 0x25
 800873a:	d1f9      	bne.n	8008730 <_svfiprintf_r+0x54>
 800873c:	ebba 0b04 	subs.w	fp, sl, r4
 8008740:	d00b      	beq.n	800875a <_svfiprintf_r+0x7e>
 8008742:	465b      	mov	r3, fp
 8008744:	4622      	mov	r2, r4
 8008746:	4629      	mov	r1, r5
 8008748:	4638      	mov	r0, r7
 800874a:	f7ff ff6b 	bl	8008624 <__ssputs_r>
 800874e:	3001      	adds	r0, #1
 8008750:	f000 80a7 	beq.w	80088a2 <_svfiprintf_r+0x1c6>
 8008754:	9a09      	ldr	r2, [sp, #36]	@ 0x24
 8008756:	445a      	add	r2, fp
 8008758:	9209      	str	r2, [sp, #36]	@ 0x24
 800875a:	f89a 3000 	ldrb.w	r3, [sl]
 800875e:	2b00      	cmp	r3, #0
 8008760:	f000 809f 	beq.w	80088a2 <_svfiprintf_r+0x1c6>
 8008764:	2300      	movs	r3, #0
 8008766:	f04f 32ff 	mov.w	r2, #4294967295
 800876a:	e9cd 2305 	strd	r2, r3, [sp, #20]
 800876e:	f10a 0a01 	add.w	sl, sl, #1
 8008772:	9304      	str	r3, [sp, #16]
 8008774:	9307      	str	r3, [sp, #28]
 8008776:	f88d 3053 	strb.w	r3, [sp, #83]	@ 0x53
 800877a:	931a      	str	r3, [sp, #104]	@ 0x68
 800877c:	4654      	mov	r4, sl
 800877e:	2205      	movs	r2, #5
 8008780:	f814 1b01 	ldrb.w	r1, [r4], #1
 8008784:	484e      	ldr	r0, [pc, #312]	@ (80088c0 <_svfiprintf_r+0x1e4>)
 8008786:	f7f7 fdb3 	bl	80002f0 <memchr>
 800878a:	9a04      	ldr	r2, [sp, #16]
 800878c:	b9d8      	cbnz	r0, 80087c6 <_svfiprintf_r+0xea>
 800878e:	06d0      	lsls	r0, r2, #27
 8008790:	bf44      	itt	mi
 8008792:	2320      	movmi	r3, #32
 8008794:	f88d 3053 	strbmi.w	r3, [sp, #83]	@ 0x53
 8008798:	0711      	lsls	r1, r2, #28
 800879a:	bf44      	itt	mi
 800879c:	232b      	movmi	r3, #43	@ 0x2b
 800879e:	f88d 3053 	strbmi.w	r3, [sp, #83]	@ 0x53
 80087a2:	f89a 3000 	ldrb.w	r3, [sl]
 80087a6:	2b2a      	cmp	r3, #42	@ 0x2a
 80087a8:	d015      	beq.n	80087d6 <_svfiprintf_r+0xfa>
 80087aa:	9a07      	ldr	r2, [sp, #28]
 80087ac:	4654      	mov	r4, sl
 80087ae:	2000      	movs	r0, #0
 80087b0:	f04f 0c0a 	mov.w	ip, #10
 80087b4:	4621      	mov	r1, r4
 80087b6:	f811 3b01 	ldrb.w	r3, [r1], #1
 80087ba:	3b30      	subs	r3, #48	@ 0x30
 80087bc:	2b09      	cmp	r3, #9
 80087be:	d94b      	bls.n	8008858 <_svfiprintf_r+0x17c>
 80087c0:	b1b0      	cbz	r0, 80087f0 <_svfiprintf_r+0x114>
 80087c2:	9207      	str	r2, [sp, #28]
 80087c4:	e014      	b.n	80087f0 <_svfiprintf_r+0x114>
 80087c6:	eba0 0308 	sub.w	r3, r0, r8
 80087ca:	fa09 f303 	lsl.w	r3, r9, r3
 80087ce:	4313      	orrs	r3, r2
 80087d0:	9304      	str	r3, [sp, #16]
 80087d2:	46a2      	mov	sl, r4
 80087d4:	e7d2      	b.n	800877c <_svfiprintf_r+0xa0>
 80087d6:	9b03      	ldr	r3, [sp, #12]
 80087d8:	1d19      	adds	r1, r3, #4
 80087da:	681b      	ldr	r3, [r3, #0]
 80087dc:	9103      	str	r1, [sp, #12]
 80087de:	2b00      	cmp	r3, #0
 80087e0:	bfbb      	ittet	lt
 80087e2:	425b      	neglt	r3, r3
 80087e4:	f042 0202 	orrlt.w	r2, r2, #2
 80087e8:	9307      	strge	r3, [sp, #28]
 80087ea:	9307      	strlt	r3, [sp, #28]
 80087ec:	bfb8      	it	lt
 80087ee:	9204      	strlt	r2, [sp, #16]
 80087f0:	7823      	ldrb	r3, [r4, #0]
 80087f2:	2b2e      	cmp	r3, #46	@ 0x2e
 80087f4:	d10a      	bne.n	800880c <_svfiprintf_r+0x130>
 80087f6:	7863      	ldrb	r3, [r4, #1]
 80087f8:	2b2a      	cmp	r3, #42	@ 0x2a
 80087fa:	d132      	bne.n	8008862 <_svfiprintf_r+0x186>
 80087fc:	9b03      	ldr	r3, [sp, #12]
 80087fe:	1d1a      	adds	r2, r3, #4
 8008800:	681b      	ldr	r3, [r3, #0]
 8008802:	9203      	str	r2, [sp, #12]
 8008804:	ea43 73e3 	orr.w	r3, r3, r3, asr #31
 8008808:	3402      	adds	r4, #2
 800880a:	9305      	str	r3, [sp, #20]
 800880c:	f8df a0c0 	ldr.w	sl, [pc, #192]	@ 80088d0 <_svfiprintf_r+0x1f4>
 8008810:	7821      	ldrb	r1, [r4, #0]
 8008812:	2203      	movs	r2, #3
 8008814:	4650      	mov	r0, sl
 8008816:	f7f7 fd6b 	bl	80002f0 <memchr>
 800881a:	b138      	cbz	r0, 800882c <_svfiprintf_r+0x150>
 800881c:	9b04      	ldr	r3, [sp, #16]
 800881e:	eba0 000a 	sub.w	r0, r0, sl
 8008822:	2240      	movs	r2, #64	@ 0x40
 8008824:	4082      	lsls	r2, r0
 8008826:	4313      	orrs	r3, r2
 8008828:	3401      	adds	r4, #1
 800882a:	9304      	str	r3, [sp, #16]
 800882c:	f814 1b01 	ldrb.w	r1, [r4], #1
 8008830:	4824      	ldr	r0, [pc, #144]	@ (80088c4 <_svfiprintf_r+0x1e8>)
 8008832:	f88d 1028 	strb.w	r1, [sp, #40]	@ 0x28
 8008836:	2206      	movs	r2, #6
 8008838:	f7f7 fd5a 	bl	80002f0 <memchr>
 800883c:	2800      	cmp	r0, #0
 800883e:	d036      	beq.n	80088ae <_svfiprintf_r+0x1d2>
 8008840:	4b21      	ldr	r3, [pc, #132]	@ (80088c8 <_svfiprintf_r+0x1ec>)
 8008842:	bb1b      	cbnz	r3, 800888c <_svfiprintf_r+0x1b0>
 8008844:	9b03      	ldr	r3, [sp, #12]
 8008846:	3307      	adds	r3, #7
 8008848:	f023 0307 	bic.w	r3, r3, #7
 800884c:	3308      	adds	r3, #8
 800884e:	9303      	str	r3, [sp, #12]
 8008850:	9b09      	ldr	r3, [sp, #36]	@ 0x24
 8008852:	4433      	add	r3, r6
 8008854:	9309      	str	r3, [sp, #36]	@ 0x24
 8008856:	e76a      	b.n	800872e <_svfiprintf_r+0x52>
 8008858:	fb0c 3202 	mla	r2, ip, r2, r3
 800885c:	460c      	mov	r4, r1
 800885e:	2001      	movs	r0, #1
 8008860:	e7a8      	b.n	80087b4 <_svfiprintf_r+0xd8>
 8008862:	2300      	movs	r3, #0
 8008864:	3401      	adds	r4, #1
 8008866:	9305      	str	r3, [sp, #20]
 8008868:	4619      	mov	r1, r3
 800886a:	f04f 0c0a 	mov.w	ip, #10
 800886e:	4620      	mov	r0, r4
 8008870:	f810 2b01 	ldrb.w	r2, [r0], #1
 8008874:	3a30      	subs	r2, #48	@ 0x30
 8008876:	2a09      	cmp	r2, #9
 8008878:	d903      	bls.n	8008882 <_svfiprintf_r+0x1a6>
 800887a:	2b00      	cmp	r3, #0
 800887c:	d0c6      	beq.n	800880c <_svfiprintf_r+0x130>
 800887e:	9105      	str	r1, [sp, #20]
 8008880:	e7c4      	b.n	800880c <_svfiprintf_r+0x130>
 8008882:	fb0c 2101 	mla	r1, ip, r1, r2
 8008886:	4604      	mov	r4, r0
 8008888:	2301      	movs	r3, #1
 800888a:	e7f0      	b.n	800886e <_svfiprintf_r+0x192>
 800888c:	ab03      	add	r3, sp, #12
 800888e:	9300      	str	r3, [sp, #0]
 8008890:	462a      	mov	r2, r5
 8008892:	4b0e      	ldr	r3, [pc, #56]	@ (80088cc <_svfiprintf_r+0x1f0>)
 8008894:	a904      	add	r1, sp, #16
 8008896:	4638      	mov	r0, r7
 8008898:	f3af 8000 	nop.w
 800889c:	1c42      	adds	r2, r0, #1
 800889e:	4606      	mov	r6, r0
 80088a0:	d1d6      	bne.n	8008850 <_svfiprintf_r+0x174>
 80088a2:	89ab      	ldrh	r3, [r5, #12]
 80088a4:	065b      	lsls	r3, r3, #25
 80088a6:	f53f af2d 	bmi.w	8008704 <_svfiprintf_r+0x28>
 80088aa:	9809      	ldr	r0, [sp, #36]	@ 0x24
 80088ac:	e72c      	b.n	8008708 <_svfiprintf_r+0x2c>
 80088ae:	ab03      	add	r3, sp, #12
 80088b0:	9300      	str	r3, [sp, #0]
 80088b2:	462a      	mov	r2, r5
 80088b4:	4b05      	ldr	r3, [pc, #20]	@ (80088cc <_svfiprintf_r+0x1f0>)
 80088b6:	a904      	add	r1, sp, #16
 80088b8:	4638      	mov	r0, r7
 80088ba:	f000 f879 	bl	80089b0 <_printf_i>
 80088be:	e7ed      	b.n	800889c <_svfiprintf_r+0x1c0>
 80088c0:	0800901b 	.word	0x0800901b
 80088c4:	08009025 	.word	0x08009025
 80088c8:	00000000 	.word	0x00000000
 80088cc:	08008625 	.word	0x08008625
 80088d0:	08009021 	.word	0x08009021

080088d4 <_printf_common>:
 80088d4:	e92d 47f0 	stmdb	sp!, {r4, r5, r6, r7, r8, r9, sl, lr}
 80088d8:	4616      	mov	r6, r2
 80088da:	4698      	mov	r8, r3
 80088dc:	688a      	ldr	r2, [r1, #8]
 80088de:	690b      	ldr	r3, [r1, #16]
 80088e0:	f8dd 9020 	ldr.w	r9, [sp, #32]
 80088e4:	4293      	cmp	r3, r2
 80088e6:	bfb8      	it	lt
 80088e8:	4613      	movlt	r3, r2
 80088ea:	6033      	str	r3, [r6, #0]
 80088ec:	f891 2043 	ldrb.w	r2, [r1, #67]	@ 0x43
 80088f0:	4607      	mov	r7, r0
 80088f2:	460c      	mov	r4, r1
 80088f4:	b10a      	cbz	r2, 80088fa <_printf_common+0x26>
 80088f6:	3301      	adds	r3, #1
 80088f8:	6033      	str	r3, [r6, #0]
 80088fa:	6823      	ldr	r3, [r4, #0]
 80088fc:	0699      	lsls	r1, r3, #26
 80088fe:	bf42      	ittt	mi
 8008900:	6833      	ldrmi	r3, [r6, #0]
 8008902:	3302      	addmi	r3, #2
 8008904:	6033      	strmi	r3, [r6, #0]
 8008906:	6825      	ldr	r5, [r4, #0]
 8008908:	f015 0506 	ands.w	r5, r5, #6
 800890c:	d106      	bne.n	800891c <_printf_common+0x48>
 800890e:	f104 0a19 	add.w	sl, r4, #25
 8008912:	68e3      	ldr	r3, [r4, #12]
 8008914:	6832      	ldr	r2, [r6, #0]
 8008916:	1a9b      	subs	r3, r3, r2
 8008918:	42ab      	cmp	r3, r5
 800891a:	dc26      	bgt.n	800896a <_printf_common+0x96>
 800891c:	f894 3043 	ldrb.w	r3, [r4, #67]	@ 0x43
 8008920:	6822      	ldr	r2, [r4, #0]
 8008922:	3b00      	subs	r3, #0
 8008924:	bf18      	it	ne
 8008926:	2301      	movne	r3, #1
 8008928:	0692      	lsls	r2, r2, #26
 800892a:	d42b      	bmi.n	8008984 <_printf_common+0xb0>
 800892c:	f104 0243 	add.w	r2, r4, #67	@ 0x43
 8008930:	4641      	mov	r1, r8
 8008932:	4638      	mov	r0, r7
 8008934:	47c8      	blx	r9
 8008936:	3001      	adds	r0, #1
 8008938:	d01e      	beq.n	8008978 <_printf_common+0xa4>
 800893a:	6823      	ldr	r3, [r4, #0]
 800893c:	6922      	ldr	r2, [r4, #16]
 800893e:	f003 0306 	and.w	r3, r3, #6
 8008942:	2b04      	cmp	r3, #4
 8008944:	bf02      	ittt	eq
 8008946:	68e5      	ldreq	r5, [r4, #12]
 8008948:	6833      	ldreq	r3, [r6, #0]
 800894a:	1aed      	subeq	r5, r5, r3
 800894c:	68a3      	ldr	r3, [r4, #8]
 800894e:	bf0c      	ite	eq
 8008950:	ea25 75e5 	biceq.w	r5, r5, r5, asr #31
 8008954:	2500      	movne	r5, #0
 8008956:	4293      	cmp	r3, r2
 8008958:	bfc4      	itt	gt
 800895a:	1a9b      	subgt	r3, r3, r2
 800895c:	18ed      	addgt	r5, r5, r3
 800895e:	2600      	movs	r6, #0
 8008960:	341a      	adds	r4, #26
 8008962:	42b5      	cmp	r5, r6
 8008964:	d11a      	bne.n	800899c <_printf_common+0xc8>
 8008966:	2000      	movs	r0, #0
 8008968:	e008      	b.n	800897c <_printf_common+0xa8>
 800896a:	2301      	movs	r3, #1
 800896c:	4652      	mov	r2, sl
 800896e:	4641      	mov	r1, r8
 8008970:	4638      	mov	r0, r7
 8008972:	47c8      	blx	r9
 8008974:	3001      	adds	r0, #1
 8008976:	d103      	bne.n	8008980 <_printf_common+0xac>
 8008978:	f04f 30ff 	mov.w	r0, #4294967295
 800897c:	e8bd 87f0 	ldmia.w	sp!, {r4, r5, r6, r7, r8, r9, sl, pc}
 8008980:	3501      	adds	r5, #1
 8008982:	e7c6      	b.n	8008912 <_printf_common+0x3e>
 8008984:	18e1      	adds	r1, r4, r3
 8008986:	1c5a      	adds	r2, r3, #1
 8008988:	2030      	movs	r0, #48	@ 0x30
 800898a:	f881 0043 	strb.w	r0, [r1, #67]	@ 0x43
 800898e:	4422      	add	r2, r4
 8008990:	f894 1045 	ldrb.w	r1, [r4, #69]	@ 0x45
 8008994:	f882 1043 	strb.w	r1, [r2, #67]	@ 0x43
 8008998:	3302      	adds	r3, #2
 800899a:	e7c7      	b.n	800892c <_printf_common+0x58>
 800899c:	2301      	movs	r3, #1
 800899e:	4622      	mov	r2, r4
 80089a0:	4641      	mov	r1, r8
 80089a2:	4638      	mov	r0, r7
 80089a4:	47c8      	blx	r9
 80089a6:	3001      	adds	r0, #1
 80089a8:	d0e6      	beq.n	8008978 <_printf_common+0xa4>
 80089aa:	3601      	adds	r6, #1
 80089ac:	e7d9      	b.n	8008962 <_printf_common+0x8e>
	...

080089b0 <_printf_i>:
 80089b0:	e92d 47ff 	stmdb	sp!, {r0, r1, r2, r3, r4, r5, r6, r7, r8, r9, sl, lr}
 80089b4:	7e0f      	ldrb	r7, [r1, #24]
 80089b6:	9e0c      	ldr	r6, [sp, #48]	@ 0x30
 80089b8:	2f78      	cmp	r7, #120	@ 0x78
 80089ba:	4691      	mov	r9, r2
 80089bc:	4680      	mov	r8, r0
 80089be:	460c      	mov	r4, r1
 80089c0:	469a      	mov	sl, r3
 80089c2:	f101 0243 	add.w	r2, r1, #67	@ 0x43
 80089c6:	d807      	bhi.n	80089d8 <_printf_i+0x28>
 80089c8:	2f62      	cmp	r7, #98	@ 0x62
 80089ca:	d80a      	bhi.n	80089e2 <_printf_i+0x32>
 80089cc:	2f00      	cmp	r7, #0
 80089ce:	f000 80d2 	beq.w	8008b76 <_printf_i+0x1c6>
 80089d2:	2f58      	cmp	r7, #88	@ 0x58
 80089d4:	f000 80b9 	beq.w	8008b4a <_printf_i+0x19a>
 80089d8:	f104 0642 	add.w	r6, r4, #66	@ 0x42
 80089dc:	f884 7042 	strb.w	r7, [r4, #66]	@ 0x42
 80089e0:	e03a      	b.n	8008a58 <_printf_i+0xa8>
 80089e2:	f1a7 0363 	sub.w	r3, r7, #99	@ 0x63
 80089e6:	2b15      	cmp	r3, #21
 80089e8:	d8f6      	bhi.n	80089d8 <_printf_i+0x28>
 80089ea:	a101      	add	r1, pc, #4	@ (adr r1, 80089f0 <_printf_i+0x40>)
 80089ec:	f851 f023 	ldr.w	pc, [r1, r3, lsl #2]
 80089f0:	08008a49 	.word	0x08008a49
 80089f4:	08008a5d 	.word	0x08008a5d
 80089f8:	080089d9 	.word	0x080089d9
 80089fc:	080089d9 	.word	0x080089d9
 8008a00:	080089d9 	.word	0x080089d9
 8008a04:	080089d9 	.word	0x080089d9
 8008a08:	08008a5d 	.word	0x08008a5d
 8008a0c:	080089d9 	.word	0x080089d9
 8008a10:	080089d9 	.word	0x080089d9
 8008a14:	080089d9 	.word	0x080089d9
 8008a18:	080089d9 	.word	0x080089d9
 8008a1c:	08008b5d 	.word	0x08008b5d
 8008a20:	08008a87 	.word	0x08008a87
 8008a24:	08008b17 	.word	0x08008b17
 8008a28:	080089d9 	.word	0x080089d9
 8008a2c:	080089d9 	.word	0x080089d9
 8008a30:	08008b7f 	.word	0x08008b7f
 8008a34:	080089d9 	.word	0x080089d9
 8008a38:	08008a87 	.word	0x08008a87
 8008a3c:	080089d9 	.word	0x080089d9
 8008a40:	080089d9 	.word	0x080089d9
 8008a44:	08008b1f 	.word	0x08008b1f
 8008a48:	6833      	ldr	r3, [r6, #0]
 8008a4a:	1d1a      	adds	r2, r3, #4
 8008a4c:	681b      	ldr	r3, [r3, #0]
 8008a4e:	6032      	str	r2, [r6, #0]
 8008a50:	f104 0642 	add.w	r6, r4, #66	@ 0x42
 8008a54:	f884 3042 	strb.w	r3, [r4, #66]	@ 0x42
 8008a58:	2301      	movs	r3, #1
 8008a5a:	e09d      	b.n	8008b98 <_printf_i+0x1e8>
 8008a5c:	6833      	ldr	r3, [r6, #0]
 8008a5e:	6820      	ldr	r0, [r4, #0]
 8008a60:	1d19      	adds	r1, r3, #4
 8008a62:	6031      	str	r1, [r6, #0]
 8008a64:	0606      	lsls	r6, r0, #24
 8008a66:	d501      	bpl.n	8008a6c <_printf_i+0xbc>
 8008a68:	681d      	ldr	r5, [r3, #0]
 8008a6a:	e003      	b.n	8008a74 <_printf_i+0xc4>
 8008a6c:	0645      	lsls	r5, r0, #25
 8008a6e:	d5fb      	bpl.n	8008a68 <_printf_i+0xb8>
 8008a70:	f9b3 5000 	ldrsh.w	r5, [r3]
 8008a74:	2d00      	cmp	r5, #0
 8008a76:	da03      	bge.n	8008a80 <_printf_i+0xd0>
 8008a78:	232d      	movs	r3, #45	@ 0x2d
 8008a7a:	426d      	negs	r5, r5
 8008a7c:	f884 3043 	strb.w	r3, [r4, #67]	@ 0x43
 8008a80:	4859      	ldr	r0, [pc, #356]	@ (8008be8 <_printf_i+0x238>)
 8008a82:	230a      	movs	r3, #10
 8008a84:	e011      	b.n	8008aaa <_printf_i+0xfa>
 8008a86:	6821      	ldr	r1, [r4, #0]
 8008a88:	6833      	ldr	r3, [r6, #0]
 8008a8a:	0608      	lsls	r0, r1, #24
 8008a8c:	f853 5b04 	ldr.w	r5, [r3], #4
 8008a90:	d402      	bmi.n	8008a98 <_printf_i+0xe8>
 8008a92:	0649      	lsls	r1, r1, #25
 8008a94:	bf48      	it	mi
 8008a96:	b2ad      	uxthmi	r5, r5
 8008a98:	2f6f      	cmp	r7, #111	@ 0x6f
 8008a9a:	4853      	ldr	r0, [pc, #332]	@ (8008be8 <_printf_i+0x238>)
 8008a9c:	6033      	str	r3, [r6, #0]
 8008a9e:	bf14      	ite	ne
 8008aa0:	230a      	movne	r3, #10
 8008aa2:	2308      	moveq	r3, #8
 8008aa4:	2100      	movs	r1, #0
 8008aa6:	f884 1043 	strb.w	r1, [r4, #67]	@ 0x43
 8008aaa:	6866      	ldr	r6, [r4, #4]
 8008aac:	60a6      	str	r6, [r4, #8]
 8008aae:	2e00      	cmp	r6, #0
 8008ab0:	bfa2      	ittt	ge
 8008ab2:	6821      	ldrge	r1, [r4, #0]
 8008ab4:	f021 0104 	bicge.w	r1, r1, #4
 8008ab8:	6021      	strge	r1, [r4, #0]
 8008aba:	b90d      	cbnz	r5, 8008ac0 <_printf_i+0x110>
 8008abc:	2e00      	cmp	r6, #0
 8008abe:	d04b      	beq.n	8008b58 <_printf_i+0x1a8>
 8008ac0:	4616      	mov	r6, r2
 8008ac2:	fbb5 f1f3 	udiv	r1, r5, r3
 8008ac6:	fb03 5711 	mls	r7, r3, r1, r5
 8008aca:	5dc7      	ldrb	r7, [r0, r7]
 8008acc:	f806 7d01 	strb.w	r7, [r6, #-1]!
 8008ad0:	462f      	mov	r7, r5
 8008ad2:	42bb      	cmp	r3, r7
 8008ad4:	460d      	mov	r5, r1
 8008ad6:	d9f4      	bls.n	8008ac2 <_printf_i+0x112>
 8008ad8:	2b08      	cmp	r3, #8
 8008ada:	d10b      	bne.n	8008af4 <_printf_i+0x144>
 8008adc:	6823      	ldr	r3, [r4, #0]
 8008ade:	07df      	lsls	r7, r3, #31
 8008ae0:	d508      	bpl.n	8008af4 <_printf_i+0x144>
 8008ae2:	6923      	ldr	r3, [r4, #16]
 8008ae4:	6861      	ldr	r1, [r4, #4]
 8008ae6:	4299      	cmp	r1, r3
 8008ae8:	bfde      	ittt	le
 8008aea:	2330      	movle	r3, #48	@ 0x30
 8008aec:	f806 3c01 	strble.w	r3, [r6, #-1]
 8008af0:	f106 36ff 	addle.w	r6, r6, #4294967295
 8008af4:	1b92      	subs	r2, r2, r6
 8008af6:	6122      	str	r2, [r4, #16]
 8008af8:	f8cd a000 	str.w	sl, [sp]
 8008afc:	464b      	mov	r3, r9
 8008afe:	aa03      	add	r2, sp, #12
 8008b00:	4621      	mov	r1, r4
 8008b02:	4640      	mov	r0, r8
 8008b04:	f7ff fee6 	bl	80088d4 <_printf_common>
 8008b08:	3001      	adds	r0, #1
 8008b0a:	d14a      	bne.n	8008ba2 <_printf_i+0x1f2>
 8008b0c:	f04f 30ff 	mov.w	r0, #4294967295
 8008b10:	b004      	add	sp, #16
 8008b12:	e8bd 87f0 	ldmia.w	sp!, {r4, r5, r6, r7, r8, r9, sl, pc}
 8008b16:	6823      	ldr	r3, [r4, #0]
 8008b18:	f043 0320 	orr.w	r3, r3, #32
 8008b1c:	6023      	str	r3, [r4, #0]
 8008b1e:	4833      	ldr	r0, [pc, #204]	@ (8008bec <_printf_i+0x23c>)
 8008b20:	2778      	movs	r7, #120	@ 0x78
 8008b22:	f884 7045 	strb.w	r7, [r4, #69]	@ 0x45
 8008b26:	6823      	ldr	r3, [r4, #0]
 8008b28:	6831      	ldr	r1, [r6, #0]
 8008b2a:	061f      	lsls	r7, r3, #24
 8008b2c:	f851 5b04 	ldr.w	r5, [r1], #4
 8008b30:	d402      	bmi.n	8008b38 <_printf_i+0x188>
 8008b32:	065f      	lsls	r7, r3, #25
 8008b34:	bf48      	it	mi
 8008b36:	b2ad      	uxthmi	r5, r5
 8008b38:	6031      	str	r1, [r6, #0]
 8008b3a:	07d9      	lsls	r1, r3, #31
 8008b3c:	bf44      	itt	mi
 8008b3e:	f043 0320 	orrmi.w	r3, r3, #32
 8008b42:	6023      	strmi	r3, [r4, #0]
 8008b44:	b11d      	cbz	r5, 8008b4e <_printf_i+0x19e>
 8008b46:	2310      	movs	r3, #16
 8008b48:	e7ac      	b.n	8008aa4 <_printf_i+0xf4>
 8008b4a:	4827      	ldr	r0, [pc, #156]	@ (8008be8 <_printf_i+0x238>)
 8008b4c:	e7e9      	b.n	8008b22 <_printf_i+0x172>
 8008b4e:	6823      	ldr	r3, [r4, #0]
 8008b50:	f023 0320 	bic.w	r3, r3, #32
 8008b54:	6023      	str	r3, [r4, #0]
 8008b56:	e7f6      	b.n	8008b46 <_printf_i+0x196>
 8008b58:	4616      	mov	r6, r2
 8008b5a:	e7bd      	b.n	8008ad8 <_printf_i+0x128>
 8008b5c:	6833      	ldr	r3, [r6, #0]
 8008b5e:	6825      	ldr	r5, [r4, #0]
 8008b60:	6961      	ldr	r1, [r4, #20]
 8008b62:	1d18      	adds	r0, r3, #4
 8008b64:	6030      	str	r0, [r6, #0]
 8008b66:	062e      	lsls	r6, r5, #24
 8008b68:	681b      	ldr	r3, [r3, #0]
 8008b6a:	d501      	bpl.n	8008b70 <_printf_i+0x1c0>
 8008b6c:	6019      	str	r1, [r3, #0]
 8008b6e:	e002      	b.n	8008b76 <_printf_i+0x1c6>
 8008b70:	0668      	lsls	r0, r5, #25
 8008b72:	d5fb      	bpl.n	8008b6c <_printf_i+0x1bc>
 8008b74:	8019      	strh	r1, [r3, #0]
 8008b76:	2300      	movs	r3, #0
 8008b78:	6123      	str	r3, [r4, #16]
 8008b7a:	4616      	mov	r6, r2
 8008b7c:	e7bc      	b.n	8008af8 <_printf_i+0x148>
 8008b7e:	6833      	ldr	r3, [r6, #0]
 8008b80:	1d1a      	adds	r2, r3, #4
 8008b82:	6032      	str	r2, [r6, #0]
 8008b84:	681e      	ldr	r6, [r3, #0]
 8008b86:	6862      	ldr	r2, [r4, #4]
 8008b88:	2100      	movs	r1, #0
 8008b8a:	4630      	mov	r0, r6
 8008b8c:	f7f7 fbb0 	bl	80002f0 <memchr>
 8008b90:	b108      	cbz	r0, 8008b96 <_printf_i+0x1e6>
 8008b92:	1b80      	subs	r0, r0, r6
 8008b94:	6060      	str	r0, [r4, #4]
 8008b96:	6863      	ldr	r3, [r4, #4]
 8008b98:	6123      	str	r3, [r4, #16]
 8008b9a:	2300      	movs	r3, #0
 8008b9c:	f884 3043 	strb.w	r3, [r4, #67]	@ 0x43
 8008ba0:	e7aa      	b.n	8008af8 <_printf_i+0x148>
 8008ba2:	6923      	ldr	r3, [r4, #16]
 8008ba4:	4632      	mov	r2, r6
 8008ba6:	4649      	mov	r1, r9
 8008ba8:	4640      	mov	r0, r8
 8008baa:	47d0      	blx	sl
 8008bac:	3001      	adds	r0, #1
 8008bae:	d0ad      	beq.n	8008b0c <_printf_i+0x15c>
 8008bb0:	6823      	ldr	r3, [r4, #0]
 8008bb2:	079b      	lsls	r3, r3, #30
 8008bb4:	d413      	bmi.n	8008bde <_printf_i+0x22e>
 8008bb6:	68e0      	ldr	r0, [r4, #12]
 8008bb8:	9b03      	ldr	r3, [sp, #12]
 8008bba:	4298      	cmp	r0, r3
 8008bbc:	bfb8      	it	lt
 8008bbe:	4618      	movlt	r0, r3
 8008bc0:	e7a6      	b.n	8008b10 <_printf_i+0x160>
 8008bc2:	2301      	movs	r3, #1
 8008bc4:	4632      	mov	r2, r6
 8008bc6:	4649      	mov	r1, r9
 8008bc8:	4640      	mov	r0, r8
 8008bca:	47d0      	blx	sl
 8008bcc:	3001      	adds	r0, #1
 8008bce:	d09d      	beq.n	8008b0c <_printf_i+0x15c>
 8008bd0:	3501      	adds	r5, #1
 8008bd2:	68e3      	ldr	r3, [r4, #12]
 8008bd4:	9903      	ldr	r1, [sp, #12]
 8008bd6:	1a5b      	subs	r3, r3, r1
 8008bd8:	42ab      	cmp	r3, r5
 8008bda:	dcf2      	bgt.n	8008bc2 <_printf_i+0x212>
 8008bdc:	e7eb      	b.n	8008bb6 <_printf_i+0x206>
 8008bde:	2500      	movs	r5, #0
 8008be0:	f104 0619 	add.w	r6, r4, #25
 8008be4:	e7f5      	b.n	8008bd2 <_printf_i+0x222>
 8008be6:	bf00      	nop
 8008be8:	0800902c 	.word	0x0800902c
 8008bec:	0800903d 	.word	0x0800903d

08008bf0 <memmove>:
 8008bf0:	4288      	cmp	r0, r1
 8008bf2:	b510      	push	{r4, lr}
 8008bf4:	eb01 0402 	add.w	r4, r1, r2
 8008bf8:	d902      	bls.n	8008c00 <memmove+0x10>
 8008bfa:	4284      	cmp	r4, r0
 8008bfc:	4623      	mov	r3, r4
 8008bfe:	d807      	bhi.n	8008c10 <memmove+0x20>
 8008c00:	1e43      	subs	r3, r0, #1
 8008c02:	42a1      	cmp	r1, r4
 8008c04:	d008      	beq.n	8008c18 <memmove+0x28>
 8008c06:	f811 2b01 	ldrb.w	r2, [r1], #1
 8008c0a:	f803 2f01 	strb.w	r2, [r3, #1]!
 8008c0e:	e7f8      	b.n	8008c02 <memmove+0x12>
 8008c10:	4402      	add	r2, r0
 8008c12:	4601      	mov	r1, r0
 8008c14:	428a      	cmp	r2, r1
 8008c16:	d100      	bne.n	8008c1a <memmove+0x2a>
 8008c18:	bd10      	pop	{r4, pc}
 8008c1a:	f813 4d01 	ldrb.w	r4, [r3, #-1]!
 8008c1e:	f802 4d01 	strb.w	r4, [r2, #-1]!
 8008c22:	e7f7      	b.n	8008c14 <memmove+0x24>

08008c24 <_sbrk_r>:
 8008c24:	b538      	push	{r3, r4, r5, lr}
 8008c26:	4d06      	ldr	r5, [pc, #24]	@ (8008c40 <_sbrk_r+0x1c>)
 8008c28:	2300      	movs	r3, #0
 8008c2a:	4604      	mov	r4, r0
 8008c2c:	4608      	mov	r0, r1
 8008c2e:	602b      	str	r3, [r5, #0]
 8008c30:	f7f9 f92c 	bl	8001e8c <_sbrk>
 8008c34:	1c43      	adds	r3, r0, #1
 8008c36:	d102      	bne.n	8008c3e <_sbrk_r+0x1a>
 8008c38:	682b      	ldr	r3, [r5, #0]
 8008c3a:	b103      	cbz	r3, 8008c3e <_sbrk_r+0x1a>
 8008c3c:	6023      	str	r3, [r4, #0]
 8008c3e:	bd38      	pop	{r3, r4, r5, pc}
 8008c40:	240bc1f0 	.word	0x240bc1f0

08008c44 <memcpy>:
 8008c44:	440a      	add	r2, r1
 8008c46:	4291      	cmp	r1, r2
 8008c48:	f100 33ff 	add.w	r3, r0, #4294967295
 8008c4c:	d100      	bne.n	8008c50 <memcpy+0xc>
 8008c4e:	4770      	bx	lr
 8008c50:	b510      	push	{r4, lr}
 8008c52:	f811 4b01 	ldrb.w	r4, [r1], #1
 8008c56:	f803 4f01 	strb.w	r4, [r3, #1]!
 8008c5a:	4291      	cmp	r1, r2
 8008c5c:	d1f9      	bne.n	8008c52 <memcpy+0xe>
 8008c5e:	bd10      	pop	{r4, pc}

08008c60 <_realloc_r>:
 8008c60:	e92d 41f0 	stmdb	sp!, {r4, r5, r6, r7, r8, lr}
 8008c64:	4680      	mov	r8, r0
 8008c66:	4615      	mov	r5, r2
 8008c68:	460c      	mov	r4, r1
 8008c6a:	b921      	cbnz	r1, 8008c76 <_realloc_r+0x16>
 8008c6c:	e8bd 41f0 	ldmia.w	sp!, {r4, r5, r6, r7, r8, lr}
 8008c70:	4611      	mov	r1, r2
 8008c72:	f7ff bc4b 	b.w	800850c <_malloc_r>
 8008c76:	b92a      	cbnz	r2, 8008c84 <_realloc_r+0x24>
 8008c78:	f7ff fbdc 	bl	8008434 <_free_r>
 8008c7c:	2400      	movs	r4, #0
 8008c7e:	4620      	mov	r0, r4
 8008c80:	e8bd 81f0 	ldmia.w	sp!, {r4, r5, r6, r7, r8, pc}
 8008c84:	f000 f81a 	bl	8008cbc <_malloc_usable_size_r>
 8008c88:	4285      	cmp	r5, r0
 8008c8a:	4606      	mov	r6, r0
 8008c8c:	d802      	bhi.n	8008c94 <_realloc_r+0x34>
 8008c8e:	ebb5 0f50 	cmp.w	r5, r0, lsr #1
 8008c92:	d8f4      	bhi.n	8008c7e <_realloc_r+0x1e>
 8008c94:	4629      	mov	r1, r5
 8008c96:	4640      	mov	r0, r8
 8008c98:	f7ff fc38 	bl	800850c <_malloc_r>
 8008c9c:	4607      	mov	r7, r0
 8008c9e:	2800      	cmp	r0, #0
 8008ca0:	d0ec      	beq.n	8008c7c <_realloc_r+0x1c>
 8008ca2:	42b5      	cmp	r5, r6
 8008ca4:	462a      	mov	r2, r5
 8008ca6:	4621      	mov	r1, r4
 8008ca8:	bf28      	it	cs
 8008caa:	4632      	movcs	r2, r6
 8008cac:	f7ff ffca 	bl	8008c44 <memcpy>
 8008cb0:	4621      	mov	r1, r4
 8008cb2:	4640      	mov	r0, r8
 8008cb4:	f7ff fbbe 	bl	8008434 <_free_r>
 8008cb8:	463c      	mov	r4, r7
 8008cba:	e7e0      	b.n	8008c7e <_realloc_r+0x1e>

08008cbc <_malloc_usable_size_r>:
 8008cbc:	f851 3c04 	ldr.w	r3, [r1, #-4]
 8008cc0:	1f18      	subs	r0, r3, #4
 8008cc2:	2b00      	cmp	r3, #0
 8008cc4:	bfbc      	itt	lt
 8008cc6:	580b      	ldrlt	r3, [r1, r0]
 8008cc8:	18c0      	addlt	r0, r0, r3
 8008cca:	4770      	bx	lr

08008ccc <_init>:
 8008ccc:	b5f8      	push	{r3, r4, r5, r6, r7, lr}
 8008cce:	bf00      	nop
 8008cd0:	bcf8      	pop	{r3, r4, r5, r6, r7}
 8008cd2:	bc08      	pop	{r3}
 8008cd4:	469e      	mov	lr, r3
 8008cd6:	4770      	bx	lr

08008cd8 <_fini>:
 8008cd8:	b5f8      	push	{r3, r4, r5, r6, r7, lr}
 8008cda:	bf00      	nop
 8008cdc:	bcf8      	pop	{r3, r4, r5, r6, r7}
 8008cde:	bc08      	pop	{r3}
 8008ce0:	469e      	mov	lr, r3
 8008ce2:	4770      	bx	lr
