
example_SD.elf:     file format elf32-littlearm

Sections:
Idx Name          Size      VMA       LMA       File off  Algn
  0 .isr_vector   000000bc  08000000  08000000  00010000  2**0
                  CONTENTS, ALLOC, LOAD, READONLY, DATA
  1 .text         00007214  080000bc  080000bc  000100bc  2**2
                  CONTENTS, ALLOC, LOAD, READONLY, CODE
  2 .rodata       00000180  080072d0  080072d0  000172d0  2**2
                  CONTENTS, ALLOC, LOAD, READONLY, DATA
  3 .ARM.extab    00000000  08007450  08007450  00020024  2**0
                  CONTENTS
  4 .ARM          00000000  08007450  08007450  00020024  2**0
                  CONTENTS
  5 .preinit_array 00000000  08007450  08007450  00020024  2**0
                  CONTENTS, ALLOC, LOAD, DATA
  6 .init_array   00000004  08007450  08007450  00017450  2**2
                  CONTENTS, ALLOC, LOAD, DATA
  7 .fini_array   00000004  08007454  08007454  00017454  2**2
                  CONTENTS, ALLOC, LOAD, DATA
  8 .data         00000024  20000000  08007458  00020000  2**2
                  CONTENTS, ALLOC, LOAD, DATA
  9 .bss          0000061c  20000024  0800747c  00020024  2**2
                  ALLOC
 10 ._user_heap_stack 00000600  20000640  0800747c  00020640  2**0
                  ALLOC
 11 .ARM.attributes 00000028  00000000  00000000  00020024  2**0
                  CONTENTS, READONLY
 12 .comment      00000043  00000000  00000000  0002004c  2**0
                  CONTENTS, READONLY
 13 .debug_info   0000ec55  00000000  00000000  0002008f  2**0
                  CONTENTS, READONLY, DEBUGGING, OCTETS
 14 .debug_abbrev 00002836  00000000  00000000  0002ece4  2**0
                  CONTENTS, READONLY, DEBUGGING, OCTETS
 15 .debug_aranges 00000ce0  00000000  00000000  00031520  2**3
                  CONTENTS, READONLY, DEBUGGING, OCTETS
 16 .debug_rnglists 000009fd  00000000  00000000  00032200  2**0
                  CONTENTS, READONLY, DEBUGGING, OCTETS
 17 .debug_macro  000125de  00000000  00000000  00032bfd  2**0
                  CONTENTS, READONLY, DEBUGGING, OCTETS
 18 .debug_line   00013240  00000000  00000000  000451db  2**0
                  CONTENTS, READONLY, DEBUGGING, OCTETS
 19 .debug_str    0006787a  00000000  00000000  0005841b  2**0
                  CONTENTS, READONLY, DEBUGGING, OCTETS
 20 .debug_frame  00002d64  00000000  00000000  000bfc98  2**2
                  CONTENTS, READONLY, DEBUGGING, OCTETS
 21 .debug_line_str 0000006a  00000000  00000000  000c29fc  2**0
                  CONTENTS, READONLY, DEBUGGING, OCTETS

Disassembly of section .text:

080000bc <__do_global_dtors_aux>:
 80000bc:	b510      	push	{r4, lr}
 80000be:	4c06      	ldr	r4, [pc, #24]	; (80000d8 <__do_global_dtors_aux+0x1c>)
 80000c0:	7823      	ldrb	r3, [r4, #0]
 80000c2:	2b00      	cmp	r3, #0
 80000c4:	d107      	bne.n	80000d6 <__do_global_dtors_aux+0x1a>
 80000c6:	4b05      	ldr	r3, [pc, #20]	; (80000dc <__do_global_dtors_aux+0x20>)
 80000c8:	2b00      	cmp	r3, #0
 80000ca:	d002      	beq.n	80000d2 <__do_global_dtors_aux+0x16>
 80000cc:	4804      	ldr	r0, [pc, #16]	; (80000e0 <__do_global_dtors_aux+0x24>)
 80000ce:	e000      	b.n	80000d2 <__do_global_dtors_aux+0x16>
 80000d0:	bf00      	nop
 80000d2:	2301      	movs	r3, #1
 80000d4:	7023      	strb	r3, [r4, #0]
 80000d6:	bd10      	pop	{r4, pc}
 80000d8:	20000024 	.word	0x20000024
 80000dc:	00000000 	.word	0x00000000
 80000e0:	080072b8 	.word	0x080072b8

080000e4 <frame_dummy>:
 80000e4:	4b04      	ldr	r3, [pc, #16]	; (80000f8 <frame_dummy+0x14>)
 80000e6:	b510      	push	{r4, lr}
 80000e8:	2b00      	cmp	r3, #0
 80000ea:	d003      	beq.n	80000f4 <frame_dummy+0x10>
 80000ec:	4903      	ldr	r1, [pc, #12]	; (80000fc <frame_dummy+0x18>)
 80000ee:	4804      	ldr	r0, [pc, #16]	; (8000100 <frame_dummy+0x1c>)
 80000f0:	e000      	b.n	80000f4 <frame_dummy+0x10>
 80000f2:	bf00      	nop
 80000f4:	bd10      	pop	{r4, pc}
 80000f6:	46c0      	nop			; (mov r8, r8)
 80000f8:	00000000 	.word	0x00000000
 80000fc:	20000028 	.word	0x20000028
 8000100:	080072b8 	.word	0x080072b8

08000104 <__udivsi3>:
 8000104:	2200      	movs	r2, #0
 8000106:	0843      	lsrs	r3, r0, #1
 8000108:	428b      	cmp	r3, r1
 800010a:	d374      	bcc.n	80001f6 <__udivsi3+0xf2>
 800010c:	0903      	lsrs	r3, r0, #4
 800010e:	428b      	cmp	r3, r1
 8000110:	d35f      	bcc.n	80001d2 <__udivsi3+0xce>
 8000112:	0a03      	lsrs	r3, r0, #8
 8000114:	428b      	cmp	r3, r1
 8000116:	d344      	bcc.n	80001a2 <__udivsi3+0x9e>
 8000118:	0b03      	lsrs	r3, r0, #12
 800011a:	428b      	cmp	r3, r1
 800011c:	d328      	bcc.n	8000170 <__udivsi3+0x6c>
 800011e:	0c03      	lsrs	r3, r0, #16
 8000120:	428b      	cmp	r3, r1
 8000122:	d30d      	bcc.n	8000140 <__udivsi3+0x3c>
 8000124:	22ff      	movs	r2, #255	; 0xff
 8000126:	0209      	lsls	r1, r1, #8
 8000128:	ba12      	rev	r2, r2
 800012a:	0c03      	lsrs	r3, r0, #16
 800012c:	428b      	cmp	r3, r1
 800012e:	d302      	bcc.n	8000136 <__udivsi3+0x32>
 8000130:	1212      	asrs	r2, r2, #8
 8000132:	0209      	lsls	r1, r1, #8
 8000134:	d065      	beq.n	8000202 <__udivsi3+0xfe>
 8000136:	0b03      	lsrs	r3, r0, #12
 8000138:	428b      	cmp	r3, r1
 800013a:	d319      	bcc.n	8000170 <__udivsi3+0x6c>
 800013c:	e000      	b.n	8000140 <__udivsi3+0x3c>
 800013e:	0a09      	lsrs	r1, r1, #8
 8000140:	0bc3      	lsrs	r3, r0, #15
 8000142:	428b      	cmp	r3, r1
 8000144:	d301      	bcc.n	800014a <__udivsi3+0x46>
 8000146:	03cb      	lsls	r3, r1, #15
 8000148:	1ac0      	subs	r0, r0, r3
 800014a:	4152      	adcs	r2, r2
 800014c:	0b83      	lsrs	r3, r0, #14
 800014e:	428b      	cmp	r3, r1
 8000150:	d301      	bcc.n	8000156 <__udivsi3+0x52>
 8000152:	038b      	lsls	r3, r1, #14
 8000154:	1ac0      	subs	r0, r0, r3
 8000156:	4152      	adcs	r2, r2
 8000158:	0b43      	lsrs	r3, r0, #13
 800015a:	428b      	cmp	r3, r1
 800015c:	d301      	bcc.n	8000162 <__udivsi3+0x5e>
 800015e:	034b      	lsls	r3, r1, #13
 8000160:	1ac0      	subs	r0, r0, r3
 8000162:	4152      	adcs	r2, r2
 8000164:	0b03      	lsrs	r3, r0, #12
 8000166:	428b      	cmp	r3, r1
 8000168:	d301      	bcc.n	800016e <__udivsi3+0x6a>
 800016a:	030b      	lsls	r3, r1, #12
 800016c:	1ac0      	subs	r0, r0, r3
 800016e:	4152      	adcs	r2, r2
 8000170:	0ac3      	lsrs	r3, r0, #11
 8000172:	428b      	cmp	r3, r1
 8000174:	d301      	bcc.n	800017a <__udivsi3+0x76>
 8000176:	02cb      	lsls	r3, r1, #11
 8000178:	1ac0      	subs	r0, r0, r3
 800017a:	4152      	adcs	r2, r2
 800017c:	0a83      	lsrs	r3, r0, #10
 800017e:	428b      	cmp	r3, r1
 8000180:	d301      	bcc.n	8000186 <__udivsi3+0x82>
 8000182:	028b      	lsls	r3, r1, #10
 8000184:	1ac0      	subs	r0, r0, r3
 8000186:	4152      	adcs	r2, r2
 8000188:	0a43      	lsrs	r3, r0, #9
 800018a:	428b      	cmp	r3, r1
 800018c:	d301      	bcc.n	8000192 <__udivsi3+0x8e>
 800018e:	024b      	lsls	r3, r1, #9
 8000190:	1ac0      	subs	r0, r0, r3
 8000192:	4152      	adcs	r2, r2
 8000194:	0a03      	lsrs	r3, r0, #8
 8000196:	428b      	cmp	r3, r1
 8000198:	d301      	bcc.n	800019e <__udivsi3+0x9a>
 800019a:	020b      	lsls	r3, r1, #8
 800019c:	1ac0      	subs	r0, r0, r3
 800019e:	4152      	adcs	r2, r2
 80001a0:	d2cd      	bcs.n	800013e <__udivsi3+0x3a>
 80001a2:	09c3      	lsrs	r3, r0, #7
 80001a4:	428b      	cmp	r3, r1
 80001a6:	d301      	bcc.n	80001ac <__udivsi3+0xa8>
 80001a8:	01cb      	lsls	r3, r1, #7
 80001aa:	1ac0      	subs	r0, r0, r3
 80001ac:	4152      	adcs	r2, r2
 80001ae:	0983      	lsrs	r3, r0, #6
 80001b0:	428b      	cmp	r3, r1
 80001b2:	d301      	bcc.n	80001b8 <__udivsi3+0xb4>
 80001b4:	018b      	lsls	r3, r1, #6
 80001b6:	1ac0      	subs	r0, r0, r3
 80001b8:	4152      	adcs	r2, r2
 80001ba:	0943      	lsrs	r3, r0, #5
 80001bc:	428b      	cmp	r3, r1
 80001be:	d301      	bcc.n	80001c4 <__udivsi3+0xc0>
 80001c0:	014b      	lsls	r3, r1, #5
 80001c2:	1ac0      	subs	r0, r0, r3
 80001c4:	4152      	adcs	r2, r2
 80001c6:	0903      	lsrs	r3, r0, #4
 80001c8:	428b      	cmp	r3, r1
 80001ca:	d301      	bcc.n	80001d0 <__udivsi3+0xcc>
 80001cc:	010b      	lsls	r3, r1, #4
 80001ce:	1ac0      	subs	r0, r0, r3
 80001d0:	4152      	adcs	r2, r2
 80001d2:	08c3      	lsrs	r3, r0, #3
 80001d4:	428b      	cmp	r3, r1
 80001d6:	d301      	bcc.n	80001dc <__udivsi3+0xd8>
 80001d8:	00cb      	lsls	r3, r1, #3
 80001da:	1ac0      	subs	r0, r0, r3
 80001dc:	4152      	adcs	r2, r2
 80001de:	0883      	lsrs	r3, r0, #2
 80001e0:	428b      	cmp	r3, r1
 80001e2:	d301      	bcc.n	80001e8 <__udivsi3+0xe4>
 80001e4:	008b      	lsls	r3, r1, #2
 80001e6:	1ac0      	subs	r0, r0, r3
 80001e8:	4152      	adcs	r2, r2
 80001ea:	0843      	lsrs	r3, r0, #1
 80001ec:	428b      	cmp	r3, r1
 80001ee:	d301      	bcc.n	80001f4 <__udivsi3+0xf0>
 80001f0:	004b      	lsls	r3, r1, #1
 80001f2:	1ac0      	subs	r0, r0, r3
 80001f4:	4152      	adcs	r2, r2
 80001f6:	1a41      	subs	r1, r0, r1
 80001f8:	d200      	bcs.n	80001fc <__udivsi3+0xf8>
 80001fa:	4601      	mov	r1, r0
 80001fc:	4152      	adcs	r2, r2
 80001fe:	4610      	mov	r0, r2
 8000200:	4770      	bx	lr
 8000202:	e7ff      	b.n	8000204 <__udivsi3+0x100>
 8000204:	b501      	push	{r0, lr}
 8000206:	2000      	movs	r0, #0
 8000208:	f000 f806 	bl	8000218 <__aeabi_idiv0>
 800020c:	bd02      	pop	{r1, pc}
 800020e:	46c0      	nop			; (mov r8, r8)

08000210 <__aeabi_uidivmod>:
 8000210:	2900      	cmp	r1, #0
 8000212:	d0f7      	beq.n	8000204 <__udivsi3+0x100>
 8000214:	e776      	b.n	8000104 <__udivsi3>
 8000216:	4770      	bx	lr

08000218 <__aeabi_idiv0>:
 8000218:	4770      	bx	lr
 800021a:	46c0      	nop			; (mov r8, r8)

0800021c <fillRect>:
{
	ST7735_DrawPixel(x, y, color);
}

void fillRect(int16_t x, int16_t y, int16_t w, int16_t h, uint16_t color)
{
 800021c:	b5b0      	push	{r4, r5, r7, lr}
 800021e:	b084      	sub	sp, #16
 8000220:	af02      	add	r7, sp, #8
 8000222:	0005      	movs	r5, r0
 8000224:	000c      	movs	r4, r1
 8000226:	0010      	movs	r0, r2
 8000228:	0019      	movs	r1, r3
 800022a:	1dbb      	adds	r3, r7, #6
 800022c:	1c2a      	adds	r2, r5, #0
 800022e:	801a      	strh	r2, [r3, #0]
 8000230:	1d3b      	adds	r3, r7, #4
 8000232:	1c22      	adds	r2, r4, #0
 8000234:	801a      	strh	r2, [r3, #0]
 8000236:	1cbb      	adds	r3, r7, #2
 8000238:	1c02      	adds	r2, r0, #0
 800023a:	801a      	strh	r2, [r3, #0]
 800023c:	003b      	movs	r3, r7
 800023e:	1c0a      	adds	r2, r1, #0
 8000240:	801a      	strh	r2, [r3, #0]
	ST7735_FillRectangle(x, y, w, h, color);
 8000242:	1dbb      	adds	r3, r7, #6
 8000244:	8818      	ldrh	r0, [r3, #0]
 8000246:	1d3b      	adds	r3, r7, #4
 8000248:	8819      	ldrh	r1, [r3, #0]
 800024a:	1cbb      	adds	r3, r7, #2
 800024c:	881a      	ldrh	r2, [r3, #0]
 800024e:	003b      	movs	r3, r7
 8000250:	881c      	ldrh	r4, [r3, #0]
 8000252:	2318      	movs	r3, #24
 8000254:	18fb      	adds	r3, r7, r3
 8000256:	881b      	ldrh	r3, [r3, #0]
 8000258:	9300      	str	r3, [sp, #0]
 800025a:	0023      	movs	r3, r4
 800025c:	f000 fa04 	bl	8000668 <ST7735_FillRectangle>
}
 8000260:	46c0      	nop			; (mov r8, r8)
 8000262:	46bd      	mov	sp, r7
 8000264:	b002      	add	sp, #8
 8000266:	bdb0      	pop	{r4, r5, r7, pc}

08000268 <fillScreen>:
        if(a > b) _swap_int16_t(a,b);
        drawFastHLine(a, y, b-a+1, color);
    }
}

void fillScreen(uint16_t color) {
 8000268:	b580      	push	{r7, lr}
 800026a:	b084      	sub	sp, #16
 800026c:	af02      	add	r7, sp, #8
 800026e:	0002      	movs	r2, r0
 8000270:	1dbb      	adds	r3, r7, #6
 8000272:	801a      	strh	r2, [r3, #0]
    fillRect(0, 0, _width, _height, color);
 8000274:	4b08      	ldr	r3, [pc, #32]	; (8000298 <fillScreen+0x30>)
 8000276:	2200      	movs	r2, #0
 8000278:	5e9a      	ldrsh	r2, [r3, r2]
 800027a:	4b08      	ldr	r3, [pc, #32]	; (800029c <fillScreen+0x34>)
 800027c:	2100      	movs	r1, #0
 800027e:	5e59      	ldrsh	r1, [r3, r1]
 8000280:	1dbb      	adds	r3, r7, #6
 8000282:	881b      	ldrh	r3, [r3, #0]
 8000284:	9300      	str	r3, [sp, #0]
 8000286:	000b      	movs	r3, r1
 8000288:	2100      	movs	r1, #0
 800028a:	2000      	movs	r0, #0
 800028c:	f7ff ffc6 	bl	800021c <fillRect>
}
 8000290:	46c0      	nop			; (mov r8, r8)
 8000292:	46bd      	mov	sp, r7
 8000294:	b002      	add	sp, #8
 8000296:	bd80      	pop	{r7, pc}
 8000298:	20000040 	.word	0x20000040
 800029c:	20000042 	.word	0x20000042

080002a0 <ST7735_Select>:
      10,                     //     10 ms delay
    ST7735_DISPON ,    DELAY, //  4: Main screen turn on, no args w/delay
      100 };                  //     100 ms delay

void ST7735_Select()
{
 80002a0:	b580      	push	{r7, lr}
 80002a2:	af00      	add	r7, sp, #0
    HAL_GPIO_WritePin(CS_PORT, CS_PIN, GPIO_PIN_RESET);
 80002a4:	2380      	movs	r3, #128	; 0x80
 80002a6:	01db      	lsls	r3, r3, #7
 80002a8:	4803      	ldr	r0, [pc, #12]	; (80002b8 <ST7735_Select+0x18>)
 80002aa:	2200      	movs	r2, #0
 80002ac:	0019      	movs	r1, r3
 80002ae:	f001 fa1b 	bl	80016e8 <HAL_GPIO_WritePin>
}
 80002b2:	46c0      	nop			; (mov r8, r8)
 80002b4:	46bd      	mov	sp, r7
 80002b6:	bd80      	pop	{r7, pc}
 80002b8:	48000800 	.word	0x48000800

080002bc <ST7735_Unselect>:

void ST7735_Unselect()
{
 80002bc:	b580      	push	{r7, lr}
 80002be:	af00      	add	r7, sp, #0
    HAL_GPIO_WritePin(CS_PORT, CS_PIN, GPIO_PIN_SET);
 80002c0:	2380      	movs	r3, #128	; 0x80
 80002c2:	01db      	lsls	r3, r3, #7
 80002c4:	4803      	ldr	r0, [pc, #12]	; (80002d4 <ST7735_Unselect+0x18>)
 80002c6:	2201      	movs	r2, #1
 80002c8:	0019      	movs	r1, r3
 80002ca:	f001 fa0d 	bl	80016e8 <HAL_GPIO_WritePin>
}
 80002ce:	46c0      	nop			; (mov r8, r8)
 80002d0:	46bd      	mov	sp, r7
 80002d2:	bd80      	pop	{r7, pc}
 80002d4:	48000800 	.word	0x48000800

080002d8 <ST7735_Reset>:

void ST7735_Reset()
{
 80002d8:	b580      	push	{r7, lr}
 80002da:	af00      	add	r7, sp, #0
    HAL_GPIO_WritePin(RST_PORT, RST_PIN, GPIO_PIN_RESET);
 80002dc:	2380      	movs	r3, #128	; 0x80
 80002de:	021b      	lsls	r3, r3, #8
 80002e0:	4808      	ldr	r0, [pc, #32]	; (8000304 <ST7735_Reset+0x2c>)
 80002e2:	2200      	movs	r2, #0
 80002e4:	0019      	movs	r1, r3
 80002e6:	f001 f9ff 	bl	80016e8 <HAL_GPIO_WritePin>
    HAL_Delay(5);
 80002ea:	2005      	movs	r0, #5
 80002ec:	f000 ffb4 	bl	8001258 <HAL_Delay>
    HAL_GPIO_WritePin(RST_PORT, RST_PIN, GPIO_PIN_SET);
 80002f0:	2380      	movs	r3, #128	; 0x80
 80002f2:	021b      	lsls	r3, r3, #8
 80002f4:	4803      	ldr	r0, [pc, #12]	; (8000304 <ST7735_Reset+0x2c>)
 80002f6:	2201      	movs	r2, #1
 80002f8:	0019      	movs	r1, r3
 80002fa:	f001 f9f5 	bl	80016e8 <HAL_GPIO_WritePin>
}
 80002fe:	46c0      	nop			; (mov r8, r8)
 8000300:	46bd      	mov	sp, r7
 8000302:	bd80      	pop	{r7, pc}
 8000304:	48000800 	.word	0x48000800

08000308 <ST7735_WriteCommand>:

  void ST7735_WriteCommand(uint8_t cmd)
  {
 8000308:	b580      	push	{r7, lr}
 800030a:	b082      	sub	sp, #8
 800030c:	af00      	add	r7, sp, #0
 800030e:	0002      	movs	r2, r0
 8000310:	1dfb      	adds	r3, r7, #7
 8000312:	701a      	strb	r2, [r3, #0]
    HAL_GPIO_WritePin(AD_PORT, AD_PIN, GPIO_PIN_RESET);
 8000314:	2380      	movs	r3, #128	; 0x80
 8000316:	019b      	lsls	r3, r3, #6
 8000318:	4807      	ldr	r0, [pc, #28]	; (8000338 <ST7735_WriteCommand+0x30>)
 800031a:	2200      	movs	r2, #0
 800031c:	0019      	movs	r1, r3
 800031e:	f001 f9e3 	bl	80016e8 <HAL_GPIO_WritePin>
    HAL_SPI_Transmit(&ST7735_SPI_PORT, &cmd, sizeof(cmd), HAL_MAX_DELAY);
 8000322:	2301      	movs	r3, #1
 8000324:	425b      	negs	r3, r3
 8000326:	1df9      	adds	r1, r7, #7
 8000328:	4804      	ldr	r0, [pc, #16]	; (800033c <ST7735_WriteCommand+0x34>)
 800032a:	2201      	movs	r2, #1
 800032c:	f001 ffe4 	bl	80022f8 <HAL_SPI_Transmit>
}
 8000330:	46c0      	nop			; (mov r8, r8)
 8000332:	46bd      	mov	sp, r7
 8000334:	b002      	add	sp, #8
 8000336:	bd80      	pop	{r7, pc}
 8000338:	48000800 	.word	0x48000800
 800033c:	200000b0 	.word	0x200000b0

08000340 <ST7735_WriteData>:

void ST7735_WriteData(uint8_t* buff, size_t buff_size)
{
 8000340:	b580      	push	{r7, lr}
 8000342:	b082      	sub	sp, #8
 8000344:	af00      	add	r7, sp, #0
 8000346:	6078      	str	r0, [r7, #4]
 8000348:	6039      	str	r1, [r7, #0]
    HAL_GPIO_WritePin(AD_PORT, AD_PIN, GPIO_PIN_SET);
 800034a:	2380      	movs	r3, #128	; 0x80
 800034c:	019b      	lsls	r3, r3, #6
 800034e:	4808      	ldr	r0, [pc, #32]	; (8000370 <ST7735_WriteData+0x30>)
 8000350:	2201      	movs	r2, #1
 8000352:	0019      	movs	r1, r3
 8000354:	f001 f9c8 	bl	80016e8 <HAL_GPIO_WritePin>
    HAL_SPI_Transmit(&ST7735_SPI_PORT, buff, buff_size, HAL_MAX_DELAY);
 8000358:	683b      	ldr	r3, [r7, #0]
 800035a:	b29a      	uxth	r2, r3
 800035c:	2301      	movs	r3, #1
 800035e:	425b      	negs	r3, r3
 8000360:	6879      	ldr	r1, [r7, #4]
 8000362:	4804      	ldr	r0, [pc, #16]	; (8000374 <ST7735_WriteData+0x34>)
 8000364:	f001 ffc8 	bl	80022f8 <HAL_SPI_Transmit>
}
 8000368:	46c0      	nop			; (mov r8, r8)
 800036a:	46bd      	mov	sp, r7
 800036c:	b002      	add	sp, #8
 800036e:	bd80      	pop	{r7, pc}
 8000370:	48000800 	.word	0x48000800
 8000374:	200000b0 	.word	0x200000b0

08000378 <DisplayInit>:

void DisplayInit(const uint8_t *addr)
{
 8000378:	b590      	push	{r4, r7, lr}
 800037a:	b085      	sub	sp, #20
 800037c:	af00      	add	r7, sp, #0
 800037e:	6078      	str	r0, [r7, #4]
    uint8_t numCommands, numArgs;
    uint16_t ms;

    numCommands = *addr++;
 8000380:	687b      	ldr	r3, [r7, #4]
 8000382:	1c5a      	adds	r2, r3, #1
 8000384:	607a      	str	r2, [r7, #4]
 8000386:	220f      	movs	r2, #15
 8000388:	18ba      	adds	r2, r7, r2
 800038a:	781b      	ldrb	r3, [r3, #0]
 800038c:	7013      	strb	r3, [r2, #0]
    while(numCommands--) {
 800038e:	e04a      	b.n	8000426 <DisplayInit+0xae>
        uint8_t cmd = *addr++;
 8000390:	687b      	ldr	r3, [r7, #4]
 8000392:	1c5a      	adds	r2, r3, #1
 8000394:	607a      	str	r2, [r7, #4]
 8000396:	210b      	movs	r1, #11
 8000398:	187a      	adds	r2, r7, r1
 800039a:	781b      	ldrb	r3, [r3, #0]
 800039c:	7013      	strb	r3, [r2, #0]
        ST7735_WriteCommand(cmd);
 800039e:	187b      	adds	r3, r7, r1
 80003a0:	781b      	ldrb	r3, [r3, #0]
 80003a2:	0018      	movs	r0, r3
 80003a4:	f7ff ffb0 	bl	8000308 <ST7735_WriteCommand>

        numArgs = *addr++;
 80003a8:	687b      	ldr	r3, [r7, #4]
 80003aa:	1c5a      	adds	r2, r3, #1
 80003ac:	607a      	str	r2, [r7, #4]
 80003ae:	200a      	movs	r0, #10
 80003b0:	183a      	adds	r2, r7, r0
 80003b2:	781b      	ldrb	r3, [r3, #0]
 80003b4:	7013      	strb	r3, [r2, #0]
        // If high bit set, delay follows args
        ms = numArgs & DELAY;
 80003b6:	183b      	adds	r3, r7, r0
 80003b8:	781b      	ldrb	r3, [r3, #0]
 80003ba:	b29a      	uxth	r2, r3
 80003bc:	230c      	movs	r3, #12
 80003be:	18fb      	adds	r3, r7, r3
 80003c0:	2180      	movs	r1, #128	; 0x80
 80003c2:	400a      	ands	r2, r1
 80003c4:	801a      	strh	r2, [r3, #0]
        numArgs &= ~DELAY;
 80003c6:	183b      	adds	r3, r7, r0
 80003c8:	183a      	adds	r2, r7, r0
 80003ca:	7812      	ldrb	r2, [r2, #0]
 80003cc:	217f      	movs	r1, #127	; 0x7f
 80003ce:	400a      	ands	r2, r1
 80003d0:	701a      	strb	r2, [r3, #0]
        if(numArgs) {
 80003d2:	183b      	adds	r3, r7, r0
 80003d4:	781b      	ldrb	r3, [r3, #0]
 80003d6:	2b00      	cmp	r3, #0
 80003d8:	d00c      	beq.n	80003f4 <DisplayInit+0x7c>
            ST7735_WriteData((uint8_t*)addr, numArgs);
 80003da:	0004      	movs	r4, r0
 80003dc:	183b      	adds	r3, r7, r0
 80003de:	781a      	ldrb	r2, [r3, #0]
 80003e0:	687b      	ldr	r3, [r7, #4]
 80003e2:	0011      	movs	r1, r2
 80003e4:	0018      	movs	r0, r3
 80003e6:	f7ff ffab 	bl	8000340 <ST7735_WriteData>
            addr += numArgs;
 80003ea:	193b      	adds	r3, r7, r4
 80003ec:	781b      	ldrb	r3, [r3, #0]
 80003ee:	687a      	ldr	r2, [r7, #4]
 80003f0:	18d3      	adds	r3, r2, r3
 80003f2:	607b      	str	r3, [r7, #4]
        }

        if(ms) {
 80003f4:	210c      	movs	r1, #12
 80003f6:	187b      	adds	r3, r7, r1
 80003f8:	881b      	ldrh	r3, [r3, #0]
 80003fa:	2b00      	cmp	r3, #0
 80003fc:	d013      	beq.n	8000426 <DisplayInit+0xae>
            ms = *addr++;
 80003fe:	687b      	ldr	r3, [r7, #4]
 8000400:	1c5a      	adds	r2, r3, #1
 8000402:	607a      	str	r2, [r7, #4]
 8000404:	781a      	ldrb	r2, [r3, #0]
 8000406:	187b      	adds	r3, r7, r1
 8000408:	801a      	strh	r2, [r3, #0]
            if(ms == 255) ms = 500;
 800040a:	187b      	adds	r3, r7, r1
 800040c:	881b      	ldrh	r3, [r3, #0]
 800040e:	2bff      	cmp	r3, #255	; 0xff
 8000410:	d103      	bne.n	800041a <DisplayInit+0xa2>
 8000412:	187b      	adds	r3, r7, r1
 8000414:	22fa      	movs	r2, #250	; 0xfa
 8000416:	0052      	lsls	r2, r2, #1
 8000418:	801a      	strh	r2, [r3, #0]
            HAL_Delay(ms);
 800041a:	230c      	movs	r3, #12
 800041c:	18fb      	adds	r3, r7, r3
 800041e:	881b      	ldrh	r3, [r3, #0]
 8000420:	0018      	movs	r0, r3
 8000422:	f000 ff19 	bl	8001258 <HAL_Delay>
    while(numCommands--) {
 8000426:	220f      	movs	r2, #15
 8000428:	18bb      	adds	r3, r7, r2
 800042a:	781b      	ldrb	r3, [r3, #0]
 800042c:	18ba      	adds	r2, r7, r2
 800042e:	1e59      	subs	r1, r3, #1
 8000430:	7011      	strb	r1, [r2, #0]
 8000432:	2b00      	cmp	r3, #0
 8000434:	d1ac      	bne.n	8000390 <DisplayInit+0x18>
        }
    }
}
 8000436:	46c0      	nop			; (mov r8, r8)
 8000438:	46c0      	nop			; (mov r8, r8)
 800043a:	46bd      	mov	sp, r7
 800043c:	b005      	add	sp, #20
 800043e:	bd90      	pop	{r4, r7, pc}

08000440 <ST7735_SetAddressWindow>:

void ST7735_SetAddressWindow(uint8_t x0, uint8_t y0, uint8_t x1, uint8_t y1)
{
 8000440:	b5b0      	push	{r4, r5, r7, lr}
 8000442:	b084      	sub	sp, #16
 8000444:	af00      	add	r7, sp, #0
 8000446:	0005      	movs	r5, r0
 8000448:	000c      	movs	r4, r1
 800044a:	0010      	movs	r0, r2
 800044c:	0019      	movs	r1, r3
 800044e:	1dfb      	adds	r3, r7, #7
 8000450:	1c2a      	adds	r2, r5, #0
 8000452:	701a      	strb	r2, [r3, #0]
 8000454:	1dbb      	adds	r3, r7, #6
 8000456:	1c22      	adds	r2, r4, #0
 8000458:	701a      	strb	r2, [r3, #0]
 800045a:	1d7b      	adds	r3, r7, #5
 800045c:	1c02      	adds	r2, r0, #0
 800045e:	701a      	strb	r2, [r3, #0]
 8000460:	1d3b      	adds	r3, r7, #4
 8000462:	1c0a      	adds	r2, r1, #0
 8000464:	701a      	strb	r2, [r3, #0]
    // column address set
    ST7735_WriteCommand(ST7735_CASET);
 8000466:	202a      	movs	r0, #42	; 0x2a
 8000468:	f7ff ff4e 	bl	8000308 <ST7735_WriteCommand>
    uint8_t data[] = { 0x00, x0 + _xstart, 0x00, x1 + _xstart };
 800046c:	210c      	movs	r1, #12
 800046e:	187b      	adds	r3, r7, r1
 8000470:	2200      	movs	r2, #0
 8000472:	701a      	strb	r2, [r3, #0]
 8000474:	4b1c      	ldr	r3, [pc, #112]	; (80004e8 <ST7735_SetAddressWindow+0xa8>)
 8000476:	781a      	ldrb	r2, [r3, #0]
 8000478:	1dfb      	adds	r3, r7, #7
 800047a:	781b      	ldrb	r3, [r3, #0]
 800047c:	18d3      	adds	r3, r2, r3
 800047e:	b2da      	uxtb	r2, r3
 8000480:	187b      	adds	r3, r7, r1
 8000482:	705a      	strb	r2, [r3, #1]
 8000484:	187b      	adds	r3, r7, r1
 8000486:	2200      	movs	r2, #0
 8000488:	709a      	strb	r2, [r3, #2]
 800048a:	4b17      	ldr	r3, [pc, #92]	; (80004e8 <ST7735_SetAddressWindow+0xa8>)
 800048c:	781a      	ldrb	r2, [r3, #0]
 800048e:	1d7b      	adds	r3, r7, #5
 8000490:	781b      	ldrb	r3, [r3, #0]
 8000492:	18d3      	adds	r3, r2, r3
 8000494:	b2da      	uxtb	r2, r3
 8000496:	187b      	adds	r3, r7, r1
 8000498:	70da      	strb	r2, [r3, #3]
    ST7735_WriteData(data, sizeof(data));
 800049a:	000c      	movs	r4, r1
 800049c:	187b      	adds	r3, r7, r1
 800049e:	2104      	movs	r1, #4
 80004a0:	0018      	movs	r0, r3
 80004a2:	f7ff ff4d 	bl	8000340 <ST7735_WriteData>

    // row address set
    ST7735_WriteCommand(ST7735_RASET);
 80004a6:	202b      	movs	r0, #43	; 0x2b
 80004a8:	f7ff ff2e 	bl	8000308 <ST7735_WriteCommand>
    data[1] = y0 + _ystart;
 80004ac:	4b0f      	ldr	r3, [pc, #60]	; (80004ec <ST7735_SetAddressWindow+0xac>)
 80004ae:	781a      	ldrb	r2, [r3, #0]
 80004b0:	1dbb      	adds	r3, r7, #6
 80004b2:	781b      	ldrb	r3, [r3, #0]
 80004b4:	18d3      	adds	r3, r2, r3
 80004b6:	b2da      	uxtb	r2, r3
 80004b8:	0021      	movs	r1, r4
 80004ba:	187b      	adds	r3, r7, r1
 80004bc:	705a      	strb	r2, [r3, #1]
    data[3] = y1 + _ystart;
 80004be:	4b0b      	ldr	r3, [pc, #44]	; (80004ec <ST7735_SetAddressWindow+0xac>)
 80004c0:	781a      	ldrb	r2, [r3, #0]
 80004c2:	1d3b      	adds	r3, r7, #4
 80004c4:	781b      	ldrb	r3, [r3, #0]
 80004c6:	18d3      	adds	r3, r2, r3
 80004c8:	b2da      	uxtb	r2, r3
 80004ca:	187b      	adds	r3, r7, r1
 80004cc:	70da      	strb	r2, [r3, #3]
    ST7735_WriteData(data, sizeof(data));
 80004ce:	187b      	adds	r3, r7, r1
 80004d0:	2104      	movs	r1, #4
 80004d2:	0018      	movs	r0, r3
 80004d4:	f7ff ff34 	bl	8000340 <ST7735_WriteData>

    // write to RAM
    ST7735_WriteCommand(ST7735_RAMWR);
 80004d8:	202c      	movs	r0, #44	; 0x2c
 80004da:	f7ff ff15 	bl	8000308 <ST7735_WriteCommand>
}
 80004de:	46c0      	nop			; (mov r8, r8)
 80004e0:	46bd      	mov	sp, r7
 80004e2:	b004      	add	sp, #16
 80004e4:	bdb0      	pop	{r4, r5, r7, pc}
 80004e6:	46c0      	nop			; (mov r8, r8)
 80004e8:	20000047 	.word	0x20000047
 80004ec:	20000048 	.word	0x20000048

080004f0 <ST7735_Init>:

void ST7735_Init(uint8_t rotation)
{
 80004f0:	b580      	push	{r7, lr}
 80004f2:	b082      	sub	sp, #8
 80004f4:	af00      	add	r7, sp, #0
 80004f6:	0002      	movs	r2, r0
 80004f8:	1dfb      	adds	r3, r7, #7
 80004fa:	701a      	strb	r2, [r3, #0]
    ST7735_Select();
 80004fc:	f7ff fed0 	bl	80002a0 <ST7735_Select>
    ST7735_Reset();
 8000500:	f7ff feea 	bl	80002d8 <ST7735_Reset>
    DisplayInit(init_cmds1);
 8000504:	4b0e      	ldr	r3, [pc, #56]	; (8000540 <ST7735_Init+0x50>)
 8000506:	0018      	movs	r0, r3
 8000508:	f7ff ff36 	bl	8000378 <DisplayInit>
    DisplayInit(init_cmds2);
 800050c:	4b0d      	ldr	r3, [pc, #52]	; (8000544 <ST7735_Init+0x54>)
 800050e:	0018      	movs	r0, r3
 8000510:	f7ff ff32 	bl	8000378 <DisplayInit>
    DisplayInit(init_cmds3);
 8000514:	4b0c      	ldr	r3, [pc, #48]	; (8000548 <ST7735_Init+0x58>)
 8000516:	0018      	movs	r0, r3
 8000518:	f7ff ff2e 	bl	8000378 <DisplayInit>

#elif ST7735_IS_128X128
    _colstart = 2;
    _rowstart = 3;
#else
    _colstart = 0;
 800051c:	4b0b      	ldr	r3, [pc, #44]	; (800054c <ST7735_Init+0x5c>)
 800051e:	2200      	movs	r2, #0
 8000520:	701a      	strb	r2, [r3, #0]
    _rowstart = 0;
 8000522:	4b0b      	ldr	r3, [pc, #44]	; (8000550 <ST7735_Init+0x60>)
 8000524:	2200      	movs	r2, #0
 8000526:	701a      	strb	r2, [r3, #0]
#endif
    ST7735_SetRotation (rotation);
 8000528:	1dfb      	adds	r3, r7, #7
 800052a:	781b      	ldrb	r3, [r3, #0]
 800052c:	0018      	movs	r0, r3
 800052e:	f000 f811 	bl	8000554 <ST7735_SetRotation>
    ST7735_Unselect();
 8000532:	f7ff fec3 	bl	80002bc <ST7735_Unselect>

}
 8000536:	46c0      	nop			; (mov r8, r8)
 8000538:	46bd      	mov	sp, r7
 800053a:	b002      	add	sp, #8
 800053c:	bd80      	pop	{r7, pc}
 800053e:	46c0      	nop			; (mov r8, r8)
 8000540:	08007324 	.word	0x08007324
 8000544:	0800735c 	.word	0x0800735c
 8000548:	0800736c 	.word	0x0800736c
 800054c:	20000045 	.word	0x20000045
 8000550:	20000046 	.word	0x20000046

08000554 <ST7735_SetRotation>:

void ST7735_SetRotation(uint8_t m)
{
 8000554:	b580      	push	{r7, lr}
 8000556:	b084      	sub	sp, #16
 8000558:	af00      	add	r7, sp, #0
 800055a:	0002      	movs	r2, r0
 800055c:	1dfb      	adds	r3, r7, #7
 800055e:	701a      	strb	r2, [r3, #0]

  uint8_t madctl = 0;
 8000560:	230f      	movs	r3, #15
 8000562:	18fb      	adds	r3, r7, r3
 8000564:	2200      	movs	r2, #0
 8000566:	701a      	strb	r2, [r3, #0]

  rotation = m % 4; // can't be higher than 3
 8000568:	1dfb      	adds	r3, r7, #7
 800056a:	781b      	ldrb	r3, [r3, #0]
 800056c:	2203      	movs	r2, #3
 800056e:	4013      	ands	r3, r2
 8000570:	b2da      	uxtb	r2, r3
 8000572:	4b36      	ldr	r3, [pc, #216]	; (800064c <ST7735_SetRotation+0xf8>)
 8000574:	701a      	strb	r2, [r3, #0]

  switch (rotation)
 8000576:	4b35      	ldr	r3, [pc, #212]	; (800064c <ST7735_SetRotation+0xf8>)
 8000578:	781b      	ldrb	r3, [r3, #0]
 800057a:	2b03      	cmp	r3, #3
 800057c:	d041      	beq.n	8000602 <ST7735_SetRotation+0xae>
 800057e:	dc53      	bgt.n	8000628 <ST7735_SetRotation+0xd4>
 8000580:	2b02      	cmp	r3, #2
 8000582:	d02b      	beq.n	80005dc <ST7735_SetRotation+0x88>
 8000584:	dc50      	bgt.n	8000628 <ST7735_SetRotation+0xd4>
 8000586:	2b00      	cmp	r3, #0
 8000588:	d002      	beq.n	8000590 <ST7735_SetRotation+0x3c>
 800058a:	2b01      	cmp	r3, #1
 800058c:	d013      	beq.n	80005b6 <ST7735_SetRotation+0x62>
 800058e:	e04b      	b.n	8000628 <ST7735_SetRotation+0xd4>
  {
  case 0:
#if ST7735_IS_160X80
	  madctl = ST7735_MADCTL_MX | ST7735_MADCTL_MY | ST7735_MADCTL_BGR;
#else
      madctl = ST7735_MADCTL_MX | ST7735_MADCTL_MY | ST7735_MADCTL_RGB;
 8000590:	230f      	movs	r3, #15
 8000592:	18fb      	adds	r3, r7, r3
 8000594:	22c0      	movs	r2, #192	; 0xc0
 8000596:	701a      	strb	r2, [r3, #0]
      _height = ST7735_HEIGHT;
 8000598:	4b2d      	ldr	r3, [pc, #180]	; (8000650 <ST7735_SetRotation+0xfc>)
 800059a:	22a0      	movs	r2, #160	; 0xa0
 800059c:	801a      	strh	r2, [r3, #0]
      _width = ST7735_WIDTH;
 800059e:	4b2d      	ldr	r3, [pc, #180]	; (8000654 <ST7735_SetRotation+0x100>)
 80005a0:	2280      	movs	r2, #128	; 0x80
 80005a2:	801a      	strh	r2, [r3, #0]
      _xstart = _colstart;
 80005a4:	4b2c      	ldr	r3, [pc, #176]	; (8000658 <ST7735_SetRotation+0x104>)
 80005a6:	781a      	ldrb	r2, [r3, #0]
 80005a8:	4b2c      	ldr	r3, [pc, #176]	; (800065c <ST7735_SetRotation+0x108>)
 80005aa:	701a      	strb	r2, [r3, #0]
      _ystart = _rowstart;
 80005ac:	4b2c      	ldr	r3, [pc, #176]	; (8000660 <ST7735_SetRotation+0x10c>)
 80005ae:	781a      	ldrb	r2, [r3, #0]
 80005b0:	4b2c      	ldr	r3, [pc, #176]	; (8000664 <ST7735_SetRotation+0x110>)
 80005b2:	701a      	strb	r2, [r3, #0]
#endif
    break;
 80005b4:	e038      	b.n	8000628 <ST7735_SetRotation+0xd4>
  case 1:
#if ST7735_IS_160X80
	  madctl = ST7735_MADCTL_MY | ST7735_MADCTL_MV | ST7735_MADCTL_BGR;
#else
      madctl = ST7735_MADCTL_MY | ST7735_MADCTL_MV | ST7735_MADCTL_RGB;
 80005b6:	230f      	movs	r3, #15
 80005b8:	18fb      	adds	r3, r7, r3
 80005ba:	22a0      	movs	r2, #160	; 0xa0
 80005bc:	701a      	strb	r2, [r3, #0]
      _width = ST7735_HEIGHT;
 80005be:	4b25      	ldr	r3, [pc, #148]	; (8000654 <ST7735_SetRotation+0x100>)
 80005c0:	22a0      	movs	r2, #160	; 0xa0
 80005c2:	801a      	strh	r2, [r3, #0]
      _height = ST7735_WIDTH;
 80005c4:	4b22      	ldr	r3, [pc, #136]	; (8000650 <ST7735_SetRotation+0xfc>)
 80005c6:	2280      	movs	r2, #128	; 0x80
 80005c8:	801a      	strh	r2, [r3, #0]
    _ystart = _colstart;
 80005ca:	4b23      	ldr	r3, [pc, #140]	; (8000658 <ST7735_SetRotation+0x104>)
 80005cc:	781a      	ldrb	r2, [r3, #0]
 80005ce:	4b25      	ldr	r3, [pc, #148]	; (8000664 <ST7735_SetRotation+0x110>)
 80005d0:	701a      	strb	r2, [r3, #0]
    _xstart = _rowstart;
 80005d2:	4b23      	ldr	r3, [pc, #140]	; (8000660 <ST7735_SetRotation+0x10c>)
 80005d4:	781a      	ldrb	r2, [r3, #0]
 80005d6:	4b21      	ldr	r3, [pc, #132]	; (800065c <ST7735_SetRotation+0x108>)
 80005d8:	701a      	strb	r2, [r3, #0]
#endif
    break;
 80005da:	e025      	b.n	8000628 <ST7735_SetRotation+0xd4>
  case 2:
#if ST7735_IS_160X80
	  madctl = ST7735_MADCTL_BGR;
#else
      madctl = ST7735_MADCTL_RGB;
 80005dc:	230f      	movs	r3, #15
 80005de:	18fb      	adds	r3, r7, r3
 80005e0:	2200      	movs	r2, #0
 80005e2:	701a      	strb	r2, [r3, #0]
      _height = ST7735_HEIGHT;
 80005e4:	4b1a      	ldr	r3, [pc, #104]	; (8000650 <ST7735_SetRotation+0xfc>)
 80005e6:	22a0      	movs	r2, #160	; 0xa0
 80005e8:	801a      	strh	r2, [r3, #0]
      _width = ST7735_WIDTH;
 80005ea:	4b1a      	ldr	r3, [pc, #104]	; (8000654 <ST7735_SetRotation+0x100>)
 80005ec:	2280      	movs	r2, #128	; 0x80
 80005ee:	801a      	strh	r2, [r3, #0]
    _xstart = _colstart;
 80005f0:	4b19      	ldr	r3, [pc, #100]	; (8000658 <ST7735_SetRotation+0x104>)
 80005f2:	781a      	ldrb	r2, [r3, #0]
 80005f4:	4b19      	ldr	r3, [pc, #100]	; (800065c <ST7735_SetRotation+0x108>)
 80005f6:	701a      	strb	r2, [r3, #0]
    _ystart = _rowstart;
 80005f8:	4b19      	ldr	r3, [pc, #100]	; (8000660 <ST7735_SetRotation+0x10c>)
 80005fa:	781a      	ldrb	r2, [r3, #0]
 80005fc:	4b19      	ldr	r3, [pc, #100]	; (8000664 <ST7735_SetRotation+0x110>)
 80005fe:	701a      	strb	r2, [r3, #0]
#endif
    break;
 8000600:	e012      	b.n	8000628 <ST7735_SetRotation+0xd4>
  case 3:
#if ST7735_IS_160X80
	  madctl = ST7735_MADCTL_MX | ST7735_MADCTL_MV | ST7735_MADCTL_BGR;
#else
      madctl = ST7735_MADCTL_MX | ST7735_MADCTL_MV | ST7735_MADCTL_RGB;
 8000602:	230f      	movs	r3, #15
 8000604:	18fb      	adds	r3, r7, r3
 8000606:	2260      	movs	r2, #96	; 0x60
 8000608:	701a      	strb	r2, [r3, #0]
      _width = ST7735_HEIGHT;
 800060a:	4b12      	ldr	r3, [pc, #72]	; (8000654 <ST7735_SetRotation+0x100>)
 800060c:	22a0      	movs	r2, #160	; 0xa0
 800060e:	801a      	strh	r2, [r3, #0]
      _height = ST7735_WIDTH;
 8000610:	4b0f      	ldr	r3, [pc, #60]	; (8000650 <ST7735_SetRotation+0xfc>)
 8000612:	2280      	movs	r2, #128	; 0x80
 8000614:	801a      	strh	r2, [r3, #0]
    _ystart = _colstart;
 8000616:	4b10      	ldr	r3, [pc, #64]	; (8000658 <ST7735_SetRotation+0x104>)
 8000618:	781a      	ldrb	r2, [r3, #0]
 800061a:	4b12      	ldr	r3, [pc, #72]	; (8000664 <ST7735_SetRotation+0x110>)
 800061c:	701a      	strb	r2, [r3, #0]
    _xstart = _rowstart;
 800061e:	4b10      	ldr	r3, [pc, #64]	; (8000660 <ST7735_SetRotation+0x10c>)
 8000620:	781a      	ldrb	r2, [r3, #0]
 8000622:	4b0e      	ldr	r3, [pc, #56]	; (800065c <ST7735_SetRotation+0x108>)
 8000624:	701a      	strb	r2, [r3, #0]
#endif
    break;
 8000626:	46c0      	nop			; (mov r8, r8)
  }
  ST7735_Select();
 8000628:	f7ff fe3a 	bl	80002a0 <ST7735_Select>
  ST7735_WriteCommand(ST7735_MADCTL);
 800062c:	2036      	movs	r0, #54	; 0x36
 800062e:	f7ff fe6b 	bl	8000308 <ST7735_WriteCommand>
  ST7735_WriteData(&madctl,1);
 8000632:	230f      	movs	r3, #15
 8000634:	18fb      	adds	r3, r7, r3
 8000636:	2101      	movs	r1, #1
 8000638:	0018      	movs	r0, r3
 800063a:	f7ff fe81 	bl	8000340 <ST7735_WriteData>
  ST7735_Unselect();
 800063e:	f7ff fe3d 	bl	80002bc <ST7735_Unselect>
}
 8000642:	46c0      	nop			; (mov r8, r8)
 8000644:	46bd      	mov	sp, r7
 8000646:	b004      	add	sp, #16
 8000648:	bd80      	pop	{r7, pc}
 800064a:	46c0      	nop			; (mov r8, r8)
 800064c:	20000044 	.word	0x20000044
 8000650:	20000042 	.word	0x20000042
 8000654:	20000040 	.word	0x20000040
 8000658:	20000045 	.word	0x20000045
 800065c:	20000047 	.word	0x20000047
 8000660:	20000046 	.word	0x20000046
 8000664:	20000048 	.word	0x20000048

08000668 <ST7735_FillRectangle>:

    ST7735_Unselect();
}

void ST7735_FillRectangle(uint16_t x, uint16_t y, uint16_t w, uint16_t h, uint16_t color)
{
 8000668:	b5b0      	push	{r4, r5, r7, lr}
 800066a:	b084      	sub	sp, #16
 800066c:	af00      	add	r7, sp, #0
 800066e:	0005      	movs	r5, r0
 8000670:	000c      	movs	r4, r1
 8000672:	0010      	movs	r0, r2
 8000674:	0019      	movs	r1, r3
 8000676:	1dbb      	adds	r3, r7, #6
 8000678:	1c2a      	adds	r2, r5, #0
 800067a:	801a      	strh	r2, [r3, #0]
 800067c:	1d3b      	adds	r3, r7, #4
 800067e:	1c22      	adds	r2, r4, #0
 8000680:	801a      	strh	r2, [r3, #0]
 8000682:	1cbb      	adds	r3, r7, #2
 8000684:	1c02      	adds	r2, r0, #0
 8000686:	801a      	strh	r2, [r3, #0]
 8000688:	003b      	movs	r3, r7
 800068a:	1c0a      	adds	r2, r1, #0
 800068c:	801a      	strh	r2, [r3, #0]
    if((x >= _width) || (y >= _height)) return;
 800068e:	1dbb      	adds	r3, r7, #6
 8000690:	881b      	ldrh	r3, [r3, #0]
 8000692:	4a49      	ldr	r2, [pc, #292]	; (80007b8 <ST7735_FillRectangle+0x150>)
 8000694:	2100      	movs	r1, #0
 8000696:	5e52      	ldrsh	r2, [r2, r1]
 8000698:	4293      	cmp	r3, r2
 800069a:	db00      	blt.n	800069e <ST7735_FillRectangle+0x36>
 800069c:	e088      	b.n	80007b0 <ST7735_FillRectangle+0x148>
 800069e:	1d3b      	adds	r3, r7, #4
 80006a0:	881b      	ldrh	r3, [r3, #0]
 80006a2:	4a46      	ldr	r2, [pc, #280]	; (80007bc <ST7735_FillRectangle+0x154>)
 80006a4:	2100      	movs	r1, #0
 80006a6:	5e52      	ldrsh	r2, [r2, r1]
 80006a8:	4293      	cmp	r3, r2
 80006aa:	db00      	blt.n	80006ae <ST7735_FillRectangle+0x46>
 80006ac:	e080      	b.n	80007b0 <ST7735_FillRectangle+0x148>
    if((x + w - 1) >= _width) w = _width - x;
 80006ae:	1dbb      	adds	r3, r7, #6
 80006b0:	881a      	ldrh	r2, [r3, #0]
 80006b2:	1cbb      	adds	r3, r7, #2
 80006b4:	881b      	ldrh	r3, [r3, #0]
 80006b6:	18d3      	adds	r3, r2, r3
 80006b8:	4a3f      	ldr	r2, [pc, #252]	; (80007b8 <ST7735_FillRectangle+0x150>)
 80006ba:	2100      	movs	r1, #0
 80006bc:	5e52      	ldrsh	r2, [r2, r1]
 80006be:	4293      	cmp	r3, r2
 80006c0:	dd08      	ble.n	80006d4 <ST7735_FillRectangle+0x6c>
 80006c2:	4b3d      	ldr	r3, [pc, #244]	; (80007b8 <ST7735_FillRectangle+0x150>)
 80006c4:	2200      	movs	r2, #0
 80006c6:	5e9b      	ldrsh	r3, [r3, r2]
 80006c8:	b299      	uxth	r1, r3
 80006ca:	1cbb      	adds	r3, r7, #2
 80006cc:	1dba      	adds	r2, r7, #6
 80006ce:	8812      	ldrh	r2, [r2, #0]
 80006d0:	1a8a      	subs	r2, r1, r2
 80006d2:	801a      	strh	r2, [r3, #0]
    if((y + h - 1) >= _height) h = _height - y;
 80006d4:	1d3b      	adds	r3, r7, #4
 80006d6:	881a      	ldrh	r2, [r3, #0]
 80006d8:	003b      	movs	r3, r7
 80006da:	881b      	ldrh	r3, [r3, #0]
 80006dc:	18d3      	adds	r3, r2, r3
 80006de:	4a37      	ldr	r2, [pc, #220]	; (80007bc <ST7735_FillRectangle+0x154>)
 80006e0:	2100      	movs	r1, #0
 80006e2:	5e52      	ldrsh	r2, [r2, r1]
 80006e4:	4293      	cmp	r3, r2
 80006e6:	dd08      	ble.n	80006fa <ST7735_FillRectangle+0x92>
 80006e8:	4b34      	ldr	r3, [pc, #208]	; (80007bc <ST7735_FillRectangle+0x154>)
 80006ea:	2200      	movs	r2, #0
 80006ec:	5e9b      	ldrsh	r3, [r3, r2]
 80006ee:	b299      	uxth	r1, r3
 80006f0:	003b      	movs	r3, r7
 80006f2:	1d3a      	adds	r2, r7, #4
 80006f4:	8812      	ldrh	r2, [r2, #0]
 80006f6:	1a8a      	subs	r2, r1, r2
 80006f8:	801a      	strh	r2, [r3, #0]

    ST7735_Select();
 80006fa:	f7ff fdd1 	bl	80002a0 <ST7735_Select>
    ST7735_SetAddressWindow(x, y, x+w-1, y+h-1);
 80006fe:	1dbb      	adds	r3, r7, #6
 8000700:	881b      	ldrh	r3, [r3, #0]
 8000702:	b2d8      	uxtb	r0, r3
 8000704:	1d3b      	adds	r3, r7, #4
 8000706:	881b      	ldrh	r3, [r3, #0]
 8000708:	b2d9      	uxtb	r1, r3
 800070a:	1dbb      	adds	r3, r7, #6
 800070c:	881b      	ldrh	r3, [r3, #0]
 800070e:	b2da      	uxtb	r2, r3
 8000710:	1cbb      	adds	r3, r7, #2
 8000712:	881b      	ldrh	r3, [r3, #0]
 8000714:	b2db      	uxtb	r3, r3
 8000716:	18d3      	adds	r3, r2, r3
 8000718:	b2db      	uxtb	r3, r3
 800071a:	3b01      	subs	r3, #1
 800071c:	b2dc      	uxtb	r4, r3
 800071e:	1d3b      	adds	r3, r7, #4
 8000720:	881b      	ldrh	r3, [r3, #0]
 8000722:	b2da      	uxtb	r2, r3
 8000724:	003b      	movs	r3, r7
 8000726:	881b      	ldrh	r3, [r3, #0]
 8000728:	b2db      	uxtb	r3, r3
 800072a:	18d3      	adds	r3, r2, r3
 800072c:	b2db      	uxtb	r3, r3
 800072e:	3b01      	subs	r3, #1
 8000730:	b2db      	uxtb	r3, r3
 8000732:	0022      	movs	r2, r4
 8000734:	f7ff fe84 	bl	8000440 <ST7735_SetAddressWindow>

    uint8_t data[] = { color >> 8, color & 0xFF };
 8000738:	2120      	movs	r1, #32
 800073a:	187b      	adds	r3, r7, r1
 800073c:	881b      	ldrh	r3, [r3, #0]
 800073e:	0a1b      	lsrs	r3, r3, #8
 8000740:	b29b      	uxth	r3, r3
 8000742:	b2da      	uxtb	r2, r3
 8000744:	200c      	movs	r0, #12
 8000746:	183b      	adds	r3, r7, r0
 8000748:	701a      	strb	r2, [r3, #0]
 800074a:	187b      	adds	r3, r7, r1
 800074c:	881b      	ldrh	r3, [r3, #0]
 800074e:	b2da      	uxtb	r2, r3
 8000750:	183b      	adds	r3, r7, r0
 8000752:	705a      	strb	r2, [r3, #1]
    HAL_GPIO_WritePin(AD_PORT, AD_PIN, GPIO_PIN_SET);
 8000754:	2380      	movs	r3, #128	; 0x80
 8000756:	019b      	lsls	r3, r3, #6
 8000758:	4819      	ldr	r0, [pc, #100]	; (80007c0 <ST7735_FillRectangle+0x158>)
 800075a:	2201      	movs	r2, #1
 800075c:	0019      	movs	r1, r3
 800075e:	f000 ffc3 	bl	80016e8 <HAL_GPIO_WritePin>
    for(y = h; y > 0; y--) {
 8000762:	1d3b      	adds	r3, r7, #4
 8000764:	003a      	movs	r2, r7
 8000766:	8812      	ldrh	r2, [r2, #0]
 8000768:	801a      	strh	r2, [r3, #0]
 800076a:	e01a      	b.n	80007a2 <ST7735_FillRectangle+0x13a>
        for(x = w; x > 0; x--) {
 800076c:	1dbb      	adds	r3, r7, #6
 800076e:	1cba      	adds	r2, r7, #2
 8000770:	8812      	ldrh	r2, [r2, #0]
 8000772:	801a      	strh	r2, [r3, #0]
 8000774:	e00c      	b.n	8000790 <ST7735_FillRectangle+0x128>
            HAL_SPI_Transmit(&ST7735_SPI_PORT, data, sizeof(data), HAL_MAX_DELAY);
 8000776:	2301      	movs	r3, #1
 8000778:	425b      	negs	r3, r3
 800077a:	220c      	movs	r2, #12
 800077c:	18b9      	adds	r1, r7, r2
 800077e:	4811      	ldr	r0, [pc, #68]	; (80007c4 <ST7735_FillRectangle+0x15c>)
 8000780:	2202      	movs	r2, #2
 8000782:	f001 fdb9 	bl	80022f8 <HAL_SPI_Transmit>
        for(x = w; x > 0; x--) {
 8000786:	1dbb      	adds	r3, r7, #6
 8000788:	881a      	ldrh	r2, [r3, #0]
 800078a:	1dbb      	adds	r3, r7, #6
 800078c:	3a01      	subs	r2, #1
 800078e:	801a      	strh	r2, [r3, #0]
 8000790:	1dbb      	adds	r3, r7, #6
 8000792:	881b      	ldrh	r3, [r3, #0]
 8000794:	2b00      	cmp	r3, #0
 8000796:	d1ee      	bne.n	8000776 <ST7735_FillRectangle+0x10e>
    for(y = h; y > 0; y--) {
 8000798:	1d3b      	adds	r3, r7, #4
 800079a:	881a      	ldrh	r2, [r3, #0]
 800079c:	1d3b      	adds	r3, r7, #4
 800079e:	3a01      	subs	r2, #1
 80007a0:	801a      	strh	r2, [r3, #0]
 80007a2:	1d3b      	adds	r3, r7, #4
 80007a4:	881b      	ldrh	r3, [r3, #0]
 80007a6:	2b00      	cmp	r3, #0
 80007a8:	d1e0      	bne.n	800076c <ST7735_FillRectangle+0x104>
        }
    }

    ST7735_Unselect();
 80007aa:	f7ff fd87 	bl	80002bc <ST7735_Unselect>
 80007ae:	e000      	b.n	80007b2 <ST7735_FillRectangle+0x14a>
    if((x >= _width) || (y >= _height)) return;
 80007b0:	46c0      	nop			; (mov r8, r8)
}
 80007b2:	46bd      	mov	sp, r7
 80007b4:	b004      	add	sp, #16
 80007b6:	bdb0      	pop	{r4, r5, r7, pc}
 80007b8:	20000040 	.word	0x20000040
 80007bc:	20000042 	.word	0x20000042
 80007c0:	48000800 	.word	0x48000800
 80007c4:	200000b0 	.word	0x200000b0

080007c8 <ST7735_DrawImage>:

void ST7735_DrawImage(uint16_t x, uint16_t y, uint16_t w, uint16_t h, const uint16_t* data) {
 80007c8:	b5b0      	push	{r4, r5, r7, lr}
 80007ca:	b082      	sub	sp, #8
 80007cc:	af00      	add	r7, sp, #0
 80007ce:	0005      	movs	r5, r0
 80007d0:	000c      	movs	r4, r1
 80007d2:	0010      	movs	r0, r2
 80007d4:	0019      	movs	r1, r3
 80007d6:	1dbb      	adds	r3, r7, #6
 80007d8:	1c2a      	adds	r2, r5, #0
 80007da:	801a      	strh	r2, [r3, #0]
 80007dc:	1d3b      	adds	r3, r7, #4
 80007de:	1c22      	adds	r2, r4, #0
 80007e0:	801a      	strh	r2, [r3, #0]
 80007e2:	1cbb      	adds	r3, r7, #2
 80007e4:	1c02      	adds	r2, r0, #0
 80007e6:	801a      	strh	r2, [r3, #0]
 80007e8:	003b      	movs	r3, r7
 80007ea:	1c0a      	adds	r2, r1, #0
 80007ec:	801a      	strh	r2, [r3, #0]
    if((x >= _width) || (y >= _height)) return;
 80007ee:	1dbb      	adds	r3, r7, #6
 80007f0:	881b      	ldrh	r3, [r3, #0]
 80007f2:	4a2a      	ldr	r2, [pc, #168]	; (800089c <ST7735_DrawImage+0xd4>)
 80007f4:	2100      	movs	r1, #0
 80007f6:	5e52      	ldrsh	r2, [r2, r1]
 80007f8:	4293      	cmp	r3, r2
 80007fa:	da47      	bge.n	800088c <ST7735_DrawImage+0xc4>
 80007fc:	1d3b      	adds	r3, r7, #4
 80007fe:	881b      	ldrh	r3, [r3, #0]
 8000800:	4a27      	ldr	r2, [pc, #156]	; (80008a0 <ST7735_DrawImage+0xd8>)
 8000802:	2100      	movs	r1, #0
 8000804:	5e52      	ldrsh	r2, [r2, r1]
 8000806:	4293      	cmp	r3, r2
 8000808:	da40      	bge.n	800088c <ST7735_DrawImage+0xc4>
    if((x + w - 1) >= _width) return;
 800080a:	1dbb      	adds	r3, r7, #6
 800080c:	881a      	ldrh	r2, [r3, #0]
 800080e:	1cbb      	adds	r3, r7, #2
 8000810:	881b      	ldrh	r3, [r3, #0]
 8000812:	18d3      	adds	r3, r2, r3
 8000814:	4a21      	ldr	r2, [pc, #132]	; (800089c <ST7735_DrawImage+0xd4>)
 8000816:	2100      	movs	r1, #0
 8000818:	5e52      	ldrsh	r2, [r2, r1]
 800081a:	4293      	cmp	r3, r2
 800081c:	dc38      	bgt.n	8000890 <ST7735_DrawImage+0xc8>
    if((y + h - 1) >= _height) return;
 800081e:	1d3b      	adds	r3, r7, #4
 8000820:	881a      	ldrh	r2, [r3, #0]
 8000822:	003b      	movs	r3, r7
 8000824:	881b      	ldrh	r3, [r3, #0]
 8000826:	18d3      	adds	r3, r2, r3
 8000828:	4a1d      	ldr	r2, [pc, #116]	; (80008a0 <ST7735_DrawImage+0xd8>)
 800082a:	2100      	movs	r1, #0
 800082c:	5e52      	ldrsh	r2, [r2, r1]
 800082e:	4293      	cmp	r3, r2
 8000830:	dc30      	bgt.n	8000894 <ST7735_DrawImage+0xcc>

    ST7735_Select();
 8000832:	f7ff fd35 	bl	80002a0 <ST7735_Select>
    ST7735_SetAddressWindow(x, y, x+w-1, y+h-1);
 8000836:	1dbb      	adds	r3, r7, #6
 8000838:	881b      	ldrh	r3, [r3, #0]
 800083a:	b2d8      	uxtb	r0, r3
 800083c:	1d3b      	adds	r3, r7, #4
 800083e:	881b      	ldrh	r3, [r3, #0]
 8000840:	b2d9      	uxtb	r1, r3
 8000842:	1dbb      	adds	r3, r7, #6
 8000844:	881b      	ldrh	r3, [r3, #0]
 8000846:	b2da      	uxtb	r2, r3
 8000848:	1cbb      	adds	r3, r7, #2
 800084a:	881b      	ldrh	r3, [r3, #0]
 800084c:	b2db      	uxtb	r3, r3
 800084e:	18d3      	adds	r3, r2, r3
 8000850:	b2db      	uxtb	r3, r3
 8000852:	3b01      	subs	r3, #1
 8000854:	b2dc      	uxtb	r4, r3
 8000856:	1d3b      	adds	r3, r7, #4
 8000858:	881b      	ldrh	r3, [r3, #0]
 800085a:	b2da      	uxtb	r2, r3
 800085c:	003b      	movs	r3, r7
 800085e:	881b      	ldrh	r3, [r3, #0]
 8000860:	b2db      	uxtb	r3, r3
 8000862:	18d3      	adds	r3, r2, r3
 8000864:	b2db      	uxtb	r3, r3
 8000866:	3b01      	subs	r3, #1
 8000868:	b2db      	uxtb	r3, r3
 800086a:	0022      	movs	r2, r4
 800086c:	f7ff fde8 	bl	8000440 <ST7735_SetAddressWindow>
    ST7735_WriteData((uint8_t*)data, sizeof(uint16_t)*w*h);
 8000870:	1cbb      	adds	r3, r7, #2
 8000872:	881b      	ldrh	r3, [r3, #0]
 8000874:	003a      	movs	r2, r7
 8000876:	8812      	ldrh	r2, [r2, #0]
 8000878:	4353      	muls	r3, r2
 800087a:	005a      	lsls	r2, r3, #1
 800087c:	69bb      	ldr	r3, [r7, #24]
 800087e:	0011      	movs	r1, r2
 8000880:	0018      	movs	r0, r3
 8000882:	f7ff fd5d 	bl	8000340 <ST7735_WriteData>
    ST7735_Unselect();
 8000886:	f7ff fd19 	bl	80002bc <ST7735_Unselect>
 800088a:	e004      	b.n	8000896 <ST7735_DrawImage+0xce>
    if((x >= _width) || (y >= _height)) return;
 800088c:	46c0      	nop			; (mov r8, r8)
 800088e:	e002      	b.n	8000896 <ST7735_DrawImage+0xce>
    if((x + w - 1) >= _width) return;
 8000890:	46c0      	nop			; (mov r8, r8)
 8000892:	e000      	b.n	8000896 <ST7735_DrawImage+0xce>
    if((y + h - 1) >= _height) return;
 8000894:	46c0      	nop			; (mov r8, r8)
}
 8000896:	46bd      	mov	sp, r7
 8000898:	b002      	add	sp, #8
 800089a:	bdb0      	pop	{r4, r5, r7, pc}
 800089c:	20000040 	.word	0x20000040
 80008a0:	20000042 	.word	0x20000042

080008a4 <main>:
/**
  * @brief  The application entry point.
  * @retval int
  */
int main(void)
{
 80008a4:	b580      	push	{r7, lr}
 80008a6:	af00      	add	r7, sp, #0
  /* USER CODE END 1 */

  /* MCU Configuration--------------------------------------------------------*/

  /* Reset of all peripherals, Initializes the Flash interface and the Systick. */
  HAL_Init();
 80008a8:	f000 fc72 	bl	8001190 <HAL_Init>
  /* USER CODE BEGIN Init */

  /* USER CODE END Init */

  /* Configure the system clock */
  SystemClock_Config();
 80008ac:	f000 f822 	bl	80008f4 <SystemClock_Config>
  /* USER CODE BEGIN SysInit */

  /* USER CODE END SysInit */

  /* Initialize all configured peripherals */
  MX_GPIO_Init();
 80008b0:	f000 f92e 	bl	8000b10 <MX_GPIO_Init>
  MX_SPI1_Init();
 80008b4:	f000 f880 	bl	80009b8 <MX_SPI1_Init>
  MX_USART1_UART_Init();
 80008b8:	f000 f8fa 	bl	8000ab0 <MX_USART1_UART_Init>
  MX_FATFS_Init();
 80008bc:	f002 fdc2 	bl	8003444 <MX_FATFS_Init>
  MX_SPI2_Init();
 80008c0:	f000 f8b8 	bl	8000a34 <MX_SPI2_Init>
  /* USER CODE BEGIN 2 */

  ST7735_Init(0);
 80008c4:	2000      	movs	r0, #0
 80008c6:	f7ff fe13 	bl	80004f0 <ST7735_Init>

  fillScreen(BLACK);
 80008ca:	2000      	movs	r0, #0
 80008cc:	f7ff fccc 	bl	8000268 <fillScreen>
  HAL_Delay(500);
 80008d0:	23fa      	movs	r3, #250	; 0xfa
 80008d2:	005b      	lsls	r3, r3, #1
 80008d4:	0018      	movs	r0, r3
 80008d6:	f000 fcbf 	bl	8001258 <HAL_Delay>

  sd_process();
 80008da:	f000 f991 	bl	8000c00 <sd_process>

  HAL_Delay(1000); //a short delay is important to let the SD card settle
 80008de:	23fa      	movs	r3, #250	; 0xfa
 80008e0:	009b      	lsls	r3, r3, #2
 80008e2:	0018      	movs	r0, r3
 80008e4:	f000 fcb8 	bl	8001258 <HAL_Delay>

    /* USER CODE END WHILE */

    /* USER CODE BEGIN 3 */

  	  HAL_Delay(1000);
 80008e8:	23fa      	movs	r3, #250	; 0xfa
 80008ea:	009b      	lsls	r3, r3, #2
 80008ec:	0018      	movs	r0, r3
 80008ee:	f000 fcb3 	bl	8001258 <HAL_Delay>
 80008f2:	e7f9      	b.n	80008e8 <main+0x44>

080008f4 <SystemClock_Config>:
/**
  * @brief System Clock Configuration
  * @retval None
  */
void SystemClock_Config(void)
{
 80008f4:	b590      	push	{r4, r7, lr}
 80008f6:	b095      	sub	sp, #84	; 0x54
 80008f8:	af00      	add	r7, sp, #0
  RCC_OscInitTypeDef RCC_OscInitStruct = {0};
 80008fa:	2420      	movs	r4, #32
 80008fc:	193b      	adds	r3, r7, r4
 80008fe:	0018      	movs	r0, r3
 8000900:	2330      	movs	r3, #48	; 0x30
 8000902:	001a      	movs	r2, r3
 8000904:	2100      	movs	r1, #0
 8000906:	f006 fcab 	bl	8007260 <memset>
  RCC_ClkInitTypeDef RCC_ClkInitStruct = {0};
 800090a:	2310      	movs	r3, #16
 800090c:	18fb      	adds	r3, r7, r3
 800090e:	0018      	movs	r0, r3
 8000910:	2310      	movs	r3, #16
 8000912:	001a      	movs	r2, r3
 8000914:	2100      	movs	r1, #0
 8000916:	f006 fca3 	bl	8007260 <memset>
  RCC_PeriphCLKInitTypeDef PeriphClkInit = {0};
 800091a:	003b      	movs	r3, r7
 800091c:	0018      	movs	r0, r3
 800091e:	2310      	movs	r3, #16
 8000920:	001a      	movs	r2, r3
 8000922:	2100      	movs	r1, #0
 8000924:	f006 fc9c 	bl	8007260 <memset>

  /** Initializes the RCC Oscillators according to the specified parameters
  * in the RCC_OscInitTypeDef structure.
  */
  RCC_OscInitStruct.OscillatorType = RCC_OSCILLATORTYPE_HSI;
 8000928:	0021      	movs	r1, r4
 800092a:	187b      	adds	r3, r7, r1
 800092c:	2202      	movs	r2, #2
 800092e:	601a      	str	r2, [r3, #0]
  RCC_OscInitStruct.HSIState = RCC_HSI_ON;
 8000930:	187b      	adds	r3, r7, r1
 8000932:	2201      	movs	r2, #1
 8000934:	60da      	str	r2, [r3, #12]
  RCC_OscInitStruct.HSICalibrationValue = RCC_HSICALIBRATION_DEFAULT;
 8000936:	187b      	adds	r3, r7, r1
 8000938:	2210      	movs	r2, #16
 800093a:	611a      	str	r2, [r3, #16]
  RCC_OscInitStruct.PLL.PLLState = RCC_PLL_ON;
 800093c:	187b      	adds	r3, r7, r1
 800093e:	2202      	movs	r2, #2
 8000940:	621a      	str	r2, [r3, #32]
  RCC_OscInitStruct.PLL.PLLSource = RCC_PLLSOURCE_HSI;
 8000942:	187b      	adds	r3, r7, r1
 8000944:	2280      	movs	r2, #128	; 0x80
 8000946:	0212      	lsls	r2, r2, #8
 8000948:	625a      	str	r2, [r3, #36]	; 0x24
  RCC_OscInitStruct.PLL.PLLMUL = RCC_PLL_MUL9;
 800094a:	187b      	adds	r3, r7, r1
 800094c:	22e0      	movs	r2, #224	; 0xe0
 800094e:	0352      	lsls	r2, r2, #13
 8000950:	629a      	str	r2, [r3, #40]	; 0x28
  RCC_OscInitStruct.PLL.PREDIV = RCC_PREDIV_DIV2;
 8000952:	187b      	adds	r3, r7, r1
 8000954:	2201      	movs	r2, #1
 8000956:	62da      	str	r2, [r3, #44]	; 0x2c
  if (HAL_RCC_OscConfig(&RCC_OscInitStruct) != HAL_OK)
 8000958:	187b      	adds	r3, r7, r1
 800095a:	0018      	movs	r0, r3
 800095c:	f000 fee2 	bl	8001724 <HAL_RCC_OscConfig>
 8000960:	1e03      	subs	r3, r0, #0
 8000962:	d001      	beq.n	8000968 <SystemClock_Config+0x74>
  {
    Error_Handler();
 8000964:	f000 f946 	bl	8000bf4 <Error_Handler>
  }

  /** Initializes the CPU, AHB and APB buses clocks
  */
  RCC_ClkInitStruct.ClockType = RCC_CLOCKTYPE_HCLK|RCC_CLOCKTYPE_SYSCLK
 8000968:	2110      	movs	r1, #16
 800096a:	187b      	adds	r3, r7, r1
 800096c:	2207      	movs	r2, #7
 800096e:	601a      	str	r2, [r3, #0]
                              |RCC_CLOCKTYPE_PCLK1;
  RCC_ClkInitStruct.SYSCLKSource = RCC_SYSCLKSOURCE_PLLCLK;
 8000970:	187b      	adds	r3, r7, r1
 8000972:	2202      	movs	r2, #2
 8000974:	605a      	str	r2, [r3, #4]
  RCC_ClkInitStruct.AHBCLKDivider = RCC_SYSCLK_DIV1;
 8000976:	187b      	adds	r3, r7, r1
 8000978:	2200      	movs	r2, #0
 800097a:	609a      	str	r2, [r3, #8]
  RCC_ClkInitStruct.APB1CLKDivider = RCC_HCLK_DIV1;
 800097c:	187b      	adds	r3, r7, r1
 800097e:	2200      	movs	r2, #0
 8000980:	60da      	str	r2, [r3, #12]

  if (HAL_RCC_ClockConfig(&RCC_ClkInitStruct, FLASH_LATENCY_1) != HAL_OK)
 8000982:	187b      	adds	r3, r7, r1
 8000984:	2101      	movs	r1, #1
 8000986:	0018      	movs	r0, r3
 8000988:	f001 f9ea 	bl	8001d60 <HAL_RCC_ClockConfig>
 800098c:	1e03      	subs	r3, r0, #0
 800098e:	d001      	beq.n	8000994 <SystemClock_Config+0xa0>
  {
    Error_Handler();
 8000990:	f000 f930 	bl	8000bf4 <Error_Handler>
  }
  PeriphClkInit.PeriphClockSelection = RCC_PERIPHCLK_USART1;
 8000994:	003b      	movs	r3, r7
 8000996:	2201      	movs	r2, #1
 8000998:	601a      	str	r2, [r3, #0]
  PeriphClkInit.Usart1ClockSelection = RCC_USART1CLKSOURCE_PCLK1;
 800099a:	003b      	movs	r3, r7
 800099c:	2200      	movs	r2, #0
 800099e:	609a      	str	r2, [r3, #8]
  if (HAL_RCCEx_PeriphCLKConfig(&PeriphClkInit) != HAL_OK)
 80009a0:	003b      	movs	r3, r7
 80009a2:	0018      	movs	r0, r3
 80009a4:	f001 fb22 	bl	8001fec <HAL_RCCEx_PeriphCLKConfig>
 80009a8:	1e03      	subs	r3, r0, #0
 80009aa:	d001      	beq.n	80009b0 <SystemClock_Config+0xbc>
  {
    Error_Handler();
 80009ac:	f000 f922 	bl	8000bf4 <Error_Handler>
  }
}
 80009b0:	46c0      	nop			; (mov r8, r8)
 80009b2:	46bd      	mov	sp, r7
 80009b4:	b015      	add	sp, #84	; 0x54
 80009b6:	bd90      	pop	{r4, r7, pc}

080009b8 <MX_SPI1_Init>:
  * @brief SPI1 Initialization Function
  * @param None
  * @retval None
  */
static void MX_SPI1_Init(void)
{
 80009b8:	b580      	push	{r7, lr}
 80009ba:	af00      	add	r7, sp, #0

  /* USER CODE BEGIN SPI1_Init 1 */

  /* USER CODE END SPI1_Init 1 */
  /* SPI1 parameter configuration*/
  hspi1.Instance = SPI1;
 80009bc:	4b1b      	ldr	r3, [pc, #108]	; (8000a2c <MX_SPI1_Init+0x74>)
 80009be:	4a1c      	ldr	r2, [pc, #112]	; (8000a30 <MX_SPI1_Init+0x78>)
 80009c0:	601a      	str	r2, [r3, #0]
  hspi1.Init.Mode = SPI_MODE_MASTER;
 80009c2:	4b1a      	ldr	r3, [pc, #104]	; (8000a2c <MX_SPI1_Init+0x74>)
 80009c4:	2282      	movs	r2, #130	; 0x82
 80009c6:	0052      	lsls	r2, r2, #1
 80009c8:	605a      	str	r2, [r3, #4]
  hspi1.Init.Direction = SPI_DIRECTION_2LINES;
 80009ca:	4b18      	ldr	r3, [pc, #96]	; (8000a2c <MX_SPI1_Init+0x74>)
 80009cc:	2200      	movs	r2, #0
 80009ce:	609a      	str	r2, [r3, #8]
  hspi1.Init.DataSize = SPI_DATASIZE_8BIT;
 80009d0:	4b16      	ldr	r3, [pc, #88]	; (8000a2c <MX_SPI1_Init+0x74>)
 80009d2:	22e0      	movs	r2, #224	; 0xe0
 80009d4:	00d2      	lsls	r2, r2, #3
 80009d6:	60da      	str	r2, [r3, #12]
  hspi1.Init.CLKPolarity = SPI_POLARITY_LOW;
 80009d8:	4b14      	ldr	r3, [pc, #80]	; (8000a2c <MX_SPI1_Init+0x74>)
 80009da:	2200      	movs	r2, #0
 80009dc:	611a      	str	r2, [r3, #16]
  hspi1.Init.CLKPhase = SPI_PHASE_1EDGE;
 80009de:	4b13      	ldr	r3, [pc, #76]	; (8000a2c <MX_SPI1_Init+0x74>)
 80009e0:	2200      	movs	r2, #0
 80009e2:	615a      	str	r2, [r3, #20]
  hspi1.Init.NSS = SPI_NSS_SOFT;
 80009e4:	4b11      	ldr	r3, [pc, #68]	; (8000a2c <MX_SPI1_Init+0x74>)
 80009e6:	2280      	movs	r2, #128	; 0x80
 80009e8:	0092      	lsls	r2, r2, #2
 80009ea:	619a      	str	r2, [r3, #24]
  hspi1.Init.BaudRatePrescaler = SPI_BAUDRATEPRESCALER_128;
 80009ec:	4b0f      	ldr	r3, [pc, #60]	; (8000a2c <MX_SPI1_Init+0x74>)
 80009ee:	2230      	movs	r2, #48	; 0x30
 80009f0:	61da      	str	r2, [r3, #28]
  hspi1.Init.FirstBit = SPI_FIRSTBIT_MSB;
 80009f2:	4b0e      	ldr	r3, [pc, #56]	; (8000a2c <MX_SPI1_Init+0x74>)
 80009f4:	2200      	movs	r2, #0
 80009f6:	621a      	str	r2, [r3, #32]
  hspi1.Init.TIMode = SPI_TIMODE_DISABLE;
 80009f8:	4b0c      	ldr	r3, [pc, #48]	; (8000a2c <MX_SPI1_Init+0x74>)
 80009fa:	2200      	movs	r2, #0
 80009fc:	625a      	str	r2, [r3, #36]	; 0x24
  hspi1.Init.CRCCalculation = SPI_CRCCALCULATION_DISABLE;
 80009fe:	4b0b      	ldr	r3, [pc, #44]	; (8000a2c <MX_SPI1_Init+0x74>)
 8000a00:	2200      	movs	r2, #0
 8000a02:	629a      	str	r2, [r3, #40]	; 0x28
  hspi1.Init.CRCPolynomial = 7;
 8000a04:	4b09      	ldr	r3, [pc, #36]	; (8000a2c <MX_SPI1_Init+0x74>)
 8000a06:	2207      	movs	r2, #7
 8000a08:	62da      	str	r2, [r3, #44]	; 0x2c
  hspi1.Init.CRCLength = SPI_CRC_LENGTH_DATASIZE;
 8000a0a:	4b08      	ldr	r3, [pc, #32]	; (8000a2c <MX_SPI1_Init+0x74>)
 8000a0c:	2200      	movs	r2, #0
 8000a0e:	631a      	str	r2, [r3, #48]	; 0x30
  hspi1.Init.NSSPMode = SPI_NSS_PULSE_ENABLE;
 8000a10:	4b06      	ldr	r3, [pc, #24]	; (8000a2c <MX_SPI1_Init+0x74>)
 8000a12:	2208      	movs	r2, #8
 8000a14:	635a      	str	r2, [r3, #52]	; 0x34
  if (HAL_SPI_Init(&hspi1) != HAL_OK)
 8000a16:	4b05      	ldr	r3, [pc, #20]	; (8000a2c <MX_SPI1_Init+0x74>)
 8000a18:	0018      	movs	r0, r3
 8000a1a:	f001 fbb5 	bl	8002188 <HAL_SPI_Init>
 8000a1e:	1e03      	subs	r3, r0, #0
 8000a20:	d001      	beq.n	8000a26 <MX_SPI1_Init+0x6e>
  {
    Error_Handler();
 8000a22:	f000 f8e7 	bl	8000bf4 <Error_Handler>
  }
  /* USER CODE BEGIN SPI1_Init 2 */

  /* USER CODE END SPI1_Init 2 */

}
 8000a26:	46c0      	nop			; (mov r8, r8)
 8000a28:	46bd      	mov	sp, r7
 8000a2a:	bd80      	pop	{r7, pc}
 8000a2c:	2000004c 	.word	0x2000004c
 8000a30:	40013000 	.word	0x40013000

08000a34 <MX_SPI2_Init>:
  * @brief SPI2 Initialization Function
  * @param None
  * @retval None
  */
static void MX_SPI2_Init(void)
{
 8000a34:	b580      	push	{r7, lr}
 8000a36:	af00      	add	r7, sp, #0

  /* USER CODE BEGIN SPI2_Init 1 */

  /* USER CODE END SPI2_Init 1 */
  /* SPI2 parameter configuration*/
  hspi2.Instance = SPI2;
 8000a38:	4b1b      	ldr	r3, [pc, #108]	; (8000aa8 <MX_SPI2_Init+0x74>)
 8000a3a:	4a1c      	ldr	r2, [pc, #112]	; (8000aac <MX_SPI2_Init+0x78>)
 8000a3c:	601a      	str	r2, [r3, #0]
  hspi2.Init.Mode = SPI_MODE_MASTER;
 8000a3e:	4b1a      	ldr	r3, [pc, #104]	; (8000aa8 <MX_SPI2_Init+0x74>)
 8000a40:	2282      	movs	r2, #130	; 0x82
 8000a42:	0052      	lsls	r2, r2, #1
 8000a44:	605a      	str	r2, [r3, #4]
  hspi2.Init.Direction = SPI_DIRECTION_2LINES;
 8000a46:	4b18      	ldr	r3, [pc, #96]	; (8000aa8 <MX_SPI2_Init+0x74>)
 8000a48:	2200      	movs	r2, #0
 8000a4a:	609a      	str	r2, [r3, #8]
  hspi2.Init.DataSize = SPI_DATASIZE_8BIT;
 8000a4c:	4b16      	ldr	r3, [pc, #88]	; (8000aa8 <MX_SPI2_Init+0x74>)
 8000a4e:	22e0      	movs	r2, #224	; 0xe0
 8000a50:	00d2      	lsls	r2, r2, #3
 8000a52:	60da      	str	r2, [r3, #12]
  hspi2.Init.CLKPolarity = SPI_POLARITY_LOW;
 8000a54:	4b14      	ldr	r3, [pc, #80]	; (8000aa8 <MX_SPI2_Init+0x74>)
 8000a56:	2200      	movs	r2, #0
 8000a58:	611a      	str	r2, [r3, #16]
  hspi2.Init.CLKPhase = SPI_PHASE_1EDGE;
 8000a5a:	4b13      	ldr	r3, [pc, #76]	; (8000aa8 <MX_SPI2_Init+0x74>)
 8000a5c:	2200      	movs	r2, #0
 8000a5e:	615a      	str	r2, [r3, #20]
  hspi2.Init.NSS = SPI_NSS_SOFT;
 8000a60:	4b11      	ldr	r3, [pc, #68]	; (8000aa8 <MX_SPI2_Init+0x74>)
 8000a62:	2280      	movs	r2, #128	; 0x80
 8000a64:	0092      	lsls	r2, r2, #2
 8000a66:	619a      	str	r2, [r3, #24]
  hspi2.Init.BaudRatePrescaler = SPI_BAUDRATEPRESCALER_8;
 8000a68:	4b0f      	ldr	r3, [pc, #60]	; (8000aa8 <MX_SPI2_Init+0x74>)
 8000a6a:	2210      	movs	r2, #16
 8000a6c:	61da      	str	r2, [r3, #28]
  hspi2.Init.FirstBit = SPI_FIRSTBIT_MSB;
 8000a6e:	4b0e      	ldr	r3, [pc, #56]	; (8000aa8 <MX_SPI2_Init+0x74>)
 8000a70:	2200      	movs	r2, #0
 8000a72:	621a      	str	r2, [r3, #32]
  hspi2.Init.TIMode = SPI_TIMODE_DISABLE;
 8000a74:	4b0c      	ldr	r3, [pc, #48]	; (8000aa8 <MX_SPI2_Init+0x74>)
 8000a76:	2200      	movs	r2, #0
 8000a78:	625a      	str	r2, [r3, #36]	; 0x24
  hspi2.Init.CRCCalculation = SPI_CRCCALCULATION_DISABLE;
 8000a7a:	4b0b      	ldr	r3, [pc, #44]	; (8000aa8 <MX_SPI2_Init+0x74>)
 8000a7c:	2200      	movs	r2, #0
 8000a7e:	629a      	str	r2, [r3, #40]	; 0x28
  hspi2.Init.CRCPolynomial = 7;
 8000a80:	4b09      	ldr	r3, [pc, #36]	; (8000aa8 <MX_SPI2_Init+0x74>)
 8000a82:	2207      	movs	r2, #7
 8000a84:	62da      	str	r2, [r3, #44]	; 0x2c
  hspi2.Init.CRCLength = SPI_CRC_LENGTH_DATASIZE;
 8000a86:	4b08      	ldr	r3, [pc, #32]	; (8000aa8 <MX_SPI2_Init+0x74>)
 8000a88:	2200      	movs	r2, #0
 8000a8a:	631a      	str	r2, [r3, #48]	; 0x30
  hspi2.Init.NSSPMode = SPI_NSS_PULSE_ENABLE;
 8000a8c:	4b06      	ldr	r3, [pc, #24]	; (8000aa8 <MX_SPI2_Init+0x74>)
 8000a8e:	2208      	movs	r2, #8
 8000a90:	635a      	str	r2, [r3, #52]	; 0x34
  if (HAL_SPI_Init(&hspi2) != HAL_OK)
 8000a92:	4b05      	ldr	r3, [pc, #20]	; (8000aa8 <MX_SPI2_Init+0x74>)
 8000a94:	0018      	movs	r0, r3
 8000a96:	f001 fb77 	bl	8002188 <HAL_SPI_Init>
 8000a9a:	1e03      	subs	r3, r0, #0
 8000a9c:	d001      	beq.n	8000aa2 <MX_SPI2_Init+0x6e>
  {
    Error_Handler();
 8000a9e:	f000 f8a9 	bl	8000bf4 <Error_Handler>
  }
  /* USER CODE BEGIN SPI2_Init 2 */

  /* USER CODE END SPI2_Init 2 */

}
 8000aa2:	46c0      	nop			; (mov r8, r8)
 8000aa4:	46bd      	mov	sp, r7
 8000aa6:	bd80      	pop	{r7, pc}
 8000aa8:	200000b0 	.word	0x200000b0
 8000aac:	40003800 	.word	0x40003800

08000ab0 <MX_USART1_UART_Init>:
  * @brief USART1 Initialization Function
  * @param None
  * @retval None
  */
static void MX_USART1_UART_Init(void)
{
 8000ab0:	b580      	push	{r7, lr}
 8000ab2:	af00      	add	r7, sp, #0
  /* USER CODE END USART1_Init 0 */

  /* USER CODE BEGIN USART1_Init 1 */

  /* USER CODE END USART1_Init 1 */
  huart1.Instance = USART1;
 8000ab4:	4b14      	ldr	r3, [pc, #80]	; (8000b08 <MX_USART1_UART_Init+0x58>)
 8000ab6:	4a15      	ldr	r2, [pc, #84]	; (8000b0c <MX_USART1_UART_Init+0x5c>)
 8000ab8:	601a      	str	r2, [r3, #0]
  huart1.Init.BaudRate = 115200;
 8000aba:	4b13      	ldr	r3, [pc, #76]	; (8000b08 <MX_USART1_UART_Init+0x58>)
 8000abc:	22e1      	movs	r2, #225	; 0xe1
 8000abe:	0252      	lsls	r2, r2, #9
 8000ac0:	605a      	str	r2, [r3, #4]
  huart1.Init.WordLength = UART_WORDLENGTH_8B;
 8000ac2:	4b11      	ldr	r3, [pc, #68]	; (8000b08 <MX_USART1_UART_Init+0x58>)
 8000ac4:	2200      	movs	r2, #0
 8000ac6:	609a      	str	r2, [r3, #8]
  huart1.Init.StopBits = UART_STOPBITS_1;
 8000ac8:	4b0f      	ldr	r3, [pc, #60]	; (8000b08 <MX_USART1_UART_Init+0x58>)
 8000aca:	2200      	movs	r2, #0
 8000acc:	60da      	str	r2, [r3, #12]
  huart1.Init.Parity = UART_PARITY_NONE;
 8000ace:	4b0e      	ldr	r3, [pc, #56]	; (8000b08 <MX_USART1_UART_Init+0x58>)
 8000ad0:	2200      	movs	r2, #0
 8000ad2:	611a      	str	r2, [r3, #16]
  huart1.Init.Mode = UART_MODE_TX_RX;
 8000ad4:	4b0c      	ldr	r3, [pc, #48]	; (8000b08 <MX_USART1_UART_Init+0x58>)
 8000ad6:	220c      	movs	r2, #12
 8000ad8:	615a      	str	r2, [r3, #20]
  huart1.Init.HwFlowCtl = UART_HWCONTROL_NONE;
 8000ada:	4b0b      	ldr	r3, [pc, #44]	; (8000b08 <MX_USART1_UART_Init+0x58>)
 8000adc:	2200      	movs	r2, #0
 8000ade:	619a      	str	r2, [r3, #24]
  huart1.Init.OverSampling = UART_OVERSAMPLING_16;
 8000ae0:	4b09      	ldr	r3, [pc, #36]	; (8000b08 <MX_USART1_UART_Init+0x58>)
 8000ae2:	2200      	movs	r2, #0
 8000ae4:	61da      	str	r2, [r3, #28]
  huart1.Init.OneBitSampling = UART_ONE_BIT_SAMPLE_DISABLE;
 8000ae6:	4b08      	ldr	r3, [pc, #32]	; (8000b08 <MX_USART1_UART_Init+0x58>)
 8000ae8:	2200      	movs	r2, #0
 8000aea:	621a      	str	r2, [r3, #32]
  huart1.AdvancedInit.AdvFeatureInit = UART_ADVFEATURE_NO_INIT;
 8000aec:	4b06      	ldr	r3, [pc, #24]	; (8000b08 <MX_USART1_UART_Init+0x58>)
 8000aee:	2200      	movs	r2, #0
 8000af0:	625a      	str	r2, [r3, #36]	; 0x24
  if (HAL_UART_Init(&huart1) != HAL_OK)
 8000af2:	4b05      	ldr	r3, [pc, #20]	; (8000b08 <MX_USART1_UART_Init+0x58>)
 8000af4:	0018      	movs	r0, r3
 8000af6:	f002 f8b7 	bl	8002c68 <HAL_UART_Init>
 8000afa:	1e03      	subs	r3, r0, #0
 8000afc:	d001      	beq.n	8000b02 <MX_USART1_UART_Init+0x52>
  {
    Error_Handler();
 8000afe:	f000 f879 	bl	8000bf4 <Error_Handler>
  }
  /* USER CODE BEGIN USART1_Init 2 */

  /* USER CODE END USART1_Init 2 */

}
 8000b02:	46c0      	nop			; (mov r8, r8)
 8000b04:	46bd      	mov	sp, r7
 8000b06:	bd80      	pop	{r7, pc}
 8000b08:	20000114 	.word	0x20000114
 8000b0c:	40013800 	.word	0x40013800

08000b10 <MX_GPIO_Init>:
  * @brief GPIO Initialization Function
  * @param None
  * @retval None
  */
static void MX_GPIO_Init(void)
{
 8000b10:	b590      	push	{r4, r7, lr}
 8000b12:	b089      	sub	sp, #36	; 0x24
 8000b14:	af00      	add	r7, sp, #0
  GPIO_InitTypeDef GPIO_InitStruct = {0};
 8000b16:	240c      	movs	r4, #12
 8000b18:	193b      	adds	r3, r7, r4
 8000b1a:	0018      	movs	r0, r3
 8000b1c:	2314      	movs	r3, #20
 8000b1e:	001a      	movs	r2, r3
 8000b20:	2100      	movs	r1, #0
 8000b22:	f006 fb9d 	bl	8007260 <memset>
/* USER CODE BEGIN MX_GPIO_Init_1 */
/* USER CODE END MX_GPIO_Init_1 */

  /* GPIO Ports Clock Enable */
  __HAL_RCC_GPIOC_CLK_ENABLE();
 8000b26:	4b30      	ldr	r3, [pc, #192]	; (8000be8 <MX_GPIO_Init+0xd8>)
 8000b28:	695a      	ldr	r2, [r3, #20]
 8000b2a:	4b2f      	ldr	r3, [pc, #188]	; (8000be8 <MX_GPIO_Init+0xd8>)
 8000b2c:	2180      	movs	r1, #128	; 0x80
 8000b2e:	0309      	lsls	r1, r1, #12
 8000b30:	430a      	orrs	r2, r1
 8000b32:	615a      	str	r2, [r3, #20]
 8000b34:	4b2c      	ldr	r3, [pc, #176]	; (8000be8 <MX_GPIO_Init+0xd8>)
 8000b36:	695a      	ldr	r2, [r3, #20]
 8000b38:	2380      	movs	r3, #128	; 0x80
 8000b3a:	031b      	lsls	r3, r3, #12
 8000b3c:	4013      	ands	r3, r2
 8000b3e:	60bb      	str	r3, [r7, #8]
 8000b40:	68bb      	ldr	r3, [r7, #8]
  __HAL_RCC_GPIOA_CLK_ENABLE();
 8000b42:	4b29      	ldr	r3, [pc, #164]	; (8000be8 <MX_GPIO_Init+0xd8>)
 8000b44:	695a      	ldr	r2, [r3, #20]
 8000b46:	4b28      	ldr	r3, [pc, #160]	; (8000be8 <MX_GPIO_Init+0xd8>)
 8000b48:	2180      	movs	r1, #128	; 0x80
 8000b4a:	0289      	lsls	r1, r1, #10
 8000b4c:	430a      	orrs	r2, r1
 8000b4e:	615a      	str	r2, [r3, #20]
 8000b50:	4b25      	ldr	r3, [pc, #148]	; (8000be8 <MX_GPIO_Init+0xd8>)
 8000b52:	695a      	ldr	r2, [r3, #20]
 8000b54:	2380      	movs	r3, #128	; 0x80
 8000b56:	029b      	lsls	r3, r3, #10
 8000b58:	4013      	ands	r3, r2
 8000b5a:	607b      	str	r3, [r7, #4]
 8000b5c:	687b      	ldr	r3, [r7, #4]
  __HAL_RCC_GPIOB_CLK_ENABLE();
 8000b5e:	4b22      	ldr	r3, [pc, #136]	; (8000be8 <MX_GPIO_Init+0xd8>)
 8000b60:	695a      	ldr	r2, [r3, #20]
 8000b62:	4b21      	ldr	r3, [pc, #132]	; (8000be8 <MX_GPIO_Init+0xd8>)
 8000b64:	2180      	movs	r1, #128	; 0x80
 8000b66:	02c9      	lsls	r1, r1, #11
 8000b68:	430a      	orrs	r2, r1
 8000b6a:	615a      	str	r2, [r3, #20]
 8000b6c:	4b1e      	ldr	r3, [pc, #120]	; (8000be8 <MX_GPIO_Init+0xd8>)
 8000b6e:	695a      	ldr	r2, [r3, #20]
 8000b70:	2380      	movs	r3, #128	; 0x80
 8000b72:	02db      	lsls	r3, r3, #11
 8000b74:	4013      	ands	r3, r2
 8000b76:	603b      	str	r3, [r7, #0]
 8000b78:	683b      	ldr	r3, [r7, #0]

  /*Configure GPIO pin Output Level */
  HAL_GPIO_WritePin(GPIOC, ST7735_AD_Pin|ST7735_CS_Pin|ST7735_RESET_Pin, GPIO_PIN_RESET);
 8000b7a:	23e0      	movs	r3, #224	; 0xe0
 8000b7c:	021b      	lsls	r3, r3, #8
 8000b7e:	481b      	ldr	r0, [pc, #108]	; (8000bec <MX_GPIO_Init+0xdc>)
 8000b80:	2200      	movs	r2, #0
 8000b82:	0019      	movs	r1, r3
 8000b84:	f000 fdb0 	bl	80016e8 <HAL_GPIO_WritePin>

  /*Configure GPIO pin Output Level */
  HAL_GPIO_WritePin(SD_CS_GPIO_Port, SD_CS_Pin, GPIO_PIN_RESET);
 8000b88:	4b19      	ldr	r3, [pc, #100]	; (8000bf0 <MX_GPIO_Init+0xe0>)
 8000b8a:	2200      	movs	r2, #0
 8000b8c:	2102      	movs	r1, #2
 8000b8e:	0018      	movs	r0, r3
 8000b90:	f000 fdaa 	bl	80016e8 <HAL_GPIO_WritePin>

  /*Configure GPIO pins : ST7735_AD_Pin ST7735_CS_Pin ST7735_RESET_Pin */
  GPIO_InitStruct.Pin = ST7735_AD_Pin|ST7735_CS_Pin|ST7735_RESET_Pin;
 8000b94:	193b      	adds	r3, r7, r4
 8000b96:	22e0      	movs	r2, #224	; 0xe0
 8000b98:	0212      	lsls	r2, r2, #8
 8000b9a:	601a      	str	r2, [r3, #0]
  GPIO_InitStruct.Mode = GPIO_MODE_OUTPUT_PP;
 8000b9c:	193b      	adds	r3, r7, r4
 8000b9e:	2201      	movs	r2, #1
 8000ba0:	605a      	str	r2, [r3, #4]
  GPIO_InitStruct.Pull = GPIO_NOPULL;
 8000ba2:	193b      	adds	r3, r7, r4
 8000ba4:	2200      	movs	r2, #0
 8000ba6:	609a      	str	r2, [r3, #8]
  GPIO_InitStruct.Speed = GPIO_SPEED_FREQ_LOW;
 8000ba8:	193b      	adds	r3, r7, r4
 8000baa:	2200      	movs	r2, #0
 8000bac:	60da      	str	r2, [r3, #12]
  HAL_GPIO_Init(GPIOC, &GPIO_InitStruct);
 8000bae:	193b      	adds	r3, r7, r4
 8000bb0:	4a0e      	ldr	r2, [pc, #56]	; (8000bec <MX_GPIO_Init+0xdc>)
 8000bb2:	0019      	movs	r1, r3
 8000bb4:	0010      	movs	r0, r2
 8000bb6:	f000 fc27 	bl	8001408 <HAL_GPIO_Init>

  /*Configure GPIO pin : SD_CS_Pin */
  GPIO_InitStruct.Pin = SD_CS_Pin;
 8000bba:	0021      	movs	r1, r4
 8000bbc:	187b      	adds	r3, r7, r1
 8000bbe:	2202      	movs	r2, #2
 8000bc0:	601a      	str	r2, [r3, #0]
  GPIO_InitStruct.Mode = GPIO_MODE_OUTPUT_PP;
 8000bc2:	187b      	adds	r3, r7, r1
 8000bc4:	2201      	movs	r2, #1
 8000bc6:	605a      	str	r2, [r3, #4]
  GPIO_InitStruct.Pull = GPIO_NOPULL;
 8000bc8:	187b      	adds	r3, r7, r1
 8000bca:	2200      	movs	r2, #0
 8000bcc:	609a      	str	r2, [r3, #8]
  GPIO_InitStruct.Speed = GPIO_SPEED_FREQ_LOW;
 8000bce:	187b      	adds	r3, r7, r1
 8000bd0:	2200      	movs	r2, #0
 8000bd2:	60da      	str	r2, [r3, #12]
  HAL_GPIO_Init(SD_CS_GPIO_Port, &GPIO_InitStruct);
 8000bd4:	187b      	adds	r3, r7, r1
 8000bd6:	4a06      	ldr	r2, [pc, #24]	; (8000bf0 <MX_GPIO_Init+0xe0>)
 8000bd8:	0019      	movs	r1, r3
 8000bda:	0010      	movs	r0, r2
 8000bdc:	f000 fc14 	bl	8001408 <HAL_GPIO_Init>

/* USER CODE BEGIN MX_GPIO_Init_2 */
/* USER CODE END MX_GPIO_Init_2 */
}
 8000be0:	46c0      	nop			; (mov r8, r8)
 8000be2:	46bd      	mov	sp, r7
 8000be4:	b009      	add	sp, #36	; 0x24
 8000be6:	bd90      	pop	{r4, r7, pc}
 8000be8:	40021000 	.word	0x40021000
 8000bec:	48000800 	.word	0x48000800
 8000bf0:	48000400 	.word	0x48000400

08000bf4 <Error_Handler>:
/**
  * @brief  This function is executed in case of error occurrence.
  * @retval None
  */
void Error_Handler(void)
{
 8000bf4:	b580      	push	{r7, lr}
 8000bf6:	af00      	add	r7, sp, #0
  \details Disables IRQ interrupts by setting the I-bit in the CPSR.
           Can only be executed in Privileged modes.
 */
__STATIC_FORCEINLINE void __disable_irq(void)
{
  __ASM volatile ("cpsid i" : : : "memory");
 8000bf8:	b672      	cpsid	i
}
 8000bfa:	46c0      	nop			; (mov r8, r8)
  /* USER CODE BEGIN Error_Handler_Debug */
  /* User can add his own implementation to report the HAL error return state */
  __disable_irq();
  while (1)
 8000bfc:	e7fe      	b.n	8000bfc <Error_Handler+0x8>
	...

08000c00 <sd_process>:
FIL fil; 			//File handle
FRESULT fres; 		//Result after operations


void sd_process(void)
{
 8000c00:	b580      	push	{r7, lr}
 8000c02:	af00      	add	r7, sp, #0

	ST7735_SetRotation(0); // (wd = 160 ; x_start = 0)  and (ht = 128 ; y_start = 0)
 8000c04:	2000      	movs	r0, #0
 8000c06:	f7ff fca5 	bl	8000554 <ST7735_SetRotation>
	HAL_Delay(1000);
 8000c0a:	23fa      	movs	r3, #250	; 0xfa
 8000c0c:	009b      	lsls	r3, r3, #2
 8000c0e:	0018      	movs	r0, r3
 8000c10:	f000 fb22 	bl	8001258 <HAL_Delay>
	fillScreen(BLACK);
 8000c14:	2000      	movs	r0, #0
 8000c16:	f7ff fb27 	bl	8000268 <fillScreen>

	//Open the file system
	fres = f_mount(&FatFs, "", 1); // 1 = mount now
 8000c1a:	490c      	ldr	r1, [pc, #48]	; (8000c4c <sd_process+0x4c>)
 8000c1c:	4b0c      	ldr	r3, [pc, #48]	; (8000c50 <sd_process+0x50>)
 8000c1e:	2201      	movs	r2, #1
 8000c20:	0018      	movs	r0, r3
 8000c22:	f005 fa91 	bl	8006148 <f_mount>
 8000c26:	0003      	movs	r3, r0
 8000c28:	001a      	movs	r2, r3
 8000c2a:	4b0a      	ldr	r3, [pc, #40]	; (8000c54 <sd_process+0x54>)
 8000c2c:	701a      	strb	r2, [r3, #0]
	if(fres != FR_OK)
 8000c2e:	4b09      	ldr	r3, [pc, #36]	; (8000c54 <sd_process+0x54>)
 8000c30:	781b      	ldrb	r3, [r3, #0]
 8000c32:	2b00      	cmp	r3, #0
 8000c34:	d002      	beq.n	8000c3c <sd_process+0x3c>
		ferror_handler(ERROR_0_MOUNT);
 8000c36:	2000      	movs	r0, #0
 8000c38:	f000 f935 	bl	8000ea6 <ferror_handler>

	showImageBmp(FILE_NAME);
 8000c3c:	4b06      	ldr	r3, [pc, #24]	; (8000c58 <sd_process+0x58>)
 8000c3e:	0018      	movs	r0, r3
 8000c40:	f000 f80c 	bl	8000c5c <showImageBmp>

}
 8000c44:	46c0      	nop			; (mov r8, r8)
 8000c46:	46bd      	mov	sp, r7
 8000c48:	bd80      	pop	{r7, pc}
 8000c4a:	46c0      	nop			; (mov r8, r8)
 8000c4c:	080072d0 	.word	0x080072d0
 8000c50:	2000019c 	.word	0x2000019c
 8000c54:	200005f8 	.word	0x200005f8
 8000c58:	080072d4 	.word	0x080072d4

08000c5c <showImageBmp>:
// x,y - start x,y on the screen
// wd,ht - width, height of the video (raw data has no header with such info)
// nl - num lines read in one operation (nl*wd*2 bytes are loaded)
// skipFr - num frames to skip
void showImageBmp(char *name)
{
 8000c5c:	b590      	push	{r4, r7, lr}
 8000c5e:	4c50      	ldr	r4, [pc, #320]	; (8000da0 <showImageBmp+0x144>)
 8000c60:	44a5      	add	sp, r4
 8000c62:	af02      	add	r7, sp, #8
 8000c64:	6078      	str	r0, [r7, #4]
	uint8_t buf[MAX_BUFF_RAM];			// RAM buffer
	doubleFormat pBuf;
	UINT byteRead;						// Number of bytes elaborated at time


	pBuf.u8Arr = buf;					// Pointer to buf in order to convert format from uint8_t to uint16_t
 8000c66:	2310      	movs	r3, #16
 8000c68:	18fb      	adds	r3, r7, r3
 8000c6a:	60fb      	str	r3, [r7, #12]

	fres = f_open(&fil, name, FA_READ);
 8000c6c:	6879      	ldr	r1, [r7, #4]
 8000c6e:	4b4d      	ldr	r3, [pc, #308]	; (8000da4 <showImageBmp+0x148>)
 8000c70:	2201      	movs	r2, #1
 8000c72:	0018      	movs	r0, r3
 8000c74:	f005 fab8 	bl	80061e8 <f_open>
 8000c78:	0003      	movs	r3, r0
 8000c7a:	001a      	movs	r2, r3
 8000c7c:	4b4a      	ldr	r3, [pc, #296]	; (8000da8 <showImageBmp+0x14c>)
 8000c7e:	701a      	strb	r2, [r3, #0]
	if(fres != FR_OK)
 8000c80:	4b49      	ldr	r3, [pc, #292]	; (8000da8 <showImageBmp+0x14c>)
 8000c82:	781b      	ldrb	r3, [r3, #0]
 8000c84:	2b00      	cmp	r3, #0
 8000c86:	d002      	beq.n	8000c8e <showImageBmp+0x32>
		ferror_handler(ERROR_1_OPEN);
 8000c88:	2001      	movs	r0, #1
 8000c8a:	f000 f90c 	bl	8000ea6 <ferror_handler>

	// Point to the initial position
	f_rewind(&fil);
 8000c8e:	4b45      	ldr	r3, [pc, #276]	; (8000da4 <showImageBmp+0x148>)
 8000c90:	2100      	movs	r1, #0
 8000c92:	0018      	movs	r0, r3
 8000c94:	f005 ffd4 	bl	8006c40 <f_lseek>

	while(!f_eof(&fil))
 8000c98:	e06b      	b.n	8000d72 <showImageBmp+0x116>
	{

		// Skip header file
		f_lseek(&fil, fil.fptr + FILE_HEADER);
 8000c9a:	4a42      	ldr	r2, [pc, #264]	; (8000da4 <showImageBmp+0x148>)
 8000c9c:	2382      	movs	r3, #130	; 0x82
 8000c9e:	009b      	lsls	r3, r3, #2
 8000ca0:	58d3      	ldr	r3, [r2, r3]
 8000ca2:	3336      	adds	r3, #54	; 0x36
 8000ca4:	001a      	movs	r2, r3
 8000ca6:	4b3f      	ldr	r3, [pc, #252]	; (8000da4 <showImageBmp+0x148>)
 8000ca8:	0011      	movs	r1, r2
 8000caa:	0018      	movs	r0, r3
 8000cac:	f005 ffc8 	bl	8006c40 <f_lseek>

		for(int i = 0 ; i < ( FRAME_DIM_HT / FRAME_DIV_FACTOR ) ; i++)
 8000cb0:	2300      	movs	r3, #0
 8000cb2:	4a3e      	ldr	r2, [pc, #248]	; (8000dac <showImageBmp+0x150>)
 8000cb4:	18ba      	adds	r2, r7, r2
 8000cb6:	6013      	str	r3, [r2, #0]
 8000cb8:	e056      	b.n	8000d68 <showImageBmp+0x10c>
		{

			//HAL_Delay(10);

			memset(buf, 0, MAX_BUFF_RAM);
 8000cba:	4a3d      	ldr	r2, [pc, #244]	; (8000db0 <showImageBmp+0x154>)
 8000cbc:	2410      	movs	r4, #16
 8000cbe:	193b      	adds	r3, r7, r4
 8000cc0:	2100      	movs	r1, #0
 8000cc2:	0018      	movs	r0, r3
 8000cc4:	f006 facc 	bl	8007260 <memset>
			fres = f_read(&fil, buf, FRAME_SECTION_BYTE_SIZE, &byteRead);
 8000cc8:	2308      	movs	r3, #8
 8000cca:	18fb      	adds	r3, r7, r3
 8000ccc:	4a39      	ldr	r2, [pc, #228]	; (8000db4 <showImageBmp+0x158>)
 8000cce:	1939      	adds	r1, r7, r4
 8000cd0:	4834      	ldr	r0, [pc, #208]	; (8000da4 <showImageBmp+0x148>)
 8000cd2:	f005 fd0d 	bl	80066f0 <f_read>
 8000cd6:	0003      	movs	r3, r0
 8000cd8:	001a      	movs	r2, r3
 8000cda:	4b33      	ldr	r3, [pc, #204]	; (8000da8 <showImageBmp+0x14c>)
 8000cdc:	701a      	strb	r2, [r3, #0]

			if(fres != FR_OK)
 8000cde:	4b32      	ldr	r3, [pc, #200]	; (8000da8 <showImageBmp+0x14c>)
 8000ce0:	781b      	ldrb	r3, [r3, #0]
 8000ce2:	2b00      	cmp	r3, #0
 8000ce4:	d002      	beq.n	8000cec <showImageBmp+0x90>
				ferror_handler(ERROR_2_READ);
 8000ce6:	2002      	movs	r0, #2
 8000ce8:	f000 f8dd 	bl	8000ea6 <ferror_handler>

			if(byteRead != FRAME_SECTION_BYTE_SIZE)
 8000cec:	68bb      	ldr	r3, [r7, #8]
 8000cee:	4a31      	ldr	r2, [pc, #196]	; (8000db4 <showImageBmp+0x158>)
 8000cf0:	4293      	cmp	r3, r2
 8000cf2:	d002      	beq.n	8000cfa <showImageBmp+0x9e>
				ferror_handler(ERROR_3_READ);
 8000cf4:	2003      	movs	r0, #3
 8000cf6:	f000 f8d6 	bl	8000ea6 <ferror_handler>

			if(COLOUR_DEPTH == 24)
				depth24To16(&pBuf, FRAME_SECTION_PXL_SIZE);
 8000cfa:	23fa      	movs	r3, #250	; 0xfa
 8000cfc:	00da      	lsls	r2, r3, #3
 8000cfe:	230c      	movs	r3, #12
 8000d00:	18fb      	adds	r3, r7, r3
 8000d02:	0011      	movs	r1, r2
 8000d04:	0018      	movs	r0, r3
 8000d06:	f000 f85b 	bl	8000dc0 <depth24To16>

			for(int j = 0 ; j < FRAME_DIV_FACTOR ;j++)
 8000d0a:	2300      	movs	r3, #0
 8000d0c:	4a2a      	ldr	r2, [pc, #168]	; (8000db8 <showImageBmp+0x15c>)
 8000d0e:	18ba      	adds	r2, r7, r2
 8000d10:	6013      	str	r3, [r2, #0]
 8000d12:	e01e      	b.n	8000d52 <showImageBmp+0xf6>
				ST7735_DrawImage(0, ( ( i * FRAME_DIV_FACTOR ) + j ), FRAME_DIM_WD, 1, ( &pBuf.u16Arr[( j * FRAME_DIM_WD )] ));
 8000d14:	4b25      	ldr	r3, [pc, #148]	; (8000dac <showImageBmp+0x150>)
 8000d16:	18fb      	adds	r3, r7, r3
 8000d18:	681b      	ldr	r3, [r3, #0]
 8000d1a:	b29b      	uxth	r3, r3
 8000d1c:	2214      	movs	r2, #20
 8000d1e:	4353      	muls	r3, r2
 8000d20:	b29a      	uxth	r2, r3
 8000d22:	4825      	ldr	r0, [pc, #148]	; (8000db8 <showImageBmp+0x15c>)
 8000d24:	183b      	adds	r3, r7, r0
 8000d26:	681b      	ldr	r3, [r3, #0]
 8000d28:	b29b      	uxth	r3, r3
 8000d2a:	18d3      	adds	r3, r2, r3
 8000d2c:	b299      	uxth	r1, r3
 8000d2e:	68fa      	ldr	r2, [r7, #12]
 8000d30:	0004      	movs	r4, r0
 8000d32:	183b      	adds	r3, r7, r0
 8000d34:	681b      	ldr	r3, [r3, #0]
 8000d36:	20c8      	movs	r0, #200	; 0xc8
 8000d38:	4343      	muls	r3, r0
 8000d3a:	18d3      	adds	r3, r2, r3
 8000d3c:	9300      	str	r3, [sp, #0]
 8000d3e:	2301      	movs	r3, #1
 8000d40:	2264      	movs	r2, #100	; 0x64
 8000d42:	2000      	movs	r0, #0
 8000d44:	f7ff fd40 	bl	80007c8 <ST7735_DrawImage>
			for(int j = 0 ; j < FRAME_DIV_FACTOR ;j++)
 8000d48:	193b      	adds	r3, r7, r4
 8000d4a:	681b      	ldr	r3, [r3, #0]
 8000d4c:	3301      	adds	r3, #1
 8000d4e:	193a      	adds	r2, r7, r4
 8000d50:	6013      	str	r3, [r2, #0]
 8000d52:	4b19      	ldr	r3, [pc, #100]	; (8000db8 <showImageBmp+0x15c>)
 8000d54:	18fb      	adds	r3, r7, r3
 8000d56:	681b      	ldr	r3, [r3, #0]
 8000d58:	2b13      	cmp	r3, #19
 8000d5a:	dddb      	ble.n	8000d14 <showImageBmp+0xb8>
		for(int i = 0 ; i < ( FRAME_DIM_HT / FRAME_DIV_FACTOR ) ; i++)
 8000d5c:	4a13      	ldr	r2, [pc, #76]	; (8000dac <showImageBmp+0x150>)
 8000d5e:	18bb      	adds	r3, r7, r2
 8000d60:	681b      	ldr	r3, [r3, #0]
 8000d62:	3301      	adds	r3, #1
 8000d64:	18ba      	adds	r2, r7, r2
 8000d66:	6013      	str	r3, [r2, #0]
 8000d68:	4b10      	ldr	r3, [pc, #64]	; (8000dac <showImageBmp+0x150>)
 8000d6a:	18fb      	adds	r3, r7, r3
 8000d6c:	681b      	ldr	r3, [r3, #0]
 8000d6e:	2b04      	cmp	r3, #4
 8000d70:	dda3      	ble.n	8000cba <showImageBmp+0x5e>
	while(!f_eof(&fil))
 8000d72:	4a0c      	ldr	r2, [pc, #48]	; (8000da4 <showImageBmp+0x148>)
 8000d74:	2382      	movs	r3, #130	; 0x82
 8000d76:	009b      	lsls	r3, r3, #2
 8000d78:	58d2      	ldr	r2, [r2, r3]
 8000d7a:	490a      	ldr	r1, [pc, #40]	; (8000da4 <showImageBmp+0x148>)
 8000d7c:	2383      	movs	r3, #131	; 0x83
 8000d7e:	009b      	lsls	r3, r3, #2
 8000d80:	58cb      	ldr	r3, [r1, r3]
 8000d82:	429a      	cmp	r2, r3
 8000d84:	d189      	bne.n	8000c9a <showImageBmp+0x3e>
		if(FRAME_SKIP_FACTOR > 0)
			f_lseek(&fil, fil.fptr + ( FRAME_TOTAL_BYTE_SIZE * FRAME_SKIP_FACTOR ));

	}

	HAL_Delay(10);
 8000d86:	200a      	movs	r0, #10
 8000d88:	f000 fa66 	bl	8001258 <HAL_Delay>

	f_close(&fil);
 8000d8c:	4b05      	ldr	r3, [pc, #20]	; (8000da4 <showImageBmp+0x148>)
 8000d8e:	0018      	movs	r0, r3
 8000d90:	f005 ff1e 	bl	8006bd0 <f_close>

}
 8000d94:	46c0      	nop			; (mov r8, r8)
 8000d96:	46bd      	mov	sp, r7
 8000d98:	4b08      	ldr	r3, [pc, #32]	; (8000dbc <showImageBmp+0x160>)
 8000d9a:	449d      	add	sp, r3
 8000d9c:	bd90      	pop	{r4, r7, pc}
 8000d9e:	46c0      	nop			; (mov r8, r8)
 8000da0:	ffffe7a4 	.word	0xffffe7a4
 8000da4:	200003cc 	.word	0x200003cc
 8000da8:	200005f8 	.word	0x200005f8
 8000dac:	0000184c 	.word	0x0000184c
 8000db0:	00001838 	.word	0x00001838
 8000db4:	00001770 	.word	0x00001770
 8000db8:	00001848 	.word	0x00001848
 8000dbc:	00001854 	.word	0x00001854

08000dc0 <depth24To16>:


static void depth24To16(doubleFormat *pxArr, uint16_t length)
{
 8000dc0:	b590      	push	{r4, r7, lr}
 8000dc2:	b085      	sub	sp, #20
 8000dc4:	af00      	add	r7, sp, #0
 8000dc6:	6078      	str	r0, [r7, #4]
 8000dc8:	000a      	movs	r2, r1
 8000dca:	1cbb      	adds	r3, r7, #2
 8000dcc:	801a      	strh	r2, [r3, #0]
	uint8_t b;
	uint8_t g;
	uint8_t r;


	for(int i = 0 ; i < length ; i++)
 8000dce:	2300      	movs	r3, #0
 8000dd0:	60fb      	str	r3, [r7, #12]
 8000dd2:	e05e      	b.n	8000e92 <depth24To16+0xd2>
	{

		b = pxArr->u8Arr[i*BYTE_PER_PXL];
 8000dd4:	687b      	ldr	r3, [r7, #4]
 8000dd6:	6819      	ldr	r1, [r3, #0]
 8000dd8:	68fa      	ldr	r2, [r7, #12]
 8000dda:	0013      	movs	r3, r2
 8000ddc:	005b      	lsls	r3, r3, #1
 8000dde:	189b      	adds	r3, r3, r2
 8000de0:	18ca      	adds	r2, r1, r3
 8000de2:	200b      	movs	r0, #11
 8000de4:	183b      	adds	r3, r7, r0
 8000de6:	7812      	ldrb	r2, [r2, #0]
 8000de8:	701a      	strb	r2, [r3, #0]
		g = pxArr->u8Arr[i*BYTE_PER_PXL+1];
 8000dea:	687b      	ldr	r3, [r7, #4]
 8000dec:	6819      	ldr	r1, [r3, #0]
 8000dee:	68fa      	ldr	r2, [r7, #12]
 8000df0:	0013      	movs	r3, r2
 8000df2:	005b      	lsls	r3, r3, #1
 8000df4:	189b      	adds	r3, r3, r2
 8000df6:	3301      	adds	r3, #1
 8000df8:	18ca      	adds	r2, r1, r3
 8000dfa:	240a      	movs	r4, #10
 8000dfc:	193b      	adds	r3, r7, r4
 8000dfe:	7812      	ldrb	r2, [r2, #0]
 8000e00:	701a      	strb	r2, [r3, #0]
		r = pxArr->u8Arr[i*BYTE_PER_PXL+2];
 8000e02:	687b      	ldr	r3, [r7, #4]
 8000e04:	6819      	ldr	r1, [r3, #0]
 8000e06:	68fa      	ldr	r2, [r7, #12]
 8000e08:	0013      	movs	r3, r2
 8000e0a:	005b      	lsls	r3, r3, #1
 8000e0c:	189b      	adds	r3, r3, r2
 8000e0e:	3302      	adds	r3, #2
 8000e10:	18ca      	adds	r2, r1, r3
 8000e12:	2109      	movs	r1, #9
 8000e14:	187b      	adds	r3, r7, r1
 8000e16:	7812      	ldrb	r2, [r2, #0]
 8000e18:	701a      	strb	r2, [r3, #0]

		pxArr->u16Arr[i] = color565(r, g, b);
 8000e1a:	187b      	adds	r3, r7, r1
 8000e1c:	781b      	ldrb	r3, [r3, #0]
 8000e1e:	021b      	lsls	r3, r3, #8
 8000e20:	b21b      	sxth	r3, r3
 8000e22:	0adb      	lsrs	r3, r3, #11
 8000e24:	02db      	lsls	r3, r3, #11
 8000e26:	b21a      	sxth	r2, r3
 8000e28:	193b      	adds	r3, r7, r4
 8000e2a:	781b      	ldrb	r3, [r3, #0]
 8000e2c:	00db      	lsls	r3, r3, #3
 8000e2e:	b219      	sxth	r1, r3
 8000e30:	23fc      	movs	r3, #252	; 0xfc
 8000e32:	00db      	lsls	r3, r3, #3
 8000e34:	400b      	ands	r3, r1
 8000e36:	b21b      	sxth	r3, r3
 8000e38:	4313      	orrs	r3, r2
 8000e3a:	b21a      	sxth	r2, r3
 8000e3c:	183b      	adds	r3, r7, r0
 8000e3e:	781b      	ldrb	r3, [r3, #0]
 8000e40:	08db      	lsrs	r3, r3, #3
 8000e42:	b2db      	uxtb	r3, r3
 8000e44:	b21b      	sxth	r3, r3
 8000e46:	4313      	orrs	r3, r2
 8000e48:	b219      	sxth	r1, r3
 8000e4a:	687b      	ldr	r3, [r7, #4]
 8000e4c:	681a      	ldr	r2, [r3, #0]
 8000e4e:	68fb      	ldr	r3, [r7, #12]
 8000e50:	005b      	lsls	r3, r3, #1
 8000e52:	18d3      	adds	r3, r2, r3
 8000e54:	b28a      	uxth	r2, r1
 8000e56:	801a      	strh	r2, [r3, #0]
		pxArr->u16Arr[i] = ( ( ( pxArr->u16Arr[i] & 0x00ff ) << 8 ) | (( pxArr->u16Arr[i] & 0xff00 ) >> 8) );
 8000e58:	687b      	ldr	r3, [r7, #4]
 8000e5a:	681a      	ldr	r2, [r3, #0]
 8000e5c:	68fb      	ldr	r3, [r7, #12]
 8000e5e:	005b      	lsls	r3, r3, #1
 8000e60:	18d3      	adds	r3, r2, r3
 8000e62:	881b      	ldrh	r3, [r3, #0]
 8000e64:	021b      	lsls	r3, r3, #8
 8000e66:	b21a      	sxth	r2, r3
 8000e68:	687b      	ldr	r3, [r7, #4]
 8000e6a:	6819      	ldr	r1, [r3, #0]
 8000e6c:	68fb      	ldr	r3, [r7, #12]
 8000e6e:	005b      	lsls	r3, r3, #1
 8000e70:	18cb      	adds	r3, r1, r3
 8000e72:	881b      	ldrh	r3, [r3, #0]
 8000e74:	0a1b      	lsrs	r3, r3, #8
 8000e76:	b29b      	uxth	r3, r3
 8000e78:	b21b      	sxth	r3, r3
 8000e7a:	4313      	orrs	r3, r2
 8000e7c:	b219      	sxth	r1, r3
 8000e7e:	687b      	ldr	r3, [r7, #4]
 8000e80:	681a      	ldr	r2, [r3, #0]
 8000e82:	68fb      	ldr	r3, [r7, #12]
 8000e84:	005b      	lsls	r3, r3, #1
 8000e86:	18d3      	adds	r3, r2, r3
 8000e88:	b28a      	uxth	r2, r1
 8000e8a:	801a      	strh	r2, [r3, #0]
	for(int i = 0 ; i < length ; i++)
 8000e8c:	68fb      	ldr	r3, [r7, #12]
 8000e8e:	3301      	adds	r3, #1
 8000e90:	60fb      	str	r3, [r7, #12]
 8000e92:	1cbb      	adds	r3, r7, #2
 8000e94:	881b      	ldrh	r3, [r3, #0]
 8000e96:	68fa      	ldr	r2, [r7, #12]
 8000e98:	429a      	cmp	r2, r3
 8000e9a:	db9b      	blt.n	8000dd4 <depth24To16+0x14>

	}

}
 8000e9c:	46c0      	nop			; (mov r8, r8)
 8000e9e:	46c0      	nop			; (mov r8, r8)
 8000ea0:	46bd      	mov	sp, r7
 8000ea2:	b005      	add	sp, #20
 8000ea4:	bd90      	pop	{r4, r7, pc}

08000ea6 <ferror_handler>:


static void ferror_handler(uint8_t error)
{
 8000ea6:	b580      	push	{r7, lr}
 8000ea8:	b082      	sub	sp, #8
 8000eaa:	af00      	add	r7, sp, #0
 8000eac:	0002      	movs	r2, r0
 8000eae:	1dfb      	adds	r3, r7, #7
 8000eb0:	701a      	strb	r2, [r3, #0]

	switch(error)
 8000eb2:	1dfb      	adds	r3, r7, #7
 8000eb4:	781b      	ldrb	r3, [r3, #0]
 8000eb6:	2b03      	cmp	r3, #3
 8000eb8:	d00b      	beq.n	8000ed2 <ferror_handler+0x2c>
 8000eba:	dc0b      	bgt.n	8000ed4 <ferror_handler+0x2e>
 8000ebc:	2b02      	cmp	r3, #2
 8000ebe:	d007      	beq.n	8000ed0 <ferror_handler+0x2a>
 8000ec0:	dc08      	bgt.n	8000ed4 <ferror_handler+0x2e>
 8000ec2:	2b00      	cmp	r3, #0
 8000ec4:	d002      	beq.n	8000ecc <ferror_handler+0x26>
 8000ec6:	2b01      	cmp	r3, #1
 8000ec8:	d001      	beq.n	8000ece <ferror_handler+0x28>
			break;


	}

}
 8000eca:	e003      	b.n	8000ed4 <ferror_handler+0x2e>
			while(1);
 8000ecc:	e7fe      	b.n	8000ecc <ferror_handler+0x26>
			while(1);
 8000ece:	e7fe      	b.n	8000ece <ferror_handler+0x28>
			while(1);
 8000ed0:	e7fe      	b.n	8000ed0 <ferror_handler+0x2a>
			while(1);
 8000ed2:	e7fe      	b.n	8000ed2 <ferror_handler+0x2c>
}
 8000ed4:	46c0      	nop			; (mov r8, r8)
 8000ed6:	46bd      	mov	sp, r7
 8000ed8:	b002      	add	sp, #8
 8000eda:	bd80      	pop	{r7, pc}

08000edc <HAL_MspInit>:
 8000edc:	b580      	push	{r7, lr}
 8000ede:	b082      	sub	sp, #8
 8000ee0:	af00      	add	r7, sp, #0
 8000ee2:	4b0f      	ldr	r3, [pc, #60]	; (8000f20 <HAL_MspInit+0x44>)
 8000ee4:	699a      	ldr	r2, [r3, #24]
 8000ee6:	4b0e      	ldr	r3, [pc, #56]	; (8000f20 <HAL_MspInit+0x44>)
 8000ee8:	2101      	movs	r1, #1
 8000eea:	430a      	orrs	r2, r1
 8000eec:	619a      	str	r2, [r3, #24]
 8000eee:	4b0c      	ldr	r3, [pc, #48]	; (8000f20 <HAL_MspInit+0x44>)
 8000ef0:	699b      	ldr	r3, [r3, #24]
 8000ef2:	2201      	movs	r2, #1
 8000ef4:	4013      	ands	r3, r2
 8000ef6:	607b      	str	r3, [r7, #4]
 8000ef8:	687b      	ldr	r3, [r7, #4]
 8000efa:	4b09      	ldr	r3, [pc, #36]	; (8000f20 <HAL_MspInit+0x44>)
 8000efc:	69da      	ldr	r2, [r3, #28]
 8000efe:	4b08      	ldr	r3, [pc, #32]	; (8000f20 <HAL_MspInit+0x44>)
 8000f00:	2180      	movs	r1, #128	; 0x80
 8000f02:	0549      	lsls	r1, r1, #21
 8000f04:	430a      	orrs	r2, r1
 8000f06:	61da      	str	r2, [r3, #28]
 8000f08:	4b05      	ldr	r3, [pc, #20]	; (8000f20 <HAL_MspInit+0x44>)
 8000f0a:	69da      	ldr	r2, [r3, #28]
 8000f0c:	2380      	movs	r3, #128	; 0x80
 8000f0e:	055b      	lsls	r3, r3, #21
 8000f10:	4013      	ands	r3, r2
 8000f12:	603b      	str	r3, [r7, #0]
 8000f14:	683b      	ldr	r3, [r7, #0]
 8000f16:	46c0      	nop			; (mov r8, r8)
 8000f18:	46bd      	mov	sp, r7
 8000f1a:	b002      	add	sp, #8
 8000f1c:	bd80      	pop	{r7, pc}
 8000f1e:	46c0      	nop			; (mov r8, r8)
 8000f20:	40021000 	.word	0x40021000

08000f24 <HAL_SPI_MspInit>:
 8000f24:	b590      	push	{r4, r7, lr}
 8000f26:	b08d      	sub	sp, #52	; 0x34
 8000f28:	af00      	add	r7, sp, #0
 8000f2a:	6078      	str	r0, [r7, #4]
 8000f2c:	241c      	movs	r4, #28
 8000f2e:	193b      	adds	r3, r7, r4
 8000f30:	0018      	movs	r0, r3
 8000f32:	2314      	movs	r3, #20
 8000f34:	001a      	movs	r2, r3
 8000f36:	2100      	movs	r1, #0
 8000f38:	f006 f992 	bl	8007260 <memset>
 8000f3c:	687b      	ldr	r3, [r7, #4]
 8000f3e:	681b      	ldr	r3, [r3, #0]
 8000f40:	4a45      	ldr	r2, [pc, #276]	; (8001058 <HAL_SPI_MspInit+0x134>)
 8000f42:	4293      	cmp	r3, r2
 8000f44:	d133      	bne.n	8000fae <HAL_SPI_MspInit+0x8a>
 8000f46:	4b45      	ldr	r3, [pc, #276]	; (800105c <HAL_SPI_MspInit+0x138>)
 8000f48:	699a      	ldr	r2, [r3, #24]
 8000f4a:	4b44      	ldr	r3, [pc, #272]	; (800105c <HAL_SPI_MspInit+0x138>)
 8000f4c:	2180      	movs	r1, #128	; 0x80
 8000f4e:	0149      	lsls	r1, r1, #5
 8000f50:	430a      	orrs	r2, r1
 8000f52:	619a      	str	r2, [r3, #24]
 8000f54:	4b41      	ldr	r3, [pc, #260]	; (800105c <HAL_SPI_MspInit+0x138>)
 8000f56:	699a      	ldr	r2, [r3, #24]
 8000f58:	2380      	movs	r3, #128	; 0x80
 8000f5a:	015b      	lsls	r3, r3, #5
 8000f5c:	4013      	ands	r3, r2
 8000f5e:	61bb      	str	r3, [r7, #24]
 8000f60:	69bb      	ldr	r3, [r7, #24]
 8000f62:	4b3e      	ldr	r3, [pc, #248]	; (800105c <HAL_SPI_MspInit+0x138>)
 8000f64:	695a      	ldr	r2, [r3, #20]
 8000f66:	4b3d      	ldr	r3, [pc, #244]	; (800105c <HAL_SPI_MspInit+0x138>)
 8000f68:	2180      	movs	r1, #128	; 0x80
 8000f6a:	0289      	lsls	r1, r1, #10
 8000f6c:	430a      	orrs	r2, r1
 8000f6e:	615a      	str	r2, [r3, #20]
 8000f70:	4b3a      	ldr	r3, [pc, #232]	; (800105c <HAL_SPI_MspInit+0x138>)
 8000f72:	695a      	ldr	r2, [r3, #20]
 8000f74:	2380      	movs	r3, #128	; 0x80
 8000f76:	029b      	lsls	r3, r3, #10
 8000f78:	4013      	ands	r3, r2
 8000f7a:	617b      	str	r3, [r7, #20]
 8000f7c:	697b      	ldr	r3, [r7, #20]
 8000f7e:	0021      	movs	r1, r4
 8000f80:	187b      	adds	r3, r7, r1
 8000f82:	22e0      	movs	r2, #224	; 0xe0
 8000f84:	601a      	str	r2, [r3, #0]
 8000f86:	187b      	adds	r3, r7, r1
 8000f88:	2202      	movs	r2, #2
 8000f8a:	605a      	str	r2, [r3, #4]
 8000f8c:	187b      	adds	r3, r7, r1
 8000f8e:	2200      	movs	r2, #0
 8000f90:	609a      	str	r2, [r3, #8]
 8000f92:	187b      	adds	r3, r7, r1
 8000f94:	2203      	movs	r2, #3
 8000f96:	60da      	str	r2, [r3, #12]
 8000f98:	187b      	adds	r3, r7, r1
 8000f9a:	2200      	movs	r2, #0
 8000f9c:	611a      	str	r2, [r3, #16]
 8000f9e:	187a      	adds	r2, r7, r1
 8000fa0:	2390      	movs	r3, #144	; 0x90
 8000fa2:	05db      	lsls	r3, r3, #23
 8000fa4:	0011      	movs	r1, r2
 8000fa6:	0018      	movs	r0, r3
 8000fa8:	f000 fa2e 	bl	8001408 <HAL_GPIO_Init>
 8000fac:	e04f      	b.n	800104e <HAL_SPI_MspInit+0x12a>
 8000fae:	687b      	ldr	r3, [r7, #4]
 8000fb0:	681b      	ldr	r3, [r3, #0]
 8000fb2:	4a2b      	ldr	r2, [pc, #172]	; (8001060 <HAL_SPI_MspInit+0x13c>)
 8000fb4:	4293      	cmp	r3, r2
 8000fb6:	d14a      	bne.n	800104e <HAL_SPI_MspInit+0x12a>
 8000fb8:	4b28      	ldr	r3, [pc, #160]	; (800105c <HAL_SPI_MspInit+0x138>)
 8000fba:	69da      	ldr	r2, [r3, #28]
 8000fbc:	4b27      	ldr	r3, [pc, #156]	; (800105c <HAL_SPI_MspInit+0x138>)
 8000fbe:	2180      	movs	r1, #128	; 0x80
 8000fc0:	01c9      	lsls	r1, r1, #7
 8000fc2:	430a      	orrs	r2, r1
 8000fc4:	61da      	str	r2, [r3, #28]
 8000fc6:	4b25      	ldr	r3, [pc, #148]	; (800105c <HAL_SPI_MspInit+0x138>)
 8000fc8:	69da      	ldr	r2, [r3, #28]
 8000fca:	2380      	movs	r3, #128	; 0x80
 8000fcc:	01db      	lsls	r3, r3, #7
 8000fce:	4013      	ands	r3, r2
 8000fd0:	613b      	str	r3, [r7, #16]
 8000fd2:	693b      	ldr	r3, [r7, #16]
 8000fd4:	4b21      	ldr	r3, [pc, #132]	; (800105c <HAL_SPI_MspInit+0x138>)
 8000fd6:	695a      	ldr	r2, [r3, #20]
 8000fd8:	4b20      	ldr	r3, [pc, #128]	; (800105c <HAL_SPI_MspInit+0x138>)
 8000fda:	2180      	movs	r1, #128	; 0x80
 8000fdc:	02c9      	lsls	r1, r1, #11
 8000fde:	430a      	orrs	r2, r1
 8000fe0:	615a      	str	r2, [r3, #20]
 8000fe2:	4b1e      	ldr	r3, [pc, #120]	; (800105c <HAL_SPI_MspInit+0x138>)
 8000fe4:	695a      	ldr	r2, [r3, #20]
 8000fe6:	2380      	movs	r3, #128	; 0x80
 8000fe8:	02db      	lsls	r3, r3, #11
 8000fea:	4013      	ands	r3, r2
 8000fec:	60fb      	str	r3, [r7, #12]
 8000fee:	68fb      	ldr	r3, [r7, #12]
 8000ff0:	211c      	movs	r1, #28
 8000ff2:	187b      	adds	r3, r7, r1
 8000ff4:	2280      	movs	r2, #128	; 0x80
 8000ff6:	00d2      	lsls	r2, r2, #3
 8000ff8:	601a      	str	r2, [r3, #0]
 8000ffa:	000c      	movs	r4, r1
 8000ffc:	193b      	adds	r3, r7, r4
 8000ffe:	2202      	movs	r2, #2
 8001000:	605a      	str	r2, [r3, #4]
 8001002:	193b      	adds	r3, r7, r4
 8001004:	2200      	movs	r2, #0
 8001006:	609a      	str	r2, [r3, #8]
 8001008:	193b      	adds	r3, r7, r4
 800100a:	2203      	movs	r2, #3
 800100c:	60da      	str	r2, [r3, #12]
 800100e:	193b      	adds	r3, r7, r4
 8001010:	2205      	movs	r2, #5
 8001012:	611a      	str	r2, [r3, #16]
 8001014:	193b      	adds	r3, r7, r4
 8001016:	4a13      	ldr	r2, [pc, #76]	; (8001064 <HAL_SPI_MspInit+0x140>)
 8001018:	0019      	movs	r1, r3
 800101a:	0010      	movs	r0, r2
 800101c:	f000 f9f4 	bl	8001408 <HAL_GPIO_Init>
 8001020:	0021      	movs	r1, r4
 8001022:	187b      	adds	r3, r7, r1
 8001024:	22c0      	movs	r2, #192	; 0xc0
 8001026:	0212      	lsls	r2, r2, #8
 8001028:	601a      	str	r2, [r3, #0]
 800102a:	187b      	adds	r3, r7, r1
 800102c:	2202      	movs	r2, #2
 800102e:	605a      	str	r2, [r3, #4]
 8001030:	187b      	adds	r3, r7, r1
 8001032:	2200      	movs	r2, #0
 8001034:	609a      	str	r2, [r3, #8]
 8001036:	187b      	adds	r3, r7, r1
 8001038:	2203      	movs	r2, #3
 800103a:	60da      	str	r2, [r3, #12]
 800103c:	187b      	adds	r3, r7, r1
 800103e:	2200      	movs	r2, #0
 8001040:	611a      	str	r2, [r3, #16]
 8001042:	187b      	adds	r3, r7, r1
 8001044:	4a07      	ldr	r2, [pc, #28]	; (8001064 <HAL_SPI_MspInit+0x140>)
 8001046:	0019      	movs	r1, r3
 8001048:	0010      	movs	r0, r2
 800104a:	f000 f9dd 	bl	8001408 <HAL_GPIO_Init>
 800104e:	46c0      	nop			; (mov r8, r8)
 8001050:	46bd      	mov	sp, r7
 8001052:	b00d      	add	sp, #52	; 0x34
 8001054:	bd90      	pop	{r4, r7, pc}
 8001056:	46c0      	nop			; (mov r8, r8)
 8001058:	40013000 	.word	0x40013000
 800105c:	40021000 	.word	0x40021000
 8001060:	40003800 	.word	0x40003800
 8001064:	48000400 	.word	0x48000400

08001068 <HAL_UART_MspInit>:
 8001068:	b590      	push	{r4, r7, lr}
 800106a:	b08b      	sub	sp, #44	; 0x2c
 800106c:	af00      	add	r7, sp, #0
 800106e:	6078      	str	r0, [r7, #4]
 8001070:	2414      	movs	r4, #20
 8001072:	193b      	adds	r3, r7, r4
 8001074:	0018      	movs	r0, r3
 8001076:	2314      	movs	r3, #20
 8001078:	001a      	movs	r2, r3
 800107a:	2100      	movs	r1, #0
 800107c:	f006 f8f0 	bl	8007260 <memset>
 8001080:	687b      	ldr	r3, [r7, #4]
 8001082:	681b      	ldr	r3, [r3, #0]
 8001084:	4a1d      	ldr	r2, [pc, #116]	; (80010fc <HAL_UART_MspInit+0x94>)
 8001086:	4293      	cmp	r3, r2
 8001088:	d133      	bne.n	80010f2 <HAL_UART_MspInit+0x8a>
 800108a:	4b1d      	ldr	r3, [pc, #116]	; (8001100 <HAL_UART_MspInit+0x98>)
 800108c:	699a      	ldr	r2, [r3, #24]
 800108e:	4b1c      	ldr	r3, [pc, #112]	; (8001100 <HAL_UART_MspInit+0x98>)
 8001090:	2180      	movs	r1, #128	; 0x80
 8001092:	01c9      	lsls	r1, r1, #7
 8001094:	430a      	orrs	r2, r1
 8001096:	619a      	str	r2, [r3, #24]
 8001098:	4b19      	ldr	r3, [pc, #100]	; (8001100 <HAL_UART_MspInit+0x98>)
 800109a:	699a      	ldr	r2, [r3, #24]
 800109c:	2380      	movs	r3, #128	; 0x80
 800109e:	01db      	lsls	r3, r3, #7
 80010a0:	4013      	ands	r3, r2
 80010a2:	613b      	str	r3, [r7, #16]
 80010a4:	693b      	ldr	r3, [r7, #16]
 80010a6:	4b16      	ldr	r3, [pc, #88]	; (8001100 <HAL_UART_MspInit+0x98>)
 80010a8:	695a      	ldr	r2, [r3, #20]
 80010aa:	4b15      	ldr	r3, [pc, #84]	; (8001100 <HAL_UART_MspInit+0x98>)
 80010ac:	2180      	movs	r1, #128	; 0x80
 80010ae:	0289      	lsls	r1, r1, #10
 80010b0:	430a      	orrs	r2, r1
 80010b2:	615a      	str	r2, [r3, #20]
 80010b4:	4b12      	ldr	r3, [pc, #72]	; (8001100 <HAL_UART_MspInit+0x98>)
 80010b6:	695a      	ldr	r2, [r3, #20]
 80010b8:	2380      	movs	r3, #128	; 0x80
 80010ba:	029b      	lsls	r3, r3, #10
 80010bc:	4013      	ands	r3, r2
 80010be:	60fb      	str	r3, [r7, #12]
 80010c0:	68fb      	ldr	r3, [r7, #12]
 80010c2:	193b      	adds	r3, r7, r4
 80010c4:	22c0      	movs	r2, #192	; 0xc0
 80010c6:	00d2      	lsls	r2, r2, #3
 80010c8:	601a      	str	r2, [r3, #0]
 80010ca:	0021      	movs	r1, r4
 80010cc:	187b      	adds	r3, r7, r1
 80010ce:	2202      	movs	r2, #2
 80010d0:	605a      	str	r2, [r3, #4]
 80010d2:	187b      	adds	r3, r7, r1
 80010d4:	2200      	movs	r2, #0
 80010d6:	609a      	str	r2, [r3, #8]
 80010d8:	187b      	adds	r3, r7, r1
 80010da:	2203      	movs	r2, #3
 80010dc:	60da      	str	r2, [r3, #12]
 80010de:	187b      	adds	r3, r7, r1
 80010e0:	2201      	movs	r2, #1
 80010e2:	611a      	str	r2, [r3, #16]
 80010e4:	187a      	adds	r2, r7, r1
 80010e6:	2390      	movs	r3, #144	; 0x90
 80010e8:	05db      	lsls	r3, r3, #23
 80010ea:	0011      	movs	r1, r2
 80010ec:	0018      	movs	r0, r3
 80010ee:	f000 f98b 	bl	8001408 <HAL_GPIO_Init>
 80010f2:	46c0      	nop			; (mov r8, r8)
 80010f4:	46bd      	mov	sp, r7
 80010f6:	b00b      	add	sp, #44	; 0x2c
 80010f8:	bd90      	pop	{r4, r7, pc}
 80010fa:	46c0      	nop			; (mov r8, r8)
 80010fc:	40013800 	.word	0x40013800
 8001100:	40021000 	.word	0x40021000

08001104 <NMI_Handler>:
 8001104:	b580      	push	{r7, lr}
 8001106:	af00      	add	r7, sp, #0
 8001108:	e7fe      	b.n	8001108 <NMI_Handler+0x4>

0800110a <HardFault_Handler>:
 800110a:	b580      	push	{r7, lr}
 800110c:	af00      	add	r7, sp, #0
 800110e:	e7fe      	b.n	800110e <HardFault_Handler+0x4>

08001110 <SVC_Handler>:
 8001110:	b580      	push	{r7, lr}
 8001112:	af00      	add	r7, sp, #0
 8001114:	46c0      	nop			; (mov r8, r8)
 8001116:	46bd      	mov	sp, r7
 8001118:	bd80      	pop	{r7, pc}

0800111a <PendSV_Handler>:
 800111a:	b580      	push	{r7, lr}
 800111c:	af00      	add	r7, sp, #0
 800111e:	46c0      	nop			; (mov r8, r8)
 8001120:	46bd      	mov	sp, r7
 8001122:	bd80      	pop	{r7, pc}

08001124 <SysTick_Handler>:
 8001124:	b580      	push	{r7, lr}
 8001126:	af00      	add	r7, sp, #0
 8001128:	f000 f87a 	bl	8001220 <HAL_IncTick>
 800112c:	46c0      	nop			; (mov r8, r8)
 800112e:	46bd      	mov	sp, r7
 8001130:	bd80      	pop	{r7, pc}

08001132 <SystemInit>:
 8001132:	b580      	push	{r7, lr}
 8001134:	af00      	add	r7, sp, #0
 8001136:	46c0      	nop			; (mov r8, r8)
 8001138:	46bd      	mov	sp, r7
 800113a:	bd80      	pop	{r7, pc}

0800113c <Reset_Handler>:
 800113c:	480d      	ldr	r0, [pc, #52]	; (8001174 <LoopForever+0x2>)
 800113e:	4685      	mov	sp, r0
 8001140:	f7ff fff7 	bl	8001132 <SystemInit>
 8001144:	480c      	ldr	r0, [pc, #48]	; (8001178 <LoopForever+0x6>)
 8001146:	490d      	ldr	r1, [pc, #52]	; (800117c <LoopForever+0xa>)
 8001148:	4a0d      	ldr	r2, [pc, #52]	; (8001180 <LoopForever+0xe>)
 800114a:	2300      	movs	r3, #0
 800114c:	e002      	b.n	8001154 <LoopCopyDataInit>

0800114e <CopyDataInit>:
 800114e:	58d4      	ldr	r4, [r2, r3]
 8001150:	50c4      	str	r4, [r0, r3]
 8001152:	3304      	adds	r3, #4

08001154 <LoopCopyDataInit>:
 8001154:	18c4      	adds	r4, r0, r3
 8001156:	428c      	cmp	r4, r1
 8001158:	d3f9      	bcc.n	800114e <CopyDataInit>
 800115a:	4a0a      	ldr	r2, [pc, #40]	; (8001184 <LoopForever+0x12>)
 800115c:	4c0a      	ldr	r4, [pc, #40]	; (8001188 <LoopForever+0x16>)
 800115e:	2300      	movs	r3, #0
 8001160:	e001      	b.n	8001166 <LoopFillZerobss>

08001162 <FillZerobss>:
 8001162:	6013      	str	r3, [r2, #0]
 8001164:	3204      	adds	r2, #4

08001166 <LoopFillZerobss>:
 8001166:	42a2      	cmp	r2, r4
 8001168:	d3fb      	bcc.n	8001162 <FillZerobss>
 800116a:	f006 f881 	bl	8007270 <__libc_init_array>
 800116e:	f7ff fb99 	bl	80008a4 <main>

08001172 <LoopForever>:
 8001172:	e7fe      	b.n	8001172 <LoopForever>
 8001174:	20008000 	.word	0x20008000
 8001178:	20000000 	.word	0x20000000
 800117c:	20000024 	.word	0x20000024
 8001180:	08007458 	.word	0x08007458
 8001184:	20000024 	.word	0x20000024
 8001188:	20000640 	.word	0x20000640

0800118c <ADC1_IRQHandler>:
 800118c:	e7fe      	b.n	800118c <ADC1_IRQHandler>
	...

08001190 <HAL_Init>:
 8001190:	b580      	push	{r7, lr}
 8001192:	af00      	add	r7, sp, #0
 8001194:	4b07      	ldr	r3, [pc, #28]	; (80011b4 <HAL_Init+0x24>)
 8001196:	681a      	ldr	r2, [r3, #0]
 8001198:	4b06      	ldr	r3, [pc, #24]	; (80011b4 <HAL_Init+0x24>)
 800119a:	2110      	movs	r1, #16
 800119c:	430a      	orrs	r2, r1
 800119e:	601a      	str	r2, [r3, #0]
 80011a0:	2003      	movs	r0, #3
 80011a2:	f000 f809 	bl	80011b8 <HAL_InitTick>
 80011a6:	f7ff fe99 	bl	8000edc <HAL_MspInit>
 80011aa:	2300      	movs	r3, #0
 80011ac:	0018      	movs	r0, r3
 80011ae:	46bd      	mov	sp, r7
 80011b0:	bd80      	pop	{r7, pc}
 80011b2:	46c0      	nop			; (mov r8, r8)
 80011b4:	40022000 	.word	0x40022000

080011b8 <HAL_InitTick>:
 80011b8:	b590      	push	{r4, r7, lr}
 80011ba:	b083      	sub	sp, #12
 80011bc:	af00      	add	r7, sp, #0
 80011be:	6078      	str	r0, [r7, #4]
 80011c0:	4b14      	ldr	r3, [pc, #80]	; (8001214 <HAL_InitTick+0x5c>)
 80011c2:	681c      	ldr	r4, [r3, #0]
 80011c4:	4b14      	ldr	r3, [pc, #80]	; (8001218 <HAL_InitTick+0x60>)
 80011c6:	781b      	ldrb	r3, [r3, #0]
 80011c8:	0019      	movs	r1, r3
 80011ca:	23fa      	movs	r3, #250	; 0xfa
 80011cc:	0098      	lsls	r0, r3, #2
 80011ce:	f7fe ff99 	bl	8000104 <__udivsi3>
 80011d2:	0003      	movs	r3, r0
 80011d4:	0019      	movs	r1, r3
 80011d6:	0020      	movs	r0, r4
 80011d8:	f7fe ff94 	bl	8000104 <__udivsi3>
 80011dc:	0003      	movs	r3, r0
 80011de:	0018      	movs	r0, r3
 80011e0:	f000 f905 	bl	80013ee <HAL_SYSTICK_Config>
 80011e4:	1e03      	subs	r3, r0, #0
 80011e6:	d001      	beq.n	80011ec <HAL_InitTick+0x34>
 80011e8:	2301      	movs	r3, #1
 80011ea:	e00f      	b.n	800120c <HAL_InitTick+0x54>
 80011ec:	687b      	ldr	r3, [r7, #4]
 80011ee:	2b03      	cmp	r3, #3
 80011f0:	d80b      	bhi.n	800120a <HAL_InitTick+0x52>
 80011f2:	6879      	ldr	r1, [r7, #4]
 80011f4:	2301      	movs	r3, #1
 80011f6:	425b      	negs	r3, r3
 80011f8:	2200      	movs	r2, #0
 80011fa:	0018      	movs	r0, r3
 80011fc:	f000 f8e2 	bl	80013c4 <HAL_NVIC_SetPriority>
 8001200:	4b06      	ldr	r3, [pc, #24]	; (800121c <HAL_InitTick+0x64>)
 8001202:	687a      	ldr	r2, [r7, #4]
 8001204:	601a      	str	r2, [r3, #0]
 8001206:	2300      	movs	r3, #0
 8001208:	e000      	b.n	800120c <HAL_InitTick+0x54>
 800120a:	2301      	movs	r3, #1
 800120c:	0018      	movs	r0, r3
 800120e:	46bd      	mov	sp, r7
 8001210:	b003      	add	sp, #12
 8001212:	bd90      	pop	{r4, r7, pc}
 8001214:	20000000 	.word	0x20000000
 8001218:	20000008 	.word	0x20000008
 800121c:	20000004 	.word	0x20000004

08001220 <HAL_IncTick>:
 8001220:	b580      	push	{r7, lr}
 8001222:	af00      	add	r7, sp, #0
 8001224:	4b05      	ldr	r3, [pc, #20]	; (800123c <HAL_IncTick+0x1c>)
 8001226:	781b      	ldrb	r3, [r3, #0]
 8001228:	001a      	movs	r2, r3
 800122a:	4b05      	ldr	r3, [pc, #20]	; (8001240 <HAL_IncTick+0x20>)
 800122c:	681b      	ldr	r3, [r3, #0]
 800122e:	18d2      	adds	r2, r2, r3
 8001230:	4b03      	ldr	r3, [pc, #12]	; (8001240 <HAL_IncTick+0x20>)
 8001232:	601a      	str	r2, [r3, #0]
 8001234:	46c0      	nop			; (mov r8, r8)
 8001236:	46bd      	mov	sp, r7
 8001238:	bd80      	pop	{r7, pc}
 800123a:	46c0      	nop			; (mov r8, r8)
 800123c:	20000008 	.word	0x20000008
 8001240:	200005fc 	.word	0x200005fc

08001244 <HAL_GetTick>:
 8001244:	b580      	push	{r7, lr}
 8001246:	af00      	add	r7, sp, #0
 8001248:	4b02      	ldr	r3, [pc, #8]	; (8001254 <HAL_GetTick+0x10>)
 800124a:	681b      	ldr	r3, [r3, #0]
 800124c:	0018      	movs	r0, r3
 800124e:	46bd      	mov	sp, r7
 8001250:	bd80      	pop	{r7, pc}
 8001252:	46c0      	nop			; (mov r8, r8)
 8001254:	200005fc 	.word	0x200005fc

08001258 <HAL_Delay>:
 8001258:	b580      	push	{r7, lr}
 800125a:	b084      	sub	sp, #16
 800125c:	af00      	add	r7, sp, #0
 800125e:	6078      	str	r0, [r7, #4]
 8001260:	f7ff fff0 	bl	8001244 <HAL_GetTick>
 8001264:	0003      	movs	r3, r0
 8001266:	60bb      	str	r3, [r7, #8]
 8001268:	687b      	ldr	r3, [r7, #4]
 800126a:	60fb      	str	r3, [r7, #12]
 800126c:	68fb      	ldr	r3, [r7, #12]
 800126e:	3301      	adds	r3, #1
 8001270:	d005      	beq.n	800127e <HAL_Delay+0x26>
 8001272:	4b0a      	ldr	r3, [pc, #40]	; (800129c <HAL_Delay+0x44>)
 8001274:	781b      	ldrb	r3, [r3, #0]
 8001276:	001a      	movs	r2, r3
 8001278:	68fb      	ldr	r3, [r7, #12]
 800127a:	189b      	adds	r3, r3, r2
 800127c:	60fb      	str	r3, [r7, #12]
 800127e:	46c0      	nop			; (mov r8, r8)
 8001280:	f7ff ffe0 	bl	8001244 <HAL_GetTick>
 8001284:	0002      	movs	r2, r0
 8001286:	68bb      	ldr	r3, [r7, #8]
 8001288:	1ad3      	subs	r3, r2, r3
 800128a:	68fa      	ldr	r2, [r7, #12]
 800128c:	429a      	cmp	r2, r3
 800128e:	d8f7      	bhi.n	8001280 <HAL_Delay+0x28>
 8001290:	46c0      	nop			; (mov r8, r8)
 8001292:	46c0      	nop			; (mov r8, r8)
 8001294:	46bd      	mov	sp, r7
 8001296:	b004      	add	sp, #16
 8001298:	bd80      	pop	{r7, pc}
 800129a:	46c0      	nop			; (mov r8, r8)
 800129c:	20000008 	.word	0x20000008

080012a0 <__NVIC_SetPriority>:
 80012a0:	b590      	push	{r4, r7, lr}
 80012a2:	b083      	sub	sp, #12
 80012a4:	af00      	add	r7, sp, #0
 80012a6:	0002      	movs	r2, r0
 80012a8:	6039      	str	r1, [r7, #0]
 80012aa:	1dfb      	adds	r3, r7, #7
 80012ac:	701a      	strb	r2, [r3, #0]
 80012ae:	1dfb      	adds	r3, r7, #7
 80012b0:	781b      	ldrb	r3, [r3, #0]
 80012b2:	2b7f      	cmp	r3, #127	; 0x7f
 80012b4:	d828      	bhi.n	8001308 <__NVIC_SetPriority+0x68>
 80012b6:	4a2f      	ldr	r2, [pc, #188]	; (8001374 <__NVIC_SetPriority+0xd4>)
 80012b8:	1dfb      	adds	r3, r7, #7
 80012ba:	781b      	ldrb	r3, [r3, #0]
 80012bc:	b25b      	sxtb	r3, r3
 80012be:	089b      	lsrs	r3, r3, #2
 80012c0:	33c0      	adds	r3, #192	; 0xc0
 80012c2:	009b      	lsls	r3, r3, #2
 80012c4:	589b      	ldr	r3, [r3, r2]
 80012c6:	1dfa      	adds	r2, r7, #7
 80012c8:	7812      	ldrb	r2, [r2, #0]
 80012ca:	0011      	movs	r1, r2
 80012cc:	2203      	movs	r2, #3
 80012ce:	400a      	ands	r2, r1
 80012d0:	00d2      	lsls	r2, r2, #3
 80012d2:	21ff      	movs	r1, #255	; 0xff
 80012d4:	4091      	lsls	r1, r2
 80012d6:	000a      	movs	r2, r1
 80012d8:	43d2      	mvns	r2, r2
 80012da:	401a      	ands	r2, r3
 80012dc:	0011      	movs	r1, r2
 80012de:	683b      	ldr	r3, [r7, #0]
 80012e0:	019b      	lsls	r3, r3, #6
 80012e2:	22ff      	movs	r2, #255	; 0xff
 80012e4:	401a      	ands	r2, r3
 80012e6:	1dfb      	adds	r3, r7, #7
 80012e8:	781b      	ldrb	r3, [r3, #0]
 80012ea:	0018      	movs	r0, r3
 80012ec:	2303      	movs	r3, #3
 80012ee:	4003      	ands	r3, r0
 80012f0:	00db      	lsls	r3, r3, #3
 80012f2:	409a      	lsls	r2, r3
 80012f4:	481f      	ldr	r0, [pc, #124]	; (8001374 <__NVIC_SetPriority+0xd4>)
 80012f6:	1dfb      	adds	r3, r7, #7
 80012f8:	781b      	ldrb	r3, [r3, #0]
 80012fa:	b25b      	sxtb	r3, r3
 80012fc:	089b      	lsrs	r3, r3, #2
 80012fe:	430a      	orrs	r2, r1
 8001300:	33c0      	adds	r3, #192	; 0xc0
 8001302:	009b      	lsls	r3, r3, #2
 8001304:	501a      	str	r2, [r3, r0]
 8001306:	e031      	b.n	800136c <__NVIC_SetPriority+0xcc>
 8001308:	4a1b      	ldr	r2, [pc, #108]	; (8001378 <__NVIC_SetPriority+0xd8>)
 800130a:	1dfb      	adds	r3, r7, #7
 800130c:	781b      	ldrb	r3, [r3, #0]
 800130e:	0019      	movs	r1, r3
 8001310:	230f      	movs	r3, #15
 8001312:	400b      	ands	r3, r1
 8001314:	3b08      	subs	r3, #8
 8001316:	089b      	lsrs	r3, r3, #2
 8001318:	3306      	adds	r3, #6
 800131a:	009b      	lsls	r3, r3, #2
 800131c:	18d3      	adds	r3, r2, r3
 800131e:	3304      	adds	r3, #4
 8001320:	681b      	ldr	r3, [r3, #0]
 8001322:	1dfa      	adds	r2, r7, #7
 8001324:	7812      	ldrb	r2, [r2, #0]
 8001326:	0011      	movs	r1, r2
 8001328:	2203      	movs	r2, #3
 800132a:	400a      	ands	r2, r1
 800132c:	00d2      	lsls	r2, r2, #3
 800132e:	21ff      	movs	r1, #255	; 0xff
 8001330:	4091      	lsls	r1, r2
 8001332:	000a      	movs	r2, r1
 8001334:	43d2      	mvns	r2, r2
 8001336:	401a      	ands	r2, r3
 8001338:	0011      	movs	r1, r2
 800133a:	683b      	ldr	r3, [r7, #0]
 800133c:	019b      	lsls	r3, r3, #6
 800133e:	22ff      	movs	r2, #255	; 0xff
 8001340:	401a      	ands	r2, r3
 8001342:	1dfb      	adds	r3, r7, #7
 8001344:	781b      	ldrb	r3, [r3, #0]
 8001346:	0018      	movs	r0, r3
 8001348:	2303      	movs	r3, #3
 800134a:	4003      	ands	r3, r0
 800134c:	00db      	lsls	r3, r3, #3
 800134e:	409a      	lsls	r2, r3
 8001350:	4809      	ldr	r0, [pc, #36]	; (8001378 <__NVIC_SetPriority+0xd8>)
 8001352:	1dfb      	adds	r3, r7, #7
 8001354:	781b      	ldrb	r3, [r3, #0]
 8001356:	001c      	movs	r4, r3
 8001358:	230f      	movs	r3, #15
 800135a:	4023      	ands	r3, r4
 800135c:	3b08      	subs	r3, #8
 800135e:	089b      	lsrs	r3, r3, #2
 8001360:	430a      	orrs	r2, r1
 8001362:	3306      	adds	r3, #6
 8001364:	009b      	lsls	r3, r3, #2
 8001366:	18c3      	adds	r3, r0, r3
 8001368:	3304      	adds	r3, #4
 800136a:	601a      	str	r2, [r3, #0]
 800136c:	46c0      	nop			; (mov r8, r8)
 800136e:	46bd      	mov	sp, r7
 8001370:	b003      	add	sp, #12
 8001372:	bd90      	pop	{r4, r7, pc}
 8001374:	e000e100 	.word	0xe000e100
 8001378:	e000ed00 	.word	0xe000ed00

0800137c <SysTick_Config>:
 800137c:	b580      	push	{r7, lr}
 800137e:	b082      	sub	sp, #8
 8001380:	af00      	add	r7, sp, #0
 8001382:	6078      	str	r0, [r7, #4]
 8001384:	687b      	ldr	r3, [r7, #4]
 8001386:	1e5a      	subs	r2, r3, #1
 8001388:	2380      	movs	r3, #128	; 0x80
 800138a:	045b      	lsls	r3, r3, #17
 800138c:	429a      	cmp	r2, r3
 800138e:	d301      	bcc.n	8001394 <SysTick_Config+0x18>
 8001390:	2301      	movs	r3, #1
 8001392:	e010      	b.n	80013b6 <SysTick_Config+0x3a>
 8001394:	4b0a      	ldr	r3, [pc, #40]	; (80013c0 <SysTick_Config+0x44>)
 8001396:	687a      	ldr	r2, [r7, #4]
 8001398:	3a01      	subs	r2, #1
 800139a:	605a      	str	r2, [r3, #4]
 800139c:	2301      	movs	r3, #1
 800139e:	425b      	negs	r3, r3
 80013a0:	2103      	movs	r1, #3
 80013a2:	0018      	movs	r0, r3
 80013a4:	f7ff ff7c 	bl	80012a0 <__NVIC_SetPriority>
 80013a8:	4b05      	ldr	r3, [pc, #20]	; (80013c0 <SysTick_Config+0x44>)
 80013aa:	2200      	movs	r2, #0
 80013ac:	609a      	str	r2, [r3, #8]
 80013ae:	4b04      	ldr	r3, [pc, #16]	; (80013c0 <SysTick_Config+0x44>)
 80013b0:	2207      	movs	r2, #7
 80013b2:	601a      	str	r2, [r3, #0]
 80013b4:	2300      	movs	r3, #0
 80013b6:	0018      	movs	r0, r3
 80013b8:	46bd      	mov	sp, r7
 80013ba:	b002      	add	sp, #8
 80013bc:	bd80      	pop	{r7, pc}
 80013be:	46c0      	nop			; (mov r8, r8)
 80013c0:	e000e010 	.word	0xe000e010

080013c4 <HAL_NVIC_SetPriority>:
 80013c4:	b580      	push	{r7, lr}
 80013c6:	b084      	sub	sp, #16
 80013c8:	af00      	add	r7, sp, #0
 80013ca:	60b9      	str	r1, [r7, #8]
 80013cc:	607a      	str	r2, [r7, #4]
 80013ce:	210f      	movs	r1, #15
 80013d0:	187b      	adds	r3, r7, r1
 80013d2:	1c02      	adds	r2, r0, #0
 80013d4:	701a      	strb	r2, [r3, #0]
 80013d6:	68ba      	ldr	r2, [r7, #8]
 80013d8:	187b      	adds	r3, r7, r1
 80013da:	781b      	ldrb	r3, [r3, #0]
 80013dc:	b25b      	sxtb	r3, r3
 80013de:	0011      	movs	r1, r2
 80013e0:	0018      	movs	r0, r3
 80013e2:	f7ff ff5d 	bl	80012a0 <__NVIC_SetPriority>
 80013e6:	46c0      	nop			; (mov r8, r8)
 80013e8:	46bd      	mov	sp, r7
 80013ea:	b004      	add	sp, #16
 80013ec:	bd80      	pop	{r7, pc}

080013ee <HAL_SYSTICK_Config>:
 80013ee:	b580      	push	{r7, lr}
 80013f0:	b082      	sub	sp, #8
 80013f2:	af00      	add	r7, sp, #0
 80013f4:	6078      	str	r0, [r7, #4]
 80013f6:	687b      	ldr	r3, [r7, #4]
 80013f8:	0018      	movs	r0, r3
 80013fa:	f7ff ffbf 	bl	800137c <SysTick_Config>
 80013fe:	0003      	movs	r3, r0
 8001400:	0018      	movs	r0, r3
 8001402:	46bd      	mov	sp, r7
 8001404:	b002      	add	sp, #8
 8001406:	bd80      	pop	{r7, pc}

08001408 <HAL_GPIO_Init>:
 8001408:	b580      	push	{r7, lr}
 800140a:	b086      	sub	sp, #24
 800140c:	af00      	add	r7, sp, #0
 800140e:	6078      	str	r0, [r7, #4]
 8001410:	6039      	str	r1, [r7, #0]
 8001412:	2300      	movs	r3, #0
 8001414:	617b      	str	r3, [r7, #20]
 8001416:	e14f      	b.n	80016b8 <HAL_GPIO_Init+0x2b0>
 8001418:	683b      	ldr	r3, [r7, #0]
 800141a:	681b      	ldr	r3, [r3, #0]
 800141c:	2101      	movs	r1, #1
 800141e:	697a      	ldr	r2, [r7, #20]
 8001420:	4091      	lsls	r1, r2
 8001422:	000a      	movs	r2, r1
 8001424:	4013      	ands	r3, r2
 8001426:	60fb      	str	r3, [r7, #12]
 8001428:	68fb      	ldr	r3, [r7, #12]
 800142a:	2b00      	cmp	r3, #0
 800142c:	d100      	bne.n	8001430 <HAL_GPIO_Init+0x28>
 800142e:	e140      	b.n	80016b2 <HAL_GPIO_Init+0x2aa>
 8001430:	683b      	ldr	r3, [r7, #0]
 8001432:	685b      	ldr	r3, [r3, #4]
 8001434:	2203      	movs	r2, #3
 8001436:	4013      	ands	r3, r2
 8001438:	2b01      	cmp	r3, #1
 800143a:	d005      	beq.n	8001448 <HAL_GPIO_Init+0x40>
 800143c:	683b      	ldr	r3, [r7, #0]
 800143e:	685b      	ldr	r3, [r3, #4]
 8001440:	2203      	movs	r2, #3
 8001442:	4013      	ands	r3, r2
 8001444:	2b02      	cmp	r3, #2
 8001446:	d130      	bne.n	80014aa <HAL_GPIO_Init+0xa2>
 8001448:	687b      	ldr	r3, [r7, #4]
 800144a:	689b      	ldr	r3, [r3, #8]
 800144c:	613b      	str	r3, [r7, #16]
 800144e:	697b      	ldr	r3, [r7, #20]
 8001450:	005b      	lsls	r3, r3, #1
 8001452:	2203      	movs	r2, #3
 8001454:	409a      	lsls	r2, r3
 8001456:	0013      	movs	r3, r2
 8001458:	43da      	mvns	r2, r3
 800145a:	693b      	ldr	r3, [r7, #16]
 800145c:	4013      	ands	r3, r2
 800145e:	613b      	str	r3, [r7, #16]
 8001460:	683b      	ldr	r3, [r7, #0]
 8001462:	68da      	ldr	r2, [r3, #12]
 8001464:	697b      	ldr	r3, [r7, #20]
 8001466:	005b      	lsls	r3, r3, #1
 8001468:	409a      	lsls	r2, r3
 800146a:	0013      	movs	r3, r2
 800146c:	693a      	ldr	r2, [r7, #16]
 800146e:	4313      	orrs	r3, r2
 8001470:	613b      	str	r3, [r7, #16]
 8001472:	687b      	ldr	r3, [r7, #4]
 8001474:	693a      	ldr	r2, [r7, #16]
 8001476:	609a      	str	r2, [r3, #8]
 8001478:	687b      	ldr	r3, [r7, #4]
 800147a:	685b      	ldr	r3, [r3, #4]
 800147c:	613b      	str	r3, [r7, #16]
 800147e:	2201      	movs	r2, #1
 8001480:	697b      	ldr	r3, [r7, #20]
 8001482:	409a      	lsls	r2, r3
 8001484:	0013      	movs	r3, r2
 8001486:	43da      	mvns	r2, r3
 8001488:	693b      	ldr	r3, [r7, #16]
 800148a:	4013      	ands	r3, r2
 800148c:	613b      	str	r3, [r7, #16]
 800148e:	683b      	ldr	r3, [r7, #0]
 8001490:	685b      	ldr	r3, [r3, #4]
 8001492:	091b      	lsrs	r3, r3, #4
 8001494:	2201      	movs	r2, #1
 8001496:	401a      	ands	r2, r3
 8001498:	697b      	ldr	r3, [r7, #20]
 800149a:	409a      	lsls	r2, r3
 800149c:	0013      	movs	r3, r2
 800149e:	693a      	ldr	r2, [r7, #16]
 80014a0:	4313      	orrs	r3, r2
 80014a2:	613b      	str	r3, [r7, #16]
 80014a4:	687b      	ldr	r3, [r7, #4]
 80014a6:	693a      	ldr	r2, [r7, #16]
 80014a8:	605a      	str	r2, [r3, #4]
 80014aa:	683b      	ldr	r3, [r7, #0]
 80014ac:	685b      	ldr	r3, [r3, #4]
 80014ae:	2203      	movs	r2, #3
 80014b0:	4013      	ands	r3, r2
 80014b2:	2b03      	cmp	r3, #3
 80014b4:	d017      	beq.n	80014e6 <HAL_GPIO_Init+0xde>
 80014b6:	687b      	ldr	r3, [r7, #4]
 80014b8:	68db      	ldr	r3, [r3, #12]
 80014ba:	613b      	str	r3, [r7, #16]
 80014bc:	697b      	ldr	r3, [r7, #20]
 80014be:	005b      	lsls	r3, r3, #1
 80014c0:	2203      	movs	r2, #3
 80014c2:	409a      	lsls	r2, r3
 80014c4:	0013      	movs	r3, r2
 80014c6:	43da      	mvns	r2, r3
 80014c8:	693b      	ldr	r3, [r7, #16]
 80014ca:	4013      	ands	r3, r2
 80014cc:	613b      	str	r3, [r7, #16]
 80014ce:	683b      	ldr	r3, [r7, #0]
 80014d0:	689a      	ldr	r2, [r3, #8]
 80014d2:	697b      	ldr	r3, [r7, #20]
 80014d4:	005b      	lsls	r3, r3, #1
 80014d6:	409a      	lsls	r2, r3
 80014d8:	0013      	movs	r3, r2
 80014da:	693a      	ldr	r2, [r7, #16]
 80014dc:	4313      	orrs	r3, r2
 80014de:	613b      	str	r3, [r7, #16]
 80014e0:	687b      	ldr	r3, [r7, #4]
 80014e2:	693a      	ldr	r2, [r7, #16]
 80014e4:	60da      	str	r2, [r3, #12]
 80014e6:	683b      	ldr	r3, [r7, #0]
 80014e8:	685b      	ldr	r3, [r3, #4]
 80014ea:	2203      	movs	r2, #3
 80014ec:	4013      	ands	r3, r2
 80014ee:	2b02      	cmp	r3, #2
 80014f0:	d123      	bne.n	800153a <HAL_GPIO_Init+0x132>
 80014f2:	697b      	ldr	r3, [r7, #20]
 80014f4:	08da      	lsrs	r2, r3, #3
 80014f6:	687b      	ldr	r3, [r7, #4]
 80014f8:	3208      	adds	r2, #8
 80014fa:	0092      	lsls	r2, r2, #2
 80014fc:	58d3      	ldr	r3, [r2, r3]
 80014fe:	613b      	str	r3, [r7, #16]
 8001500:	697b      	ldr	r3, [r7, #20]
 8001502:	2207      	movs	r2, #7
 8001504:	4013      	ands	r3, r2
 8001506:	009b      	lsls	r3, r3, #2
 8001508:	220f      	movs	r2, #15
 800150a:	409a      	lsls	r2, r3
 800150c:	0013      	movs	r3, r2
 800150e:	43da      	mvns	r2, r3
 8001510:	693b      	ldr	r3, [r7, #16]
 8001512:	4013      	ands	r3, r2
 8001514:	613b      	str	r3, [r7, #16]
 8001516:	683b      	ldr	r3, [r7, #0]
 8001518:	691a      	ldr	r2, [r3, #16]
 800151a:	697b      	ldr	r3, [r7, #20]
 800151c:	2107      	movs	r1, #7
 800151e:	400b      	ands	r3, r1
 8001520:	009b      	lsls	r3, r3, #2
 8001522:	409a      	lsls	r2, r3
 8001524:	0013      	movs	r3, r2
 8001526:	693a      	ldr	r2, [r7, #16]
 8001528:	4313      	orrs	r3, r2
 800152a:	613b      	str	r3, [r7, #16]
 800152c:	697b      	ldr	r3, [r7, #20]
 800152e:	08da      	lsrs	r2, r3, #3
 8001530:	687b      	ldr	r3, [r7, #4]
 8001532:	3208      	adds	r2, #8
 8001534:	0092      	lsls	r2, r2, #2
 8001536:	6939      	ldr	r1, [r7, #16]
 8001538:	50d1      	str	r1, [r2, r3]
 800153a:	687b      	ldr	r3, [r7, #4]
 800153c:	681b      	ldr	r3, [r3, #0]
 800153e:	613b      	str	r3, [r7, #16]
 8001540:	697b      	ldr	r3, [r7, #20]
 8001542:	005b      	lsls	r3, r3, #1
 8001544:	2203      	movs	r2, #3
 8001546:	409a      	lsls	r2, r3
 8001548:	0013      	movs	r3, r2
 800154a:	43da      	mvns	r2, r3
 800154c:	693b      	ldr	r3, [r7, #16]
 800154e:	4013      	ands	r3, r2
 8001550:	613b      	str	r3, [r7, #16]
 8001552:	683b      	ldr	r3, [r7, #0]
 8001554:	685b      	ldr	r3, [r3, #4]
 8001556:	2203      	movs	r2, #3
 8001558:	401a      	ands	r2, r3
 800155a:	697b      	ldr	r3, [r7, #20]
 800155c:	005b      	lsls	r3, r3, #1
 800155e:	409a      	lsls	r2, r3
 8001560:	0013      	movs	r3, r2
 8001562:	693a      	ldr	r2, [r7, #16]
 8001564:	4313      	orrs	r3, r2
 8001566:	613b      	str	r3, [r7, #16]
 8001568:	687b      	ldr	r3, [r7, #4]
 800156a:	693a      	ldr	r2, [r7, #16]
 800156c:	601a      	str	r2, [r3, #0]
 800156e:	683b      	ldr	r3, [r7, #0]
 8001570:	685a      	ldr	r2, [r3, #4]
 8001572:	23c0      	movs	r3, #192	; 0xc0
 8001574:	029b      	lsls	r3, r3, #10
 8001576:	4013      	ands	r3, r2
 8001578:	d100      	bne.n	800157c <HAL_GPIO_Init+0x174>
 800157a:	e09a      	b.n	80016b2 <HAL_GPIO_Init+0x2aa>
 800157c:	4b54      	ldr	r3, [pc, #336]	; (80016d0 <HAL_GPIO_Init+0x2c8>)
 800157e:	699a      	ldr	r2, [r3, #24]
 8001580:	4b53      	ldr	r3, [pc, #332]	; (80016d0 <HAL_GPIO_Init+0x2c8>)
 8001582:	2101      	movs	r1, #1
 8001584:	430a      	orrs	r2, r1
 8001586:	619a      	str	r2, [r3, #24]
 8001588:	4b51      	ldr	r3, [pc, #324]	; (80016d0 <HAL_GPIO_Init+0x2c8>)
 800158a:	699b      	ldr	r3, [r3, #24]
 800158c:	2201      	movs	r2, #1
 800158e:	4013      	ands	r3, r2
 8001590:	60bb      	str	r3, [r7, #8]
 8001592:	68bb      	ldr	r3, [r7, #8]
 8001594:	4a4f      	ldr	r2, [pc, #316]	; (80016d4 <HAL_GPIO_Init+0x2cc>)
 8001596:	697b      	ldr	r3, [r7, #20]
 8001598:	089b      	lsrs	r3, r3, #2
 800159a:	3302      	adds	r3, #2
 800159c:	009b      	lsls	r3, r3, #2
 800159e:	589b      	ldr	r3, [r3, r2]
 80015a0:	613b      	str	r3, [r7, #16]
 80015a2:	697b      	ldr	r3, [r7, #20]
 80015a4:	2203      	movs	r2, #3
 80015a6:	4013      	ands	r3, r2
 80015a8:	009b      	lsls	r3, r3, #2
 80015aa:	220f      	movs	r2, #15
 80015ac:	409a      	lsls	r2, r3
 80015ae:	0013      	movs	r3, r2
 80015b0:	43da      	mvns	r2, r3
 80015b2:	693b      	ldr	r3, [r7, #16]
 80015b4:	4013      	ands	r3, r2
 80015b6:	613b      	str	r3, [r7, #16]
 80015b8:	687a      	ldr	r2, [r7, #4]
 80015ba:	2390      	movs	r3, #144	; 0x90
 80015bc:	05db      	lsls	r3, r3, #23
 80015be:	429a      	cmp	r2, r3
 80015c0:	d013      	beq.n	80015ea <HAL_GPIO_Init+0x1e2>
 80015c2:	687b      	ldr	r3, [r7, #4]
 80015c4:	4a44      	ldr	r2, [pc, #272]	; (80016d8 <HAL_GPIO_Init+0x2d0>)
 80015c6:	4293      	cmp	r3, r2
 80015c8:	d00d      	beq.n	80015e6 <HAL_GPIO_Init+0x1de>
 80015ca:	687b      	ldr	r3, [r7, #4]
 80015cc:	4a43      	ldr	r2, [pc, #268]	; (80016dc <HAL_GPIO_Init+0x2d4>)
 80015ce:	4293      	cmp	r3, r2
 80015d0:	d007      	beq.n	80015e2 <HAL_GPIO_Init+0x1da>
 80015d2:	687b      	ldr	r3, [r7, #4]
 80015d4:	4a42      	ldr	r2, [pc, #264]	; (80016e0 <HAL_GPIO_Init+0x2d8>)
 80015d6:	4293      	cmp	r3, r2
 80015d8:	d101      	bne.n	80015de <HAL_GPIO_Init+0x1d6>
 80015da:	2303      	movs	r3, #3
 80015dc:	e006      	b.n	80015ec <HAL_GPIO_Init+0x1e4>
 80015de:	2305      	movs	r3, #5
 80015e0:	e004      	b.n	80015ec <HAL_GPIO_Init+0x1e4>
 80015e2:	2302      	movs	r3, #2
 80015e4:	e002      	b.n	80015ec <HAL_GPIO_Init+0x1e4>
 80015e6:	2301      	movs	r3, #1
 80015e8:	e000      	b.n	80015ec <HAL_GPIO_Init+0x1e4>
 80015ea:	2300      	movs	r3, #0
 80015ec:	697a      	ldr	r2, [r7, #20]
 80015ee:	2103      	movs	r1, #3
 80015f0:	400a      	ands	r2, r1
 80015f2:	0092      	lsls	r2, r2, #2
 80015f4:	4093      	lsls	r3, r2
 80015f6:	693a      	ldr	r2, [r7, #16]
 80015f8:	4313      	orrs	r3, r2
 80015fa:	613b      	str	r3, [r7, #16]
 80015fc:	4935      	ldr	r1, [pc, #212]	; (80016d4 <HAL_GPIO_Init+0x2cc>)
 80015fe:	697b      	ldr	r3, [r7, #20]
 8001600:	089b      	lsrs	r3, r3, #2
 8001602:	3302      	adds	r3, #2
 8001604:	009b      	lsls	r3, r3, #2
 8001606:	693a      	ldr	r2, [r7, #16]
 8001608:	505a      	str	r2, [r3, r1]
 800160a:	4b36      	ldr	r3, [pc, #216]	; (80016e4 <HAL_GPIO_Init+0x2dc>)
 800160c:	689b      	ldr	r3, [r3, #8]
 800160e:	613b      	str	r3, [r7, #16]
 8001610:	68fb      	ldr	r3, [r7, #12]
 8001612:	43da      	mvns	r2, r3
 8001614:	693b      	ldr	r3, [r7, #16]
 8001616:	4013      	ands	r3, r2
 8001618:	613b      	str	r3, [r7, #16]
 800161a:	683b      	ldr	r3, [r7, #0]
 800161c:	685a      	ldr	r2, [r3, #4]
 800161e:	2380      	movs	r3, #128	; 0x80
 8001620:	035b      	lsls	r3, r3, #13
 8001622:	4013      	ands	r3, r2
 8001624:	d003      	beq.n	800162e <HAL_GPIO_Init+0x226>
 8001626:	693a      	ldr	r2, [r7, #16]
 8001628:	68fb      	ldr	r3, [r7, #12]
 800162a:	4313      	orrs	r3, r2
 800162c:	613b      	str	r3, [r7, #16]
 800162e:	4b2d      	ldr	r3, [pc, #180]	; (80016e4 <HAL_GPIO_Init+0x2dc>)
 8001630:	693a      	ldr	r2, [r7, #16]
 8001632:	609a      	str	r2, [r3, #8]
 8001634:	4b2b      	ldr	r3, [pc, #172]	; (80016e4 <HAL_GPIO_Init+0x2dc>)
 8001636:	68db      	ldr	r3, [r3, #12]
 8001638:	613b      	str	r3, [r7, #16]
 800163a:	68fb      	ldr	r3, [r7, #12]
 800163c:	43da      	mvns	r2, r3
 800163e:	693b      	ldr	r3, [r7, #16]
 8001640:	4013      	ands	r3, r2
 8001642:	613b      	str	r3, [r7, #16]
 8001644:	683b      	ldr	r3, [r7, #0]
 8001646:	685a      	ldr	r2, [r3, #4]
 8001648:	2380      	movs	r3, #128	; 0x80
 800164a:	039b      	lsls	r3, r3, #14
 800164c:	4013      	ands	r3, r2
 800164e:	d003      	beq.n	8001658 <HAL_GPIO_Init+0x250>
 8001650:	693a      	ldr	r2, [r7, #16]
 8001652:	68fb      	ldr	r3, [r7, #12]
 8001654:	4313      	orrs	r3, r2
 8001656:	613b      	str	r3, [r7, #16]
 8001658:	4b22      	ldr	r3, [pc, #136]	; (80016e4 <HAL_GPIO_Init+0x2dc>)
 800165a:	693a      	ldr	r2, [r7, #16]
 800165c:	60da      	str	r2, [r3, #12]
 800165e:	4b21      	ldr	r3, [pc, #132]	; (80016e4 <HAL_GPIO_Init+0x2dc>)
 8001660:	685b      	ldr	r3, [r3, #4]
 8001662:	613b      	str	r3, [r7, #16]
 8001664:	68fb      	ldr	r3, [r7, #12]
 8001666:	43da      	mvns	r2, r3
 8001668:	693b      	ldr	r3, [r7, #16]
 800166a:	4013      	ands	r3, r2
 800166c:	613b      	str	r3, [r7, #16]
 800166e:	683b      	ldr	r3, [r7, #0]
 8001670:	685a      	ldr	r2, [r3, #4]
 8001672:	2380      	movs	r3, #128	; 0x80
 8001674:	029b      	lsls	r3, r3, #10
 8001676:	4013      	ands	r3, r2
 8001678:	d003      	beq.n	8001682 <HAL_GPIO_Init+0x27a>
 800167a:	693a      	ldr	r2, [r7, #16]
 800167c:	68fb      	ldr	r3, [r7, #12]
 800167e:	4313      	orrs	r3, r2
 8001680:	613b      	str	r3, [r7, #16]
 8001682:	4b18      	ldr	r3, [pc, #96]	; (80016e4 <HAL_GPIO_Init+0x2dc>)
 8001684:	693a      	ldr	r2, [r7, #16]
 8001686:	605a      	str	r2, [r3, #4]
 8001688:	4b16      	ldr	r3, [pc, #88]	; (80016e4 <HAL_GPIO_Init+0x2dc>)
 800168a:	681b      	ldr	r3, [r3, #0]
 800168c:	613b      	str	r3, [r7, #16]
 800168e:	68fb      	ldr	r3, [r7, #12]
 8001690:	43da      	mvns	r2, r3
 8001692:	693b      	ldr	r3, [r7, #16]
 8001694:	4013      	ands	r3, r2
 8001696:	613b      	str	r3, [r7, #16]
 8001698:	683b      	ldr	r3, [r7, #0]
 800169a:	685a      	ldr	r2, [r3, #4]
 800169c:	2380      	movs	r3, #128	; 0x80
 800169e:	025b      	lsls	r3, r3, #9
 80016a0:	4013      	ands	r3, r2
 80016a2:	d003      	beq.n	80016ac <HAL_GPIO_Init+0x2a4>
 80016a4:	693a      	ldr	r2, [r7, #16]
 80016a6:	68fb      	ldr	r3, [r7, #12]
 80016a8:	4313      	orrs	r3, r2
 80016aa:	613b      	str	r3, [r7, #16]
 80016ac:	4b0d      	ldr	r3, [pc, #52]	; (80016e4 <HAL_GPIO_Init+0x2dc>)
 80016ae:	693a      	ldr	r2, [r7, #16]
 80016b0:	601a      	str	r2, [r3, #0]
 80016b2:	697b      	ldr	r3, [r7, #20]
 80016b4:	3301      	adds	r3, #1
 80016b6:	617b      	str	r3, [r7, #20]
 80016b8:	683b      	ldr	r3, [r7, #0]
 80016ba:	681a      	ldr	r2, [r3, #0]
 80016bc:	697b      	ldr	r3, [r7, #20]
 80016be:	40da      	lsrs	r2, r3
 80016c0:	1e13      	subs	r3, r2, #0
 80016c2:	d000      	beq.n	80016c6 <HAL_GPIO_Init+0x2be>
 80016c4:	e6a8      	b.n	8001418 <HAL_GPIO_Init+0x10>
 80016c6:	46c0      	nop			; (mov r8, r8)
 80016c8:	46c0      	nop			; (mov r8, r8)
 80016ca:	46bd      	mov	sp, r7
 80016cc:	b006      	add	sp, #24
 80016ce:	bd80      	pop	{r7, pc}
 80016d0:	40021000 	.word	0x40021000
 80016d4:	40010000 	.word	0x40010000
 80016d8:	48000400 	.word	0x48000400
 80016dc:	48000800 	.word	0x48000800
 80016e0:	48000c00 	.word	0x48000c00
 80016e4:	40010400 	.word	0x40010400

080016e8 <HAL_GPIO_WritePin>:
 80016e8:	b580      	push	{r7, lr}
 80016ea:	b082      	sub	sp, #8
 80016ec:	af00      	add	r7, sp, #0
 80016ee:	6078      	str	r0, [r7, #4]
 80016f0:	0008      	movs	r0, r1
 80016f2:	0011      	movs	r1, r2
 80016f4:	1cbb      	adds	r3, r7, #2
 80016f6:	1c02      	adds	r2, r0, #0
 80016f8:	801a      	strh	r2, [r3, #0]
 80016fa:	1c7b      	adds	r3, r7, #1
 80016fc:	1c0a      	adds	r2, r1, #0
 80016fe:	701a      	strb	r2, [r3, #0]
 8001700:	1c7b      	adds	r3, r7, #1
 8001702:	781b      	ldrb	r3, [r3, #0]
 8001704:	2b00      	cmp	r3, #0
 8001706:	d004      	beq.n	8001712 <HAL_GPIO_WritePin+0x2a>
 8001708:	1cbb      	adds	r3, r7, #2
 800170a:	881a      	ldrh	r2, [r3, #0]
 800170c:	687b      	ldr	r3, [r7, #4]
 800170e:	619a      	str	r2, [r3, #24]
 8001710:	e003      	b.n	800171a <HAL_GPIO_WritePin+0x32>
 8001712:	1cbb      	adds	r3, r7, #2
 8001714:	881a      	ldrh	r2, [r3, #0]
 8001716:	687b      	ldr	r3, [r7, #4]
 8001718:	629a      	str	r2, [r3, #40]	; 0x28
 800171a:	46c0      	nop			; (mov r8, r8)
 800171c:	46bd      	mov	sp, r7
 800171e:	b002      	add	sp, #8
 8001720:	bd80      	pop	{r7, pc}
	...

08001724 <HAL_RCC_OscConfig>:
 8001724:	b580      	push	{r7, lr}
 8001726:	b088      	sub	sp, #32
 8001728:	af00      	add	r7, sp, #0
 800172a:	6078      	str	r0, [r7, #4]
 800172c:	687b      	ldr	r3, [r7, #4]
 800172e:	2b00      	cmp	r3, #0
 8001730:	d101      	bne.n	8001736 <HAL_RCC_OscConfig+0x12>
 8001732:	2301      	movs	r3, #1
 8001734:	e305      	b.n	8001d42 <HAL_RCC_OscConfig+0x61e>
 8001736:	687b      	ldr	r3, [r7, #4]
 8001738:	681b      	ldr	r3, [r3, #0]
 800173a:	2201      	movs	r2, #1
 800173c:	4013      	ands	r3, r2
 800173e:	d100      	bne.n	8001742 <HAL_RCC_OscConfig+0x1e>
 8001740:	e08d      	b.n	800185e <HAL_RCC_OscConfig+0x13a>
 8001742:	4bc5      	ldr	r3, [pc, #788]	; (8001a58 <HAL_RCC_OscConfig+0x334>)
 8001744:	685b      	ldr	r3, [r3, #4]
 8001746:	220c      	movs	r2, #12
 8001748:	4013      	ands	r3, r2
 800174a:	2b04      	cmp	r3, #4
 800174c:	d00e      	beq.n	800176c <HAL_RCC_OscConfig+0x48>
 800174e:	4bc2      	ldr	r3, [pc, #776]	; (8001a58 <HAL_RCC_OscConfig+0x334>)
 8001750:	685b      	ldr	r3, [r3, #4]
 8001752:	220c      	movs	r2, #12
 8001754:	4013      	ands	r3, r2
 8001756:	2b08      	cmp	r3, #8
 8001758:	d116      	bne.n	8001788 <HAL_RCC_OscConfig+0x64>
 800175a:	4bbf      	ldr	r3, [pc, #764]	; (8001a58 <HAL_RCC_OscConfig+0x334>)
 800175c:	685a      	ldr	r2, [r3, #4]
 800175e:	23c0      	movs	r3, #192	; 0xc0
 8001760:	025b      	lsls	r3, r3, #9
 8001762:	401a      	ands	r2, r3
 8001764:	2380      	movs	r3, #128	; 0x80
 8001766:	025b      	lsls	r3, r3, #9
 8001768:	429a      	cmp	r2, r3
 800176a:	d10d      	bne.n	8001788 <HAL_RCC_OscConfig+0x64>
 800176c:	4bba      	ldr	r3, [pc, #744]	; (8001a58 <HAL_RCC_OscConfig+0x334>)
 800176e:	681a      	ldr	r2, [r3, #0]
 8001770:	2380      	movs	r3, #128	; 0x80
 8001772:	029b      	lsls	r3, r3, #10
 8001774:	4013      	ands	r3, r2
 8001776:	d100      	bne.n	800177a <HAL_RCC_OscConfig+0x56>
 8001778:	e070      	b.n	800185c <HAL_RCC_OscConfig+0x138>
 800177a:	687b      	ldr	r3, [r7, #4]
 800177c:	685b      	ldr	r3, [r3, #4]
 800177e:	2b00      	cmp	r3, #0
 8001780:	d000      	beq.n	8001784 <HAL_RCC_OscConfig+0x60>
 8001782:	e06b      	b.n	800185c <HAL_RCC_OscConfig+0x138>
 8001784:	2301      	movs	r3, #1
 8001786:	e2dc      	b.n	8001d42 <HAL_RCC_OscConfig+0x61e>
 8001788:	687b      	ldr	r3, [r7, #4]
 800178a:	685b      	ldr	r3, [r3, #4]
 800178c:	2b01      	cmp	r3, #1
 800178e:	d107      	bne.n	80017a0 <HAL_RCC_OscConfig+0x7c>
 8001790:	4bb1      	ldr	r3, [pc, #708]	; (8001a58 <HAL_RCC_OscConfig+0x334>)
 8001792:	681a      	ldr	r2, [r3, #0]
 8001794:	4bb0      	ldr	r3, [pc, #704]	; (8001a58 <HAL_RCC_OscConfig+0x334>)
 8001796:	2180      	movs	r1, #128	; 0x80
 8001798:	0249      	lsls	r1, r1, #9
 800179a:	430a      	orrs	r2, r1
 800179c:	601a      	str	r2, [r3, #0]
 800179e:	e02f      	b.n	8001800 <HAL_RCC_OscConfig+0xdc>
 80017a0:	687b      	ldr	r3, [r7, #4]
 80017a2:	685b      	ldr	r3, [r3, #4]
 80017a4:	2b00      	cmp	r3, #0
 80017a6:	d10c      	bne.n	80017c2 <HAL_RCC_OscConfig+0x9e>
 80017a8:	4bab      	ldr	r3, [pc, #684]	; (8001a58 <HAL_RCC_OscConfig+0x334>)
 80017aa:	681a      	ldr	r2, [r3, #0]
 80017ac:	4baa      	ldr	r3, [pc, #680]	; (8001a58 <HAL_RCC_OscConfig+0x334>)
 80017ae:	49ab      	ldr	r1, [pc, #684]	; (8001a5c <HAL_RCC_OscConfig+0x338>)
 80017b0:	400a      	ands	r2, r1
 80017b2:	601a      	str	r2, [r3, #0]
 80017b4:	4ba8      	ldr	r3, [pc, #672]	; (8001a58 <HAL_RCC_OscConfig+0x334>)
 80017b6:	681a      	ldr	r2, [r3, #0]
 80017b8:	4ba7      	ldr	r3, [pc, #668]	; (8001a58 <HAL_RCC_OscConfig+0x334>)
 80017ba:	49a9      	ldr	r1, [pc, #676]	; (8001a60 <HAL_RCC_OscConfig+0x33c>)
 80017bc:	400a      	ands	r2, r1
 80017be:	601a      	str	r2, [r3, #0]
 80017c0:	e01e      	b.n	8001800 <HAL_RCC_OscConfig+0xdc>
 80017c2:	687b      	ldr	r3, [r7, #4]
 80017c4:	685b      	ldr	r3, [r3, #4]
 80017c6:	2b05      	cmp	r3, #5
 80017c8:	d10e      	bne.n	80017e8 <HAL_RCC_OscConfig+0xc4>
 80017ca:	4ba3      	ldr	r3, [pc, #652]	; (8001a58 <HAL_RCC_OscConfig+0x334>)
 80017cc:	681a      	ldr	r2, [r3, #0]
 80017ce:	4ba2      	ldr	r3, [pc, #648]	; (8001a58 <HAL_RCC_OscConfig+0x334>)
 80017d0:	2180      	movs	r1, #128	; 0x80
 80017d2:	02c9      	lsls	r1, r1, #11
 80017d4:	430a      	orrs	r2, r1
 80017d6:	601a      	str	r2, [r3, #0]
 80017d8:	4b9f      	ldr	r3, [pc, #636]	; (8001a58 <HAL_RCC_OscConfig+0x334>)
 80017da:	681a      	ldr	r2, [r3, #0]
 80017dc:	4b9e      	ldr	r3, [pc, #632]	; (8001a58 <HAL_RCC_OscConfig+0x334>)
 80017de:	2180      	movs	r1, #128	; 0x80
 80017e0:	0249      	lsls	r1, r1, #9
 80017e2:	430a      	orrs	r2, r1
 80017e4:	601a      	str	r2, [r3, #0]
 80017e6:	e00b      	b.n	8001800 <HAL_RCC_OscConfig+0xdc>
 80017e8:	4b9b      	ldr	r3, [pc, #620]	; (8001a58 <HAL_RCC_OscConfig+0x334>)
 80017ea:	681a      	ldr	r2, [r3, #0]
 80017ec:	4b9a      	ldr	r3, [pc, #616]	; (8001a58 <HAL_RCC_OscConfig+0x334>)
 80017ee:	499b      	ldr	r1, [pc, #620]	; (8001a5c <HAL_RCC_OscConfig+0x338>)
 80017f0:	400a      	ands	r2, r1
 80017f2:	601a      	str	r2, [r3, #0]
 80017f4:	4b98      	ldr	r3, [pc, #608]	; (8001a58 <HAL_RCC_OscConfig+0x334>)
 80017f6:	681a      	ldr	r2, [r3, #0]
 80017f8:	4b97      	ldr	r3, [pc, #604]	; (8001a58 <HAL_RCC_OscConfig+0x334>)
 80017fa:	4999      	ldr	r1, [pc, #612]	; (8001a60 <HAL_RCC_OscConfig+0x33c>)
 80017fc:	400a      	ands	r2, r1
 80017fe:	601a      	str	r2, [r3, #0]
 8001800:	687b      	ldr	r3, [r7, #4]
 8001802:	685b      	ldr	r3, [r3, #4]
 8001804:	2b00      	cmp	r3, #0
 8001806:	d014      	beq.n	8001832 <HAL_RCC_OscConfig+0x10e>
 8001808:	f7ff fd1c 	bl	8001244 <HAL_GetTick>
 800180c:	0003      	movs	r3, r0
 800180e:	61bb      	str	r3, [r7, #24]
 8001810:	e008      	b.n	8001824 <HAL_RCC_OscConfig+0x100>
 8001812:	f7ff fd17 	bl	8001244 <HAL_GetTick>
 8001816:	0002      	movs	r2, r0
 8001818:	69bb      	ldr	r3, [r7, #24]
 800181a:	1ad3      	subs	r3, r2, r3
 800181c:	2b64      	cmp	r3, #100	; 0x64
 800181e:	d901      	bls.n	8001824 <HAL_RCC_OscConfig+0x100>
 8001820:	2303      	movs	r3, #3
 8001822:	e28e      	b.n	8001d42 <HAL_RCC_OscConfig+0x61e>
 8001824:	4b8c      	ldr	r3, [pc, #560]	; (8001a58 <HAL_RCC_OscConfig+0x334>)
 8001826:	681a      	ldr	r2, [r3, #0]
 8001828:	2380      	movs	r3, #128	; 0x80
 800182a:	029b      	lsls	r3, r3, #10
 800182c:	4013      	ands	r3, r2
 800182e:	d0f0      	beq.n	8001812 <HAL_RCC_OscConfig+0xee>
 8001830:	e015      	b.n	800185e <HAL_RCC_OscConfig+0x13a>
 8001832:	f7ff fd07 	bl	8001244 <HAL_GetTick>
 8001836:	0003      	movs	r3, r0
 8001838:	61bb      	str	r3, [r7, #24]
 800183a:	e008      	b.n	800184e <HAL_RCC_OscConfig+0x12a>
 800183c:	f7ff fd02 	bl	8001244 <HAL_GetTick>
 8001840:	0002      	movs	r2, r0
 8001842:	69bb      	ldr	r3, [r7, #24]
 8001844:	1ad3      	subs	r3, r2, r3
 8001846:	2b64      	cmp	r3, #100	; 0x64
 8001848:	d901      	bls.n	800184e <HAL_RCC_OscConfig+0x12a>
 800184a:	2303      	movs	r3, #3
 800184c:	e279      	b.n	8001d42 <HAL_RCC_OscConfig+0x61e>
 800184e:	4b82      	ldr	r3, [pc, #520]	; (8001a58 <HAL_RCC_OscConfig+0x334>)
 8001850:	681a      	ldr	r2, [r3, #0]
 8001852:	2380      	movs	r3, #128	; 0x80
 8001854:	029b      	lsls	r3, r3, #10
 8001856:	4013      	ands	r3, r2
 8001858:	d1f0      	bne.n	800183c <HAL_RCC_OscConfig+0x118>
 800185a:	e000      	b.n	800185e <HAL_RCC_OscConfig+0x13a>
 800185c:	46c0      	nop			; (mov r8, r8)
 800185e:	687b      	ldr	r3, [r7, #4]
 8001860:	681b      	ldr	r3, [r3, #0]
 8001862:	2202      	movs	r2, #2
 8001864:	4013      	ands	r3, r2
 8001866:	d100      	bne.n	800186a <HAL_RCC_OscConfig+0x146>
 8001868:	e06c      	b.n	8001944 <HAL_RCC_OscConfig+0x220>
 800186a:	4b7b      	ldr	r3, [pc, #492]	; (8001a58 <HAL_RCC_OscConfig+0x334>)
 800186c:	685b      	ldr	r3, [r3, #4]
 800186e:	220c      	movs	r2, #12
 8001870:	4013      	ands	r3, r2
 8001872:	d00e      	beq.n	8001892 <HAL_RCC_OscConfig+0x16e>
 8001874:	4b78      	ldr	r3, [pc, #480]	; (8001a58 <HAL_RCC_OscConfig+0x334>)
 8001876:	685b      	ldr	r3, [r3, #4]
 8001878:	220c      	movs	r2, #12
 800187a:	4013      	ands	r3, r2
 800187c:	2b08      	cmp	r3, #8
 800187e:	d11f      	bne.n	80018c0 <HAL_RCC_OscConfig+0x19c>
 8001880:	4b75      	ldr	r3, [pc, #468]	; (8001a58 <HAL_RCC_OscConfig+0x334>)
 8001882:	685a      	ldr	r2, [r3, #4]
 8001884:	23c0      	movs	r3, #192	; 0xc0
 8001886:	025b      	lsls	r3, r3, #9
 8001888:	401a      	ands	r2, r3
 800188a:	2380      	movs	r3, #128	; 0x80
 800188c:	021b      	lsls	r3, r3, #8
 800188e:	429a      	cmp	r2, r3
 8001890:	d116      	bne.n	80018c0 <HAL_RCC_OscConfig+0x19c>
 8001892:	4b71      	ldr	r3, [pc, #452]	; (8001a58 <HAL_RCC_OscConfig+0x334>)
 8001894:	681b      	ldr	r3, [r3, #0]
 8001896:	2202      	movs	r2, #2
 8001898:	4013      	ands	r3, r2
 800189a:	d005      	beq.n	80018a8 <HAL_RCC_OscConfig+0x184>
 800189c:	687b      	ldr	r3, [r7, #4]
 800189e:	68db      	ldr	r3, [r3, #12]
 80018a0:	2b01      	cmp	r3, #1
 80018a2:	d001      	beq.n	80018a8 <HAL_RCC_OscConfig+0x184>
 80018a4:	2301      	movs	r3, #1
 80018a6:	e24c      	b.n	8001d42 <HAL_RCC_OscConfig+0x61e>
 80018a8:	4b6b      	ldr	r3, [pc, #428]	; (8001a58 <HAL_RCC_OscConfig+0x334>)
 80018aa:	681b      	ldr	r3, [r3, #0]
 80018ac:	22f8      	movs	r2, #248	; 0xf8
 80018ae:	4393      	bics	r3, r2
 80018b0:	0019      	movs	r1, r3
 80018b2:	687b      	ldr	r3, [r7, #4]
 80018b4:	691b      	ldr	r3, [r3, #16]
 80018b6:	00da      	lsls	r2, r3, #3
 80018b8:	4b67      	ldr	r3, [pc, #412]	; (8001a58 <HAL_RCC_OscConfig+0x334>)
 80018ba:	430a      	orrs	r2, r1
 80018bc:	601a      	str	r2, [r3, #0]
 80018be:	e041      	b.n	8001944 <HAL_RCC_OscConfig+0x220>
 80018c0:	687b      	ldr	r3, [r7, #4]
 80018c2:	68db      	ldr	r3, [r3, #12]
 80018c4:	2b00      	cmp	r3, #0
 80018c6:	d024      	beq.n	8001912 <HAL_RCC_OscConfig+0x1ee>
 80018c8:	4b63      	ldr	r3, [pc, #396]	; (8001a58 <HAL_RCC_OscConfig+0x334>)
 80018ca:	681a      	ldr	r2, [r3, #0]
 80018cc:	4b62      	ldr	r3, [pc, #392]	; (8001a58 <HAL_RCC_OscConfig+0x334>)
 80018ce:	2101      	movs	r1, #1
 80018d0:	430a      	orrs	r2, r1
 80018d2:	601a      	str	r2, [r3, #0]
 80018d4:	f7ff fcb6 	bl	8001244 <HAL_GetTick>
 80018d8:	0003      	movs	r3, r0
 80018da:	61bb      	str	r3, [r7, #24]
 80018dc:	e008      	b.n	80018f0 <HAL_RCC_OscConfig+0x1cc>
 80018de:	f7ff fcb1 	bl	8001244 <HAL_GetTick>
 80018e2:	0002      	movs	r2, r0
 80018e4:	69bb      	ldr	r3, [r7, #24]
 80018e6:	1ad3      	subs	r3, r2, r3
 80018e8:	2b02      	cmp	r3, #2
 80018ea:	d901      	bls.n	80018f0 <HAL_RCC_OscConfig+0x1cc>
 80018ec:	2303      	movs	r3, #3
 80018ee:	e228      	b.n	8001d42 <HAL_RCC_OscConfig+0x61e>
 80018f0:	4b59      	ldr	r3, [pc, #356]	; (8001a58 <HAL_RCC_OscConfig+0x334>)
 80018f2:	681b      	ldr	r3, [r3, #0]
 80018f4:	2202      	movs	r2, #2
 80018f6:	4013      	ands	r3, r2
 80018f8:	d0f1      	beq.n	80018de <HAL_RCC_OscConfig+0x1ba>
 80018fa:	4b57      	ldr	r3, [pc, #348]	; (8001a58 <HAL_RCC_OscConfig+0x334>)
 80018fc:	681b      	ldr	r3, [r3, #0]
 80018fe:	22f8      	movs	r2, #248	; 0xf8
 8001900:	4393      	bics	r3, r2
 8001902:	0019      	movs	r1, r3
 8001904:	687b      	ldr	r3, [r7, #4]
 8001906:	691b      	ldr	r3, [r3, #16]
 8001908:	00da      	lsls	r2, r3, #3
 800190a:	4b53      	ldr	r3, [pc, #332]	; (8001a58 <HAL_RCC_OscConfig+0x334>)
 800190c:	430a      	orrs	r2, r1
 800190e:	601a      	str	r2, [r3, #0]
 8001910:	e018      	b.n	8001944 <HAL_RCC_OscConfig+0x220>
 8001912:	4b51      	ldr	r3, [pc, #324]	; (8001a58 <HAL_RCC_OscConfig+0x334>)
 8001914:	681a      	ldr	r2, [r3, #0]
 8001916:	4b50      	ldr	r3, [pc, #320]	; (8001a58 <HAL_RCC_OscConfig+0x334>)
 8001918:	2101      	movs	r1, #1
 800191a:	438a      	bics	r2, r1
 800191c:	601a      	str	r2, [r3, #0]
 800191e:	f7ff fc91 	bl	8001244 <HAL_GetTick>
 8001922:	0003      	movs	r3, r0
 8001924:	61bb      	str	r3, [r7, #24]
 8001926:	e008      	b.n	800193a <HAL_RCC_OscConfig+0x216>
 8001928:	f7ff fc8c 	bl	8001244 <HAL_GetTick>
 800192c:	0002      	movs	r2, r0
 800192e:	69bb      	ldr	r3, [r7, #24]
 8001930:	1ad3      	subs	r3, r2, r3
 8001932:	2b02      	cmp	r3, #2
 8001934:	d901      	bls.n	800193a <HAL_RCC_OscConfig+0x216>
 8001936:	2303      	movs	r3, #3
 8001938:	e203      	b.n	8001d42 <HAL_RCC_OscConfig+0x61e>
 800193a:	4b47      	ldr	r3, [pc, #284]	; (8001a58 <HAL_RCC_OscConfig+0x334>)
 800193c:	681b      	ldr	r3, [r3, #0]
 800193e:	2202      	movs	r2, #2
 8001940:	4013      	ands	r3, r2
 8001942:	d1f1      	bne.n	8001928 <HAL_RCC_OscConfig+0x204>
 8001944:	687b      	ldr	r3, [r7, #4]
 8001946:	681b      	ldr	r3, [r3, #0]
 8001948:	2208      	movs	r2, #8
 800194a:	4013      	ands	r3, r2
 800194c:	d036      	beq.n	80019bc <HAL_RCC_OscConfig+0x298>
 800194e:	687b      	ldr	r3, [r7, #4]
 8001950:	69db      	ldr	r3, [r3, #28]
 8001952:	2b00      	cmp	r3, #0
 8001954:	d019      	beq.n	800198a <HAL_RCC_OscConfig+0x266>
 8001956:	4b40      	ldr	r3, [pc, #256]	; (8001a58 <HAL_RCC_OscConfig+0x334>)
 8001958:	6a5a      	ldr	r2, [r3, #36]	; 0x24
 800195a:	4b3f      	ldr	r3, [pc, #252]	; (8001a58 <HAL_RCC_OscConfig+0x334>)
 800195c:	2101      	movs	r1, #1
 800195e:	430a      	orrs	r2, r1
 8001960:	625a      	str	r2, [r3, #36]	; 0x24
 8001962:	f7ff fc6f 	bl	8001244 <HAL_GetTick>
 8001966:	0003      	movs	r3, r0
 8001968:	61bb      	str	r3, [r7, #24]
 800196a:	e008      	b.n	800197e <HAL_RCC_OscConfig+0x25a>
 800196c:	f7ff fc6a 	bl	8001244 <HAL_GetTick>
 8001970:	0002      	movs	r2, r0
 8001972:	69bb      	ldr	r3, [r7, #24]
 8001974:	1ad3      	subs	r3, r2, r3
 8001976:	2b02      	cmp	r3, #2
 8001978:	d901      	bls.n	800197e <HAL_RCC_OscConfig+0x25a>
 800197a:	2303      	movs	r3, #3
 800197c:	e1e1      	b.n	8001d42 <HAL_RCC_OscConfig+0x61e>
 800197e:	4b36      	ldr	r3, [pc, #216]	; (8001a58 <HAL_RCC_OscConfig+0x334>)
 8001980:	6a5b      	ldr	r3, [r3, #36]	; 0x24
 8001982:	2202      	movs	r2, #2
 8001984:	4013      	ands	r3, r2
 8001986:	d0f1      	beq.n	800196c <HAL_RCC_OscConfig+0x248>
 8001988:	e018      	b.n	80019bc <HAL_RCC_OscConfig+0x298>
 800198a:	4b33      	ldr	r3, [pc, #204]	; (8001a58 <HAL_RCC_OscConfig+0x334>)
 800198c:	6a5a      	ldr	r2, [r3, #36]	; 0x24
 800198e:	4b32      	ldr	r3, [pc, #200]	; (8001a58 <HAL_RCC_OscConfig+0x334>)
 8001990:	2101      	movs	r1, #1
 8001992:	438a      	bics	r2, r1
 8001994:	625a      	str	r2, [r3, #36]	; 0x24
 8001996:	f7ff fc55 	bl	8001244 <HAL_GetTick>
 800199a:	0003      	movs	r3, r0
 800199c:	61bb      	str	r3, [r7, #24]
 800199e:	e008      	b.n	80019b2 <HAL_RCC_OscConfig+0x28e>
 80019a0:	f7ff fc50 	bl	8001244 <HAL_GetTick>
 80019a4:	0002      	movs	r2, r0
 80019a6:	69bb      	ldr	r3, [r7, #24]
 80019a8:	1ad3      	subs	r3, r2, r3
 80019aa:	2b02      	cmp	r3, #2
 80019ac:	d901      	bls.n	80019b2 <HAL_RCC_OscConfig+0x28e>
 80019ae:	2303      	movs	r3, #3
 80019b0:	e1c7      	b.n	8001d42 <HAL_RCC_OscConfig+0x61e>
 80019b2:	4b29      	ldr	r3, [pc, #164]	; (8001a58 <HAL_RCC_OscConfig+0x334>)
 80019b4:	6a5b      	ldr	r3, [r3, #36]	; 0x24
 80019b6:	2202      	movs	r2, #2
 80019b8:	4013      	ands	r3, r2
 80019ba:	d1f1      	bne.n	80019a0 <HAL_RCC_OscConfig+0x27c>
 80019bc:	687b      	ldr	r3, [r7, #4]
 80019be:	681b      	ldr	r3, [r3, #0]
 80019c0:	2204      	movs	r2, #4
 80019c2:	4013      	ands	r3, r2
 80019c4:	d100      	bne.n	80019c8 <HAL_RCC_OscConfig+0x2a4>
 80019c6:	e0b5      	b.n	8001b34 <HAL_RCC_OscConfig+0x410>
 80019c8:	201f      	movs	r0, #31
 80019ca:	183b      	adds	r3, r7, r0
 80019cc:	2200      	movs	r2, #0
 80019ce:	701a      	strb	r2, [r3, #0]
 80019d0:	4b21      	ldr	r3, [pc, #132]	; (8001a58 <HAL_RCC_OscConfig+0x334>)
 80019d2:	69da      	ldr	r2, [r3, #28]
 80019d4:	2380      	movs	r3, #128	; 0x80
 80019d6:	055b      	lsls	r3, r3, #21
 80019d8:	4013      	ands	r3, r2
 80019da:	d110      	bne.n	80019fe <HAL_RCC_OscConfig+0x2da>
 80019dc:	4b1e      	ldr	r3, [pc, #120]	; (8001a58 <HAL_RCC_OscConfig+0x334>)
 80019de:	69da      	ldr	r2, [r3, #28]
 80019e0:	4b1d      	ldr	r3, [pc, #116]	; (8001a58 <HAL_RCC_OscConfig+0x334>)
 80019e2:	2180      	movs	r1, #128	; 0x80
 80019e4:	0549      	lsls	r1, r1, #21
 80019e6:	430a      	orrs	r2, r1
 80019e8:	61da      	str	r2, [r3, #28]
 80019ea:	4b1b      	ldr	r3, [pc, #108]	; (8001a58 <HAL_RCC_OscConfig+0x334>)
 80019ec:	69da      	ldr	r2, [r3, #28]
 80019ee:	2380      	movs	r3, #128	; 0x80
 80019f0:	055b      	lsls	r3, r3, #21
 80019f2:	4013      	ands	r3, r2
 80019f4:	60fb      	str	r3, [r7, #12]
 80019f6:	68fb      	ldr	r3, [r7, #12]
 80019f8:	183b      	adds	r3, r7, r0
 80019fa:	2201      	movs	r2, #1
 80019fc:	701a      	strb	r2, [r3, #0]
 80019fe:	4b19      	ldr	r3, [pc, #100]	; (8001a64 <HAL_RCC_OscConfig+0x340>)
 8001a00:	681a      	ldr	r2, [r3, #0]
 8001a02:	2380      	movs	r3, #128	; 0x80
 8001a04:	005b      	lsls	r3, r3, #1
 8001a06:	4013      	ands	r3, r2
 8001a08:	d11a      	bne.n	8001a40 <HAL_RCC_OscConfig+0x31c>
 8001a0a:	4b16      	ldr	r3, [pc, #88]	; (8001a64 <HAL_RCC_OscConfig+0x340>)
 8001a0c:	681a      	ldr	r2, [r3, #0]
 8001a0e:	4b15      	ldr	r3, [pc, #84]	; (8001a64 <HAL_RCC_OscConfig+0x340>)
 8001a10:	2180      	movs	r1, #128	; 0x80
 8001a12:	0049      	lsls	r1, r1, #1
 8001a14:	430a      	orrs	r2, r1
 8001a16:	601a      	str	r2, [r3, #0]
 8001a18:	f7ff fc14 	bl	8001244 <HAL_GetTick>
 8001a1c:	0003      	movs	r3, r0
 8001a1e:	61bb      	str	r3, [r7, #24]
 8001a20:	e008      	b.n	8001a34 <HAL_RCC_OscConfig+0x310>
 8001a22:	f7ff fc0f 	bl	8001244 <HAL_GetTick>
 8001a26:	0002      	movs	r2, r0
 8001a28:	69bb      	ldr	r3, [r7, #24]
 8001a2a:	1ad3      	subs	r3, r2, r3
 8001a2c:	2b64      	cmp	r3, #100	; 0x64
 8001a2e:	d901      	bls.n	8001a34 <HAL_RCC_OscConfig+0x310>
 8001a30:	2303      	movs	r3, #3
 8001a32:	e186      	b.n	8001d42 <HAL_RCC_OscConfig+0x61e>
 8001a34:	4b0b      	ldr	r3, [pc, #44]	; (8001a64 <HAL_RCC_OscConfig+0x340>)
 8001a36:	681a      	ldr	r2, [r3, #0]
 8001a38:	2380      	movs	r3, #128	; 0x80
 8001a3a:	005b      	lsls	r3, r3, #1
 8001a3c:	4013      	ands	r3, r2
 8001a3e:	d0f0      	beq.n	8001a22 <HAL_RCC_OscConfig+0x2fe>
 8001a40:	687b      	ldr	r3, [r7, #4]
 8001a42:	689b      	ldr	r3, [r3, #8]
 8001a44:	2b01      	cmp	r3, #1
 8001a46:	d10f      	bne.n	8001a68 <HAL_RCC_OscConfig+0x344>
 8001a48:	4b03      	ldr	r3, [pc, #12]	; (8001a58 <HAL_RCC_OscConfig+0x334>)
 8001a4a:	6a1a      	ldr	r2, [r3, #32]
 8001a4c:	4b02      	ldr	r3, [pc, #8]	; (8001a58 <HAL_RCC_OscConfig+0x334>)
 8001a4e:	2101      	movs	r1, #1
 8001a50:	430a      	orrs	r2, r1
 8001a52:	621a      	str	r2, [r3, #32]
 8001a54:	e036      	b.n	8001ac4 <HAL_RCC_OscConfig+0x3a0>
 8001a56:	46c0      	nop			; (mov r8, r8)
 8001a58:	40021000 	.word	0x40021000
 8001a5c:	fffeffff 	.word	0xfffeffff
 8001a60:	fffbffff 	.word	0xfffbffff
 8001a64:	40007000 	.word	0x40007000
 8001a68:	687b      	ldr	r3, [r7, #4]
 8001a6a:	689b      	ldr	r3, [r3, #8]
 8001a6c:	2b00      	cmp	r3, #0
 8001a6e:	d10c      	bne.n	8001a8a <HAL_RCC_OscConfig+0x366>
 8001a70:	4bb6      	ldr	r3, [pc, #728]	; (8001d4c <HAL_RCC_OscConfig+0x628>)
 8001a72:	6a1a      	ldr	r2, [r3, #32]
 8001a74:	4bb5      	ldr	r3, [pc, #724]	; (8001d4c <HAL_RCC_OscConfig+0x628>)
 8001a76:	2101      	movs	r1, #1
 8001a78:	438a      	bics	r2, r1
 8001a7a:	621a      	str	r2, [r3, #32]
 8001a7c:	4bb3      	ldr	r3, [pc, #716]	; (8001d4c <HAL_RCC_OscConfig+0x628>)
 8001a7e:	6a1a      	ldr	r2, [r3, #32]
 8001a80:	4bb2      	ldr	r3, [pc, #712]	; (8001d4c <HAL_RCC_OscConfig+0x628>)
 8001a82:	2104      	movs	r1, #4
 8001a84:	438a      	bics	r2, r1
 8001a86:	621a      	str	r2, [r3, #32]
 8001a88:	e01c      	b.n	8001ac4 <HAL_RCC_OscConfig+0x3a0>
 8001a8a:	687b      	ldr	r3, [r7, #4]
 8001a8c:	689b      	ldr	r3, [r3, #8]
 8001a8e:	2b05      	cmp	r3, #5
 8001a90:	d10c      	bne.n	8001aac <HAL_RCC_OscConfig+0x388>
 8001a92:	4bae      	ldr	r3, [pc, #696]	; (8001d4c <HAL_RCC_OscConfig+0x628>)
 8001a94:	6a1a      	ldr	r2, [r3, #32]
 8001a96:	4bad      	ldr	r3, [pc, #692]	; (8001d4c <HAL_RCC_OscConfig+0x628>)
 8001a98:	2104      	movs	r1, #4
 8001a9a:	430a      	orrs	r2, r1
 8001a9c:	621a      	str	r2, [r3, #32]
 8001a9e:	4bab      	ldr	r3, [pc, #684]	; (8001d4c <HAL_RCC_OscConfig+0x628>)
 8001aa0:	6a1a      	ldr	r2, [r3, #32]
 8001aa2:	4baa      	ldr	r3, [pc, #680]	; (8001d4c <HAL_RCC_OscConfig+0x628>)
 8001aa4:	2101      	movs	r1, #1
 8001aa6:	430a      	orrs	r2, r1
 8001aa8:	621a      	str	r2, [r3, #32]
 8001aaa:	e00b      	b.n	8001ac4 <HAL_RCC_OscConfig+0x3a0>
 8001aac:	4ba7      	ldr	r3, [pc, #668]	; (8001d4c <HAL_RCC_OscConfig+0x628>)
 8001aae:	6a1a      	ldr	r2, [r3, #32]
 8001ab0:	4ba6      	ldr	r3, [pc, #664]	; (8001d4c <HAL_RCC_OscConfig+0x628>)
 8001ab2:	2101      	movs	r1, #1
 8001ab4:	438a      	bics	r2, r1
 8001ab6:	621a      	str	r2, [r3, #32]
 8001ab8:	4ba4      	ldr	r3, [pc, #656]	; (8001d4c <HAL_RCC_OscConfig+0x628>)
 8001aba:	6a1a      	ldr	r2, [r3, #32]
 8001abc:	4ba3      	ldr	r3, [pc, #652]	; (8001d4c <HAL_RCC_OscConfig+0x628>)
 8001abe:	2104      	movs	r1, #4
 8001ac0:	438a      	bics	r2, r1
 8001ac2:	621a      	str	r2, [r3, #32]
 8001ac4:	687b      	ldr	r3, [r7, #4]
 8001ac6:	689b      	ldr	r3, [r3, #8]
 8001ac8:	2b00      	cmp	r3, #0
 8001aca:	d014      	beq.n	8001af6 <HAL_RCC_OscConfig+0x3d2>
 8001acc:	f7ff fbba 	bl	8001244 <HAL_GetTick>
 8001ad0:	0003      	movs	r3, r0
 8001ad2:	61bb      	str	r3, [r7, #24]
 8001ad4:	e009      	b.n	8001aea <HAL_RCC_OscConfig+0x3c6>
 8001ad6:	f7ff fbb5 	bl	8001244 <HAL_GetTick>
 8001ada:	0002      	movs	r2, r0
 8001adc:	69bb      	ldr	r3, [r7, #24]
 8001ade:	1ad3      	subs	r3, r2, r3
 8001ae0:	4a9b      	ldr	r2, [pc, #620]	; (8001d50 <HAL_RCC_OscConfig+0x62c>)
 8001ae2:	4293      	cmp	r3, r2
 8001ae4:	d901      	bls.n	8001aea <HAL_RCC_OscConfig+0x3c6>
 8001ae6:	2303      	movs	r3, #3
 8001ae8:	e12b      	b.n	8001d42 <HAL_RCC_OscConfig+0x61e>
 8001aea:	4b98      	ldr	r3, [pc, #608]	; (8001d4c <HAL_RCC_OscConfig+0x628>)
 8001aec:	6a1b      	ldr	r3, [r3, #32]
 8001aee:	2202      	movs	r2, #2
 8001af0:	4013      	ands	r3, r2
 8001af2:	d0f0      	beq.n	8001ad6 <HAL_RCC_OscConfig+0x3b2>
 8001af4:	e013      	b.n	8001b1e <HAL_RCC_OscConfig+0x3fa>
 8001af6:	f7ff fba5 	bl	8001244 <HAL_GetTick>
 8001afa:	0003      	movs	r3, r0
 8001afc:	61bb      	str	r3, [r7, #24]
 8001afe:	e009      	b.n	8001b14 <HAL_RCC_OscConfig+0x3f0>
 8001b00:	f7ff fba0 	bl	8001244 <HAL_GetTick>
 8001b04:	0002      	movs	r2, r0
 8001b06:	69bb      	ldr	r3, [r7, #24]
 8001b08:	1ad3      	subs	r3, r2, r3
 8001b0a:	4a91      	ldr	r2, [pc, #580]	; (8001d50 <HAL_RCC_OscConfig+0x62c>)
 8001b0c:	4293      	cmp	r3, r2
 8001b0e:	d901      	bls.n	8001b14 <HAL_RCC_OscConfig+0x3f0>
 8001b10:	2303      	movs	r3, #3
 8001b12:	e116      	b.n	8001d42 <HAL_RCC_OscConfig+0x61e>
 8001b14:	4b8d      	ldr	r3, [pc, #564]	; (8001d4c <HAL_RCC_OscConfig+0x628>)
 8001b16:	6a1b      	ldr	r3, [r3, #32]
 8001b18:	2202      	movs	r2, #2
 8001b1a:	4013      	ands	r3, r2
 8001b1c:	d1f0      	bne.n	8001b00 <HAL_RCC_OscConfig+0x3dc>
 8001b1e:	231f      	movs	r3, #31
 8001b20:	18fb      	adds	r3, r7, r3
 8001b22:	781b      	ldrb	r3, [r3, #0]
 8001b24:	2b01      	cmp	r3, #1
 8001b26:	d105      	bne.n	8001b34 <HAL_RCC_OscConfig+0x410>
 8001b28:	4b88      	ldr	r3, [pc, #544]	; (8001d4c <HAL_RCC_OscConfig+0x628>)
 8001b2a:	69da      	ldr	r2, [r3, #28]
 8001b2c:	4b87      	ldr	r3, [pc, #540]	; (8001d4c <HAL_RCC_OscConfig+0x628>)
 8001b2e:	4989      	ldr	r1, [pc, #548]	; (8001d54 <HAL_RCC_OscConfig+0x630>)
 8001b30:	400a      	ands	r2, r1
 8001b32:	61da      	str	r2, [r3, #28]
 8001b34:	687b      	ldr	r3, [r7, #4]
 8001b36:	681b      	ldr	r3, [r3, #0]
 8001b38:	2210      	movs	r2, #16
 8001b3a:	4013      	ands	r3, r2
 8001b3c:	d063      	beq.n	8001c06 <HAL_RCC_OscConfig+0x4e2>
 8001b3e:	687b      	ldr	r3, [r7, #4]
 8001b40:	695b      	ldr	r3, [r3, #20]
 8001b42:	2b01      	cmp	r3, #1
 8001b44:	d12a      	bne.n	8001b9c <HAL_RCC_OscConfig+0x478>
 8001b46:	4b81      	ldr	r3, [pc, #516]	; (8001d4c <HAL_RCC_OscConfig+0x628>)
 8001b48:	6b5a      	ldr	r2, [r3, #52]	; 0x34
 8001b4a:	4b80      	ldr	r3, [pc, #512]	; (8001d4c <HAL_RCC_OscConfig+0x628>)
 8001b4c:	2104      	movs	r1, #4
 8001b4e:	430a      	orrs	r2, r1
 8001b50:	635a      	str	r2, [r3, #52]	; 0x34
 8001b52:	4b7e      	ldr	r3, [pc, #504]	; (8001d4c <HAL_RCC_OscConfig+0x628>)
 8001b54:	6b5a      	ldr	r2, [r3, #52]	; 0x34
 8001b56:	4b7d      	ldr	r3, [pc, #500]	; (8001d4c <HAL_RCC_OscConfig+0x628>)
 8001b58:	2101      	movs	r1, #1
 8001b5a:	430a      	orrs	r2, r1
 8001b5c:	635a      	str	r2, [r3, #52]	; 0x34
 8001b5e:	f7ff fb71 	bl	8001244 <HAL_GetTick>
 8001b62:	0003      	movs	r3, r0
 8001b64:	61bb      	str	r3, [r7, #24]
 8001b66:	e008      	b.n	8001b7a <HAL_RCC_OscConfig+0x456>
 8001b68:	f7ff fb6c 	bl	8001244 <HAL_GetTick>
 8001b6c:	0002      	movs	r2, r0
 8001b6e:	69bb      	ldr	r3, [r7, #24]
 8001b70:	1ad3      	subs	r3, r2, r3
 8001b72:	2b02      	cmp	r3, #2
 8001b74:	d901      	bls.n	8001b7a <HAL_RCC_OscConfig+0x456>
 8001b76:	2303      	movs	r3, #3
 8001b78:	e0e3      	b.n	8001d42 <HAL_RCC_OscConfig+0x61e>
 8001b7a:	4b74      	ldr	r3, [pc, #464]	; (8001d4c <HAL_RCC_OscConfig+0x628>)
 8001b7c:	6b5b      	ldr	r3, [r3, #52]	; 0x34
 8001b7e:	2202      	movs	r2, #2
 8001b80:	4013      	ands	r3, r2
 8001b82:	d0f1      	beq.n	8001b68 <HAL_RCC_OscConfig+0x444>
 8001b84:	4b71      	ldr	r3, [pc, #452]	; (8001d4c <HAL_RCC_OscConfig+0x628>)
 8001b86:	6b5b      	ldr	r3, [r3, #52]	; 0x34
 8001b88:	22f8      	movs	r2, #248	; 0xf8
 8001b8a:	4393      	bics	r3, r2
 8001b8c:	0019      	movs	r1, r3
 8001b8e:	687b      	ldr	r3, [r7, #4]
 8001b90:	699b      	ldr	r3, [r3, #24]
 8001b92:	00da      	lsls	r2, r3, #3
 8001b94:	4b6d      	ldr	r3, [pc, #436]	; (8001d4c <HAL_RCC_OscConfig+0x628>)
 8001b96:	430a      	orrs	r2, r1
 8001b98:	635a      	str	r2, [r3, #52]	; 0x34
 8001b9a:	e034      	b.n	8001c06 <HAL_RCC_OscConfig+0x4e2>
 8001b9c:	687b      	ldr	r3, [r7, #4]
 8001b9e:	695b      	ldr	r3, [r3, #20]
 8001ba0:	3305      	adds	r3, #5
 8001ba2:	d111      	bne.n	8001bc8 <HAL_RCC_OscConfig+0x4a4>
 8001ba4:	4b69      	ldr	r3, [pc, #420]	; (8001d4c <HAL_RCC_OscConfig+0x628>)
 8001ba6:	6b5a      	ldr	r2, [r3, #52]	; 0x34
 8001ba8:	4b68      	ldr	r3, [pc, #416]	; (8001d4c <HAL_RCC_OscConfig+0x628>)
 8001baa:	2104      	movs	r1, #4
 8001bac:	438a      	bics	r2, r1
 8001bae:	635a      	str	r2, [r3, #52]	; 0x34
 8001bb0:	4b66      	ldr	r3, [pc, #408]	; (8001d4c <HAL_RCC_OscConfig+0x628>)
 8001bb2:	6b5b      	ldr	r3, [r3, #52]	; 0x34
 8001bb4:	22f8      	movs	r2, #248	; 0xf8
 8001bb6:	4393      	bics	r3, r2
 8001bb8:	0019      	movs	r1, r3
 8001bba:	687b      	ldr	r3, [r7, #4]
 8001bbc:	699b      	ldr	r3, [r3, #24]
 8001bbe:	00da      	lsls	r2, r3, #3
 8001bc0:	4b62      	ldr	r3, [pc, #392]	; (8001d4c <HAL_RCC_OscConfig+0x628>)
 8001bc2:	430a      	orrs	r2, r1
 8001bc4:	635a      	str	r2, [r3, #52]	; 0x34
 8001bc6:	e01e      	b.n	8001c06 <HAL_RCC_OscConfig+0x4e2>
 8001bc8:	4b60      	ldr	r3, [pc, #384]	; (8001d4c <HAL_RCC_OscConfig+0x628>)
 8001bca:	6b5a      	ldr	r2, [r3, #52]	; 0x34
 8001bcc:	4b5f      	ldr	r3, [pc, #380]	; (8001d4c <HAL_RCC_OscConfig+0x628>)
 8001bce:	2104      	movs	r1, #4
 8001bd0:	430a      	orrs	r2, r1
 8001bd2:	635a      	str	r2, [r3, #52]	; 0x34
 8001bd4:	4b5d      	ldr	r3, [pc, #372]	; (8001d4c <HAL_RCC_OscConfig+0x628>)
 8001bd6:	6b5a      	ldr	r2, [r3, #52]	; 0x34
 8001bd8:	4b5c      	ldr	r3, [pc, #368]	; (8001d4c <HAL_RCC_OscConfig+0x628>)
 8001bda:	2101      	movs	r1, #1
 8001bdc:	438a      	bics	r2, r1
 8001bde:	635a      	str	r2, [r3, #52]	; 0x34
 8001be0:	f7ff fb30 	bl	8001244 <HAL_GetTick>
 8001be4:	0003      	movs	r3, r0
 8001be6:	61bb      	str	r3, [r7, #24]
 8001be8:	e008      	b.n	8001bfc <HAL_RCC_OscConfig+0x4d8>
 8001bea:	f7ff fb2b 	bl	8001244 <HAL_GetTick>
 8001bee:	0002      	movs	r2, r0
 8001bf0:	69bb      	ldr	r3, [r7, #24]
 8001bf2:	1ad3      	subs	r3, r2, r3
 8001bf4:	2b02      	cmp	r3, #2
 8001bf6:	d901      	bls.n	8001bfc <HAL_RCC_OscConfig+0x4d8>
 8001bf8:	2303      	movs	r3, #3
 8001bfa:	e0a2      	b.n	8001d42 <HAL_RCC_OscConfig+0x61e>
 8001bfc:	4b53      	ldr	r3, [pc, #332]	; (8001d4c <HAL_RCC_OscConfig+0x628>)
 8001bfe:	6b5b      	ldr	r3, [r3, #52]	; 0x34
 8001c00:	2202      	movs	r2, #2
 8001c02:	4013      	ands	r3, r2
 8001c04:	d1f1      	bne.n	8001bea <HAL_RCC_OscConfig+0x4c6>
 8001c06:	687b      	ldr	r3, [r7, #4]
 8001c08:	6a1b      	ldr	r3, [r3, #32]
 8001c0a:	2b00      	cmp	r3, #0
 8001c0c:	d100      	bne.n	8001c10 <HAL_RCC_OscConfig+0x4ec>
 8001c0e:	e097      	b.n	8001d40 <HAL_RCC_OscConfig+0x61c>
 8001c10:	4b4e      	ldr	r3, [pc, #312]	; (8001d4c <HAL_RCC_OscConfig+0x628>)
 8001c12:	685b      	ldr	r3, [r3, #4]
 8001c14:	220c      	movs	r2, #12
 8001c16:	4013      	ands	r3, r2
 8001c18:	2b08      	cmp	r3, #8
 8001c1a:	d100      	bne.n	8001c1e <HAL_RCC_OscConfig+0x4fa>
 8001c1c:	e06b      	b.n	8001cf6 <HAL_RCC_OscConfig+0x5d2>
 8001c1e:	687b      	ldr	r3, [r7, #4]
 8001c20:	6a1b      	ldr	r3, [r3, #32]
 8001c22:	2b02      	cmp	r3, #2
 8001c24:	d14c      	bne.n	8001cc0 <HAL_RCC_OscConfig+0x59c>
 8001c26:	4b49      	ldr	r3, [pc, #292]	; (8001d4c <HAL_RCC_OscConfig+0x628>)
 8001c28:	681a      	ldr	r2, [r3, #0]
 8001c2a:	4b48      	ldr	r3, [pc, #288]	; (8001d4c <HAL_RCC_OscConfig+0x628>)
 8001c2c:	494a      	ldr	r1, [pc, #296]	; (8001d58 <HAL_RCC_OscConfig+0x634>)
 8001c2e:	400a      	ands	r2, r1
 8001c30:	601a      	str	r2, [r3, #0]
 8001c32:	f7ff fb07 	bl	8001244 <HAL_GetTick>
 8001c36:	0003      	movs	r3, r0
 8001c38:	61bb      	str	r3, [r7, #24]
 8001c3a:	e008      	b.n	8001c4e <HAL_RCC_OscConfig+0x52a>
 8001c3c:	f7ff fb02 	bl	8001244 <HAL_GetTick>
 8001c40:	0002      	movs	r2, r0
 8001c42:	69bb      	ldr	r3, [r7, #24]
 8001c44:	1ad3      	subs	r3, r2, r3
 8001c46:	2b02      	cmp	r3, #2
 8001c48:	d901      	bls.n	8001c4e <HAL_RCC_OscConfig+0x52a>
 8001c4a:	2303      	movs	r3, #3
 8001c4c:	e079      	b.n	8001d42 <HAL_RCC_OscConfig+0x61e>
 8001c4e:	4b3f      	ldr	r3, [pc, #252]	; (8001d4c <HAL_RCC_OscConfig+0x628>)
 8001c50:	681a      	ldr	r2, [r3, #0]
 8001c52:	2380      	movs	r3, #128	; 0x80
 8001c54:	049b      	lsls	r3, r3, #18
 8001c56:	4013      	ands	r3, r2
 8001c58:	d1f0      	bne.n	8001c3c <HAL_RCC_OscConfig+0x518>
 8001c5a:	4b3c      	ldr	r3, [pc, #240]	; (8001d4c <HAL_RCC_OscConfig+0x628>)
 8001c5c:	6adb      	ldr	r3, [r3, #44]	; 0x2c
 8001c5e:	220f      	movs	r2, #15
 8001c60:	4393      	bics	r3, r2
 8001c62:	0019      	movs	r1, r3
 8001c64:	687b      	ldr	r3, [r7, #4]
 8001c66:	6ada      	ldr	r2, [r3, #44]	; 0x2c
 8001c68:	4b38      	ldr	r3, [pc, #224]	; (8001d4c <HAL_RCC_OscConfig+0x628>)
 8001c6a:	430a      	orrs	r2, r1
 8001c6c:	62da      	str	r2, [r3, #44]	; 0x2c
 8001c6e:	4b37      	ldr	r3, [pc, #220]	; (8001d4c <HAL_RCC_OscConfig+0x628>)
 8001c70:	685b      	ldr	r3, [r3, #4]
 8001c72:	4a3a      	ldr	r2, [pc, #232]	; (8001d5c <HAL_RCC_OscConfig+0x638>)
 8001c74:	4013      	ands	r3, r2
 8001c76:	0019      	movs	r1, r3
 8001c78:	687b      	ldr	r3, [r7, #4]
 8001c7a:	6a9a      	ldr	r2, [r3, #40]	; 0x28
 8001c7c:	687b      	ldr	r3, [r7, #4]
 8001c7e:	6a5b      	ldr	r3, [r3, #36]	; 0x24
 8001c80:	431a      	orrs	r2, r3
 8001c82:	4b32      	ldr	r3, [pc, #200]	; (8001d4c <HAL_RCC_OscConfig+0x628>)
 8001c84:	430a      	orrs	r2, r1
 8001c86:	605a      	str	r2, [r3, #4]
 8001c88:	4b30      	ldr	r3, [pc, #192]	; (8001d4c <HAL_RCC_OscConfig+0x628>)
 8001c8a:	681a      	ldr	r2, [r3, #0]
 8001c8c:	4b2f      	ldr	r3, [pc, #188]	; (8001d4c <HAL_RCC_OscConfig+0x628>)
 8001c8e:	2180      	movs	r1, #128	; 0x80
 8001c90:	0449      	lsls	r1, r1, #17
 8001c92:	430a      	orrs	r2, r1
 8001c94:	601a      	str	r2, [r3, #0]
 8001c96:	f7ff fad5 	bl	8001244 <HAL_GetTick>
 8001c9a:	0003      	movs	r3, r0
 8001c9c:	61bb      	str	r3, [r7, #24]
 8001c9e:	e008      	b.n	8001cb2 <HAL_RCC_OscConfig+0x58e>
 8001ca0:	f7ff fad0 	bl	8001244 <HAL_GetTick>
 8001ca4:	0002      	movs	r2, r0
 8001ca6:	69bb      	ldr	r3, [r7, #24]
 8001ca8:	1ad3      	subs	r3, r2, r3
 8001caa:	2b02      	cmp	r3, #2
 8001cac:	d901      	bls.n	8001cb2 <HAL_RCC_OscConfig+0x58e>
 8001cae:	2303      	movs	r3, #3
 8001cb0:	e047      	b.n	8001d42 <HAL_RCC_OscConfig+0x61e>
 8001cb2:	4b26      	ldr	r3, [pc, #152]	; (8001d4c <HAL_RCC_OscConfig+0x628>)
 8001cb4:	681a      	ldr	r2, [r3, #0]
 8001cb6:	2380      	movs	r3, #128	; 0x80
 8001cb8:	049b      	lsls	r3, r3, #18
 8001cba:	4013      	ands	r3, r2
 8001cbc:	d0f0      	beq.n	8001ca0 <HAL_RCC_OscConfig+0x57c>
 8001cbe:	e03f      	b.n	8001d40 <HAL_RCC_OscConfig+0x61c>
 8001cc0:	4b22      	ldr	r3, [pc, #136]	; (8001d4c <HAL_RCC_OscConfig+0x628>)
 8001cc2:	681a      	ldr	r2, [r3, #0]
 8001cc4:	4b21      	ldr	r3, [pc, #132]	; (8001d4c <HAL_RCC_OscConfig+0x628>)
 8001cc6:	4924      	ldr	r1, [pc, #144]	; (8001d58 <HAL_RCC_OscConfig+0x634>)
 8001cc8:	400a      	ands	r2, r1
 8001cca:	601a      	str	r2, [r3, #0]
 8001ccc:	f7ff faba 	bl	8001244 <HAL_GetTick>
 8001cd0:	0003      	movs	r3, r0
 8001cd2:	61bb      	str	r3, [r7, #24]
 8001cd4:	e008      	b.n	8001ce8 <HAL_RCC_OscConfig+0x5c4>
 8001cd6:	f7ff fab5 	bl	8001244 <HAL_GetTick>
 8001cda:	0002      	movs	r2, r0
 8001cdc:	69bb      	ldr	r3, [r7, #24]
 8001cde:	1ad3      	subs	r3, r2, r3
 8001ce0:	2b02      	cmp	r3, #2
 8001ce2:	d901      	bls.n	8001ce8 <HAL_RCC_OscConfig+0x5c4>
 8001ce4:	2303      	movs	r3, #3
 8001ce6:	e02c      	b.n	8001d42 <HAL_RCC_OscConfig+0x61e>
 8001ce8:	4b18      	ldr	r3, [pc, #96]	; (8001d4c <HAL_RCC_OscConfig+0x628>)
 8001cea:	681a      	ldr	r2, [r3, #0]
 8001cec:	2380      	movs	r3, #128	; 0x80
 8001cee:	049b      	lsls	r3, r3, #18
 8001cf0:	4013      	ands	r3, r2
 8001cf2:	d1f0      	bne.n	8001cd6 <HAL_RCC_OscConfig+0x5b2>
 8001cf4:	e024      	b.n	8001d40 <HAL_RCC_OscConfig+0x61c>
 8001cf6:	687b      	ldr	r3, [r7, #4]
 8001cf8:	6a1b      	ldr	r3, [r3, #32]
 8001cfa:	2b01      	cmp	r3, #1
 8001cfc:	d101      	bne.n	8001d02 <HAL_RCC_OscConfig+0x5de>
 8001cfe:	2301      	movs	r3, #1
 8001d00:	e01f      	b.n	8001d42 <HAL_RCC_OscConfig+0x61e>
 8001d02:	4b12      	ldr	r3, [pc, #72]	; (8001d4c <HAL_RCC_OscConfig+0x628>)
 8001d04:	685b      	ldr	r3, [r3, #4]
 8001d06:	617b      	str	r3, [r7, #20]
 8001d08:	4b10      	ldr	r3, [pc, #64]	; (8001d4c <HAL_RCC_OscConfig+0x628>)
 8001d0a:	6adb      	ldr	r3, [r3, #44]	; 0x2c
 8001d0c:	613b      	str	r3, [r7, #16]
 8001d0e:	697a      	ldr	r2, [r7, #20]
 8001d10:	23c0      	movs	r3, #192	; 0xc0
 8001d12:	025b      	lsls	r3, r3, #9
 8001d14:	401a      	ands	r2, r3
 8001d16:	687b      	ldr	r3, [r7, #4]
 8001d18:	6a5b      	ldr	r3, [r3, #36]	; 0x24
 8001d1a:	429a      	cmp	r2, r3
 8001d1c:	d10e      	bne.n	8001d3c <HAL_RCC_OscConfig+0x618>
 8001d1e:	693b      	ldr	r3, [r7, #16]
 8001d20:	220f      	movs	r2, #15
 8001d22:	401a      	ands	r2, r3
 8001d24:	687b      	ldr	r3, [r7, #4]
 8001d26:	6adb      	ldr	r3, [r3, #44]	; 0x2c
 8001d28:	429a      	cmp	r2, r3
 8001d2a:	d107      	bne.n	8001d3c <HAL_RCC_OscConfig+0x618>
 8001d2c:	697a      	ldr	r2, [r7, #20]
 8001d2e:	23f0      	movs	r3, #240	; 0xf0
 8001d30:	039b      	lsls	r3, r3, #14
 8001d32:	401a      	ands	r2, r3
 8001d34:	687b      	ldr	r3, [r7, #4]
 8001d36:	6a9b      	ldr	r3, [r3, #40]	; 0x28
 8001d38:	429a      	cmp	r2, r3
 8001d3a:	d001      	beq.n	8001d40 <HAL_RCC_OscConfig+0x61c>
 8001d3c:	2301      	movs	r3, #1
 8001d3e:	e000      	b.n	8001d42 <HAL_RCC_OscConfig+0x61e>
 8001d40:	2300      	movs	r3, #0
 8001d42:	0018      	movs	r0, r3
 8001d44:	46bd      	mov	sp, r7
 8001d46:	b008      	add	sp, #32
 8001d48:	bd80      	pop	{r7, pc}
 8001d4a:	46c0      	nop			; (mov r8, r8)
 8001d4c:	40021000 	.word	0x40021000
 8001d50:	00001388 	.word	0x00001388
 8001d54:	efffffff 	.word	0xefffffff
 8001d58:	feffffff 	.word	0xfeffffff
 8001d5c:	ffc27fff 	.word	0xffc27fff

08001d60 <HAL_RCC_ClockConfig>:
 8001d60:	b580      	push	{r7, lr}
 8001d62:	b084      	sub	sp, #16
 8001d64:	af00      	add	r7, sp, #0
 8001d66:	6078      	str	r0, [r7, #4]
 8001d68:	6039      	str	r1, [r7, #0]
 8001d6a:	687b      	ldr	r3, [r7, #4]
 8001d6c:	2b00      	cmp	r3, #0
 8001d6e:	d101      	bne.n	8001d74 <HAL_RCC_ClockConfig+0x14>
 8001d70:	2301      	movs	r3, #1
 8001d72:	e0b3      	b.n	8001edc <HAL_RCC_ClockConfig+0x17c>
 8001d74:	4b5b      	ldr	r3, [pc, #364]	; (8001ee4 <HAL_RCC_ClockConfig+0x184>)
 8001d76:	681b      	ldr	r3, [r3, #0]
 8001d78:	2201      	movs	r2, #1
 8001d7a:	4013      	ands	r3, r2
 8001d7c:	683a      	ldr	r2, [r7, #0]
 8001d7e:	429a      	cmp	r2, r3
 8001d80:	d911      	bls.n	8001da6 <HAL_RCC_ClockConfig+0x46>
 8001d82:	4b58      	ldr	r3, [pc, #352]	; (8001ee4 <HAL_RCC_ClockConfig+0x184>)
 8001d84:	681b      	ldr	r3, [r3, #0]
 8001d86:	2201      	movs	r2, #1
 8001d88:	4393      	bics	r3, r2
 8001d8a:	0019      	movs	r1, r3
 8001d8c:	4b55      	ldr	r3, [pc, #340]	; (8001ee4 <HAL_RCC_ClockConfig+0x184>)
 8001d8e:	683a      	ldr	r2, [r7, #0]
 8001d90:	430a      	orrs	r2, r1
 8001d92:	601a      	str	r2, [r3, #0]
 8001d94:	4b53      	ldr	r3, [pc, #332]	; (8001ee4 <HAL_RCC_ClockConfig+0x184>)
 8001d96:	681b      	ldr	r3, [r3, #0]
 8001d98:	2201      	movs	r2, #1
 8001d9a:	4013      	ands	r3, r2
 8001d9c:	683a      	ldr	r2, [r7, #0]
 8001d9e:	429a      	cmp	r2, r3
 8001da0:	d001      	beq.n	8001da6 <HAL_RCC_ClockConfig+0x46>
 8001da2:	2301      	movs	r3, #1
 8001da4:	e09a      	b.n	8001edc <HAL_RCC_ClockConfig+0x17c>
 8001da6:	687b      	ldr	r3, [r7, #4]
 8001da8:	681b      	ldr	r3, [r3, #0]
 8001daa:	2202      	movs	r2, #2
 8001dac:	4013      	ands	r3, r2
 8001dae:	d015      	beq.n	8001ddc <HAL_RCC_ClockConfig+0x7c>
 8001db0:	687b      	ldr	r3, [r7, #4]
 8001db2:	681b      	ldr	r3, [r3, #0]
 8001db4:	2204      	movs	r2, #4
 8001db6:	4013      	ands	r3, r2
 8001db8:	d006      	beq.n	8001dc8 <HAL_RCC_ClockConfig+0x68>
 8001dba:	4b4b      	ldr	r3, [pc, #300]	; (8001ee8 <HAL_RCC_ClockConfig+0x188>)
 8001dbc:	685a      	ldr	r2, [r3, #4]
 8001dbe:	4b4a      	ldr	r3, [pc, #296]	; (8001ee8 <HAL_RCC_ClockConfig+0x188>)
 8001dc0:	21e0      	movs	r1, #224	; 0xe0
 8001dc2:	00c9      	lsls	r1, r1, #3
 8001dc4:	430a      	orrs	r2, r1
 8001dc6:	605a      	str	r2, [r3, #4]
 8001dc8:	4b47      	ldr	r3, [pc, #284]	; (8001ee8 <HAL_RCC_ClockConfig+0x188>)
 8001dca:	685b      	ldr	r3, [r3, #4]
 8001dcc:	22f0      	movs	r2, #240	; 0xf0
 8001dce:	4393      	bics	r3, r2
 8001dd0:	0019      	movs	r1, r3
 8001dd2:	687b      	ldr	r3, [r7, #4]
 8001dd4:	689a      	ldr	r2, [r3, #8]
 8001dd6:	4b44      	ldr	r3, [pc, #272]	; (8001ee8 <HAL_RCC_ClockConfig+0x188>)
 8001dd8:	430a      	orrs	r2, r1
 8001dda:	605a      	str	r2, [r3, #4]
 8001ddc:	687b      	ldr	r3, [r7, #4]
 8001dde:	681b      	ldr	r3, [r3, #0]
 8001de0:	2201      	movs	r2, #1
 8001de2:	4013      	ands	r3, r2
 8001de4:	d040      	beq.n	8001e68 <HAL_RCC_ClockConfig+0x108>
 8001de6:	687b      	ldr	r3, [r7, #4]
 8001de8:	685b      	ldr	r3, [r3, #4]
 8001dea:	2b01      	cmp	r3, #1
 8001dec:	d107      	bne.n	8001dfe <HAL_RCC_ClockConfig+0x9e>
 8001dee:	4b3e      	ldr	r3, [pc, #248]	; (8001ee8 <HAL_RCC_ClockConfig+0x188>)
 8001df0:	681a      	ldr	r2, [r3, #0]
 8001df2:	2380      	movs	r3, #128	; 0x80
 8001df4:	029b      	lsls	r3, r3, #10
 8001df6:	4013      	ands	r3, r2
 8001df8:	d114      	bne.n	8001e24 <HAL_RCC_ClockConfig+0xc4>
 8001dfa:	2301      	movs	r3, #1
 8001dfc:	e06e      	b.n	8001edc <HAL_RCC_ClockConfig+0x17c>
 8001dfe:	687b      	ldr	r3, [r7, #4]
 8001e00:	685b      	ldr	r3, [r3, #4]
 8001e02:	2b02      	cmp	r3, #2
 8001e04:	d107      	bne.n	8001e16 <HAL_RCC_ClockConfig+0xb6>
 8001e06:	4b38      	ldr	r3, [pc, #224]	; (8001ee8 <HAL_RCC_ClockConfig+0x188>)
 8001e08:	681a      	ldr	r2, [r3, #0]
 8001e0a:	2380      	movs	r3, #128	; 0x80
 8001e0c:	049b      	lsls	r3, r3, #18
 8001e0e:	4013      	ands	r3, r2
 8001e10:	d108      	bne.n	8001e24 <HAL_RCC_ClockConfig+0xc4>
 8001e12:	2301      	movs	r3, #1
 8001e14:	e062      	b.n	8001edc <HAL_RCC_ClockConfig+0x17c>
 8001e16:	4b34      	ldr	r3, [pc, #208]	; (8001ee8 <HAL_RCC_ClockConfig+0x188>)
 8001e18:	681b      	ldr	r3, [r3, #0]
 8001e1a:	2202      	movs	r2, #2
 8001e1c:	4013      	ands	r3, r2
 8001e1e:	d101      	bne.n	8001e24 <HAL_RCC_ClockConfig+0xc4>
 8001e20:	2301      	movs	r3, #1
 8001e22:	e05b      	b.n	8001edc <HAL_RCC_ClockConfig+0x17c>
 8001e24:	4b30      	ldr	r3, [pc, #192]	; (8001ee8 <HAL_RCC_ClockConfig+0x188>)
 8001e26:	685b      	ldr	r3, [r3, #4]
 8001e28:	2203      	movs	r2, #3
 8001e2a:	4393      	bics	r3, r2
 8001e2c:	0019      	movs	r1, r3
 8001e2e:	687b      	ldr	r3, [r7, #4]
 8001e30:	685a      	ldr	r2, [r3, #4]
 8001e32:	4b2d      	ldr	r3, [pc, #180]	; (8001ee8 <HAL_RCC_ClockConfig+0x188>)
 8001e34:	430a      	orrs	r2, r1
 8001e36:	605a      	str	r2, [r3, #4]
 8001e38:	f7ff fa04 	bl	8001244 <HAL_GetTick>
 8001e3c:	0003      	movs	r3, r0
 8001e3e:	60fb      	str	r3, [r7, #12]
 8001e40:	e009      	b.n	8001e56 <HAL_RCC_ClockConfig+0xf6>
 8001e42:	f7ff f9ff 	bl	8001244 <HAL_GetTick>
 8001e46:	0002      	movs	r2, r0
 8001e48:	68fb      	ldr	r3, [r7, #12]
 8001e4a:	1ad3      	subs	r3, r2, r3
 8001e4c:	4a27      	ldr	r2, [pc, #156]	; (8001eec <HAL_RCC_ClockConfig+0x18c>)
 8001e4e:	4293      	cmp	r3, r2
 8001e50:	d901      	bls.n	8001e56 <HAL_RCC_ClockConfig+0xf6>
 8001e52:	2303      	movs	r3, #3
 8001e54:	e042      	b.n	8001edc <HAL_RCC_ClockConfig+0x17c>
 8001e56:	4b24      	ldr	r3, [pc, #144]	; (8001ee8 <HAL_RCC_ClockConfig+0x188>)
 8001e58:	685b      	ldr	r3, [r3, #4]
 8001e5a:	220c      	movs	r2, #12
 8001e5c:	401a      	ands	r2, r3
 8001e5e:	687b      	ldr	r3, [r7, #4]
 8001e60:	685b      	ldr	r3, [r3, #4]
 8001e62:	009b      	lsls	r3, r3, #2
 8001e64:	429a      	cmp	r2, r3
 8001e66:	d1ec      	bne.n	8001e42 <HAL_RCC_ClockConfig+0xe2>
 8001e68:	4b1e      	ldr	r3, [pc, #120]	; (8001ee4 <HAL_RCC_ClockConfig+0x184>)
 8001e6a:	681b      	ldr	r3, [r3, #0]
 8001e6c:	2201      	movs	r2, #1
 8001e6e:	4013      	ands	r3, r2
 8001e70:	683a      	ldr	r2, [r7, #0]
 8001e72:	429a      	cmp	r2, r3
 8001e74:	d211      	bcs.n	8001e9a <HAL_RCC_ClockConfig+0x13a>
 8001e76:	4b1b      	ldr	r3, [pc, #108]	; (8001ee4 <HAL_RCC_ClockConfig+0x184>)
 8001e78:	681b      	ldr	r3, [r3, #0]
 8001e7a:	2201      	movs	r2, #1
 8001e7c:	4393      	bics	r3, r2
 8001e7e:	0019      	movs	r1, r3
 8001e80:	4b18      	ldr	r3, [pc, #96]	; (8001ee4 <HAL_RCC_ClockConfig+0x184>)
 8001e82:	683a      	ldr	r2, [r7, #0]
 8001e84:	430a      	orrs	r2, r1
 8001e86:	601a      	str	r2, [r3, #0]
 8001e88:	4b16      	ldr	r3, [pc, #88]	; (8001ee4 <HAL_RCC_ClockConfig+0x184>)
 8001e8a:	681b      	ldr	r3, [r3, #0]
 8001e8c:	2201      	movs	r2, #1
 8001e8e:	4013      	ands	r3, r2
 8001e90:	683a      	ldr	r2, [r7, #0]
 8001e92:	429a      	cmp	r2, r3
 8001e94:	d001      	beq.n	8001e9a <HAL_RCC_ClockConfig+0x13a>
 8001e96:	2301      	movs	r3, #1
 8001e98:	e020      	b.n	8001edc <HAL_RCC_ClockConfig+0x17c>
 8001e9a:	687b      	ldr	r3, [r7, #4]
 8001e9c:	681b      	ldr	r3, [r3, #0]
 8001e9e:	2204      	movs	r2, #4
 8001ea0:	4013      	ands	r3, r2
 8001ea2:	d009      	beq.n	8001eb8 <HAL_RCC_ClockConfig+0x158>
 8001ea4:	4b10      	ldr	r3, [pc, #64]	; (8001ee8 <HAL_RCC_ClockConfig+0x188>)
 8001ea6:	685b      	ldr	r3, [r3, #4]
 8001ea8:	4a11      	ldr	r2, [pc, #68]	; (8001ef0 <HAL_RCC_ClockConfig+0x190>)
 8001eaa:	4013      	ands	r3, r2
 8001eac:	0019      	movs	r1, r3
 8001eae:	687b      	ldr	r3, [r7, #4]
 8001eb0:	68da      	ldr	r2, [r3, #12]
 8001eb2:	4b0d      	ldr	r3, [pc, #52]	; (8001ee8 <HAL_RCC_ClockConfig+0x188>)
 8001eb4:	430a      	orrs	r2, r1
 8001eb6:	605a      	str	r2, [r3, #4]
 8001eb8:	f000 f820 	bl	8001efc <HAL_RCC_GetSysClockFreq>
 8001ebc:	0001      	movs	r1, r0
 8001ebe:	4b0a      	ldr	r3, [pc, #40]	; (8001ee8 <HAL_RCC_ClockConfig+0x188>)
 8001ec0:	685b      	ldr	r3, [r3, #4]
 8001ec2:	091b      	lsrs	r3, r3, #4
 8001ec4:	220f      	movs	r2, #15
 8001ec6:	4013      	ands	r3, r2
 8001ec8:	4a0a      	ldr	r2, [pc, #40]	; (8001ef4 <HAL_RCC_ClockConfig+0x194>)
 8001eca:	5cd3      	ldrb	r3, [r2, r3]
 8001ecc:	000a      	movs	r2, r1
 8001ece:	40da      	lsrs	r2, r3
 8001ed0:	4b09      	ldr	r3, [pc, #36]	; (8001ef8 <HAL_RCC_ClockConfig+0x198>)
 8001ed2:	601a      	str	r2, [r3, #0]
 8001ed4:	2003      	movs	r0, #3
 8001ed6:	f7ff f96f 	bl	80011b8 <HAL_InitTick>
 8001eda:	2300      	movs	r3, #0
 8001edc:	0018      	movs	r0, r3
 8001ede:	46bd      	mov	sp, r7
 8001ee0:	b004      	add	sp, #16
 8001ee2:	bd80      	pop	{r7, pc}
 8001ee4:	40022000 	.word	0x40022000
 8001ee8:	40021000 	.word	0x40021000
 8001eec:	00001388 	.word	0x00001388
 8001ef0:	fffff8ff 	.word	0xfffff8ff
 8001ef4:	08007398 	.word	0x08007398
 8001ef8:	20000000 	.word	0x20000000

08001efc <HAL_RCC_GetSysClockFreq>:
 8001efc:	b580      	push	{r7, lr}
 8001efe:	b086      	sub	sp, #24
 8001f00:	af00      	add	r7, sp, #0
 8001f02:	2300      	movs	r3, #0
 8001f04:	60fb      	str	r3, [r7, #12]
 8001f06:	2300      	movs	r3, #0
 8001f08:	60bb      	str	r3, [r7, #8]
 8001f0a:	2300      	movs	r3, #0
 8001f0c:	617b      	str	r3, [r7, #20]
 8001f0e:	2300      	movs	r3, #0
 8001f10:	607b      	str	r3, [r7, #4]
 8001f12:	2300      	movs	r3, #0
 8001f14:	613b      	str	r3, [r7, #16]
 8001f16:	4b21      	ldr	r3, [pc, #132]	; (8001f9c <HAL_RCC_GetSysClockFreq+0xa0>)
 8001f18:	685b      	ldr	r3, [r3, #4]
 8001f1a:	60fb      	str	r3, [r7, #12]
 8001f1c:	68fb      	ldr	r3, [r7, #12]
 8001f1e:	220c      	movs	r2, #12
 8001f20:	4013      	ands	r3, r2
 8001f22:	2b04      	cmp	r3, #4
 8001f24:	d002      	beq.n	8001f2c <HAL_RCC_GetSysClockFreq+0x30>
 8001f26:	2b08      	cmp	r3, #8
 8001f28:	d003      	beq.n	8001f32 <HAL_RCC_GetSysClockFreq+0x36>
 8001f2a:	e02e      	b.n	8001f8a <HAL_RCC_GetSysClockFreq+0x8e>
 8001f2c:	4b1c      	ldr	r3, [pc, #112]	; (8001fa0 <HAL_RCC_GetSysClockFreq+0xa4>)
 8001f2e:	613b      	str	r3, [r7, #16]
 8001f30:	e02e      	b.n	8001f90 <HAL_RCC_GetSysClockFreq+0x94>
 8001f32:	68fb      	ldr	r3, [r7, #12]
 8001f34:	0c9b      	lsrs	r3, r3, #18
 8001f36:	220f      	movs	r2, #15
 8001f38:	4013      	ands	r3, r2
 8001f3a:	4a1a      	ldr	r2, [pc, #104]	; (8001fa4 <HAL_RCC_GetSysClockFreq+0xa8>)
 8001f3c:	5cd3      	ldrb	r3, [r2, r3]
 8001f3e:	607b      	str	r3, [r7, #4]
 8001f40:	4b16      	ldr	r3, [pc, #88]	; (8001f9c <HAL_RCC_GetSysClockFreq+0xa0>)
 8001f42:	6adb      	ldr	r3, [r3, #44]	; 0x2c
 8001f44:	220f      	movs	r2, #15
 8001f46:	4013      	ands	r3, r2
 8001f48:	4a17      	ldr	r2, [pc, #92]	; (8001fa8 <HAL_RCC_GetSysClockFreq+0xac>)
 8001f4a:	5cd3      	ldrb	r3, [r2, r3]
 8001f4c:	60bb      	str	r3, [r7, #8]
 8001f4e:	68fa      	ldr	r2, [r7, #12]
 8001f50:	23c0      	movs	r3, #192	; 0xc0
 8001f52:	025b      	lsls	r3, r3, #9
 8001f54:	401a      	ands	r2, r3
 8001f56:	2380      	movs	r3, #128	; 0x80
 8001f58:	025b      	lsls	r3, r3, #9
 8001f5a:	429a      	cmp	r2, r3
 8001f5c:	d109      	bne.n	8001f72 <HAL_RCC_GetSysClockFreq+0x76>
 8001f5e:	68b9      	ldr	r1, [r7, #8]
 8001f60:	480f      	ldr	r0, [pc, #60]	; (8001fa0 <HAL_RCC_GetSysClockFreq+0xa4>)
 8001f62:	f7fe f8cf 	bl	8000104 <__udivsi3>
 8001f66:	0003      	movs	r3, r0
 8001f68:	001a      	movs	r2, r3
 8001f6a:	687b      	ldr	r3, [r7, #4]
 8001f6c:	4353      	muls	r3, r2
 8001f6e:	617b      	str	r3, [r7, #20]
 8001f70:	e008      	b.n	8001f84 <HAL_RCC_GetSysClockFreq+0x88>
 8001f72:	68b9      	ldr	r1, [r7, #8]
 8001f74:	480a      	ldr	r0, [pc, #40]	; (8001fa0 <HAL_RCC_GetSysClockFreq+0xa4>)
 8001f76:	f7fe f8c5 	bl	8000104 <__udivsi3>
 8001f7a:	0003      	movs	r3, r0
 8001f7c:	001a      	movs	r2, r3
 8001f7e:	687b      	ldr	r3, [r7, #4]
 8001f80:	4353      	muls	r3, r2
 8001f82:	617b      	str	r3, [r7, #20]
 8001f84:	697b      	ldr	r3, [r7, #20]
 8001f86:	613b      	str	r3, [r7, #16]
 8001f88:	e002      	b.n	8001f90 <HAL_RCC_GetSysClockFreq+0x94>
 8001f8a:	4b05      	ldr	r3, [pc, #20]	; (8001fa0 <HAL_RCC_GetSysClockFreq+0xa4>)
 8001f8c:	613b      	str	r3, [r7, #16]
 8001f8e:	46c0      	nop			; (mov r8, r8)
 8001f90:	693b      	ldr	r3, [r7, #16]
 8001f92:	0018      	movs	r0, r3
 8001f94:	46bd      	mov	sp, r7
 8001f96:	b006      	add	sp, #24
 8001f98:	bd80      	pop	{r7, pc}
 8001f9a:	46c0      	nop			; (mov r8, r8)
 8001f9c:	40021000 	.word	0x40021000
 8001fa0:	007a1200 	.word	0x007a1200
 8001fa4:	080073b0 	.word	0x080073b0
 8001fa8:	080073c0 	.word	0x080073c0

08001fac <HAL_RCC_GetHCLKFreq>:
 8001fac:	b580      	push	{r7, lr}
 8001fae:	af00      	add	r7, sp, #0
 8001fb0:	4b02      	ldr	r3, [pc, #8]	; (8001fbc <HAL_RCC_GetHCLKFreq+0x10>)
 8001fb2:	681b      	ldr	r3, [r3, #0]
 8001fb4:	0018      	movs	r0, r3
 8001fb6:	46bd      	mov	sp, r7
 8001fb8:	bd80      	pop	{r7, pc}
 8001fba:	46c0      	nop			; (mov r8, r8)
 8001fbc:	20000000 	.word	0x20000000

08001fc0 <HAL_RCC_GetPCLK1Freq>:
 8001fc0:	b580      	push	{r7, lr}
 8001fc2:	af00      	add	r7, sp, #0
 8001fc4:	f7ff fff2 	bl	8001fac <HAL_RCC_GetHCLKFreq>
 8001fc8:	0001      	movs	r1, r0
 8001fca:	4b06      	ldr	r3, [pc, #24]	; (8001fe4 <HAL_RCC_GetPCLK1Freq+0x24>)
 8001fcc:	685b      	ldr	r3, [r3, #4]
 8001fce:	0a1b      	lsrs	r3, r3, #8
 8001fd0:	2207      	movs	r2, #7
 8001fd2:	4013      	ands	r3, r2
 8001fd4:	4a04      	ldr	r2, [pc, #16]	; (8001fe8 <HAL_RCC_GetPCLK1Freq+0x28>)
 8001fd6:	5cd3      	ldrb	r3, [r2, r3]
 8001fd8:	40d9      	lsrs	r1, r3
 8001fda:	000b      	movs	r3, r1
 8001fdc:	0018      	movs	r0, r3
 8001fde:	46bd      	mov	sp, r7
 8001fe0:	bd80      	pop	{r7, pc}
 8001fe2:	46c0      	nop			; (mov r8, r8)
 8001fe4:	40021000 	.word	0x40021000
 8001fe8:	080073a8 	.word	0x080073a8

08001fec <HAL_RCCEx_PeriphCLKConfig>:
 8001fec:	b580      	push	{r7, lr}
 8001fee:	b086      	sub	sp, #24
 8001ff0:	af00      	add	r7, sp, #0
 8001ff2:	6078      	str	r0, [r7, #4]
 8001ff4:	2300      	movs	r3, #0
 8001ff6:	613b      	str	r3, [r7, #16]
 8001ff8:	2300      	movs	r3, #0
 8001ffa:	60fb      	str	r3, [r7, #12]
 8001ffc:	687b      	ldr	r3, [r7, #4]
 8001ffe:	681a      	ldr	r2, [r3, #0]
 8002000:	2380      	movs	r3, #128	; 0x80
 8002002:	025b      	lsls	r3, r3, #9
 8002004:	4013      	ands	r3, r2
 8002006:	d100      	bne.n	800200a <HAL_RCCEx_PeriphCLKConfig+0x1e>
 8002008:	e08e      	b.n	8002128 <HAL_RCCEx_PeriphCLKConfig+0x13c>
 800200a:	2017      	movs	r0, #23
 800200c:	183b      	adds	r3, r7, r0
 800200e:	2200      	movs	r2, #0
 8002010:	701a      	strb	r2, [r3, #0]
 8002012:	4b57      	ldr	r3, [pc, #348]	; (8002170 <HAL_RCCEx_PeriphCLKConfig+0x184>)
 8002014:	69da      	ldr	r2, [r3, #28]
 8002016:	2380      	movs	r3, #128	; 0x80
 8002018:	055b      	lsls	r3, r3, #21
 800201a:	4013      	ands	r3, r2
 800201c:	d110      	bne.n	8002040 <HAL_RCCEx_PeriphCLKConfig+0x54>
 800201e:	4b54      	ldr	r3, [pc, #336]	; (8002170 <HAL_RCCEx_PeriphCLKConfig+0x184>)
 8002020:	69da      	ldr	r2, [r3, #28]
 8002022:	4b53      	ldr	r3, [pc, #332]	; (8002170 <HAL_RCCEx_PeriphCLKConfig+0x184>)
 8002024:	2180      	movs	r1, #128	; 0x80
 8002026:	0549      	lsls	r1, r1, #21
 8002028:	430a      	orrs	r2, r1
 800202a:	61da      	str	r2, [r3, #28]
 800202c:	4b50      	ldr	r3, [pc, #320]	; (8002170 <HAL_RCCEx_PeriphCLKConfig+0x184>)
 800202e:	69da      	ldr	r2, [r3, #28]
 8002030:	2380      	movs	r3, #128	; 0x80
 8002032:	055b      	lsls	r3, r3, #21
 8002034:	4013      	ands	r3, r2
 8002036:	60bb      	str	r3, [r7, #8]
 8002038:	68bb      	ldr	r3, [r7, #8]
 800203a:	183b      	adds	r3, r7, r0
 800203c:	2201      	movs	r2, #1
 800203e:	701a      	strb	r2, [r3, #0]
 8002040:	4b4c      	ldr	r3, [pc, #304]	; (8002174 <HAL_RCCEx_PeriphCLKConfig+0x188>)
 8002042:	681a      	ldr	r2, [r3, #0]
 8002044:	2380      	movs	r3, #128	; 0x80
 8002046:	005b      	lsls	r3, r3, #1
 8002048:	4013      	ands	r3, r2
 800204a:	d11a      	bne.n	8002082 <HAL_RCCEx_PeriphCLKConfig+0x96>
 800204c:	4b49      	ldr	r3, [pc, #292]	; (8002174 <HAL_RCCEx_PeriphCLKConfig+0x188>)
 800204e:	681a      	ldr	r2, [r3, #0]
 8002050:	4b48      	ldr	r3, [pc, #288]	; (8002174 <HAL_RCCEx_PeriphCLKConfig+0x188>)
 8002052:	2180      	movs	r1, #128	; 0x80
 8002054:	0049      	lsls	r1, r1, #1
 8002056:	430a      	orrs	r2, r1
 8002058:	601a      	str	r2, [r3, #0]
 800205a:	f7ff f8f3 	bl	8001244 <HAL_GetTick>
 800205e:	0003      	movs	r3, r0
 8002060:	613b      	str	r3, [r7, #16]
 8002062:	e008      	b.n	8002076 <HAL_RCCEx_PeriphCLKConfig+0x8a>
 8002064:	f7ff f8ee 	bl	8001244 <HAL_GetTick>
 8002068:	0002      	movs	r2, r0
 800206a:	693b      	ldr	r3, [r7, #16]
 800206c:	1ad3      	subs	r3, r2, r3
 800206e:	2b64      	cmp	r3, #100	; 0x64
 8002070:	d901      	bls.n	8002076 <HAL_RCCEx_PeriphCLKConfig+0x8a>
 8002072:	2303      	movs	r3, #3
 8002074:	e077      	b.n	8002166 <HAL_RCCEx_PeriphCLKConfig+0x17a>
 8002076:	4b3f      	ldr	r3, [pc, #252]	; (8002174 <HAL_RCCEx_PeriphCLKConfig+0x188>)
 8002078:	681a      	ldr	r2, [r3, #0]
 800207a:	2380      	movs	r3, #128	; 0x80
 800207c:	005b      	lsls	r3, r3, #1
 800207e:	4013      	ands	r3, r2
 8002080:	d0f0      	beq.n	8002064 <HAL_RCCEx_PeriphCLKConfig+0x78>
 8002082:	4b3b      	ldr	r3, [pc, #236]	; (8002170 <HAL_RCCEx_PeriphCLKConfig+0x184>)
 8002084:	6a1a      	ldr	r2, [r3, #32]
 8002086:	23c0      	movs	r3, #192	; 0xc0
 8002088:	009b      	lsls	r3, r3, #2
 800208a:	4013      	ands	r3, r2
 800208c:	60fb      	str	r3, [r7, #12]
 800208e:	68fb      	ldr	r3, [r7, #12]
 8002090:	2b00      	cmp	r3, #0
 8002092:	d034      	beq.n	80020fe <HAL_RCCEx_PeriphCLKConfig+0x112>
 8002094:	687b      	ldr	r3, [r7, #4]
 8002096:	685a      	ldr	r2, [r3, #4]
 8002098:	23c0      	movs	r3, #192	; 0xc0
 800209a:	009b      	lsls	r3, r3, #2
 800209c:	4013      	ands	r3, r2
 800209e:	68fa      	ldr	r2, [r7, #12]
 80020a0:	429a      	cmp	r2, r3
 80020a2:	d02c      	beq.n	80020fe <HAL_RCCEx_PeriphCLKConfig+0x112>
 80020a4:	4b32      	ldr	r3, [pc, #200]	; (8002170 <HAL_RCCEx_PeriphCLKConfig+0x184>)
 80020a6:	6a1b      	ldr	r3, [r3, #32]
 80020a8:	4a33      	ldr	r2, [pc, #204]	; (8002178 <HAL_RCCEx_PeriphCLKConfig+0x18c>)
 80020aa:	4013      	ands	r3, r2
 80020ac:	60fb      	str	r3, [r7, #12]
 80020ae:	4b30      	ldr	r3, [pc, #192]	; (8002170 <HAL_RCCEx_PeriphCLKConfig+0x184>)
 80020b0:	6a1a      	ldr	r2, [r3, #32]
 80020b2:	4b2f      	ldr	r3, [pc, #188]	; (8002170 <HAL_RCCEx_PeriphCLKConfig+0x184>)
 80020b4:	2180      	movs	r1, #128	; 0x80
 80020b6:	0249      	lsls	r1, r1, #9
 80020b8:	430a      	orrs	r2, r1
 80020ba:	621a      	str	r2, [r3, #32]
 80020bc:	4b2c      	ldr	r3, [pc, #176]	; (8002170 <HAL_RCCEx_PeriphCLKConfig+0x184>)
 80020be:	6a1a      	ldr	r2, [r3, #32]
 80020c0:	4b2b      	ldr	r3, [pc, #172]	; (8002170 <HAL_RCCEx_PeriphCLKConfig+0x184>)
 80020c2:	492e      	ldr	r1, [pc, #184]	; (800217c <HAL_RCCEx_PeriphCLKConfig+0x190>)
 80020c4:	400a      	ands	r2, r1
 80020c6:	621a      	str	r2, [r3, #32]
 80020c8:	4b29      	ldr	r3, [pc, #164]	; (8002170 <HAL_RCCEx_PeriphCLKConfig+0x184>)
 80020ca:	68fa      	ldr	r2, [r7, #12]
 80020cc:	621a      	str	r2, [r3, #32]
 80020ce:	68fb      	ldr	r3, [r7, #12]
 80020d0:	2201      	movs	r2, #1
 80020d2:	4013      	ands	r3, r2
 80020d4:	d013      	beq.n	80020fe <HAL_RCCEx_PeriphCLKConfig+0x112>
 80020d6:	f7ff f8b5 	bl	8001244 <HAL_GetTick>
 80020da:	0003      	movs	r3, r0
 80020dc:	613b      	str	r3, [r7, #16]
 80020de:	e009      	b.n	80020f4 <HAL_RCCEx_PeriphCLKConfig+0x108>
 80020e0:	f7ff f8b0 	bl	8001244 <HAL_GetTick>
 80020e4:	0002      	movs	r2, r0
 80020e6:	693b      	ldr	r3, [r7, #16]
 80020e8:	1ad3      	subs	r3, r2, r3
 80020ea:	4a25      	ldr	r2, [pc, #148]	; (8002180 <HAL_RCCEx_PeriphCLKConfig+0x194>)
 80020ec:	4293      	cmp	r3, r2
 80020ee:	d901      	bls.n	80020f4 <HAL_RCCEx_PeriphCLKConfig+0x108>
 80020f0:	2303      	movs	r3, #3
 80020f2:	e038      	b.n	8002166 <HAL_RCCEx_PeriphCLKConfig+0x17a>
 80020f4:	4b1e      	ldr	r3, [pc, #120]	; (8002170 <HAL_RCCEx_PeriphCLKConfig+0x184>)
 80020f6:	6a1b      	ldr	r3, [r3, #32]
 80020f8:	2202      	movs	r2, #2
 80020fa:	4013      	ands	r3, r2
 80020fc:	d0f0      	beq.n	80020e0 <HAL_RCCEx_PeriphCLKConfig+0xf4>
 80020fe:	4b1c      	ldr	r3, [pc, #112]	; (8002170 <HAL_RCCEx_PeriphCLKConfig+0x184>)
 8002100:	6a1b      	ldr	r3, [r3, #32]
 8002102:	4a1d      	ldr	r2, [pc, #116]	; (8002178 <HAL_RCCEx_PeriphCLKConfig+0x18c>)
 8002104:	4013      	ands	r3, r2
 8002106:	0019      	movs	r1, r3
 8002108:	687b      	ldr	r3, [r7, #4]
 800210a:	685a      	ldr	r2, [r3, #4]
 800210c:	4b18      	ldr	r3, [pc, #96]	; (8002170 <HAL_RCCEx_PeriphCLKConfig+0x184>)
 800210e:	430a      	orrs	r2, r1
 8002110:	621a      	str	r2, [r3, #32]
 8002112:	2317      	movs	r3, #23
 8002114:	18fb      	adds	r3, r7, r3
 8002116:	781b      	ldrb	r3, [r3, #0]
 8002118:	2b01      	cmp	r3, #1
 800211a:	d105      	bne.n	8002128 <HAL_RCCEx_PeriphCLKConfig+0x13c>
 800211c:	4b14      	ldr	r3, [pc, #80]	; (8002170 <HAL_RCCEx_PeriphCLKConfig+0x184>)
 800211e:	69da      	ldr	r2, [r3, #28]
 8002120:	4b13      	ldr	r3, [pc, #76]	; (8002170 <HAL_RCCEx_PeriphCLKConfig+0x184>)
 8002122:	4918      	ldr	r1, [pc, #96]	; (8002184 <HAL_RCCEx_PeriphCLKConfig+0x198>)
 8002124:	400a      	ands	r2, r1
 8002126:	61da      	str	r2, [r3, #28]
 8002128:	687b      	ldr	r3, [r7, #4]
 800212a:	681b      	ldr	r3, [r3, #0]
 800212c:	2201      	movs	r2, #1
 800212e:	4013      	ands	r3, r2
 8002130:	d009      	beq.n	8002146 <HAL_RCCEx_PeriphCLKConfig+0x15a>
 8002132:	4b0f      	ldr	r3, [pc, #60]	; (8002170 <HAL_RCCEx_PeriphCLKConfig+0x184>)
 8002134:	6b1b      	ldr	r3, [r3, #48]	; 0x30
 8002136:	2203      	movs	r2, #3
 8002138:	4393      	bics	r3, r2
 800213a:	0019      	movs	r1, r3
 800213c:	687b      	ldr	r3, [r7, #4]
 800213e:	689a      	ldr	r2, [r3, #8]
 8002140:	4b0b      	ldr	r3, [pc, #44]	; (8002170 <HAL_RCCEx_PeriphCLKConfig+0x184>)
 8002142:	430a      	orrs	r2, r1
 8002144:	631a      	str	r2, [r3, #48]	; 0x30
 8002146:	687b      	ldr	r3, [r7, #4]
 8002148:	681b      	ldr	r3, [r3, #0]
 800214a:	2220      	movs	r2, #32
 800214c:	4013      	ands	r3, r2
 800214e:	d009      	beq.n	8002164 <HAL_RCCEx_PeriphCLKConfig+0x178>
 8002150:	4b07      	ldr	r3, [pc, #28]	; (8002170 <HAL_RCCEx_PeriphCLKConfig+0x184>)
 8002152:	6b1b      	ldr	r3, [r3, #48]	; 0x30
 8002154:	2210      	movs	r2, #16
 8002156:	4393      	bics	r3, r2
 8002158:	0019      	movs	r1, r3
 800215a:	687b      	ldr	r3, [r7, #4]
 800215c:	68da      	ldr	r2, [r3, #12]
 800215e:	4b04      	ldr	r3, [pc, #16]	; (8002170 <HAL_RCCEx_PeriphCLKConfig+0x184>)
 8002160:	430a      	orrs	r2, r1
 8002162:	631a      	str	r2, [r3, #48]	; 0x30
 8002164:	2300      	movs	r3, #0
 8002166:	0018      	movs	r0, r3
 8002168:	46bd      	mov	sp, r7
 800216a:	b006      	add	sp, #24
 800216c:	bd80      	pop	{r7, pc}
 800216e:	46c0      	nop			; (mov r8, r8)
 8002170:	40021000 	.word	0x40021000
 8002174:	40007000 	.word	0x40007000
 8002178:	fffffcff 	.word	0xfffffcff
 800217c:	fffeffff 	.word	0xfffeffff
 8002180:	00001388 	.word	0x00001388
 8002184:	efffffff 	.word	0xefffffff

08002188 <HAL_SPI_Init>:
 8002188:	b580      	push	{r7, lr}
 800218a:	b084      	sub	sp, #16
 800218c:	af00      	add	r7, sp, #0
 800218e:	6078      	str	r0, [r7, #4]
 8002190:	687b      	ldr	r3, [r7, #4]
 8002192:	2b00      	cmp	r3, #0
 8002194:	d101      	bne.n	800219a <HAL_SPI_Init+0x12>
 8002196:	2301      	movs	r3, #1
 8002198:	e0a8      	b.n	80022ec <HAL_SPI_Init+0x164>
 800219a:	687b      	ldr	r3, [r7, #4]
 800219c:	6a5b      	ldr	r3, [r3, #36]	; 0x24
 800219e:	2b00      	cmp	r3, #0
 80021a0:	d109      	bne.n	80021b6 <HAL_SPI_Init+0x2e>
 80021a2:	687b      	ldr	r3, [r7, #4]
 80021a4:	685a      	ldr	r2, [r3, #4]
 80021a6:	2382      	movs	r3, #130	; 0x82
 80021a8:	005b      	lsls	r3, r3, #1
 80021aa:	429a      	cmp	r2, r3
 80021ac:	d009      	beq.n	80021c2 <HAL_SPI_Init+0x3a>
 80021ae:	687b      	ldr	r3, [r7, #4]
 80021b0:	2200      	movs	r2, #0
 80021b2:	61da      	str	r2, [r3, #28]
 80021b4:	e005      	b.n	80021c2 <HAL_SPI_Init+0x3a>
 80021b6:	687b      	ldr	r3, [r7, #4]
 80021b8:	2200      	movs	r2, #0
 80021ba:	611a      	str	r2, [r3, #16]
 80021bc:	687b      	ldr	r3, [r7, #4]
 80021be:	2200      	movs	r2, #0
 80021c0:	615a      	str	r2, [r3, #20]
 80021c2:	687b      	ldr	r3, [r7, #4]
 80021c4:	2200      	movs	r2, #0
 80021c6:	629a      	str	r2, [r3, #40]	; 0x28
 80021c8:	687b      	ldr	r3, [r7, #4]
 80021ca:	225d      	movs	r2, #93	; 0x5d
 80021cc:	5c9b      	ldrb	r3, [r3, r2]
 80021ce:	b2db      	uxtb	r3, r3
 80021d0:	2b00      	cmp	r3, #0
 80021d2:	d107      	bne.n	80021e4 <HAL_SPI_Init+0x5c>
 80021d4:	687b      	ldr	r3, [r7, #4]
 80021d6:	225c      	movs	r2, #92	; 0x5c
 80021d8:	2100      	movs	r1, #0
 80021da:	5499      	strb	r1, [r3, r2]
 80021dc:	687b      	ldr	r3, [r7, #4]
 80021de:	0018      	movs	r0, r3
 80021e0:	f7fe fea0 	bl	8000f24 <HAL_SPI_MspInit>
 80021e4:	687b      	ldr	r3, [r7, #4]
 80021e6:	225d      	movs	r2, #93	; 0x5d
 80021e8:	2102      	movs	r1, #2
 80021ea:	5499      	strb	r1, [r3, r2]
 80021ec:	687b      	ldr	r3, [r7, #4]
 80021ee:	681b      	ldr	r3, [r3, #0]
 80021f0:	681a      	ldr	r2, [r3, #0]
 80021f2:	687b      	ldr	r3, [r7, #4]
 80021f4:	681b      	ldr	r3, [r3, #0]
 80021f6:	2140      	movs	r1, #64	; 0x40
 80021f8:	438a      	bics	r2, r1
 80021fa:	601a      	str	r2, [r3, #0]
 80021fc:	687b      	ldr	r3, [r7, #4]
 80021fe:	68da      	ldr	r2, [r3, #12]
 8002200:	23e0      	movs	r3, #224	; 0xe0
 8002202:	00db      	lsls	r3, r3, #3
 8002204:	429a      	cmp	r2, r3
 8002206:	d902      	bls.n	800220e <HAL_SPI_Init+0x86>
 8002208:	2300      	movs	r3, #0
 800220a:	60fb      	str	r3, [r7, #12]
 800220c:	e002      	b.n	8002214 <HAL_SPI_Init+0x8c>
 800220e:	2380      	movs	r3, #128	; 0x80
 8002210:	015b      	lsls	r3, r3, #5
 8002212:	60fb      	str	r3, [r7, #12]
 8002214:	687b      	ldr	r3, [r7, #4]
 8002216:	68da      	ldr	r2, [r3, #12]
 8002218:	23f0      	movs	r3, #240	; 0xf0
 800221a:	011b      	lsls	r3, r3, #4
 800221c:	429a      	cmp	r2, r3
 800221e:	d008      	beq.n	8002232 <HAL_SPI_Init+0xaa>
 8002220:	687b      	ldr	r3, [r7, #4]
 8002222:	68da      	ldr	r2, [r3, #12]
 8002224:	23e0      	movs	r3, #224	; 0xe0
 8002226:	00db      	lsls	r3, r3, #3
 8002228:	429a      	cmp	r2, r3
 800222a:	d002      	beq.n	8002232 <HAL_SPI_Init+0xaa>
 800222c:	687b      	ldr	r3, [r7, #4]
 800222e:	2200      	movs	r2, #0
 8002230:	629a      	str	r2, [r3, #40]	; 0x28
 8002232:	687b      	ldr	r3, [r7, #4]
 8002234:	685a      	ldr	r2, [r3, #4]
 8002236:	2382      	movs	r3, #130	; 0x82
 8002238:	005b      	lsls	r3, r3, #1
 800223a:	401a      	ands	r2, r3
 800223c:	687b      	ldr	r3, [r7, #4]
 800223e:	6899      	ldr	r1, [r3, #8]
 8002240:	2384      	movs	r3, #132	; 0x84
 8002242:	021b      	lsls	r3, r3, #8
 8002244:	400b      	ands	r3, r1
 8002246:	431a      	orrs	r2, r3
 8002248:	687b      	ldr	r3, [r7, #4]
 800224a:	691b      	ldr	r3, [r3, #16]
 800224c:	2102      	movs	r1, #2
 800224e:	400b      	ands	r3, r1
 8002250:	431a      	orrs	r2, r3
 8002252:	687b      	ldr	r3, [r7, #4]
 8002254:	695b      	ldr	r3, [r3, #20]
 8002256:	2101      	movs	r1, #1
 8002258:	400b      	ands	r3, r1
 800225a:	431a      	orrs	r2, r3
 800225c:	687b      	ldr	r3, [r7, #4]
 800225e:	6999      	ldr	r1, [r3, #24]
 8002260:	2380      	movs	r3, #128	; 0x80
 8002262:	009b      	lsls	r3, r3, #2
 8002264:	400b      	ands	r3, r1
 8002266:	431a      	orrs	r2, r3
 8002268:	687b      	ldr	r3, [r7, #4]
 800226a:	69db      	ldr	r3, [r3, #28]
 800226c:	2138      	movs	r1, #56	; 0x38
 800226e:	400b      	ands	r3, r1
 8002270:	431a      	orrs	r2, r3
 8002272:	687b      	ldr	r3, [r7, #4]
 8002274:	6a1b      	ldr	r3, [r3, #32]
 8002276:	2180      	movs	r1, #128	; 0x80
 8002278:	400b      	ands	r3, r1
 800227a:	431a      	orrs	r2, r3
 800227c:	0011      	movs	r1, r2
 800227e:	687b      	ldr	r3, [r7, #4]
 8002280:	6a9a      	ldr	r2, [r3, #40]	; 0x28
 8002282:	2380      	movs	r3, #128	; 0x80
 8002284:	019b      	lsls	r3, r3, #6
 8002286:	401a      	ands	r2, r3
 8002288:	687b      	ldr	r3, [r7, #4]
 800228a:	681b      	ldr	r3, [r3, #0]
 800228c:	430a      	orrs	r2, r1
 800228e:	601a      	str	r2, [r3, #0]
 8002290:	687b      	ldr	r3, [r7, #4]
 8002292:	699b      	ldr	r3, [r3, #24]
 8002294:	0c1b      	lsrs	r3, r3, #16
 8002296:	2204      	movs	r2, #4
 8002298:	401a      	ands	r2, r3
 800229a:	687b      	ldr	r3, [r7, #4]
 800229c:	6a5b      	ldr	r3, [r3, #36]	; 0x24
 800229e:	2110      	movs	r1, #16
 80022a0:	400b      	ands	r3, r1
 80022a2:	431a      	orrs	r2, r3
 80022a4:	687b      	ldr	r3, [r7, #4]
 80022a6:	6b5b      	ldr	r3, [r3, #52]	; 0x34
 80022a8:	2108      	movs	r1, #8
 80022aa:	400b      	ands	r3, r1
 80022ac:	431a      	orrs	r2, r3
 80022ae:	687b      	ldr	r3, [r7, #4]
 80022b0:	68d9      	ldr	r1, [r3, #12]
 80022b2:	23f0      	movs	r3, #240	; 0xf0
 80022b4:	011b      	lsls	r3, r3, #4
 80022b6:	400b      	ands	r3, r1
 80022b8:	431a      	orrs	r2, r3
 80022ba:	0011      	movs	r1, r2
 80022bc:	68fa      	ldr	r2, [r7, #12]
 80022be:	2380      	movs	r3, #128	; 0x80
 80022c0:	015b      	lsls	r3, r3, #5
 80022c2:	401a      	ands	r2, r3
 80022c4:	687b      	ldr	r3, [r7, #4]
 80022c6:	681b      	ldr	r3, [r3, #0]
 80022c8:	430a      	orrs	r2, r1
 80022ca:	605a      	str	r2, [r3, #4]
 80022cc:	687b      	ldr	r3, [r7, #4]
 80022ce:	681b      	ldr	r3, [r3, #0]
 80022d0:	69da      	ldr	r2, [r3, #28]
 80022d2:	687b      	ldr	r3, [r7, #4]
 80022d4:	681b      	ldr	r3, [r3, #0]
 80022d6:	4907      	ldr	r1, [pc, #28]	; (80022f4 <HAL_SPI_Init+0x16c>)
 80022d8:	400a      	ands	r2, r1
 80022da:	61da      	str	r2, [r3, #28]
 80022dc:	687b      	ldr	r3, [r7, #4]
 80022de:	2200      	movs	r2, #0
 80022e0:	661a      	str	r2, [r3, #96]	; 0x60
 80022e2:	687b      	ldr	r3, [r7, #4]
 80022e4:	225d      	movs	r2, #93	; 0x5d
 80022e6:	2101      	movs	r1, #1
 80022e8:	5499      	strb	r1, [r3, r2]
 80022ea:	2300      	movs	r3, #0
 80022ec:	0018      	movs	r0, r3
 80022ee:	46bd      	mov	sp, r7
 80022f0:	b004      	add	sp, #16
 80022f2:	bd80      	pop	{r7, pc}
 80022f4:	fffff7ff 	.word	0xfffff7ff

080022f8 <HAL_SPI_Transmit>:
 80022f8:	b580      	push	{r7, lr}
 80022fa:	b088      	sub	sp, #32
 80022fc:	af00      	add	r7, sp, #0
 80022fe:	60f8      	str	r0, [r7, #12]
 8002300:	60b9      	str	r1, [r7, #8]
 8002302:	603b      	str	r3, [r7, #0]
 8002304:	1dbb      	adds	r3, r7, #6
 8002306:	801a      	strh	r2, [r3, #0]
 8002308:	231f      	movs	r3, #31
 800230a:	18fb      	adds	r3, r7, r3
 800230c:	2200      	movs	r2, #0
 800230e:	701a      	strb	r2, [r3, #0]
 8002310:	68fb      	ldr	r3, [r7, #12]
 8002312:	225c      	movs	r2, #92	; 0x5c
 8002314:	5c9b      	ldrb	r3, [r3, r2]
 8002316:	2b01      	cmp	r3, #1
 8002318:	d101      	bne.n	800231e <HAL_SPI_Transmit+0x26>
 800231a:	2302      	movs	r3, #2
 800231c:	e147      	b.n	80025ae <HAL_SPI_Transmit+0x2b6>
 800231e:	68fb      	ldr	r3, [r7, #12]
 8002320:	225c      	movs	r2, #92	; 0x5c
 8002322:	2101      	movs	r1, #1
 8002324:	5499      	strb	r1, [r3, r2]
 8002326:	f7fe ff8d 	bl	8001244 <HAL_GetTick>
 800232a:	0003      	movs	r3, r0
 800232c:	61bb      	str	r3, [r7, #24]
 800232e:	2316      	movs	r3, #22
 8002330:	18fb      	adds	r3, r7, r3
 8002332:	1dba      	adds	r2, r7, #6
 8002334:	8812      	ldrh	r2, [r2, #0]
 8002336:	801a      	strh	r2, [r3, #0]
 8002338:	68fb      	ldr	r3, [r7, #12]
 800233a:	225d      	movs	r2, #93	; 0x5d
 800233c:	5c9b      	ldrb	r3, [r3, r2]
 800233e:	b2db      	uxtb	r3, r3
 8002340:	2b01      	cmp	r3, #1
 8002342:	d004      	beq.n	800234e <HAL_SPI_Transmit+0x56>
 8002344:	231f      	movs	r3, #31
 8002346:	18fb      	adds	r3, r7, r3
 8002348:	2202      	movs	r2, #2
 800234a:	701a      	strb	r2, [r3, #0]
 800234c:	e128      	b.n	80025a0 <HAL_SPI_Transmit+0x2a8>
 800234e:	68bb      	ldr	r3, [r7, #8]
 8002350:	2b00      	cmp	r3, #0
 8002352:	d003      	beq.n	800235c <HAL_SPI_Transmit+0x64>
 8002354:	1dbb      	adds	r3, r7, #6
 8002356:	881b      	ldrh	r3, [r3, #0]
 8002358:	2b00      	cmp	r3, #0
 800235a:	d104      	bne.n	8002366 <HAL_SPI_Transmit+0x6e>
 800235c:	231f      	movs	r3, #31
 800235e:	18fb      	adds	r3, r7, r3
 8002360:	2201      	movs	r2, #1
 8002362:	701a      	strb	r2, [r3, #0]
 8002364:	e11c      	b.n	80025a0 <HAL_SPI_Transmit+0x2a8>
 8002366:	68fb      	ldr	r3, [r7, #12]
 8002368:	225d      	movs	r2, #93	; 0x5d
 800236a:	2103      	movs	r1, #3
 800236c:	5499      	strb	r1, [r3, r2]
 800236e:	68fb      	ldr	r3, [r7, #12]
 8002370:	2200      	movs	r2, #0
 8002372:	661a      	str	r2, [r3, #96]	; 0x60
 8002374:	68fb      	ldr	r3, [r7, #12]
 8002376:	68ba      	ldr	r2, [r7, #8]
 8002378:	639a      	str	r2, [r3, #56]	; 0x38
 800237a:	68fb      	ldr	r3, [r7, #12]
 800237c:	1dba      	adds	r2, r7, #6
 800237e:	8812      	ldrh	r2, [r2, #0]
 8002380:	879a      	strh	r2, [r3, #60]	; 0x3c
 8002382:	68fb      	ldr	r3, [r7, #12]
 8002384:	1dba      	adds	r2, r7, #6
 8002386:	8812      	ldrh	r2, [r2, #0]
 8002388:	87da      	strh	r2, [r3, #62]	; 0x3e
 800238a:	68fb      	ldr	r3, [r7, #12]
 800238c:	2200      	movs	r2, #0
 800238e:	641a      	str	r2, [r3, #64]	; 0x40
 8002390:	68fb      	ldr	r3, [r7, #12]
 8002392:	2244      	movs	r2, #68	; 0x44
 8002394:	2100      	movs	r1, #0
 8002396:	5299      	strh	r1, [r3, r2]
 8002398:	68fb      	ldr	r3, [r7, #12]
 800239a:	2246      	movs	r2, #70	; 0x46
 800239c:	2100      	movs	r1, #0
 800239e:	5299      	strh	r1, [r3, r2]
 80023a0:	68fb      	ldr	r3, [r7, #12]
 80023a2:	2200      	movs	r2, #0
 80023a4:	651a      	str	r2, [r3, #80]	; 0x50
 80023a6:	68fb      	ldr	r3, [r7, #12]
 80023a8:	2200      	movs	r2, #0
 80023aa:	64da      	str	r2, [r3, #76]	; 0x4c
 80023ac:	68fb      	ldr	r3, [r7, #12]
 80023ae:	689a      	ldr	r2, [r3, #8]
 80023b0:	2380      	movs	r3, #128	; 0x80
 80023b2:	021b      	lsls	r3, r3, #8
 80023b4:	429a      	cmp	r2, r3
 80023b6:	d110      	bne.n	80023da <HAL_SPI_Transmit+0xe2>
 80023b8:	68fb      	ldr	r3, [r7, #12]
 80023ba:	681b      	ldr	r3, [r3, #0]
 80023bc:	681a      	ldr	r2, [r3, #0]
 80023be:	68fb      	ldr	r3, [r7, #12]
 80023c0:	681b      	ldr	r3, [r3, #0]
 80023c2:	2140      	movs	r1, #64	; 0x40
 80023c4:	438a      	bics	r2, r1
 80023c6:	601a      	str	r2, [r3, #0]
 80023c8:	68fb      	ldr	r3, [r7, #12]
 80023ca:	681b      	ldr	r3, [r3, #0]
 80023cc:	681a      	ldr	r2, [r3, #0]
 80023ce:	68fb      	ldr	r3, [r7, #12]
 80023d0:	681b      	ldr	r3, [r3, #0]
 80023d2:	2180      	movs	r1, #128	; 0x80
 80023d4:	01c9      	lsls	r1, r1, #7
 80023d6:	430a      	orrs	r2, r1
 80023d8:	601a      	str	r2, [r3, #0]
 80023da:	68fb      	ldr	r3, [r7, #12]
 80023dc:	681b      	ldr	r3, [r3, #0]
 80023de:	681b      	ldr	r3, [r3, #0]
 80023e0:	2240      	movs	r2, #64	; 0x40
 80023e2:	4013      	ands	r3, r2
 80023e4:	2b40      	cmp	r3, #64	; 0x40
 80023e6:	d007      	beq.n	80023f8 <HAL_SPI_Transmit+0x100>
 80023e8:	68fb      	ldr	r3, [r7, #12]
 80023ea:	681b      	ldr	r3, [r3, #0]
 80023ec:	681a      	ldr	r2, [r3, #0]
 80023ee:	68fb      	ldr	r3, [r7, #12]
 80023f0:	681b      	ldr	r3, [r3, #0]
 80023f2:	2140      	movs	r1, #64	; 0x40
 80023f4:	430a      	orrs	r2, r1
 80023f6:	601a      	str	r2, [r3, #0]
 80023f8:	68fb      	ldr	r3, [r7, #12]
 80023fa:	68da      	ldr	r2, [r3, #12]
 80023fc:	23e0      	movs	r3, #224	; 0xe0
 80023fe:	00db      	lsls	r3, r3, #3
 8002400:	429a      	cmp	r2, r3
 8002402:	d952      	bls.n	80024aa <HAL_SPI_Transmit+0x1b2>
 8002404:	68fb      	ldr	r3, [r7, #12]
 8002406:	685b      	ldr	r3, [r3, #4]
 8002408:	2b00      	cmp	r3, #0
 800240a:	d004      	beq.n	8002416 <HAL_SPI_Transmit+0x11e>
 800240c:	2316      	movs	r3, #22
 800240e:	18fb      	adds	r3, r7, r3
 8002410:	881b      	ldrh	r3, [r3, #0]
 8002412:	2b01      	cmp	r3, #1
 8002414:	d143      	bne.n	800249e <HAL_SPI_Transmit+0x1a6>
 8002416:	68fb      	ldr	r3, [r7, #12]
 8002418:	6b9b      	ldr	r3, [r3, #56]	; 0x38
 800241a:	881a      	ldrh	r2, [r3, #0]
 800241c:	68fb      	ldr	r3, [r7, #12]
 800241e:	681b      	ldr	r3, [r3, #0]
 8002420:	60da      	str	r2, [r3, #12]
 8002422:	68fb      	ldr	r3, [r7, #12]
 8002424:	6b9b      	ldr	r3, [r3, #56]	; 0x38
 8002426:	1c9a      	adds	r2, r3, #2
 8002428:	68fb      	ldr	r3, [r7, #12]
 800242a:	639a      	str	r2, [r3, #56]	; 0x38
 800242c:	68fb      	ldr	r3, [r7, #12]
 800242e:	8fdb      	ldrh	r3, [r3, #62]	; 0x3e
 8002430:	b29b      	uxth	r3, r3
 8002432:	3b01      	subs	r3, #1
 8002434:	b29a      	uxth	r2, r3
 8002436:	68fb      	ldr	r3, [r7, #12]
 8002438:	87da      	strh	r2, [r3, #62]	; 0x3e
 800243a:	e030      	b.n	800249e <HAL_SPI_Transmit+0x1a6>
 800243c:	68fb      	ldr	r3, [r7, #12]
 800243e:	681b      	ldr	r3, [r3, #0]
 8002440:	689b      	ldr	r3, [r3, #8]
 8002442:	2202      	movs	r2, #2
 8002444:	4013      	ands	r3, r2
 8002446:	2b02      	cmp	r3, #2
 8002448:	d112      	bne.n	8002470 <HAL_SPI_Transmit+0x178>
 800244a:	68fb      	ldr	r3, [r7, #12]
 800244c:	6b9b      	ldr	r3, [r3, #56]	; 0x38
 800244e:	881a      	ldrh	r2, [r3, #0]
 8002450:	68fb      	ldr	r3, [r7, #12]
 8002452:	681b      	ldr	r3, [r3, #0]
 8002454:	60da      	str	r2, [r3, #12]
 8002456:	68fb      	ldr	r3, [r7, #12]
 8002458:	6b9b      	ldr	r3, [r3, #56]	; 0x38
 800245a:	1c9a      	adds	r2, r3, #2
 800245c:	68fb      	ldr	r3, [r7, #12]
 800245e:	639a      	str	r2, [r3, #56]	; 0x38
 8002460:	68fb      	ldr	r3, [r7, #12]
 8002462:	8fdb      	ldrh	r3, [r3, #62]	; 0x3e
 8002464:	b29b      	uxth	r3, r3
 8002466:	3b01      	subs	r3, #1
 8002468:	b29a      	uxth	r2, r3
 800246a:	68fb      	ldr	r3, [r7, #12]
 800246c:	87da      	strh	r2, [r3, #62]	; 0x3e
 800246e:	e016      	b.n	800249e <HAL_SPI_Transmit+0x1a6>
 8002470:	f7fe fee8 	bl	8001244 <HAL_GetTick>
 8002474:	0002      	movs	r2, r0
 8002476:	69bb      	ldr	r3, [r7, #24]
 8002478:	1ad3      	subs	r3, r2, r3
 800247a:	683a      	ldr	r2, [r7, #0]
 800247c:	429a      	cmp	r2, r3
 800247e:	d802      	bhi.n	8002486 <HAL_SPI_Transmit+0x18e>
 8002480:	683b      	ldr	r3, [r7, #0]
 8002482:	3301      	adds	r3, #1
 8002484:	d102      	bne.n	800248c <HAL_SPI_Transmit+0x194>
 8002486:	683b      	ldr	r3, [r7, #0]
 8002488:	2b00      	cmp	r3, #0
 800248a:	d108      	bne.n	800249e <HAL_SPI_Transmit+0x1a6>
 800248c:	231f      	movs	r3, #31
 800248e:	18fb      	adds	r3, r7, r3
 8002490:	2203      	movs	r2, #3
 8002492:	701a      	strb	r2, [r3, #0]
 8002494:	68fb      	ldr	r3, [r7, #12]
 8002496:	225d      	movs	r2, #93	; 0x5d
 8002498:	2101      	movs	r1, #1
 800249a:	5499      	strb	r1, [r3, r2]
 800249c:	e080      	b.n	80025a0 <HAL_SPI_Transmit+0x2a8>
 800249e:	68fb      	ldr	r3, [r7, #12]
 80024a0:	8fdb      	ldrh	r3, [r3, #62]	; 0x3e
 80024a2:	b29b      	uxth	r3, r3
 80024a4:	2b00      	cmp	r3, #0
 80024a6:	d1c9      	bne.n	800243c <HAL_SPI_Transmit+0x144>
 80024a8:	e053      	b.n	8002552 <HAL_SPI_Transmit+0x25a>
 80024aa:	68fb      	ldr	r3, [r7, #12]
 80024ac:	685b      	ldr	r3, [r3, #4]
 80024ae:	2b00      	cmp	r3, #0
 80024b0:	d004      	beq.n	80024bc <HAL_SPI_Transmit+0x1c4>
 80024b2:	2316      	movs	r3, #22
 80024b4:	18fb      	adds	r3, r7, r3
 80024b6:	881b      	ldrh	r3, [r3, #0]
 80024b8:	2b01      	cmp	r3, #1
 80024ba:	d145      	bne.n	8002548 <HAL_SPI_Transmit+0x250>
 80024bc:	68fb      	ldr	r3, [r7, #12]
 80024be:	6b9a      	ldr	r2, [r3, #56]	; 0x38
 80024c0:	68fb      	ldr	r3, [r7, #12]
 80024c2:	681b      	ldr	r3, [r3, #0]
 80024c4:	330c      	adds	r3, #12
 80024c6:	7812      	ldrb	r2, [r2, #0]
 80024c8:	701a      	strb	r2, [r3, #0]
 80024ca:	68fb      	ldr	r3, [r7, #12]
 80024cc:	6b9b      	ldr	r3, [r3, #56]	; 0x38
 80024ce:	1c5a      	adds	r2, r3, #1
 80024d0:	68fb      	ldr	r3, [r7, #12]
 80024d2:	639a      	str	r2, [r3, #56]	; 0x38
 80024d4:	68fb      	ldr	r3, [r7, #12]
 80024d6:	8fdb      	ldrh	r3, [r3, #62]	; 0x3e
 80024d8:	b29b      	uxth	r3, r3
 80024da:	3b01      	subs	r3, #1
 80024dc:	b29a      	uxth	r2, r3
 80024de:	68fb      	ldr	r3, [r7, #12]
 80024e0:	87da      	strh	r2, [r3, #62]	; 0x3e
 80024e2:	e031      	b.n	8002548 <HAL_SPI_Transmit+0x250>
 80024e4:	68fb      	ldr	r3, [r7, #12]
 80024e6:	681b      	ldr	r3, [r3, #0]
 80024e8:	689b      	ldr	r3, [r3, #8]
 80024ea:	2202      	movs	r2, #2
 80024ec:	4013      	ands	r3, r2
 80024ee:	2b02      	cmp	r3, #2
 80024f0:	d113      	bne.n	800251a <HAL_SPI_Transmit+0x222>
 80024f2:	68fb      	ldr	r3, [r7, #12]
 80024f4:	6b9a      	ldr	r2, [r3, #56]	; 0x38
 80024f6:	68fb      	ldr	r3, [r7, #12]
 80024f8:	681b      	ldr	r3, [r3, #0]
 80024fa:	330c      	adds	r3, #12
 80024fc:	7812      	ldrb	r2, [r2, #0]
 80024fe:	701a      	strb	r2, [r3, #0]
 8002500:	68fb      	ldr	r3, [r7, #12]
 8002502:	6b9b      	ldr	r3, [r3, #56]	; 0x38
 8002504:	1c5a      	adds	r2, r3, #1
 8002506:	68fb      	ldr	r3, [r7, #12]
 8002508:	639a      	str	r2, [r3, #56]	; 0x38
 800250a:	68fb      	ldr	r3, [r7, #12]
 800250c:	8fdb      	ldrh	r3, [r3, #62]	; 0x3e
 800250e:	b29b      	uxth	r3, r3
 8002510:	3b01      	subs	r3, #1
 8002512:	b29a      	uxth	r2, r3
 8002514:	68fb      	ldr	r3, [r7, #12]
 8002516:	87da      	strh	r2, [r3, #62]	; 0x3e
 8002518:	e016      	b.n	8002548 <HAL_SPI_Transmit+0x250>
 800251a:	f7fe fe93 	bl	8001244 <HAL_GetTick>
 800251e:	0002      	movs	r2, r0
 8002520:	69bb      	ldr	r3, [r7, #24]
 8002522:	1ad3      	subs	r3, r2, r3
 8002524:	683a      	ldr	r2, [r7, #0]
 8002526:	429a      	cmp	r2, r3
 8002528:	d802      	bhi.n	8002530 <HAL_SPI_Transmit+0x238>
 800252a:	683b      	ldr	r3, [r7, #0]
 800252c:	3301      	adds	r3, #1
 800252e:	d102      	bne.n	8002536 <HAL_SPI_Transmit+0x23e>
 8002530:	683b      	ldr	r3, [r7, #0]
 8002532:	2b00      	cmp	r3, #0
 8002534:	d108      	bne.n	8002548 <HAL_SPI_Transmit+0x250>
 8002536:	231f      	movs	r3, #31
 8002538:	18fb      	adds	r3, r7, r3
 800253a:	2203      	movs	r2, #3
 800253c:	701a      	strb	r2, [r3, #0]
 800253e:	68fb      	ldr	r3, [r7, #12]
 8002540:	225d      	movs	r2, #93	; 0x5d
 8002542:	2101      	movs	r1, #1
 8002544:	5499      	strb	r1, [r3, r2]
 8002546:	e02b      	b.n	80025a0 <HAL_SPI_Transmit+0x2a8>
 8002548:	68fb      	ldr	r3, [r7, #12]
 800254a:	8fdb      	ldrh	r3, [r3, #62]	; 0x3e
 800254c:	b29b      	uxth	r3, r3
 800254e:	2b00      	cmp	r3, #0
 8002550:	d1c8      	bne.n	80024e4 <HAL_SPI_Transmit+0x1ec>
 8002552:	69ba      	ldr	r2, [r7, #24]
 8002554:	6839      	ldr	r1, [r7, #0]
 8002556:	68fb      	ldr	r3, [r7, #12]
 8002558:	0018      	movs	r0, r3
 800255a:	f000 fb3f 	bl	8002bdc <SPI_EndRxTxTransaction>
 800255e:	1e03      	subs	r3, r0, #0
 8002560:	d002      	beq.n	8002568 <HAL_SPI_Transmit+0x270>
 8002562:	68fb      	ldr	r3, [r7, #12]
 8002564:	2220      	movs	r2, #32
 8002566:	661a      	str	r2, [r3, #96]	; 0x60
 8002568:	68fb      	ldr	r3, [r7, #12]
 800256a:	689b      	ldr	r3, [r3, #8]
 800256c:	2b00      	cmp	r3, #0
 800256e:	d10a      	bne.n	8002586 <HAL_SPI_Transmit+0x28e>
 8002570:	2300      	movs	r3, #0
 8002572:	613b      	str	r3, [r7, #16]
 8002574:	68fb      	ldr	r3, [r7, #12]
 8002576:	681b      	ldr	r3, [r3, #0]
 8002578:	68db      	ldr	r3, [r3, #12]
 800257a:	613b      	str	r3, [r7, #16]
 800257c:	68fb      	ldr	r3, [r7, #12]
 800257e:	681b      	ldr	r3, [r3, #0]
 8002580:	689b      	ldr	r3, [r3, #8]
 8002582:	613b      	str	r3, [r7, #16]
 8002584:	693b      	ldr	r3, [r7, #16]
 8002586:	68fb      	ldr	r3, [r7, #12]
 8002588:	6e1b      	ldr	r3, [r3, #96]	; 0x60
 800258a:	2b00      	cmp	r3, #0
 800258c:	d004      	beq.n	8002598 <HAL_SPI_Transmit+0x2a0>
 800258e:	231f      	movs	r3, #31
 8002590:	18fb      	adds	r3, r7, r3
 8002592:	2201      	movs	r2, #1
 8002594:	701a      	strb	r2, [r3, #0]
 8002596:	e003      	b.n	80025a0 <HAL_SPI_Transmit+0x2a8>
 8002598:	68fb      	ldr	r3, [r7, #12]
 800259a:	225d      	movs	r2, #93	; 0x5d
 800259c:	2101      	movs	r1, #1
 800259e:	5499      	strb	r1, [r3, r2]
 80025a0:	68fb      	ldr	r3, [r7, #12]
 80025a2:	225c      	movs	r2, #92	; 0x5c
 80025a4:	2100      	movs	r1, #0
 80025a6:	5499      	strb	r1, [r3, r2]
 80025a8:	231f      	movs	r3, #31
 80025aa:	18fb      	adds	r3, r7, r3
 80025ac:	781b      	ldrb	r3, [r3, #0]
 80025ae:	0018      	movs	r0, r3
 80025b0:	46bd      	mov	sp, r7
 80025b2:	b008      	add	sp, #32
 80025b4:	bd80      	pop	{r7, pc}
	...

080025b8 <HAL_SPI_TransmitReceive>:
 80025b8:	b580      	push	{r7, lr}
 80025ba:	b08a      	sub	sp, #40	; 0x28
 80025bc:	af00      	add	r7, sp, #0
 80025be:	60f8      	str	r0, [r7, #12]
 80025c0:	60b9      	str	r1, [r7, #8]
 80025c2:	607a      	str	r2, [r7, #4]
 80025c4:	001a      	movs	r2, r3
 80025c6:	1cbb      	adds	r3, r7, #2
 80025c8:	801a      	strh	r2, [r3, #0]
 80025ca:	2301      	movs	r3, #1
 80025cc:	627b      	str	r3, [r7, #36]	; 0x24
 80025ce:	2323      	movs	r3, #35	; 0x23
 80025d0:	18fb      	adds	r3, r7, r3
 80025d2:	2200      	movs	r2, #0
 80025d4:	701a      	strb	r2, [r3, #0]
 80025d6:	68fb      	ldr	r3, [r7, #12]
 80025d8:	225c      	movs	r2, #92	; 0x5c
 80025da:	5c9b      	ldrb	r3, [r3, r2]
 80025dc:	2b01      	cmp	r3, #1
 80025de:	d101      	bne.n	80025e4 <HAL_SPI_TransmitReceive+0x2c>
 80025e0:	2302      	movs	r3, #2
 80025e2:	e1c4      	b.n	800296e <HAL_SPI_TransmitReceive+0x3b6>
 80025e4:	68fb      	ldr	r3, [r7, #12]
 80025e6:	225c      	movs	r2, #92	; 0x5c
 80025e8:	2101      	movs	r1, #1
 80025ea:	5499      	strb	r1, [r3, r2]
 80025ec:	f7fe fe2a 	bl	8001244 <HAL_GetTick>
 80025f0:	0003      	movs	r3, r0
 80025f2:	61fb      	str	r3, [r7, #28]
 80025f4:	201b      	movs	r0, #27
 80025f6:	183b      	adds	r3, r7, r0
 80025f8:	68fa      	ldr	r2, [r7, #12]
 80025fa:	215d      	movs	r1, #93	; 0x5d
 80025fc:	5c52      	ldrb	r2, [r2, r1]
 80025fe:	701a      	strb	r2, [r3, #0]
 8002600:	68fb      	ldr	r3, [r7, #12]
 8002602:	685b      	ldr	r3, [r3, #4]
 8002604:	617b      	str	r3, [r7, #20]
 8002606:	2312      	movs	r3, #18
 8002608:	18fb      	adds	r3, r7, r3
 800260a:	1cba      	adds	r2, r7, #2
 800260c:	8812      	ldrh	r2, [r2, #0]
 800260e:	801a      	strh	r2, [r3, #0]
 8002610:	183b      	adds	r3, r7, r0
 8002612:	781b      	ldrb	r3, [r3, #0]
 8002614:	2b01      	cmp	r3, #1
 8002616:	d011      	beq.n	800263c <HAL_SPI_TransmitReceive+0x84>
 8002618:	697a      	ldr	r2, [r7, #20]
 800261a:	2382      	movs	r3, #130	; 0x82
 800261c:	005b      	lsls	r3, r3, #1
 800261e:	429a      	cmp	r2, r3
 8002620:	d107      	bne.n	8002632 <HAL_SPI_TransmitReceive+0x7a>
 8002622:	68fb      	ldr	r3, [r7, #12]
 8002624:	689b      	ldr	r3, [r3, #8]
 8002626:	2b00      	cmp	r3, #0
 8002628:	d103      	bne.n	8002632 <HAL_SPI_TransmitReceive+0x7a>
 800262a:	183b      	adds	r3, r7, r0
 800262c:	781b      	ldrb	r3, [r3, #0]
 800262e:	2b04      	cmp	r3, #4
 8002630:	d004      	beq.n	800263c <HAL_SPI_TransmitReceive+0x84>
 8002632:	2323      	movs	r3, #35	; 0x23
 8002634:	18fb      	adds	r3, r7, r3
 8002636:	2202      	movs	r2, #2
 8002638:	701a      	strb	r2, [r3, #0]
 800263a:	e191      	b.n	8002960 <HAL_SPI_TransmitReceive+0x3a8>
 800263c:	68bb      	ldr	r3, [r7, #8]
 800263e:	2b00      	cmp	r3, #0
 8002640:	d006      	beq.n	8002650 <HAL_SPI_TransmitReceive+0x98>
 8002642:	687b      	ldr	r3, [r7, #4]
 8002644:	2b00      	cmp	r3, #0
 8002646:	d003      	beq.n	8002650 <HAL_SPI_TransmitReceive+0x98>
 8002648:	1cbb      	adds	r3, r7, #2
 800264a:	881b      	ldrh	r3, [r3, #0]
 800264c:	2b00      	cmp	r3, #0
 800264e:	d104      	bne.n	800265a <HAL_SPI_TransmitReceive+0xa2>
 8002650:	2323      	movs	r3, #35	; 0x23
 8002652:	18fb      	adds	r3, r7, r3
 8002654:	2201      	movs	r2, #1
 8002656:	701a      	strb	r2, [r3, #0]
 8002658:	e182      	b.n	8002960 <HAL_SPI_TransmitReceive+0x3a8>
 800265a:	68fb      	ldr	r3, [r7, #12]
 800265c:	225d      	movs	r2, #93	; 0x5d
 800265e:	5c9b      	ldrb	r3, [r3, r2]
 8002660:	b2db      	uxtb	r3, r3
 8002662:	2b04      	cmp	r3, #4
 8002664:	d003      	beq.n	800266e <HAL_SPI_TransmitReceive+0xb6>
 8002666:	68fb      	ldr	r3, [r7, #12]
 8002668:	225d      	movs	r2, #93	; 0x5d
 800266a:	2105      	movs	r1, #5
 800266c:	5499      	strb	r1, [r3, r2]
 800266e:	68fb      	ldr	r3, [r7, #12]
 8002670:	2200      	movs	r2, #0
 8002672:	661a      	str	r2, [r3, #96]	; 0x60
 8002674:	68fb      	ldr	r3, [r7, #12]
 8002676:	687a      	ldr	r2, [r7, #4]
 8002678:	641a      	str	r2, [r3, #64]	; 0x40
 800267a:	68fb      	ldr	r3, [r7, #12]
 800267c:	1cba      	adds	r2, r7, #2
 800267e:	2146      	movs	r1, #70	; 0x46
 8002680:	8812      	ldrh	r2, [r2, #0]
 8002682:	525a      	strh	r2, [r3, r1]
 8002684:	68fb      	ldr	r3, [r7, #12]
 8002686:	1cba      	adds	r2, r7, #2
 8002688:	2144      	movs	r1, #68	; 0x44
 800268a:	8812      	ldrh	r2, [r2, #0]
 800268c:	525a      	strh	r2, [r3, r1]
 800268e:	68fb      	ldr	r3, [r7, #12]
 8002690:	68ba      	ldr	r2, [r7, #8]
 8002692:	639a      	str	r2, [r3, #56]	; 0x38
 8002694:	68fb      	ldr	r3, [r7, #12]
 8002696:	1cba      	adds	r2, r7, #2
 8002698:	8812      	ldrh	r2, [r2, #0]
 800269a:	87da      	strh	r2, [r3, #62]	; 0x3e
 800269c:	68fb      	ldr	r3, [r7, #12]
 800269e:	1cba      	adds	r2, r7, #2
 80026a0:	8812      	ldrh	r2, [r2, #0]
 80026a2:	879a      	strh	r2, [r3, #60]	; 0x3c
 80026a4:	68fb      	ldr	r3, [r7, #12]
 80026a6:	2200      	movs	r2, #0
 80026a8:	64da      	str	r2, [r3, #76]	; 0x4c
 80026aa:	68fb      	ldr	r3, [r7, #12]
 80026ac:	2200      	movs	r2, #0
 80026ae:	651a      	str	r2, [r3, #80]	; 0x50
 80026b0:	68fb      	ldr	r3, [r7, #12]
 80026b2:	68da      	ldr	r2, [r3, #12]
 80026b4:	23e0      	movs	r3, #224	; 0xe0
 80026b6:	00db      	lsls	r3, r3, #3
 80026b8:	429a      	cmp	r2, r3
 80026ba:	d908      	bls.n	80026ce <HAL_SPI_TransmitReceive+0x116>
 80026bc:	68fb      	ldr	r3, [r7, #12]
 80026be:	681b      	ldr	r3, [r3, #0]
 80026c0:	685a      	ldr	r2, [r3, #4]
 80026c2:	68fb      	ldr	r3, [r7, #12]
 80026c4:	681b      	ldr	r3, [r3, #0]
 80026c6:	49ac      	ldr	r1, [pc, #688]	; (8002978 <HAL_SPI_TransmitReceive+0x3c0>)
 80026c8:	400a      	ands	r2, r1
 80026ca:	605a      	str	r2, [r3, #4]
 80026cc:	e008      	b.n	80026e0 <HAL_SPI_TransmitReceive+0x128>
 80026ce:	68fb      	ldr	r3, [r7, #12]
 80026d0:	681b      	ldr	r3, [r3, #0]
 80026d2:	685a      	ldr	r2, [r3, #4]
 80026d4:	68fb      	ldr	r3, [r7, #12]
 80026d6:	681b      	ldr	r3, [r3, #0]
 80026d8:	2180      	movs	r1, #128	; 0x80
 80026da:	0149      	lsls	r1, r1, #5
 80026dc:	430a      	orrs	r2, r1
 80026de:	605a      	str	r2, [r3, #4]
 80026e0:	68fb      	ldr	r3, [r7, #12]
 80026e2:	681b      	ldr	r3, [r3, #0]
 80026e4:	681b      	ldr	r3, [r3, #0]
 80026e6:	2240      	movs	r2, #64	; 0x40
 80026e8:	4013      	ands	r3, r2
 80026ea:	2b40      	cmp	r3, #64	; 0x40
 80026ec:	d007      	beq.n	80026fe <HAL_SPI_TransmitReceive+0x146>
 80026ee:	68fb      	ldr	r3, [r7, #12]
 80026f0:	681b      	ldr	r3, [r3, #0]
 80026f2:	681a      	ldr	r2, [r3, #0]
 80026f4:	68fb      	ldr	r3, [r7, #12]
 80026f6:	681b      	ldr	r3, [r3, #0]
 80026f8:	2140      	movs	r1, #64	; 0x40
 80026fa:	430a      	orrs	r2, r1
 80026fc:	601a      	str	r2, [r3, #0]
 80026fe:	68fb      	ldr	r3, [r7, #12]
 8002700:	68da      	ldr	r2, [r3, #12]
 8002702:	23e0      	movs	r3, #224	; 0xe0
 8002704:	00db      	lsls	r3, r3, #3
 8002706:	429a      	cmp	r2, r3
 8002708:	d800      	bhi.n	800270c <HAL_SPI_TransmitReceive+0x154>
 800270a:	e083      	b.n	8002814 <HAL_SPI_TransmitReceive+0x25c>
 800270c:	68fb      	ldr	r3, [r7, #12]
 800270e:	685b      	ldr	r3, [r3, #4]
 8002710:	2b00      	cmp	r3, #0
 8002712:	d005      	beq.n	8002720 <HAL_SPI_TransmitReceive+0x168>
 8002714:	2312      	movs	r3, #18
 8002716:	18fb      	adds	r3, r7, r3
 8002718:	881b      	ldrh	r3, [r3, #0]
 800271a:	2b01      	cmp	r3, #1
 800271c:	d000      	beq.n	8002720 <HAL_SPI_TransmitReceive+0x168>
 800271e:	e06d      	b.n	80027fc <HAL_SPI_TransmitReceive+0x244>
 8002720:	68fb      	ldr	r3, [r7, #12]
 8002722:	6b9b      	ldr	r3, [r3, #56]	; 0x38
 8002724:	881a      	ldrh	r2, [r3, #0]
 8002726:	68fb      	ldr	r3, [r7, #12]
 8002728:	681b      	ldr	r3, [r3, #0]
 800272a:	60da      	str	r2, [r3, #12]
 800272c:	68fb      	ldr	r3, [r7, #12]
 800272e:	6b9b      	ldr	r3, [r3, #56]	; 0x38
 8002730:	1c9a      	adds	r2, r3, #2
 8002732:	68fb      	ldr	r3, [r7, #12]
 8002734:	639a      	str	r2, [r3, #56]	; 0x38
 8002736:	68fb      	ldr	r3, [r7, #12]
 8002738:	8fdb      	ldrh	r3, [r3, #62]	; 0x3e
 800273a:	b29b      	uxth	r3, r3
 800273c:	3b01      	subs	r3, #1
 800273e:	b29a      	uxth	r2, r3
 8002740:	68fb      	ldr	r3, [r7, #12]
 8002742:	87da      	strh	r2, [r3, #62]	; 0x3e
 8002744:	e05a      	b.n	80027fc <HAL_SPI_TransmitReceive+0x244>
 8002746:	68fb      	ldr	r3, [r7, #12]
 8002748:	681b      	ldr	r3, [r3, #0]
 800274a:	689b      	ldr	r3, [r3, #8]
 800274c:	2202      	movs	r2, #2
 800274e:	4013      	ands	r3, r2
 8002750:	2b02      	cmp	r3, #2
 8002752:	d11b      	bne.n	800278c <HAL_SPI_TransmitReceive+0x1d4>
 8002754:	68fb      	ldr	r3, [r7, #12]
 8002756:	8fdb      	ldrh	r3, [r3, #62]	; 0x3e
 8002758:	b29b      	uxth	r3, r3
 800275a:	2b00      	cmp	r3, #0
 800275c:	d016      	beq.n	800278c <HAL_SPI_TransmitReceive+0x1d4>
 800275e:	6a7b      	ldr	r3, [r7, #36]	; 0x24
 8002760:	2b01      	cmp	r3, #1
 8002762:	d113      	bne.n	800278c <HAL_SPI_TransmitReceive+0x1d4>
 8002764:	68fb      	ldr	r3, [r7, #12]
 8002766:	6b9b      	ldr	r3, [r3, #56]	; 0x38
 8002768:	881a      	ldrh	r2, [r3, #0]
 800276a:	68fb      	ldr	r3, [r7, #12]
 800276c:	681b      	ldr	r3, [r3, #0]
 800276e:	60da      	str	r2, [r3, #12]
 8002770:	68fb      	ldr	r3, [r7, #12]
 8002772:	6b9b      	ldr	r3, [r3, #56]	; 0x38
 8002774:	1c9a      	adds	r2, r3, #2
 8002776:	68fb      	ldr	r3, [r7, #12]
 8002778:	639a      	str	r2, [r3, #56]	; 0x38
 800277a:	68fb      	ldr	r3, [r7, #12]
 800277c:	8fdb      	ldrh	r3, [r3, #62]	; 0x3e
 800277e:	b29b      	uxth	r3, r3
 8002780:	3b01      	subs	r3, #1
 8002782:	b29a      	uxth	r2, r3
 8002784:	68fb      	ldr	r3, [r7, #12]
 8002786:	87da      	strh	r2, [r3, #62]	; 0x3e
 8002788:	2300      	movs	r3, #0
 800278a:	627b      	str	r3, [r7, #36]	; 0x24
 800278c:	68fb      	ldr	r3, [r7, #12]
 800278e:	681b      	ldr	r3, [r3, #0]
 8002790:	689b      	ldr	r3, [r3, #8]
 8002792:	2201      	movs	r2, #1
 8002794:	4013      	ands	r3, r2
 8002796:	2b01      	cmp	r3, #1
 8002798:	d11c      	bne.n	80027d4 <HAL_SPI_TransmitReceive+0x21c>
 800279a:	68fb      	ldr	r3, [r7, #12]
 800279c:	2246      	movs	r2, #70	; 0x46
 800279e:	5a9b      	ldrh	r3, [r3, r2]
 80027a0:	b29b      	uxth	r3, r3
 80027a2:	2b00      	cmp	r3, #0
 80027a4:	d016      	beq.n	80027d4 <HAL_SPI_TransmitReceive+0x21c>
 80027a6:	68fb      	ldr	r3, [r7, #12]
 80027a8:	681b      	ldr	r3, [r3, #0]
 80027aa:	68da      	ldr	r2, [r3, #12]
 80027ac:	68fb      	ldr	r3, [r7, #12]
 80027ae:	6c1b      	ldr	r3, [r3, #64]	; 0x40
 80027b0:	b292      	uxth	r2, r2
 80027b2:	801a      	strh	r2, [r3, #0]
 80027b4:	68fb      	ldr	r3, [r7, #12]
 80027b6:	6c1b      	ldr	r3, [r3, #64]	; 0x40
 80027b8:	1c9a      	adds	r2, r3, #2
 80027ba:	68fb      	ldr	r3, [r7, #12]
 80027bc:	641a      	str	r2, [r3, #64]	; 0x40
 80027be:	68fb      	ldr	r3, [r7, #12]
 80027c0:	2246      	movs	r2, #70	; 0x46
 80027c2:	5a9b      	ldrh	r3, [r3, r2]
 80027c4:	b29b      	uxth	r3, r3
 80027c6:	3b01      	subs	r3, #1
 80027c8:	b299      	uxth	r1, r3
 80027ca:	68fb      	ldr	r3, [r7, #12]
 80027cc:	2246      	movs	r2, #70	; 0x46
 80027ce:	5299      	strh	r1, [r3, r2]
 80027d0:	2301      	movs	r3, #1
 80027d2:	627b      	str	r3, [r7, #36]	; 0x24
 80027d4:	f7fe fd36 	bl	8001244 <HAL_GetTick>
 80027d8:	0002      	movs	r2, r0
 80027da:	69fb      	ldr	r3, [r7, #28]
 80027dc:	1ad3      	subs	r3, r2, r3
 80027de:	6b3a      	ldr	r2, [r7, #48]	; 0x30
 80027e0:	429a      	cmp	r2, r3
 80027e2:	d80b      	bhi.n	80027fc <HAL_SPI_TransmitReceive+0x244>
 80027e4:	6b3b      	ldr	r3, [r7, #48]	; 0x30
 80027e6:	3301      	adds	r3, #1
 80027e8:	d008      	beq.n	80027fc <HAL_SPI_TransmitReceive+0x244>
 80027ea:	2323      	movs	r3, #35	; 0x23
 80027ec:	18fb      	adds	r3, r7, r3
 80027ee:	2203      	movs	r2, #3
 80027f0:	701a      	strb	r2, [r3, #0]
 80027f2:	68fb      	ldr	r3, [r7, #12]
 80027f4:	225d      	movs	r2, #93	; 0x5d
 80027f6:	2101      	movs	r1, #1
 80027f8:	5499      	strb	r1, [r3, r2]
 80027fa:	e0b1      	b.n	8002960 <HAL_SPI_TransmitReceive+0x3a8>
 80027fc:	68fb      	ldr	r3, [r7, #12]
 80027fe:	8fdb      	ldrh	r3, [r3, #62]	; 0x3e
 8002800:	b29b      	uxth	r3, r3
 8002802:	2b00      	cmp	r3, #0
 8002804:	d19f      	bne.n	8002746 <HAL_SPI_TransmitReceive+0x18e>
 8002806:	68fb      	ldr	r3, [r7, #12]
 8002808:	2246      	movs	r2, #70	; 0x46
 800280a:	5a9b      	ldrh	r3, [r3, r2]
 800280c:	b29b      	uxth	r3, r3
 800280e:	2b00      	cmp	r3, #0
 8002810:	d199      	bne.n	8002746 <HAL_SPI_TransmitReceive+0x18e>
 8002812:	e089      	b.n	8002928 <HAL_SPI_TransmitReceive+0x370>
 8002814:	68fb      	ldr	r3, [r7, #12]
 8002816:	685b      	ldr	r3, [r3, #4]
 8002818:	2b00      	cmp	r3, #0
 800281a:	d005      	beq.n	8002828 <HAL_SPI_TransmitReceive+0x270>
 800281c:	2312      	movs	r3, #18
 800281e:	18fb      	adds	r3, r7, r3
 8002820:	881b      	ldrh	r3, [r3, #0]
 8002822:	2b01      	cmp	r3, #1
 8002824:	d000      	beq.n	8002828 <HAL_SPI_TransmitReceive+0x270>
 8002826:	e074      	b.n	8002912 <HAL_SPI_TransmitReceive+0x35a>
 8002828:	68fb      	ldr	r3, [r7, #12]
 800282a:	6b9a      	ldr	r2, [r3, #56]	; 0x38
 800282c:	68fb      	ldr	r3, [r7, #12]
 800282e:	681b      	ldr	r3, [r3, #0]
 8002830:	330c      	adds	r3, #12
 8002832:	7812      	ldrb	r2, [r2, #0]
 8002834:	701a      	strb	r2, [r3, #0]
 8002836:	68fb      	ldr	r3, [r7, #12]
 8002838:	6b9b      	ldr	r3, [r3, #56]	; 0x38
 800283a:	1c5a      	adds	r2, r3, #1
 800283c:	68fb      	ldr	r3, [r7, #12]
 800283e:	639a      	str	r2, [r3, #56]	; 0x38
 8002840:	68fb      	ldr	r3, [r7, #12]
 8002842:	8fdb      	ldrh	r3, [r3, #62]	; 0x3e
 8002844:	b29b      	uxth	r3, r3
 8002846:	3b01      	subs	r3, #1
 8002848:	b29a      	uxth	r2, r3
 800284a:	68fb      	ldr	r3, [r7, #12]
 800284c:	87da      	strh	r2, [r3, #62]	; 0x3e
 800284e:	e060      	b.n	8002912 <HAL_SPI_TransmitReceive+0x35a>
 8002850:	68fb      	ldr	r3, [r7, #12]
 8002852:	681b      	ldr	r3, [r3, #0]
 8002854:	689b      	ldr	r3, [r3, #8]
 8002856:	2202      	movs	r2, #2
 8002858:	4013      	ands	r3, r2
 800285a:	2b02      	cmp	r3, #2
 800285c:	d11c      	bne.n	8002898 <HAL_SPI_TransmitReceive+0x2e0>
 800285e:	68fb      	ldr	r3, [r7, #12]
 8002860:	8fdb      	ldrh	r3, [r3, #62]	; 0x3e
 8002862:	b29b      	uxth	r3, r3
 8002864:	2b00      	cmp	r3, #0
 8002866:	d017      	beq.n	8002898 <HAL_SPI_TransmitReceive+0x2e0>
 8002868:	6a7b      	ldr	r3, [r7, #36]	; 0x24
 800286a:	2b01      	cmp	r3, #1
 800286c:	d114      	bne.n	8002898 <HAL_SPI_TransmitReceive+0x2e0>
 800286e:	68fb      	ldr	r3, [r7, #12]
 8002870:	6b9a      	ldr	r2, [r3, #56]	; 0x38
 8002872:	68fb      	ldr	r3, [r7, #12]
 8002874:	681b      	ldr	r3, [r3, #0]
 8002876:	330c      	adds	r3, #12
 8002878:	7812      	ldrb	r2, [r2, #0]
 800287a:	701a      	strb	r2, [r3, #0]
 800287c:	68fb      	ldr	r3, [r7, #12]
 800287e:	6b9b      	ldr	r3, [r3, #56]	; 0x38
 8002880:	1c5a      	adds	r2, r3, #1
 8002882:	68fb      	ldr	r3, [r7, #12]
 8002884:	639a      	str	r2, [r3, #56]	; 0x38
 8002886:	68fb      	ldr	r3, [r7, #12]
 8002888:	8fdb      	ldrh	r3, [r3, #62]	; 0x3e
 800288a:	b29b      	uxth	r3, r3
 800288c:	3b01      	subs	r3, #1
 800288e:	b29a      	uxth	r2, r3
 8002890:	68fb      	ldr	r3, [r7, #12]
 8002892:	87da      	strh	r2, [r3, #62]	; 0x3e
 8002894:	2300      	movs	r3, #0
 8002896:	627b      	str	r3, [r7, #36]	; 0x24
 8002898:	68fb      	ldr	r3, [r7, #12]
 800289a:	681b      	ldr	r3, [r3, #0]
 800289c:	689b      	ldr	r3, [r3, #8]
 800289e:	2201      	movs	r2, #1
 80028a0:	4013      	ands	r3, r2
 80028a2:	2b01      	cmp	r3, #1
 80028a4:	d11e      	bne.n	80028e4 <HAL_SPI_TransmitReceive+0x32c>
 80028a6:	68fb      	ldr	r3, [r7, #12]
 80028a8:	2246      	movs	r2, #70	; 0x46
 80028aa:	5a9b      	ldrh	r3, [r3, r2]
 80028ac:	b29b      	uxth	r3, r3
 80028ae:	2b00      	cmp	r3, #0
 80028b0:	d018      	beq.n	80028e4 <HAL_SPI_TransmitReceive+0x32c>
 80028b2:	68fb      	ldr	r3, [r7, #12]
 80028b4:	681b      	ldr	r3, [r3, #0]
 80028b6:	330c      	adds	r3, #12
 80028b8:	001a      	movs	r2, r3
 80028ba:	68fb      	ldr	r3, [r7, #12]
 80028bc:	6c1b      	ldr	r3, [r3, #64]	; 0x40
 80028be:	7812      	ldrb	r2, [r2, #0]
 80028c0:	b2d2      	uxtb	r2, r2
 80028c2:	701a      	strb	r2, [r3, #0]
 80028c4:	68fb      	ldr	r3, [r7, #12]
 80028c6:	6c1b      	ldr	r3, [r3, #64]	; 0x40
 80028c8:	1c5a      	adds	r2, r3, #1
 80028ca:	68fb      	ldr	r3, [r7, #12]
 80028cc:	641a      	str	r2, [r3, #64]	; 0x40
 80028ce:	68fb      	ldr	r3, [r7, #12]
 80028d0:	2246      	movs	r2, #70	; 0x46
 80028d2:	5a9b      	ldrh	r3, [r3, r2]
 80028d4:	b29b      	uxth	r3, r3
 80028d6:	3b01      	subs	r3, #1
 80028d8:	b299      	uxth	r1, r3
 80028da:	68fb      	ldr	r3, [r7, #12]
 80028dc:	2246      	movs	r2, #70	; 0x46
 80028de:	5299      	strh	r1, [r3, r2]
 80028e0:	2301      	movs	r3, #1
 80028e2:	627b      	str	r3, [r7, #36]	; 0x24
 80028e4:	f7fe fcae 	bl	8001244 <HAL_GetTick>
 80028e8:	0002      	movs	r2, r0
 80028ea:	69fb      	ldr	r3, [r7, #28]
 80028ec:	1ad3      	subs	r3, r2, r3
 80028ee:	6b3a      	ldr	r2, [r7, #48]	; 0x30
 80028f0:	429a      	cmp	r2, r3
 80028f2:	d802      	bhi.n	80028fa <HAL_SPI_TransmitReceive+0x342>
 80028f4:	6b3b      	ldr	r3, [r7, #48]	; 0x30
 80028f6:	3301      	adds	r3, #1
 80028f8:	d102      	bne.n	8002900 <HAL_SPI_TransmitReceive+0x348>
 80028fa:	6b3b      	ldr	r3, [r7, #48]	; 0x30
 80028fc:	2b00      	cmp	r3, #0
 80028fe:	d108      	bne.n	8002912 <HAL_SPI_TransmitReceive+0x35a>
 8002900:	2323      	movs	r3, #35	; 0x23
 8002902:	18fb      	adds	r3, r7, r3
 8002904:	2203      	movs	r2, #3
 8002906:	701a      	strb	r2, [r3, #0]
 8002908:	68fb      	ldr	r3, [r7, #12]
 800290a:	225d      	movs	r2, #93	; 0x5d
 800290c:	2101      	movs	r1, #1
 800290e:	5499      	strb	r1, [r3, r2]
 8002910:	e026      	b.n	8002960 <HAL_SPI_TransmitReceive+0x3a8>
 8002912:	68fb      	ldr	r3, [r7, #12]
 8002914:	8fdb      	ldrh	r3, [r3, #62]	; 0x3e
 8002916:	b29b      	uxth	r3, r3
 8002918:	2b00      	cmp	r3, #0
 800291a:	d199      	bne.n	8002850 <HAL_SPI_TransmitReceive+0x298>
 800291c:	68fb      	ldr	r3, [r7, #12]
 800291e:	2246      	movs	r2, #70	; 0x46
 8002920:	5a9b      	ldrh	r3, [r3, r2]
 8002922:	b29b      	uxth	r3, r3
 8002924:	2b00      	cmp	r3, #0
 8002926:	d193      	bne.n	8002850 <HAL_SPI_TransmitReceive+0x298>
 8002928:	69fa      	ldr	r2, [r7, #28]
 800292a:	6b39      	ldr	r1, [r7, #48]	; 0x30
 800292c:	68fb      	ldr	r3, [r7, #12]
 800292e:	0018      	movs	r0, r3
 8002930:	f000 f954 	bl	8002bdc <SPI_EndRxTxTransaction>
 8002934:	1e03      	subs	r3, r0, #0
 8002936:	d006      	beq.n	8002946 <HAL_SPI_TransmitReceive+0x38e>
 8002938:	2323      	movs	r3, #35	; 0x23
 800293a:	18fb      	adds	r3, r7, r3
 800293c:	2201      	movs	r2, #1
 800293e:	701a      	strb	r2, [r3, #0]
 8002940:	68fb      	ldr	r3, [r7, #12]
 8002942:	2220      	movs	r2, #32
 8002944:	661a      	str	r2, [r3, #96]	; 0x60
 8002946:	68fb      	ldr	r3, [r7, #12]
 8002948:	6e1b      	ldr	r3, [r3, #96]	; 0x60
 800294a:	2b00      	cmp	r3, #0
 800294c:	d004      	beq.n	8002958 <HAL_SPI_TransmitReceive+0x3a0>
 800294e:	2323      	movs	r3, #35	; 0x23
 8002950:	18fb      	adds	r3, r7, r3
 8002952:	2201      	movs	r2, #1
 8002954:	701a      	strb	r2, [r3, #0]
 8002956:	e003      	b.n	8002960 <HAL_SPI_TransmitReceive+0x3a8>
 8002958:	68fb      	ldr	r3, [r7, #12]
 800295a:	225d      	movs	r2, #93	; 0x5d
 800295c:	2101      	movs	r1, #1
 800295e:	5499      	strb	r1, [r3, r2]
 8002960:	68fb      	ldr	r3, [r7, #12]
 8002962:	225c      	movs	r2, #92	; 0x5c
 8002964:	2100      	movs	r1, #0
 8002966:	5499      	strb	r1, [r3, r2]
 8002968:	2323      	movs	r3, #35	; 0x23
 800296a:	18fb      	adds	r3, r7, r3
 800296c:	781b      	ldrb	r3, [r3, #0]
 800296e:	0018      	movs	r0, r3
 8002970:	46bd      	mov	sp, r7
 8002972:	b00a      	add	sp, #40	; 0x28
 8002974:	bd80      	pop	{r7, pc}
 8002976:	46c0      	nop			; (mov r8, r8)
 8002978:	ffffefff 	.word	0xffffefff

0800297c <SPI_WaitFlagStateUntilTimeout>:
 800297c:	b580      	push	{r7, lr}
 800297e:	b088      	sub	sp, #32
 8002980:	af00      	add	r7, sp, #0
 8002982:	60f8      	str	r0, [r7, #12]
 8002984:	60b9      	str	r1, [r7, #8]
 8002986:	603b      	str	r3, [r7, #0]
 8002988:	1dfb      	adds	r3, r7, #7
 800298a:	701a      	strb	r2, [r3, #0]
 800298c:	f7fe fc5a 	bl	8001244 <HAL_GetTick>
 8002990:	0002      	movs	r2, r0
 8002992:	6abb      	ldr	r3, [r7, #40]	; 0x28
 8002994:	1a9b      	subs	r3, r3, r2
 8002996:	683a      	ldr	r2, [r7, #0]
 8002998:	18d3      	adds	r3, r2, r3
 800299a:	61fb      	str	r3, [r7, #28]
 800299c:	f7fe fc52 	bl	8001244 <HAL_GetTick>
 80029a0:	0003      	movs	r3, r0
 80029a2:	61bb      	str	r3, [r7, #24]
 80029a4:	4b3a      	ldr	r3, [pc, #232]	; (8002a90 <SPI_WaitFlagStateUntilTimeout+0x114>)
 80029a6:	681b      	ldr	r3, [r3, #0]
 80029a8:	015b      	lsls	r3, r3, #5
 80029aa:	0d1b      	lsrs	r3, r3, #20
 80029ac:	69fa      	ldr	r2, [r7, #28]
 80029ae:	4353      	muls	r3, r2
 80029b0:	617b      	str	r3, [r7, #20]
 80029b2:	e058      	b.n	8002a66 <SPI_WaitFlagStateUntilTimeout+0xea>
 80029b4:	683b      	ldr	r3, [r7, #0]
 80029b6:	3301      	adds	r3, #1
 80029b8:	d055      	beq.n	8002a66 <SPI_WaitFlagStateUntilTimeout+0xea>
 80029ba:	f7fe fc43 	bl	8001244 <HAL_GetTick>
 80029be:	0002      	movs	r2, r0
 80029c0:	69bb      	ldr	r3, [r7, #24]
 80029c2:	1ad3      	subs	r3, r2, r3
 80029c4:	69fa      	ldr	r2, [r7, #28]
 80029c6:	429a      	cmp	r2, r3
 80029c8:	d902      	bls.n	80029d0 <SPI_WaitFlagStateUntilTimeout+0x54>
 80029ca:	69fb      	ldr	r3, [r7, #28]
 80029cc:	2b00      	cmp	r3, #0
 80029ce:	d142      	bne.n	8002a56 <SPI_WaitFlagStateUntilTimeout+0xda>
 80029d0:	68fb      	ldr	r3, [r7, #12]
 80029d2:	681b      	ldr	r3, [r3, #0]
 80029d4:	685a      	ldr	r2, [r3, #4]
 80029d6:	68fb      	ldr	r3, [r7, #12]
 80029d8:	681b      	ldr	r3, [r3, #0]
 80029da:	21e0      	movs	r1, #224	; 0xe0
 80029dc:	438a      	bics	r2, r1
 80029de:	605a      	str	r2, [r3, #4]
 80029e0:	68fb      	ldr	r3, [r7, #12]
 80029e2:	685a      	ldr	r2, [r3, #4]
 80029e4:	2382      	movs	r3, #130	; 0x82
 80029e6:	005b      	lsls	r3, r3, #1
 80029e8:	429a      	cmp	r2, r3
 80029ea:	d113      	bne.n	8002a14 <SPI_WaitFlagStateUntilTimeout+0x98>
 80029ec:	68fb      	ldr	r3, [r7, #12]
 80029ee:	689a      	ldr	r2, [r3, #8]
 80029f0:	2380      	movs	r3, #128	; 0x80
 80029f2:	021b      	lsls	r3, r3, #8
 80029f4:	429a      	cmp	r2, r3
 80029f6:	d005      	beq.n	8002a04 <SPI_WaitFlagStateUntilTimeout+0x88>
 80029f8:	68fb      	ldr	r3, [r7, #12]
 80029fa:	689a      	ldr	r2, [r3, #8]
 80029fc:	2380      	movs	r3, #128	; 0x80
 80029fe:	00db      	lsls	r3, r3, #3
 8002a00:	429a      	cmp	r2, r3
 8002a02:	d107      	bne.n	8002a14 <SPI_WaitFlagStateUntilTimeout+0x98>
 8002a04:	68fb      	ldr	r3, [r7, #12]
 8002a06:	681b      	ldr	r3, [r3, #0]
 8002a08:	681a      	ldr	r2, [r3, #0]
 8002a0a:	68fb      	ldr	r3, [r7, #12]
 8002a0c:	681b      	ldr	r3, [r3, #0]
 8002a0e:	2140      	movs	r1, #64	; 0x40
 8002a10:	438a      	bics	r2, r1
 8002a12:	601a      	str	r2, [r3, #0]
 8002a14:	68fb      	ldr	r3, [r7, #12]
 8002a16:	6a9a      	ldr	r2, [r3, #40]	; 0x28
 8002a18:	2380      	movs	r3, #128	; 0x80
 8002a1a:	019b      	lsls	r3, r3, #6
 8002a1c:	429a      	cmp	r2, r3
 8002a1e:	d110      	bne.n	8002a42 <SPI_WaitFlagStateUntilTimeout+0xc6>
 8002a20:	68fb      	ldr	r3, [r7, #12]
 8002a22:	681b      	ldr	r3, [r3, #0]
 8002a24:	681a      	ldr	r2, [r3, #0]
 8002a26:	68fb      	ldr	r3, [r7, #12]
 8002a28:	681b      	ldr	r3, [r3, #0]
 8002a2a:	491a      	ldr	r1, [pc, #104]	; (8002a94 <SPI_WaitFlagStateUntilTimeout+0x118>)
 8002a2c:	400a      	ands	r2, r1
 8002a2e:	601a      	str	r2, [r3, #0]
 8002a30:	68fb      	ldr	r3, [r7, #12]
 8002a32:	681b      	ldr	r3, [r3, #0]
 8002a34:	681a      	ldr	r2, [r3, #0]
 8002a36:	68fb      	ldr	r3, [r7, #12]
 8002a38:	681b      	ldr	r3, [r3, #0]
 8002a3a:	2180      	movs	r1, #128	; 0x80
 8002a3c:	0189      	lsls	r1, r1, #6
 8002a3e:	430a      	orrs	r2, r1
 8002a40:	601a      	str	r2, [r3, #0]
 8002a42:	68fb      	ldr	r3, [r7, #12]
 8002a44:	225d      	movs	r2, #93	; 0x5d
 8002a46:	2101      	movs	r1, #1
 8002a48:	5499      	strb	r1, [r3, r2]
 8002a4a:	68fb      	ldr	r3, [r7, #12]
 8002a4c:	225c      	movs	r2, #92	; 0x5c
 8002a4e:	2100      	movs	r1, #0
 8002a50:	5499      	strb	r1, [r3, r2]
 8002a52:	2303      	movs	r3, #3
 8002a54:	e017      	b.n	8002a86 <SPI_WaitFlagStateUntilTimeout+0x10a>
 8002a56:	697b      	ldr	r3, [r7, #20]
 8002a58:	2b00      	cmp	r3, #0
 8002a5a:	d101      	bne.n	8002a60 <SPI_WaitFlagStateUntilTimeout+0xe4>
 8002a5c:	2300      	movs	r3, #0
 8002a5e:	61fb      	str	r3, [r7, #28]
 8002a60:	697b      	ldr	r3, [r7, #20]
 8002a62:	3b01      	subs	r3, #1
 8002a64:	617b      	str	r3, [r7, #20]
 8002a66:	68fb      	ldr	r3, [r7, #12]
 8002a68:	681b      	ldr	r3, [r3, #0]
 8002a6a:	689b      	ldr	r3, [r3, #8]
 8002a6c:	68ba      	ldr	r2, [r7, #8]
 8002a6e:	4013      	ands	r3, r2
 8002a70:	68ba      	ldr	r2, [r7, #8]
 8002a72:	1ad3      	subs	r3, r2, r3
 8002a74:	425a      	negs	r2, r3
 8002a76:	4153      	adcs	r3, r2
 8002a78:	b2db      	uxtb	r3, r3
 8002a7a:	001a      	movs	r2, r3
 8002a7c:	1dfb      	adds	r3, r7, #7
 8002a7e:	781b      	ldrb	r3, [r3, #0]
 8002a80:	429a      	cmp	r2, r3
 8002a82:	d197      	bne.n	80029b4 <SPI_WaitFlagStateUntilTimeout+0x38>
 8002a84:	2300      	movs	r3, #0
 8002a86:	0018      	movs	r0, r3
 8002a88:	46bd      	mov	sp, r7
 8002a8a:	b008      	add	sp, #32
 8002a8c:	bd80      	pop	{r7, pc}
 8002a8e:	46c0      	nop			; (mov r8, r8)
 8002a90:	20000000 	.word	0x20000000
 8002a94:	ffffdfff 	.word	0xffffdfff

08002a98 <SPI_WaitFifoStateUntilTimeout>:
 8002a98:	b580      	push	{r7, lr}
 8002a9a:	b08a      	sub	sp, #40	; 0x28
 8002a9c:	af00      	add	r7, sp, #0
 8002a9e:	60f8      	str	r0, [r7, #12]
 8002aa0:	60b9      	str	r1, [r7, #8]
 8002aa2:	607a      	str	r2, [r7, #4]
 8002aa4:	603b      	str	r3, [r7, #0]
 8002aa6:	2317      	movs	r3, #23
 8002aa8:	18fb      	adds	r3, r7, r3
 8002aaa:	2200      	movs	r2, #0
 8002aac:	701a      	strb	r2, [r3, #0]
 8002aae:	f7fe fbc9 	bl	8001244 <HAL_GetTick>
 8002ab2:	0002      	movs	r2, r0
 8002ab4:	6b3b      	ldr	r3, [r7, #48]	; 0x30
 8002ab6:	1a9b      	subs	r3, r3, r2
 8002ab8:	683a      	ldr	r2, [r7, #0]
 8002aba:	18d3      	adds	r3, r2, r3
 8002abc:	627b      	str	r3, [r7, #36]	; 0x24
 8002abe:	f7fe fbc1 	bl	8001244 <HAL_GetTick>
 8002ac2:	0003      	movs	r3, r0
 8002ac4:	623b      	str	r3, [r7, #32]
 8002ac6:	68fb      	ldr	r3, [r7, #12]
 8002ac8:	681b      	ldr	r3, [r3, #0]
 8002aca:	330c      	adds	r3, #12
 8002acc:	61fb      	str	r3, [r7, #28]
 8002ace:	4b41      	ldr	r3, [pc, #260]	; (8002bd4 <SPI_WaitFifoStateUntilTimeout+0x13c>)
 8002ad0:	681a      	ldr	r2, [r3, #0]
 8002ad2:	0013      	movs	r3, r2
 8002ad4:	009b      	lsls	r3, r3, #2
 8002ad6:	189b      	adds	r3, r3, r2
 8002ad8:	00da      	lsls	r2, r3, #3
 8002ada:	1ad3      	subs	r3, r2, r3
 8002adc:	0d1b      	lsrs	r3, r3, #20
 8002ade:	6a7a      	ldr	r2, [r7, #36]	; 0x24
 8002ae0:	4353      	muls	r3, r2
 8002ae2:	61bb      	str	r3, [r7, #24]
 8002ae4:	e068      	b.n	8002bb8 <SPI_WaitFifoStateUntilTimeout+0x120>
 8002ae6:	68ba      	ldr	r2, [r7, #8]
 8002ae8:	23c0      	movs	r3, #192	; 0xc0
 8002aea:	00db      	lsls	r3, r3, #3
 8002aec:	429a      	cmp	r2, r3
 8002aee:	d10a      	bne.n	8002b06 <SPI_WaitFifoStateUntilTimeout+0x6e>
 8002af0:	687b      	ldr	r3, [r7, #4]
 8002af2:	2b00      	cmp	r3, #0
 8002af4:	d107      	bne.n	8002b06 <SPI_WaitFifoStateUntilTimeout+0x6e>
 8002af6:	69fb      	ldr	r3, [r7, #28]
 8002af8:	781b      	ldrb	r3, [r3, #0]
 8002afa:	b2da      	uxtb	r2, r3
 8002afc:	2117      	movs	r1, #23
 8002afe:	187b      	adds	r3, r7, r1
 8002b00:	701a      	strb	r2, [r3, #0]
 8002b02:	187b      	adds	r3, r7, r1
 8002b04:	781b      	ldrb	r3, [r3, #0]
 8002b06:	683b      	ldr	r3, [r7, #0]
 8002b08:	3301      	adds	r3, #1
 8002b0a:	d055      	beq.n	8002bb8 <SPI_WaitFifoStateUntilTimeout+0x120>
 8002b0c:	f7fe fb9a 	bl	8001244 <HAL_GetTick>
 8002b10:	0002      	movs	r2, r0
 8002b12:	6a3b      	ldr	r3, [r7, #32]
 8002b14:	1ad3      	subs	r3, r2, r3
 8002b16:	6a7a      	ldr	r2, [r7, #36]	; 0x24
 8002b18:	429a      	cmp	r2, r3
 8002b1a:	d902      	bls.n	8002b22 <SPI_WaitFifoStateUntilTimeout+0x8a>
 8002b1c:	6a7b      	ldr	r3, [r7, #36]	; 0x24
 8002b1e:	2b00      	cmp	r3, #0
 8002b20:	d142      	bne.n	8002ba8 <SPI_WaitFifoStateUntilTimeout+0x110>
 8002b22:	68fb      	ldr	r3, [r7, #12]
 8002b24:	681b      	ldr	r3, [r3, #0]
 8002b26:	685a      	ldr	r2, [r3, #4]
 8002b28:	68fb      	ldr	r3, [r7, #12]
 8002b2a:	681b      	ldr	r3, [r3, #0]
 8002b2c:	21e0      	movs	r1, #224	; 0xe0
 8002b2e:	438a      	bics	r2, r1
 8002b30:	605a      	str	r2, [r3, #4]
 8002b32:	68fb      	ldr	r3, [r7, #12]
 8002b34:	685a      	ldr	r2, [r3, #4]
 8002b36:	2382      	movs	r3, #130	; 0x82
 8002b38:	005b      	lsls	r3, r3, #1
 8002b3a:	429a      	cmp	r2, r3
 8002b3c:	d113      	bne.n	8002b66 <SPI_WaitFifoStateUntilTimeout+0xce>
 8002b3e:	68fb      	ldr	r3, [r7, #12]
 8002b40:	689a      	ldr	r2, [r3, #8]
 8002b42:	2380      	movs	r3, #128	; 0x80
 8002b44:	021b      	lsls	r3, r3, #8
 8002b46:	429a      	cmp	r2, r3
 8002b48:	d005      	beq.n	8002b56 <SPI_WaitFifoStateUntilTimeout+0xbe>
 8002b4a:	68fb      	ldr	r3, [r7, #12]
 8002b4c:	689a      	ldr	r2, [r3, #8]
 8002b4e:	2380      	movs	r3, #128	; 0x80
 8002b50:	00db      	lsls	r3, r3, #3
 8002b52:	429a      	cmp	r2, r3
 8002b54:	d107      	bne.n	8002b66 <SPI_WaitFifoStateUntilTimeout+0xce>
 8002b56:	68fb      	ldr	r3, [r7, #12]
 8002b58:	681b      	ldr	r3, [r3, #0]
 8002b5a:	681a      	ldr	r2, [r3, #0]
 8002b5c:	68fb      	ldr	r3, [r7, #12]
 8002b5e:	681b      	ldr	r3, [r3, #0]
 8002b60:	2140      	movs	r1, #64	; 0x40
 8002b62:	438a      	bics	r2, r1
 8002b64:	601a      	str	r2, [r3, #0]
 8002b66:	68fb      	ldr	r3, [r7, #12]
 8002b68:	6a9a      	ldr	r2, [r3, #40]	; 0x28
 8002b6a:	2380      	movs	r3, #128	; 0x80
 8002b6c:	019b      	lsls	r3, r3, #6
 8002b6e:	429a      	cmp	r2, r3
 8002b70:	d110      	bne.n	8002b94 <SPI_WaitFifoStateUntilTimeout+0xfc>
 8002b72:	68fb      	ldr	r3, [r7, #12]
 8002b74:	681b      	ldr	r3, [r3, #0]
 8002b76:	681a      	ldr	r2, [r3, #0]
 8002b78:	68fb      	ldr	r3, [r7, #12]
 8002b7a:	681b      	ldr	r3, [r3, #0]
 8002b7c:	4916      	ldr	r1, [pc, #88]	; (8002bd8 <SPI_WaitFifoStateUntilTimeout+0x140>)
 8002b7e:	400a      	ands	r2, r1
 8002b80:	601a      	str	r2, [r3, #0]
 8002b82:	68fb      	ldr	r3, [r7, #12]
 8002b84:	681b      	ldr	r3, [r3, #0]
 8002b86:	681a      	ldr	r2, [r3, #0]
 8002b88:	68fb      	ldr	r3, [r7, #12]
 8002b8a:	681b      	ldr	r3, [r3, #0]
 8002b8c:	2180      	movs	r1, #128	; 0x80
 8002b8e:	0189      	lsls	r1, r1, #6
 8002b90:	430a      	orrs	r2, r1
 8002b92:	601a      	str	r2, [r3, #0]
 8002b94:	68fb      	ldr	r3, [r7, #12]
 8002b96:	225d      	movs	r2, #93	; 0x5d
 8002b98:	2101      	movs	r1, #1
 8002b9a:	5499      	strb	r1, [r3, r2]
 8002b9c:	68fb      	ldr	r3, [r7, #12]
 8002b9e:	225c      	movs	r2, #92	; 0x5c
 8002ba0:	2100      	movs	r1, #0
 8002ba2:	5499      	strb	r1, [r3, r2]
 8002ba4:	2303      	movs	r3, #3
 8002ba6:	e010      	b.n	8002bca <SPI_WaitFifoStateUntilTimeout+0x132>
 8002ba8:	69bb      	ldr	r3, [r7, #24]
 8002baa:	2b00      	cmp	r3, #0
 8002bac:	d101      	bne.n	8002bb2 <SPI_WaitFifoStateUntilTimeout+0x11a>
 8002bae:	2300      	movs	r3, #0
 8002bb0:	627b      	str	r3, [r7, #36]	; 0x24
 8002bb2:	69bb      	ldr	r3, [r7, #24]
 8002bb4:	3b01      	subs	r3, #1
 8002bb6:	61bb      	str	r3, [r7, #24]
 8002bb8:	68fb      	ldr	r3, [r7, #12]
 8002bba:	681b      	ldr	r3, [r3, #0]
 8002bbc:	689b      	ldr	r3, [r3, #8]
 8002bbe:	68ba      	ldr	r2, [r7, #8]
 8002bc0:	4013      	ands	r3, r2
 8002bc2:	687a      	ldr	r2, [r7, #4]
 8002bc4:	429a      	cmp	r2, r3
 8002bc6:	d18e      	bne.n	8002ae6 <SPI_WaitFifoStateUntilTimeout+0x4e>
 8002bc8:	2300      	movs	r3, #0
 8002bca:	0018      	movs	r0, r3
 8002bcc:	46bd      	mov	sp, r7
 8002bce:	b00a      	add	sp, #40	; 0x28
 8002bd0:	bd80      	pop	{r7, pc}
 8002bd2:	46c0      	nop			; (mov r8, r8)
 8002bd4:	20000000 	.word	0x20000000
 8002bd8:	ffffdfff 	.word	0xffffdfff

08002bdc <SPI_EndRxTxTransaction>:
 8002bdc:	b580      	push	{r7, lr}
 8002bde:	b086      	sub	sp, #24
 8002be0:	af02      	add	r7, sp, #8
 8002be2:	60f8      	str	r0, [r7, #12]
 8002be4:	60b9      	str	r1, [r7, #8]
 8002be6:	607a      	str	r2, [r7, #4]
 8002be8:	68ba      	ldr	r2, [r7, #8]
 8002bea:	23c0      	movs	r3, #192	; 0xc0
 8002bec:	0159      	lsls	r1, r3, #5
 8002bee:	68f8      	ldr	r0, [r7, #12]
 8002bf0:	687b      	ldr	r3, [r7, #4]
 8002bf2:	9300      	str	r3, [sp, #0]
 8002bf4:	0013      	movs	r3, r2
 8002bf6:	2200      	movs	r2, #0
 8002bf8:	f7ff ff4e 	bl	8002a98 <SPI_WaitFifoStateUntilTimeout>
 8002bfc:	1e03      	subs	r3, r0, #0
 8002bfe:	d007      	beq.n	8002c10 <SPI_EndRxTxTransaction+0x34>
 8002c00:	68fb      	ldr	r3, [r7, #12]
 8002c02:	6e1b      	ldr	r3, [r3, #96]	; 0x60
 8002c04:	2220      	movs	r2, #32
 8002c06:	431a      	orrs	r2, r3
 8002c08:	68fb      	ldr	r3, [r7, #12]
 8002c0a:	661a      	str	r2, [r3, #96]	; 0x60
 8002c0c:	2303      	movs	r3, #3
 8002c0e:	e027      	b.n	8002c60 <SPI_EndRxTxTransaction+0x84>
 8002c10:	68ba      	ldr	r2, [r7, #8]
 8002c12:	68f8      	ldr	r0, [r7, #12]
 8002c14:	687b      	ldr	r3, [r7, #4]
 8002c16:	9300      	str	r3, [sp, #0]
 8002c18:	0013      	movs	r3, r2
 8002c1a:	2200      	movs	r2, #0
 8002c1c:	2180      	movs	r1, #128	; 0x80
 8002c1e:	f7ff fead 	bl	800297c <SPI_WaitFlagStateUntilTimeout>
 8002c22:	1e03      	subs	r3, r0, #0
 8002c24:	d007      	beq.n	8002c36 <SPI_EndRxTxTransaction+0x5a>
 8002c26:	68fb      	ldr	r3, [r7, #12]
 8002c28:	6e1b      	ldr	r3, [r3, #96]	; 0x60
 8002c2a:	2220      	movs	r2, #32
 8002c2c:	431a      	orrs	r2, r3
 8002c2e:	68fb      	ldr	r3, [r7, #12]
 8002c30:	661a      	str	r2, [r3, #96]	; 0x60
 8002c32:	2303      	movs	r3, #3
 8002c34:	e014      	b.n	8002c60 <SPI_EndRxTxTransaction+0x84>
 8002c36:	68ba      	ldr	r2, [r7, #8]
 8002c38:	23c0      	movs	r3, #192	; 0xc0
 8002c3a:	00d9      	lsls	r1, r3, #3
 8002c3c:	68f8      	ldr	r0, [r7, #12]
 8002c3e:	687b      	ldr	r3, [r7, #4]
 8002c40:	9300      	str	r3, [sp, #0]
 8002c42:	0013      	movs	r3, r2
 8002c44:	2200      	movs	r2, #0
 8002c46:	f7ff ff27 	bl	8002a98 <SPI_WaitFifoStateUntilTimeout>
 8002c4a:	1e03      	subs	r3, r0, #0
 8002c4c:	d007      	beq.n	8002c5e <SPI_EndRxTxTransaction+0x82>
 8002c4e:	68fb      	ldr	r3, [r7, #12]
 8002c50:	6e1b      	ldr	r3, [r3, #96]	; 0x60
 8002c52:	2220      	movs	r2, #32
 8002c54:	431a      	orrs	r2, r3
 8002c56:	68fb      	ldr	r3, [r7, #12]
 8002c58:	661a      	str	r2, [r3, #96]	; 0x60
 8002c5a:	2303      	movs	r3, #3
 8002c5c:	e000      	b.n	8002c60 <SPI_EndRxTxTransaction+0x84>
 8002c5e:	2300      	movs	r3, #0
 8002c60:	0018      	movs	r0, r3
 8002c62:	46bd      	mov	sp, r7
 8002c64:	b004      	add	sp, #16
 8002c66:	bd80      	pop	{r7, pc}

08002c68 <HAL_UART_Init>:
 8002c68:	b580      	push	{r7, lr}
 8002c6a:	b082      	sub	sp, #8
 8002c6c:	af00      	add	r7, sp, #0
 8002c6e:	6078      	str	r0, [r7, #4]
 8002c70:	687b      	ldr	r3, [r7, #4]
 8002c72:	2b00      	cmp	r3, #0
 8002c74:	d101      	bne.n	8002c7a <HAL_UART_Init+0x12>
 8002c76:	2301      	movs	r3, #1
 8002c78:	e044      	b.n	8002d04 <HAL_UART_Init+0x9c>
 8002c7a:	687b      	ldr	r3, [r7, #4]
 8002c7c:	6fdb      	ldr	r3, [r3, #124]	; 0x7c
 8002c7e:	2b00      	cmp	r3, #0
 8002c80:	d107      	bne.n	8002c92 <HAL_UART_Init+0x2a>
 8002c82:	687b      	ldr	r3, [r7, #4]
 8002c84:	2278      	movs	r2, #120	; 0x78
 8002c86:	2100      	movs	r1, #0
 8002c88:	5499      	strb	r1, [r3, r2]
 8002c8a:	687b      	ldr	r3, [r7, #4]
 8002c8c:	0018      	movs	r0, r3
 8002c8e:	f7fe f9eb 	bl	8001068 <HAL_UART_MspInit>
 8002c92:	687b      	ldr	r3, [r7, #4]
 8002c94:	2224      	movs	r2, #36	; 0x24
 8002c96:	67da      	str	r2, [r3, #124]	; 0x7c
 8002c98:	687b      	ldr	r3, [r7, #4]
 8002c9a:	681b      	ldr	r3, [r3, #0]
 8002c9c:	681a      	ldr	r2, [r3, #0]
 8002c9e:	687b      	ldr	r3, [r7, #4]
 8002ca0:	681b      	ldr	r3, [r3, #0]
 8002ca2:	2101      	movs	r1, #1
 8002ca4:	438a      	bics	r2, r1
 8002ca6:	601a      	str	r2, [r3, #0]
 8002ca8:	687b      	ldr	r3, [r7, #4]
 8002caa:	0018      	movs	r0, r3
 8002cac:	f000 f830 	bl	8002d10 <UART_SetConfig>
 8002cb0:	0003      	movs	r3, r0
 8002cb2:	2b01      	cmp	r3, #1
 8002cb4:	d101      	bne.n	8002cba <HAL_UART_Init+0x52>
 8002cb6:	2301      	movs	r3, #1
 8002cb8:	e024      	b.n	8002d04 <HAL_UART_Init+0x9c>
 8002cba:	687b      	ldr	r3, [r7, #4]
 8002cbc:	6a5b      	ldr	r3, [r3, #36]	; 0x24
 8002cbe:	2b00      	cmp	r3, #0
 8002cc0:	d003      	beq.n	8002cca <HAL_UART_Init+0x62>
 8002cc2:	687b      	ldr	r3, [r7, #4]
 8002cc4:	0018      	movs	r0, r3
 8002cc6:	f000 f993 	bl	8002ff0 <UART_AdvFeatureConfig>
 8002cca:	687b      	ldr	r3, [r7, #4]
 8002ccc:	681b      	ldr	r3, [r3, #0]
 8002cce:	685a      	ldr	r2, [r3, #4]
 8002cd0:	687b      	ldr	r3, [r7, #4]
 8002cd2:	681b      	ldr	r3, [r3, #0]
 8002cd4:	490d      	ldr	r1, [pc, #52]	; (8002d0c <HAL_UART_Init+0xa4>)
 8002cd6:	400a      	ands	r2, r1
 8002cd8:	605a      	str	r2, [r3, #4]
 8002cda:	687b      	ldr	r3, [r7, #4]
 8002cdc:	681b      	ldr	r3, [r3, #0]
 8002cde:	689a      	ldr	r2, [r3, #8]
 8002ce0:	687b      	ldr	r3, [r7, #4]
 8002ce2:	681b      	ldr	r3, [r3, #0]
 8002ce4:	2108      	movs	r1, #8
 8002ce6:	438a      	bics	r2, r1
 8002ce8:	609a      	str	r2, [r3, #8]
 8002cea:	687b      	ldr	r3, [r7, #4]
 8002cec:	681b      	ldr	r3, [r3, #0]
 8002cee:	681a      	ldr	r2, [r3, #0]
 8002cf0:	687b      	ldr	r3, [r7, #4]
 8002cf2:	681b      	ldr	r3, [r3, #0]
 8002cf4:	2101      	movs	r1, #1
 8002cf6:	430a      	orrs	r2, r1
 8002cf8:	601a      	str	r2, [r3, #0]
 8002cfa:	687b      	ldr	r3, [r7, #4]
 8002cfc:	0018      	movs	r0, r3
 8002cfe:	f000 fa2b 	bl	8003158 <UART_CheckIdleState>
 8002d02:	0003      	movs	r3, r0
 8002d04:	0018      	movs	r0, r3
 8002d06:	46bd      	mov	sp, r7
 8002d08:	b002      	add	sp, #8
 8002d0a:	bd80      	pop	{r7, pc}
 8002d0c:	fffff7ff 	.word	0xfffff7ff

08002d10 <UART_SetConfig>:
 8002d10:	b580      	push	{r7, lr}
 8002d12:	b088      	sub	sp, #32
 8002d14:	af00      	add	r7, sp, #0
 8002d16:	6078      	str	r0, [r7, #4]
 8002d18:	231e      	movs	r3, #30
 8002d1a:	18fb      	adds	r3, r7, r3
 8002d1c:	2200      	movs	r2, #0
 8002d1e:	701a      	strb	r2, [r3, #0]
 8002d20:	687b      	ldr	r3, [r7, #4]
 8002d22:	689a      	ldr	r2, [r3, #8]
 8002d24:	687b      	ldr	r3, [r7, #4]
 8002d26:	691b      	ldr	r3, [r3, #16]
 8002d28:	431a      	orrs	r2, r3
 8002d2a:	687b      	ldr	r3, [r7, #4]
 8002d2c:	695b      	ldr	r3, [r3, #20]
 8002d2e:	431a      	orrs	r2, r3
 8002d30:	687b      	ldr	r3, [r7, #4]
 8002d32:	69db      	ldr	r3, [r3, #28]
 8002d34:	4313      	orrs	r3, r2
 8002d36:	617b      	str	r3, [r7, #20]
 8002d38:	687b      	ldr	r3, [r7, #4]
 8002d3a:	681b      	ldr	r3, [r3, #0]
 8002d3c:	681b      	ldr	r3, [r3, #0]
 8002d3e:	4aa1      	ldr	r2, [pc, #644]	; (8002fc4 <UART_SetConfig+0x2b4>)
 8002d40:	4013      	ands	r3, r2
 8002d42:	0019      	movs	r1, r3
 8002d44:	687b      	ldr	r3, [r7, #4]
 8002d46:	681b      	ldr	r3, [r3, #0]
 8002d48:	697a      	ldr	r2, [r7, #20]
 8002d4a:	430a      	orrs	r2, r1
 8002d4c:	601a      	str	r2, [r3, #0]
 8002d4e:	687b      	ldr	r3, [r7, #4]
 8002d50:	681b      	ldr	r3, [r3, #0]
 8002d52:	685b      	ldr	r3, [r3, #4]
 8002d54:	4a9c      	ldr	r2, [pc, #624]	; (8002fc8 <UART_SetConfig+0x2b8>)
 8002d56:	4013      	ands	r3, r2
 8002d58:	0019      	movs	r1, r3
 8002d5a:	687b      	ldr	r3, [r7, #4]
 8002d5c:	68da      	ldr	r2, [r3, #12]
 8002d5e:	687b      	ldr	r3, [r7, #4]
 8002d60:	681b      	ldr	r3, [r3, #0]
 8002d62:	430a      	orrs	r2, r1
 8002d64:	605a      	str	r2, [r3, #4]
 8002d66:	687b      	ldr	r3, [r7, #4]
 8002d68:	699b      	ldr	r3, [r3, #24]
 8002d6a:	617b      	str	r3, [r7, #20]
 8002d6c:	687b      	ldr	r3, [r7, #4]
 8002d6e:	6a1b      	ldr	r3, [r3, #32]
 8002d70:	697a      	ldr	r2, [r7, #20]
 8002d72:	4313      	orrs	r3, r2
 8002d74:	617b      	str	r3, [r7, #20]
 8002d76:	687b      	ldr	r3, [r7, #4]
 8002d78:	681b      	ldr	r3, [r3, #0]
 8002d7a:	689b      	ldr	r3, [r3, #8]
 8002d7c:	4a93      	ldr	r2, [pc, #588]	; (8002fcc <UART_SetConfig+0x2bc>)
 8002d7e:	4013      	ands	r3, r2
 8002d80:	0019      	movs	r1, r3
 8002d82:	687b      	ldr	r3, [r7, #4]
 8002d84:	681b      	ldr	r3, [r3, #0]
 8002d86:	697a      	ldr	r2, [r7, #20]
 8002d88:	430a      	orrs	r2, r1
 8002d8a:	609a      	str	r2, [r3, #8]
 8002d8c:	687b      	ldr	r3, [r7, #4]
 8002d8e:	681b      	ldr	r3, [r3, #0]
 8002d90:	4a8f      	ldr	r2, [pc, #572]	; (8002fd0 <UART_SetConfig+0x2c0>)
 8002d92:	4293      	cmp	r3, r2
 8002d94:	d127      	bne.n	8002de6 <UART_SetConfig+0xd6>
 8002d96:	4b8f      	ldr	r3, [pc, #572]	; (8002fd4 <UART_SetConfig+0x2c4>)
 8002d98:	6b1b      	ldr	r3, [r3, #48]	; 0x30
 8002d9a:	2203      	movs	r2, #3
 8002d9c:	4013      	ands	r3, r2
 8002d9e:	2b03      	cmp	r3, #3
 8002da0:	d00d      	beq.n	8002dbe <UART_SetConfig+0xae>
 8002da2:	d81b      	bhi.n	8002ddc <UART_SetConfig+0xcc>
 8002da4:	2b02      	cmp	r3, #2
 8002da6:	d014      	beq.n	8002dd2 <UART_SetConfig+0xc2>
 8002da8:	d818      	bhi.n	8002ddc <UART_SetConfig+0xcc>
 8002daa:	2b00      	cmp	r3, #0
 8002dac:	d002      	beq.n	8002db4 <UART_SetConfig+0xa4>
 8002dae:	2b01      	cmp	r3, #1
 8002db0:	d00a      	beq.n	8002dc8 <UART_SetConfig+0xb8>
 8002db2:	e013      	b.n	8002ddc <UART_SetConfig+0xcc>
 8002db4:	231f      	movs	r3, #31
 8002db6:	18fb      	adds	r3, r7, r3
 8002db8:	2200      	movs	r2, #0
 8002dba:	701a      	strb	r2, [r3, #0]
 8002dbc:	e049      	b.n	8002e52 <UART_SetConfig+0x142>
 8002dbe:	231f      	movs	r3, #31
 8002dc0:	18fb      	adds	r3, r7, r3
 8002dc2:	2202      	movs	r2, #2
 8002dc4:	701a      	strb	r2, [r3, #0]
 8002dc6:	e044      	b.n	8002e52 <UART_SetConfig+0x142>
 8002dc8:	231f      	movs	r3, #31
 8002dca:	18fb      	adds	r3, r7, r3
 8002dcc:	2204      	movs	r2, #4
 8002dce:	701a      	strb	r2, [r3, #0]
 8002dd0:	e03f      	b.n	8002e52 <UART_SetConfig+0x142>
 8002dd2:	231f      	movs	r3, #31
 8002dd4:	18fb      	adds	r3, r7, r3
 8002dd6:	2208      	movs	r2, #8
 8002dd8:	701a      	strb	r2, [r3, #0]
 8002dda:	e03a      	b.n	8002e52 <UART_SetConfig+0x142>
 8002ddc:	231f      	movs	r3, #31
 8002dde:	18fb      	adds	r3, r7, r3
 8002de0:	2210      	movs	r2, #16
 8002de2:	701a      	strb	r2, [r3, #0]
 8002de4:	e035      	b.n	8002e52 <UART_SetConfig+0x142>
 8002de6:	687b      	ldr	r3, [r7, #4]
 8002de8:	681b      	ldr	r3, [r3, #0]
 8002dea:	4a7b      	ldr	r2, [pc, #492]	; (8002fd8 <UART_SetConfig+0x2c8>)
 8002dec:	4293      	cmp	r3, r2
 8002dee:	d104      	bne.n	8002dfa <UART_SetConfig+0xea>
 8002df0:	231f      	movs	r3, #31
 8002df2:	18fb      	adds	r3, r7, r3
 8002df4:	2200      	movs	r2, #0
 8002df6:	701a      	strb	r2, [r3, #0]
 8002df8:	e02b      	b.n	8002e52 <UART_SetConfig+0x142>
 8002dfa:	687b      	ldr	r3, [r7, #4]
 8002dfc:	681b      	ldr	r3, [r3, #0]
 8002dfe:	4a77      	ldr	r2, [pc, #476]	; (8002fdc <UART_SetConfig+0x2cc>)
 8002e00:	4293      	cmp	r3, r2
 8002e02:	d104      	bne.n	8002e0e <UART_SetConfig+0xfe>
 8002e04:	231f      	movs	r3, #31
 8002e06:	18fb      	adds	r3, r7, r3
 8002e08:	2200      	movs	r2, #0
 8002e0a:	701a      	strb	r2, [r3, #0]
 8002e0c:	e021      	b.n	8002e52 <UART_SetConfig+0x142>
 8002e0e:	687b      	ldr	r3, [r7, #4]
 8002e10:	681b      	ldr	r3, [r3, #0]
 8002e12:	4a73      	ldr	r2, [pc, #460]	; (8002fe0 <UART_SetConfig+0x2d0>)
 8002e14:	4293      	cmp	r3, r2
 8002e16:	d104      	bne.n	8002e22 <UART_SetConfig+0x112>
 8002e18:	231f      	movs	r3, #31
 8002e1a:	18fb      	adds	r3, r7, r3
 8002e1c:	2200      	movs	r2, #0
 8002e1e:	701a      	strb	r2, [r3, #0]
 8002e20:	e017      	b.n	8002e52 <UART_SetConfig+0x142>
 8002e22:	687b      	ldr	r3, [r7, #4]
 8002e24:	681b      	ldr	r3, [r3, #0]
 8002e26:	4a6f      	ldr	r2, [pc, #444]	; (8002fe4 <UART_SetConfig+0x2d4>)
 8002e28:	4293      	cmp	r3, r2
 8002e2a:	d104      	bne.n	8002e36 <UART_SetConfig+0x126>
 8002e2c:	231f      	movs	r3, #31
 8002e2e:	18fb      	adds	r3, r7, r3
 8002e30:	2200      	movs	r2, #0
 8002e32:	701a      	strb	r2, [r3, #0]
 8002e34:	e00d      	b.n	8002e52 <UART_SetConfig+0x142>
 8002e36:	687b      	ldr	r3, [r7, #4]
 8002e38:	681b      	ldr	r3, [r3, #0]
 8002e3a:	4a6b      	ldr	r2, [pc, #428]	; (8002fe8 <UART_SetConfig+0x2d8>)
 8002e3c:	4293      	cmp	r3, r2
 8002e3e:	d104      	bne.n	8002e4a <UART_SetConfig+0x13a>
 8002e40:	231f      	movs	r3, #31
 8002e42:	18fb      	adds	r3, r7, r3
 8002e44:	2200      	movs	r2, #0
 8002e46:	701a      	strb	r2, [r3, #0]
 8002e48:	e003      	b.n	8002e52 <UART_SetConfig+0x142>
 8002e4a:	231f      	movs	r3, #31
 8002e4c:	18fb      	adds	r3, r7, r3
 8002e4e:	2210      	movs	r2, #16
 8002e50:	701a      	strb	r2, [r3, #0]
 8002e52:	687b      	ldr	r3, [r7, #4]
 8002e54:	69da      	ldr	r2, [r3, #28]
 8002e56:	2380      	movs	r3, #128	; 0x80
 8002e58:	021b      	lsls	r3, r3, #8
 8002e5a:	429a      	cmp	r2, r3
 8002e5c:	d15c      	bne.n	8002f18 <UART_SetConfig+0x208>
 8002e5e:	231f      	movs	r3, #31
 8002e60:	18fb      	adds	r3, r7, r3
 8002e62:	781b      	ldrb	r3, [r3, #0]
 8002e64:	2b08      	cmp	r3, #8
 8002e66:	d015      	beq.n	8002e94 <UART_SetConfig+0x184>
 8002e68:	dc18      	bgt.n	8002e9c <UART_SetConfig+0x18c>
 8002e6a:	2b04      	cmp	r3, #4
 8002e6c:	d00d      	beq.n	8002e8a <UART_SetConfig+0x17a>
 8002e6e:	dc15      	bgt.n	8002e9c <UART_SetConfig+0x18c>
 8002e70:	2b00      	cmp	r3, #0
 8002e72:	d002      	beq.n	8002e7a <UART_SetConfig+0x16a>
 8002e74:	2b02      	cmp	r3, #2
 8002e76:	d005      	beq.n	8002e84 <UART_SetConfig+0x174>
 8002e78:	e010      	b.n	8002e9c <UART_SetConfig+0x18c>
 8002e7a:	f7ff f8a1 	bl	8001fc0 <HAL_RCC_GetPCLK1Freq>
 8002e7e:	0003      	movs	r3, r0
 8002e80:	61bb      	str	r3, [r7, #24]
 8002e82:	e012      	b.n	8002eaa <UART_SetConfig+0x19a>
 8002e84:	4b59      	ldr	r3, [pc, #356]	; (8002fec <UART_SetConfig+0x2dc>)
 8002e86:	61bb      	str	r3, [r7, #24]
 8002e88:	e00f      	b.n	8002eaa <UART_SetConfig+0x19a>
 8002e8a:	f7ff f837 	bl	8001efc <HAL_RCC_GetSysClockFreq>
 8002e8e:	0003      	movs	r3, r0
 8002e90:	61bb      	str	r3, [r7, #24]
 8002e92:	e00a      	b.n	8002eaa <UART_SetConfig+0x19a>
 8002e94:	2380      	movs	r3, #128	; 0x80
 8002e96:	021b      	lsls	r3, r3, #8
 8002e98:	61bb      	str	r3, [r7, #24]
 8002e9a:	e006      	b.n	8002eaa <UART_SetConfig+0x19a>
 8002e9c:	2300      	movs	r3, #0
 8002e9e:	61bb      	str	r3, [r7, #24]
 8002ea0:	231e      	movs	r3, #30
 8002ea2:	18fb      	adds	r3, r7, r3
 8002ea4:	2201      	movs	r2, #1
 8002ea6:	701a      	strb	r2, [r3, #0]
 8002ea8:	46c0      	nop			; (mov r8, r8)
 8002eaa:	69bb      	ldr	r3, [r7, #24]
 8002eac:	2b00      	cmp	r3, #0
 8002eae:	d100      	bne.n	8002eb2 <UART_SetConfig+0x1a2>
 8002eb0:	e07a      	b.n	8002fa8 <UART_SetConfig+0x298>
 8002eb2:	69bb      	ldr	r3, [r7, #24]
 8002eb4:	005a      	lsls	r2, r3, #1
 8002eb6:	687b      	ldr	r3, [r7, #4]
 8002eb8:	685b      	ldr	r3, [r3, #4]
 8002eba:	085b      	lsrs	r3, r3, #1
 8002ebc:	18d2      	adds	r2, r2, r3
 8002ebe:	687b      	ldr	r3, [r7, #4]
 8002ec0:	685b      	ldr	r3, [r3, #4]
 8002ec2:	0019      	movs	r1, r3
 8002ec4:	0010      	movs	r0, r2
 8002ec6:	f7fd f91d 	bl	8000104 <__udivsi3>
 8002eca:	0003      	movs	r3, r0
 8002ecc:	613b      	str	r3, [r7, #16]
 8002ece:	693b      	ldr	r3, [r7, #16]
 8002ed0:	2b0f      	cmp	r3, #15
 8002ed2:	d91c      	bls.n	8002f0e <UART_SetConfig+0x1fe>
 8002ed4:	693a      	ldr	r2, [r7, #16]
 8002ed6:	2380      	movs	r3, #128	; 0x80
 8002ed8:	025b      	lsls	r3, r3, #9
 8002eda:	429a      	cmp	r2, r3
 8002edc:	d217      	bcs.n	8002f0e <UART_SetConfig+0x1fe>
 8002ede:	693b      	ldr	r3, [r7, #16]
 8002ee0:	b29a      	uxth	r2, r3
 8002ee2:	200e      	movs	r0, #14
 8002ee4:	183b      	adds	r3, r7, r0
 8002ee6:	210f      	movs	r1, #15
 8002ee8:	438a      	bics	r2, r1
 8002eea:	801a      	strh	r2, [r3, #0]
 8002eec:	693b      	ldr	r3, [r7, #16]
 8002eee:	085b      	lsrs	r3, r3, #1
 8002ef0:	b29b      	uxth	r3, r3
 8002ef2:	2207      	movs	r2, #7
 8002ef4:	4013      	ands	r3, r2
 8002ef6:	b299      	uxth	r1, r3
 8002ef8:	183b      	adds	r3, r7, r0
 8002efa:	183a      	adds	r2, r7, r0
 8002efc:	8812      	ldrh	r2, [r2, #0]
 8002efe:	430a      	orrs	r2, r1
 8002f00:	801a      	strh	r2, [r3, #0]
 8002f02:	687b      	ldr	r3, [r7, #4]
 8002f04:	681b      	ldr	r3, [r3, #0]
 8002f06:	183a      	adds	r2, r7, r0
 8002f08:	8812      	ldrh	r2, [r2, #0]
 8002f0a:	60da      	str	r2, [r3, #12]
 8002f0c:	e04c      	b.n	8002fa8 <UART_SetConfig+0x298>
 8002f0e:	231e      	movs	r3, #30
 8002f10:	18fb      	adds	r3, r7, r3
 8002f12:	2201      	movs	r2, #1
 8002f14:	701a      	strb	r2, [r3, #0]
 8002f16:	e047      	b.n	8002fa8 <UART_SetConfig+0x298>
 8002f18:	231f      	movs	r3, #31
 8002f1a:	18fb      	adds	r3, r7, r3
 8002f1c:	781b      	ldrb	r3, [r3, #0]
 8002f1e:	2b08      	cmp	r3, #8
 8002f20:	d015      	beq.n	8002f4e <UART_SetConfig+0x23e>
 8002f22:	dc18      	bgt.n	8002f56 <UART_SetConfig+0x246>
 8002f24:	2b04      	cmp	r3, #4
 8002f26:	d00d      	beq.n	8002f44 <UART_SetConfig+0x234>
 8002f28:	dc15      	bgt.n	8002f56 <UART_SetConfig+0x246>
 8002f2a:	2b00      	cmp	r3, #0
 8002f2c:	d002      	beq.n	8002f34 <UART_SetConfig+0x224>
 8002f2e:	2b02      	cmp	r3, #2
 8002f30:	d005      	beq.n	8002f3e <UART_SetConfig+0x22e>
 8002f32:	e010      	b.n	8002f56 <UART_SetConfig+0x246>
 8002f34:	f7ff f844 	bl	8001fc0 <HAL_RCC_GetPCLK1Freq>
 8002f38:	0003      	movs	r3, r0
 8002f3a:	61bb      	str	r3, [r7, #24]
 8002f3c:	e012      	b.n	8002f64 <UART_SetConfig+0x254>
 8002f3e:	4b2b      	ldr	r3, [pc, #172]	; (8002fec <UART_SetConfig+0x2dc>)
 8002f40:	61bb      	str	r3, [r7, #24]
 8002f42:	e00f      	b.n	8002f64 <UART_SetConfig+0x254>
 8002f44:	f7fe ffda 	bl	8001efc <HAL_RCC_GetSysClockFreq>
 8002f48:	0003      	movs	r3, r0
 8002f4a:	61bb      	str	r3, [r7, #24]
 8002f4c:	e00a      	b.n	8002f64 <UART_SetConfig+0x254>
 8002f4e:	2380      	movs	r3, #128	; 0x80
 8002f50:	021b      	lsls	r3, r3, #8
 8002f52:	61bb      	str	r3, [r7, #24]
 8002f54:	e006      	b.n	8002f64 <UART_SetConfig+0x254>
 8002f56:	2300      	movs	r3, #0
 8002f58:	61bb      	str	r3, [r7, #24]
 8002f5a:	231e      	movs	r3, #30
 8002f5c:	18fb      	adds	r3, r7, r3
 8002f5e:	2201      	movs	r2, #1
 8002f60:	701a      	strb	r2, [r3, #0]
 8002f62:	46c0      	nop			; (mov r8, r8)
 8002f64:	69bb      	ldr	r3, [r7, #24]
 8002f66:	2b00      	cmp	r3, #0
 8002f68:	d01e      	beq.n	8002fa8 <UART_SetConfig+0x298>
 8002f6a:	687b      	ldr	r3, [r7, #4]
 8002f6c:	685b      	ldr	r3, [r3, #4]
 8002f6e:	085a      	lsrs	r2, r3, #1
 8002f70:	69bb      	ldr	r3, [r7, #24]
 8002f72:	18d2      	adds	r2, r2, r3
 8002f74:	687b      	ldr	r3, [r7, #4]
 8002f76:	685b      	ldr	r3, [r3, #4]
 8002f78:	0019      	movs	r1, r3
 8002f7a:	0010      	movs	r0, r2
 8002f7c:	f7fd f8c2 	bl	8000104 <__udivsi3>
 8002f80:	0003      	movs	r3, r0
 8002f82:	613b      	str	r3, [r7, #16]
 8002f84:	693b      	ldr	r3, [r7, #16]
 8002f86:	2b0f      	cmp	r3, #15
 8002f88:	d90a      	bls.n	8002fa0 <UART_SetConfig+0x290>
 8002f8a:	693a      	ldr	r2, [r7, #16]
 8002f8c:	2380      	movs	r3, #128	; 0x80
 8002f8e:	025b      	lsls	r3, r3, #9
 8002f90:	429a      	cmp	r2, r3
 8002f92:	d205      	bcs.n	8002fa0 <UART_SetConfig+0x290>
 8002f94:	693b      	ldr	r3, [r7, #16]
 8002f96:	b29a      	uxth	r2, r3
 8002f98:	687b      	ldr	r3, [r7, #4]
 8002f9a:	681b      	ldr	r3, [r3, #0]
 8002f9c:	60da      	str	r2, [r3, #12]
 8002f9e:	e003      	b.n	8002fa8 <UART_SetConfig+0x298>
 8002fa0:	231e      	movs	r3, #30
 8002fa2:	18fb      	adds	r3, r7, r3
 8002fa4:	2201      	movs	r2, #1
 8002fa6:	701a      	strb	r2, [r3, #0]
 8002fa8:	687b      	ldr	r3, [r7, #4]
 8002faa:	2200      	movs	r2, #0
 8002fac:	669a      	str	r2, [r3, #104]	; 0x68
 8002fae:	687b      	ldr	r3, [r7, #4]
 8002fb0:	2200      	movs	r2, #0
 8002fb2:	66da      	str	r2, [r3, #108]	; 0x6c
 8002fb4:	231e      	movs	r3, #30
 8002fb6:	18fb      	adds	r3, r7, r3
 8002fb8:	781b      	ldrb	r3, [r3, #0]
 8002fba:	0018      	movs	r0, r3
 8002fbc:	46bd      	mov	sp, r7
 8002fbe:	b008      	add	sp, #32
 8002fc0:	bd80      	pop	{r7, pc}
 8002fc2:	46c0      	nop			; (mov r8, r8)
 8002fc4:	efff69f3 	.word	0xefff69f3
 8002fc8:	ffffcfff 	.word	0xffffcfff
 8002fcc:	fffff4ff 	.word	0xfffff4ff
 8002fd0:	40013800 	.word	0x40013800
 8002fd4:	40021000 	.word	0x40021000
 8002fd8:	40004400 	.word	0x40004400
 8002fdc:	40004800 	.word	0x40004800
 8002fe0:	40004c00 	.word	0x40004c00
 8002fe4:	40005000 	.word	0x40005000
 8002fe8:	40011400 	.word	0x40011400
 8002fec:	007a1200 	.word	0x007a1200

08002ff0 <UART_AdvFeatureConfig>:
 8002ff0:	b580      	push	{r7, lr}
 8002ff2:	b082      	sub	sp, #8
 8002ff4:	af00      	add	r7, sp, #0
 8002ff6:	6078      	str	r0, [r7, #4]
 8002ff8:	687b      	ldr	r3, [r7, #4]
 8002ffa:	6a5b      	ldr	r3, [r3, #36]	; 0x24
 8002ffc:	2201      	movs	r2, #1
 8002ffe:	4013      	ands	r3, r2
 8003000:	d00b      	beq.n	800301a <UART_AdvFeatureConfig+0x2a>
 8003002:	687b      	ldr	r3, [r7, #4]
 8003004:	681b      	ldr	r3, [r3, #0]
 8003006:	685b      	ldr	r3, [r3, #4]
 8003008:	4a4a      	ldr	r2, [pc, #296]	; (8003134 <UART_AdvFeatureConfig+0x144>)
 800300a:	4013      	ands	r3, r2
 800300c:	0019      	movs	r1, r3
 800300e:	687b      	ldr	r3, [r7, #4]
 8003010:	6a9a      	ldr	r2, [r3, #40]	; 0x28
 8003012:	687b      	ldr	r3, [r7, #4]
 8003014:	681b      	ldr	r3, [r3, #0]
 8003016:	430a      	orrs	r2, r1
 8003018:	605a      	str	r2, [r3, #4]
 800301a:	687b      	ldr	r3, [r7, #4]
 800301c:	6a5b      	ldr	r3, [r3, #36]	; 0x24
 800301e:	2202      	movs	r2, #2
 8003020:	4013      	ands	r3, r2
 8003022:	d00b      	beq.n	800303c <UART_AdvFeatureConfig+0x4c>
 8003024:	687b      	ldr	r3, [r7, #4]
 8003026:	681b      	ldr	r3, [r3, #0]
 8003028:	685b      	ldr	r3, [r3, #4]
 800302a:	4a43      	ldr	r2, [pc, #268]	; (8003138 <UART_AdvFeatureConfig+0x148>)
 800302c:	4013      	ands	r3, r2
 800302e:	0019      	movs	r1, r3
 8003030:	687b      	ldr	r3, [r7, #4]
 8003032:	6ada      	ldr	r2, [r3, #44]	; 0x2c
 8003034:	687b      	ldr	r3, [r7, #4]
 8003036:	681b      	ldr	r3, [r3, #0]
 8003038:	430a      	orrs	r2, r1
 800303a:	605a      	str	r2, [r3, #4]
 800303c:	687b      	ldr	r3, [r7, #4]
 800303e:	6a5b      	ldr	r3, [r3, #36]	; 0x24
 8003040:	2204      	movs	r2, #4
 8003042:	4013      	ands	r3, r2
 8003044:	d00b      	beq.n	800305e <UART_AdvFeatureConfig+0x6e>
 8003046:	687b      	ldr	r3, [r7, #4]
 8003048:	681b      	ldr	r3, [r3, #0]
 800304a:	685b      	ldr	r3, [r3, #4]
 800304c:	4a3b      	ldr	r2, [pc, #236]	; (800313c <UART_AdvFeatureConfig+0x14c>)
 800304e:	4013      	ands	r3, r2
 8003050:	0019      	movs	r1, r3
 8003052:	687b      	ldr	r3, [r7, #4]
 8003054:	6b1a      	ldr	r2, [r3, #48]	; 0x30
 8003056:	687b      	ldr	r3, [r7, #4]
 8003058:	681b      	ldr	r3, [r3, #0]
 800305a:	430a      	orrs	r2, r1
 800305c:	605a      	str	r2, [r3, #4]
 800305e:	687b      	ldr	r3, [r7, #4]
 8003060:	6a5b      	ldr	r3, [r3, #36]	; 0x24
 8003062:	2208      	movs	r2, #8
 8003064:	4013      	ands	r3, r2
 8003066:	d00b      	beq.n	8003080 <UART_AdvFeatureConfig+0x90>
 8003068:	687b      	ldr	r3, [r7, #4]
 800306a:	681b      	ldr	r3, [r3, #0]
 800306c:	685b      	ldr	r3, [r3, #4]
 800306e:	4a34      	ldr	r2, [pc, #208]	; (8003140 <UART_AdvFeatureConfig+0x150>)
 8003070:	4013      	ands	r3, r2
 8003072:	0019      	movs	r1, r3
 8003074:	687b      	ldr	r3, [r7, #4]
 8003076:	6b5a      	ldr	r2, [r3, #52]	; 0x34
 8003078:	687b      	ldr	r3, [r7, #4]
 800307a:	681b      	ldr	r3, [r3, #0]
 800307c:	430a      	orrs	r2, r1
 800307e:	605a      	str	r2, [r3, #4]
 8003080:	687b      	ldr	r3, [r7, #4]
 8003082:	6a5b      	ldr	r3, [r3, #36]	; 0x24
 8003084:	2210      	movs	r2, #16
 8003086:	4013      	ands	r3, r2
 8003088:	d00b      	beq.n	80030a2 <UART_AdvFeatureConfig+0xb2>
 800308a:	687b      	ldr	r3, [r7, #4]
 800308c:	681b      	ldr	r3, [r3, #0]
 800308e:	689b      	ldr	r3, [r3, #8]
 8003090:	4a2c      	ldr	r2, [pc, #176]	; (8003144 <UART_AdvFeatureConfig+0x154>)
 8003092:	4013      	ands	r3, r2
 8003094:	0019      	movs	r1, r3
 8003096:	687b      	ldr	r3, [r7, #4]
 8003098:	6b9a      	ldr	r2, [r3, #56]	; 0x38
 800309a:	687b      	ldr	r3, [r7, #4]
 800309c:	681b      	ldr	r3, [r3, #0]
 800309e:	430a      	orrs	r2, r1
 80030a0:	609a      	str	r2, [r3, #8]
 80030a2:	687b      	ldr	r3, [r7, #4]
 80030a4:	6a5b      	ldr	r3, [r3, #36]	; 0x24
 80030a6:	2220      	movs	r2, #32
 80030a8:	4013      	ands	r3, r2
 80030aa:	d00b      	beq.n	80030c4 <UART_AdvFeatureConfig+0xd4>
 80030ac:	687b      	ldr	r3, [r7, #4]
 80030ae:	681b      	ldr	r3, [r3, #0]
 80030b0:	689b      	ldr	r3, [r3, #8]
 80030b2:	4a25      	ldr	r2, [pc, #148]	; (8003148 <UART_AdvFeatureConfig+0x158>)
 80030b4:	4013      	ands	r3, r2
 80030b6:	0019      	movs	r1, r3
 80030b8:	687b      	ldr	r3, [r7, #4]
 80030ba:	6bda      	ldr	r2, [r3, #60]	; 0x3c
 80030bc:	687b      	ldr	r3, [r7, #4]
 80030be:	681b      	ldr	r3, [r3, #0]
 80030c0:	430a      	orrs	r2, r1
 80030c2:	609a      	str	r2, [r3, #8]
 80030c4:	687b      	ldr	r3, [r7, #4]
 80030c6:	6a5b      	ldr	r3, [r3, #36]	; 0x24
 80030c8:	2240      	movs	r2, #64	; 0x40
 80030ca:	4013      	ands	r3, r2
 80030cc:	d01d      	beq.n	800310a <UART_AdvFeatureConfig+0x11a>
 80030ce:	687b      	ldr	r3, [r7, #4]
 80030d0:	681b      	ldr	r3, [r3, #0]
 80030d2:	685b      	ldr	r3, [r3, #4]
 80030d4:	4a1d      	ldr	r2, [pc, #116]	; (800314c <UART_AdvFeatureConfig+0x15c>)
 80030d6:	4013      	ands	r3, r2
 80030d8:	0019      	movs	r1, r3
 80030da:	687b      	ldr	r3, [r7, #4]
 80030dc:	6c1a      	ldr	r2, [r3, #64]	; 0x40
 80030de:	687b      	ldr	r3, [r7, #4]
 80030e0:	681b      	ldr	r3, [r3, #0]
 80030e2:	430a      	orrs	r2, r1
 80030e4:	605a      	str	r2, [r3, #4]
 80030e6:	687b      	ldr	r3, [r7, #4]
 80030e8:	6c1a      	ldr	r2, [r3, #64]	; 0x40
 80030ea:	2380      	movs	r3, #128	; 0x80
 80030ec:	035b      	lsls	r3, r3, #13
 80030ee:	429a      	cmp	r2, r3
 80030f0:	d10b      	bne.n	800310a <UART_AdvFeatureConfig+0x11a>
 80030f2:	687b      	ldr	r3, [r7, #4]
 80030f4:	681b      	ldr	r3, [r3, #0]
 80030f6:	685b      	ldr	r3, [r3, #4]
 80030f8:	4a15      	ldr	r2, [pc, #84]	; (8003150 <UART_AdvFeatureConfig+0x160>)
 80030fa:	4013      	ands	r3, r2
 80030fc:	0019      	movs	r1, r3
 80030fe:	687b      	ldr	r3, [r7, #4]
 8003100:	6c5a      	ldr	r2, [r3, #68]	; 0x44
 8003102:	687b      	ldr	r3, [r7, #4]
 8003104:	681b      	ldr	r3, [r3, #0]
 8003106:	430a      	orrs	r2, r1
 8003108:	605a      	str	r2, [r3, #4]
 800310a:	687b      	ldr	r3, [r7, #4]
 800310c:	6a5b      	ldr	r3, [r3, #36]	; 0x24
 800310e:	2280      	movs	r2, #128	; 0x80
 8003110:	4013      	ands	r3, r2
 8003112:	d00b      	beq.n	800312c <UART_AdvFeatureConfig+0x13c>
 8003114:	687b      	ldr	r3, [r7, #4]
 8003116:	681b      	ldr	r3, [r3, #0]
 8003118:	685b      	ldr	r3, [r3, #4]
 800311a:	4a0e      	ldr	r2, [pc, #56]	; (8003154 <UART_AdvFeatureConfig+0x164>)
 800311c:	4013      	ands	r3, r2
 800311e:	0019      	movs	r1, r3
 8003120:	687b      	ldr	r3, [r7, #4]
 8003122:	6c9a      	ldr	r2, [r3, #72]	; 0x48
 8003124:	687b      	ldr	r3, [r7, #4]
 8003126:	681b      	ldr	r3, [r3, #0]
 8003128:	430a      	orrs	r2, r1
 800312a:	605a      	str	r2, [r3, #4]
 800312c:	46c0      	nop			; (mov r8, r8)
 800312e:	46bd      	mov	sp, r7
 8003130:	b002      	add	sp, #8
 8003132:	bd80      	pop	{r7, pc}
 8003134:	fffdffff 	.word	0xfffdffff
 8003138:	fffeffff 	.word	0xfffeffff
 800313c:	fffbffff 	.word	0xfffbffff
 8003140:	ffff7fff 	.word	0xffff7fff
 8003144:	ffffefff 	.word	0xffffefff
 8003148:	ffffdfff 	.word	0xffffdfff
 800314c:	ffefffff 	.word	0xffefffff
 8003150:	ff9fffff 	.word	0xff9fffff
 8003154:	fff7ffff 	.word	0xfff7ffff

08003158 <UART_CheckIdleState>:
 8003158:	b580      	push	{r7, lr}
 800315a:	b092      	sub	sp, #72	; 0x48
 800315c:	af02      	add	r7, sp, #8
 800315e:	6078      	str	r0, [r7, #4]
 8003160:	687b      	ldr	r3, [r7, #4]
 8003162:	2284      	movs	r2, #132	; 0x84
 8003164:	2100      	movs	r1, #0
 8003166:	5099      	str	r1, [r3, r2]
 8003168:	f7fe f86c 	bl	8001244 <HAL_GetTick>
 800316c:	0003      	movs	r3, r0
 800316e:	63fb      	str	r3, [r7, #60]	; 0x3c
 8003170:	687b      	ldr	r3, [r7, #4]
 8003172:	681b      	ldr	r3, [r3, #0]
 8003174:	681b      	ldr	r3, [r3, #0]
 8003176:	2208      	movs	r2, #8
 8003178:	4013      	ands	r3, r2
 800317a:	2b08      	cmp	r3, #8
 800317c:	d12c      	bne.n	80031d8 <UART_CheckIdleState+0x80>
 800317e:	6bfb      	ldr	r3, [r7, #60]	; 0x3c
 8003180:	2280      	movs	r2, #128	; 0x80
 8003182:	0391      	lsls	r1, r2, #14
 8003184:	6878      	ldr	r0, [r7, #4]
 8003186:	4a46      	ldr	r2, [pc, #280]	; (80032a0 <UART_CheckIdleState+0x148>)
 8003188:	9200      	str	r2, [sp, #0]
 800318a:	2200      	movs	r2, #0
 800318c:	f000 f88c 	bl	80032a8 <UART_WaitOnFlagUntilTimeout>
 8003190:	1e03      	subs	r3, r0, #0
 8003192:	d021      	beq.n	80031d8 <UART_CheckIdleState+0x80>
 8003194:	f3ef 8310 	mrs	r3, PRIMASK
 8003198:	627b      	str	r3, [r7, #36]	; 0x24
 800319a:	6a7b      	ldr	r3, [r7, #36]	; 0x24
 800319c:	63bb      	str	r3, [r7, #56]	; 0x38
 800319e:	2301      	movs	r3, #1
 80031a0:	62bb      	str	r3, [r7, #40]	; 0x28
 80031a2:	6abb      	ldr	r3, [r7, #40]	; 0x28
 80031a4:	f383 8810 	msr	PRIMASK, r3
 80031a8:	46c0      	nop			; (mov r8, r8)
 80031aa:	687b      	ldr	r3, [r7, #4]
 80031ac:	681b      	ldr	r3, [r3, #0]
 80031ae:	681a      	ldr	r2, [r3, #0]
 80031b0:	687b      	ldr	r3, [r7, #4]
 80031b2:	681b      	ldr	r3, [r3, #0]
 80031b4:	2180      	movs	r1, #128	; 0x80
 80031b6:	438a      	bics	r2, r1
 80031b8:	601a      	str	r2, [r3, #0]
 80031ba:	6bbb      	ldr	r3, [r7, #56]	; 0x38
 80031bc:	62fb      	str	r3, [r7, #44]	; 0x2c
 80031be:	6afb      	ldr	r3, [r7, #44]	; 0x2c
 80031c0:	f383 8810 	msr	PRIMASK, r3
 80031c4:	46c0      	nop			; (mov r8, r8)
 80031c6:	687b      	ldr	r3, [r7, #4]
 80031c8:	2220      	movs	r2, #32
 80031ca:	67da      	str	r2, [r3, #124]	; 0x7c
 80031cc:	687b      	ldr	r3, [r7, #4]
 80031ce:	2278      	movs	r2, #120	; 0x78
 80031d0:	2100      	movs	r1, #0
 80031d2:	5499      	strb	r1, [r3, r2]
 80031d4:	2303      	movs	r3, #3
 80031d6:	e05f      	b.n	8003298 <UART_CheckIdleState+0x140>
 80031d8:	687b      	ldr	r3, [r7, #4]
 80031da:	681b      	ldr	r3, [r3, #0]
 80031dc:	681b      	ldr	r3, [r3, #0]
 80031de:	2204      	movs	r2, #4
 80031e0:	4013      	ands	r3, r2
 80031e2:	2b04      	cmp	r3, #4
 80031e4:	d146      	bne.n	8003274 <UART_CheckIdleState+0x11c>
 80031e6:	6bfb      	ldr	r3, [r7, #60]	; 0x3c
 80031e8:	2280      	movs	r2, #128	; 0x80
 80031ea:	03d1      	lsls	r1, r2, #15
 80031ec:	6878      	ldr	r0, [r7, #4]
 80031ee:	4a2c      	ldr	r2, [pc, #176]	; (80032a0 <UART_CheckIdleState+0x148>)
 80031f0:	9200      	str	r2, [sp, #0]
 80031f2:	2200      	movs	r2, #0
 80031f4:	f000 f858 	bl	80032a8 <UART_WaitOnFlagUntilTimeout>
 80031f8:	1e03      	subs	r3, r0, #0
 80031fa:	d03b      	beq.n	8003274 <UART_CheckIdleState+0x11c>
 80031fc:	f3ef 8310 	mrs	r3, PRIMASK
 8003200:	60fb      	str	r3, [r7, #12]
 8003202:	68fb      	ldr	r3, [r7, #12]
 8003204:	637b      	str	r3, [r7, #52]	; 0x34
 8003206:	2301      	movs	r3, #1
 8003208:	613b      	str	r3, [r7, #16]
 800320a:	693b      	ldr	r3, [r7, #16]
 800320c:	f383 8810 	msr	PRIMASK, r3
 8003210:	46c0      	nop			; (mov r8, r8)
 8003212:	687b      	ldr	r3, [r7, #4]
 8003214:	681b      	ldr	r3, [r3, #0]
 8003216:	681a      	ldr	r2, [r3, #0]
 8003218:	687b      	ldr	r3, [r7, #4]
 800321a:	681b      	ldr	r3, [r3, #0]
 800321c:	4921      	ldr	r1, [pc, #132]	; (80032a4 <UART_CheckIdleState+0x14c>)
 800321e:	400a      	ands	r2, r1
 8003220:	601a      	str	r2, [r3, #0]
 8003222:	6b7b      	ldr	r3, [r7, #52]	; 0x34
 8003224:	617b      	str	r3, [r7, #20]
 8003226:	697b      	ldr	r3, [r7, #20]
 8003228:	f383 8810 	msr	PRIMASK, r3
 800322c:	46c0      	nop			; (mov r8, r8)
 800322e:	f3ef 8310 	mrs	r3, PRIMASK
 8003232:	61bb      	str	r3, [r7, #24]
 8003234:	69bb      	ldr	r3, [r7, #24]
 8003236:	633b      	str	r3, [r7, #48]	; 0x30
 8003238:	2301      	movs	r3, #1
 800323a:	61fb      	str	r3, [r7, #28]
 800323c:	69fb      	ldr	r3, [r7, #28]
 800323e:	f383 8810 	msr	PRIMASK, r3
 8003242:	46c0      	nop			; (mov r8, r8)
 8003244:	687b      	ldr	r3, [r7, #4]
 8003246:	681b      	ldr	r3, [r3, #0]
 8003248:	689a      	ldr	r2, [r3, #8]
 800324a:	687b      	ldr	r3, [r7, #4]
 800324c:	681b      	ldr	r3, [r3, #0]
 800324e:	2101      	movs	r1, #1
 8003250:	438a      	bics	r2, r1
 8003252:	609a      	str	r2, [r3, #8]
 8003254:	6b3b      	ldr	r3, [r7, #48]	; 0x30
 8003256:	623b      	str	r3, [r7, #32]
 8003258:	6a3b      	ldr	r3, [r7, #32]
 800325a:	f383 8810 	msr	PRIMASK, r3
 800325e:	46c0      	nop			; (mov r8, r8)
 8003260:	687b      	ldr	r3, [r7, #4]
 8003262:	2280      	movs	r2, #128	; 0x80
 8003264:	2120      	movs	r1, #32
 8003266:	5099      	str	r1, [r3, r2]
 8003268:	687b      	ldr	r3, [r7, #4]
 800326a:	2278      	movs	r2, #120	; 0x78
 800326c:	2100      	movs	r1, #0
 800326e:	5499      	strb	r1, [r3, r2]
 8003270:	2303      	movs	r3, #3
 8003272:	e011      	b.n	8003298 <UART_CheckIdleState+0x140>
 8003274:	687b      	ldr	r3, [r7, #4]
 8003276:	2220      	movs	r2, #32
 8003278:	67da      	str	r2, [r3, #124]	; 0x7c
 800327a:	687b      	ldr	r3, [r7, #4]
 800327c:	2280      	movs	r2, #128	; 0x80
 800327e:	2120      	movs	r1, #32
 8003280:	5099      	str	r1, [r3, r2]
 8003282:	687b      	ldr	r3, [r7, #4]
 8003284:	2200      	movs	r2, #0
 8003286:	661a      	str	r2, [r3, #96]	; 0x60
 8003288:	687b      	ldr	r3, [r7, #4]
 800328a:	2200      	movs	r2, #0
 800328c:	665a      	str	r2, [r3, #100]	; 0x64
 800328e:	687b      	ldr	r3, [r7, #4]
 8003290:	2278      	movs	r2, #120	; 0x78
 8003292:	2100      	movs	r1, #0
 8003294:	5499      	strb	r1, [r3, r2]
 8003296:	2300      	movs	r3, #0
 8003298:	0018      	movs	r0, r3
 800329a:	46bd      	mov	sp, r7
 800329c:	b010      	add	sp, #64	; 0x40
 800329e:	bd80      	pop	{r7, pc}
 80032a0:	01ffffff 	.word	0x01ffffff
 80032a4:	fffffedf 	.word	0xfffffedf

080032a8 <UART_WaitOnFlagUntilTimeout>:
 80032a8:	b580      	push	{r7, lr}
 80032aa:	b084      	sub	sp, #16
 80032ac:	af00      	add	r7, sp, #0
 80032ae:	60f8      	str	r0, [r7, #12]
 80032b0:	60b9      	str	r1, [r7, #8]
 80032b2:	603b      	str	r3, [r7, #0]
 80032b4:	1dfb      	adds	r3, r7, #7
 80032b6:	701a      	strb	r2, [r3, #0]
 80032b8:	e04b      	b.n	8003352 <UART_WaitOnFlagUntilTimeout+0xaa>
 80032ba:	69bb      	ldr	r3, [r7, #24]
 80032bc:	3301      	adds	r3, #1
 80032be:	d048      	beq.n	8003352 <UART_WaitOnFlagUntilTimeout+0xaa>
 80032c0:	f7fd ffc0 	bl	8001244 <HAL_GetTick>
 80032c4:	0002      	movs	r2, r0
 80032c6:	683b      	ldr	r3, [r7, #0]
 80032c8:	1ad3      	subs	r3, r2, r3
 80032ca:	69ba      	ldr	r2, [r7, #24]
 80032cc:	429a      	cmp	r2, r3
 80032ce:	d302      	bcc.n	80032d6 <UART_WaitOnFlagUntilTimeout+0x2e>
 80032d0:	69bb      	ldr	r3, [r7, #24]
 80032d2:	2b00      	cmp	r3, #0
 80032d4:	d101      	bne.n	80032da <UART_WaitOnFlagUntilTimeout+0x32>
 80032d6:	2303      	movs	r3, #3
 80032d8:	e04b      	b.n	8003372 <UART_WaitOnFlagUntilTimeout+0xca>
 80032da:	68fb      	ldr	r3, [r7, #12]
 80032dc:	681b      	ldr	r3, [r3, #0]
 80032de:	681b      	ldr	r3, [r3, #0]
 80032e0:	2204      	movs	r2, #4
 80032e2:	4013      	ands	r3, r2
 80032e4:	d035      	beq.n	8003352 <UART_WaitOnFlagUntilTimeout+0xaa>
 80032e6:	68fb      	ldr	r3, [r7, #12]
 80032e8:	681b      	ldr	r3, [r3, #0]
 80032ea:	69db      	ldr	r3, [r3, #28]
 80032ec:	2208      	movs	r2, #8
 80032ee:	4013      	ands	r3, r2
 80032f0:	2b08      	cmp	r3, #8
 80032f2:	d111      	bne.n	8003318 <UART_WaitOnFlagUntilTimeout+0x70>
 80032f4:	68fb      	ldr	r3, [r7, #12]
 80032f6:	681b      	ldr	r3, [r3, #0]
 80032f8:	2208      	movs	r2, #8
 80032fa:	621a      	str	r2, [r3, #32]
 80032fc:	68fb      	ldr	r3, [r7, #12]
 80032fe:	0018      	movs	r0, r3
 8003300:	f000 f83c 	bl	800337c <UART_EndRxTransfer>
 8003304:	68fb      	ldr	r3, [r7, #12]
 8003306:	2284      	movs	r2, #132	; 0x84
 8003308:	2108      	movs	r1, #8
 800330a:	5099      	str	r1, [r3, r2]
 800330c:	68fb      	ldr	r3, [r7, #12]
 800330e:	2278      	movs	r2, #120	; 0x78
 8003310:	2100      	movs	r1, #0
 8003312:	5499      	strb	r1, [r3, r2]
 8003314:	2301      	movs	r3, #1
 8003316:	e02c      	b.n	8003372 <UART_WaitOnFlagUntilTimeout+0xca>
 8003318:	68fb      	ldr	r3, [r7, #12]
 800331a:	681b      	ldr	r3, [r3, #0]
 800331c:	69da      	ldr	r2, [r3, #28]
 800331e:	2380      	movs	r3, #128	; 0x80
 8003320:	011b      	lsls	r3, r3, #4
 8003322:	401a      	ands	r2, r3
 8003324:	2380      	movs	r3, #128	; 0x80
 8003326:	011b      	lsls	r3, r3, #4
 8003328:	429a      	cmp	r2, r3
 800332a:	d112      	bne.n	8003352 <UART_WaitOnFlagUntilTimeout+0xaa>
 800332c:	68fb      	ldr	r3, [r7, #12]
 800332e:	681b      	ldr	r3, [r3, #0]
 8003330:	2280      	movs	r2, #128	; 0x80
 8003332:	0112      	lsls	r2, r2, #4
 8003334:	621a      	str	r2, [r3, #32]
 8003336:	68fb      	ldr	r3, [r7, #12]
 8003338:	0018      	movs	r0, r3
 800333a:	f000 f81f 	bl	800337c <UART_EndRxTransfer>
 800333e:	68fb      	ldr	r3, [r7, #12]
 8003340:	2284      	movs	r2, #132	; 0x84
 8003342:	2120      	movs	r1, #32
 8003344:	5099      	str	r1, [r3, r2]
 8003346:	68fb      	ldr	r3, [r7, #12]
 8003348:	2278      	movs	r2, #120	; 0x78
 800334a:	2100      	movs	r1, #0
 800334c:	5499      	strb	r1, [r3, r2]
 800334e:	2303      	movs	r3, #3
 8003350:	e00f      	b.n	8003372 <UART_WaitOnFlagUntilTimeout+0xca>
 8003352:	68fb      	ldr	r3, [r7, #12]
 8003354:	681b      	ldr	r3, [r3, #0]
 8003356:	69db      	ldr	r3, [r3, #28]
 8003358:	68ba      	ldr	r2, [r7, #8]
 800335a:	4013      	ands	r3, r2
 800335c:	68ba      	ldr	r2, [r7, #8]
 800335e:	1ad3      	subs	r3, r2, r3
 8003360:	425a      	negs	r2, r3
 8003362:	4153      	adcs	r3, r2
 8003364:	b2db      	uxtb	r3, r3
 8003366:	001a      	movs	r2, r3
 8003368:	1dfb      	adds	r3, r7, #7
 800336a:	781b      	ldrb	r3, [r3, #0]
 800336c:	429a      	cmp	r2, r3
 800336e:	d0a4      	beq.n	80032ba <UART_WaitOnFlagUntilTimeout+0x12>
 8003370:	2300      	movs	r3, #0
 8003372:	0018      	movs	r0, r3
 8003374:	46bd      	mov	sp, r7
 8003376:	b004      	add	sp, #16
 8003378:	bd80      	pop	{r7, pc}
	...

0800337c <UART_EndRxTransfer>:
 800337c:	b580      	push	{r7, lr}
 800337e:	b08e      	sub	sp, #56	; 0x38
 8003380:	af00      	add	r7, sp, #0
 8003382:	6078      	str	r0, [r7, #4]
 8003384:	f3ef 8310 	mrs	r3, PRIMASK
 8003388:	617b      	str	r3, [r7, #20]
 800338a:	697b      	ldr	r3, [r7, #20]
 800338c:	637b      	str	r3, [r7, #52]	; 0x34
 800338e:	2301      	movs	r3, #1
 8003390:	61bb      	str	r3, [r7, #24]
 8003392:	69bb      	ldr	r3, [r7, #24]
 8003394:	f383 8810 	msr	PRIMASK, r3
 8003398:	46c0      	nop			; (mov r8, r8)
 800339a:	687b      	ldr	r3, [r7, #4]
 800339c:	681b      	ldr	r3, [r3, #0]
 800339e:	681a      	ldr	r2, [r3, #0]
 80033a0:	687b      	ldr	r3, [r7, #4]
 80033a2:	681b      	ldr	r3, [r3, #0]
 80033a4:	4926      	ldr	r1, [pc, #152]	; (8003440 <UART_EndRxTransfer+0xc4>)
 80033a6:	400a      	ands	r2, r1
 80033a8:	601a      	str	r2, [r3, #0]
 80033aa:	6b7b      	ldr	r3, [r7, #52]	; 0x34
 80033ac:	61fb      	str	r3, [r7, #28]
 80033ae:	69fb      	ldr	r3, [r7, #28]
 80033b0:	f383 8810 	msr	PRIMASK, r3
 80033b4:	46c0      	nop			; (mov r8, r8)
 80033b6:	f3ef 8310 	mrs	r3, PRIMASK
 80033ba:	623b      	str	r3, [r7, #32]
 80033bc:	6a3b      	ldr	r3, [r7, #32]
 80033be:	633b      	str	r3, [r7, #48]	; 0x30
 80033c0:	2301      	movs	r3, #1
 80033c2:	627b      	str	r3, [r7, #36]	; 0x24
 80033c4:	6a7b      	ldr	r3, [r7, #36]	; 0x24
 80033c6:	f383 8810 	msr	PRIMASK, r3
 80033ca:	46c0      	nop			; (mov r8, r8)
 80033cc:	687b      	ldr	r3, [r7, #4]
 80033ce:	681b      	ldr	r3, [r3, #0]
 80033d0:	689a      	ldr	r2, [r3, #8]
 80033d2:	687b      	ldr	r3, [r7, #4]
 80033d4:	681b      	ldr	r3, [r3, #0]
 80033d6:	2101      	movs	r1, #1
 80033d8:	438a      	bics	r2, r1
 80033da:	609a      	str	r2, [r3, #8]
 80033dc:	6b3b      	ldr	r3, [r7, #48]	; 0x30
 80033de:	62bb      	str	r3, [r7, #40]	; 0x28
 80033e0:	6abb      	ldr	r3, [r7, #40]	; 0x28
 80033e2:	f383 8810 	msr	PRIMASK, r3
 80033e6:	46c0      	nop			; (mov r8, r8)
 80033e8:	687b      	ldr	r3, [r7, #4]
 80033ea:	6e1b      	ldr	r3, [r3, #96]	; 0x60
 80033ec:	2b01      	cmp	r3, #1
 80033ee:	d118      	bne.n	8003422 <UART_EndRxTransfer+0xa6>
 80033f0:	f3ef 8310 	mrs	r3, PRIMASK
 80033f4:	60bb      	str	r3, [r7, #8]
 80033f6:	68bb      	ldr	r3, [r7, #8]
 80033f8:	62fb      	str	r3, [r7, #44]	; 0x2c
 80033fa:	2301      	movs	r3, #1
 80033fc:	60fb      	str	r3, [r7, #12]
 80033fe:	68fb      	ldr	r3, [r7, #12]
 8003400:	f383 8810 	msr	PRIMASK, r3
 8003404:	46c0      	nop			; (mov r8, r8)
 8003406:	687b      	ldr	r3, [r7, #4]
 8003408:	681b      	ldr	r3, [r3, #0]
 800340a:	681a      	ldr	r2, [r3, #0]
 800340c:	687b      	ldr	r3, [r7, #4]
 800340e:	681b      	ldr	r3, [r3, #0]
 8003410:	2110      	movs	r1, #16
 8003412:	438a      	bics	r2, r1
 8003414:	601a      	str	r2, [r3, #0]
 8003416:	6afb      	ldr	r3, [r7, #44]	; 0x2c
 8003418:	613b      	str	r3, [r7, #16]
 800341a:	693b      	ldr	r3, [r7, #16]
 800341c:	f383 8810 	msr	PRIMASK, r3
 8003420:	46c0      	nop			; (mov r8, r8)
 8003422:	687b      	ldr	r3, [r7, #4]
 8003424:	2280      	movs	r2, #128	; 0x80
 8003426:	2120      	movs	r1, #32
 8003428:	5099      	str	r1, [r3, r2]
 800342a:	687b      	ldr	r3, [r7, #4]
 800342c:	2200      	movs	r2, #0
 800342e:	661a      	str	r2, [r3, #96]	; 0x60
 8003430:	687b      	ldr	r3, [r7, #4]
 8003432:	2200      	movs	r2, #0
 8003434:	669a      	str	r2, [r3, #104]	; 0x68
 8003436:	46c0      	nop			; (mov r8, r8)
 8003438:	46bd      	mov	sp, r7
 800343a:	b00e      	add	sp, #56	; 0x38
 800343c:	bd80      	pop	{r7, pc}
 800343e:	46c0      	nop			; (mov r8, r8)
 8003440:	fffffedf 	.word	0xfffffedf

08003444 <MX_FATFS_Init>:
 8003444:	b580      	push	{r7, lr}
 8003446:	af00      	add	r7, sp, #0
 8003448:	4a06      	ldr	r2, [pc, #24]	; (8003464 <MX_FATFS_Init+0x20>)
 800344a:	4b07      	ldr	r3, [pc, #28]	; (8003468 <MX_FATFS_Init+0x24>)
 800344c:	0011      	movs	r1, r2
 800344e:	0018      	movs	r0, r3
 8003450:	f003 fef6 	bl	8007240 <FATFS_LinkDriver>
 8003454:	0003      	movs	r3, r0
 8003456:	001a      	movs	r2, r3
 8003458:	4b04      	ldr	r3, [pc, #16]	; (800346c <MX_FATFS_Init+0x28>)
 800345a:	701a      	strb	r2, [r3, #0]
 800345c:	46c0      	nop			; (mov r8, r8)
 800345e:	46bd      	mov	sp, r7
 8003460:	bd80      	pop	{r7, pc}
 8003462:	46c0      	nop			; (mov r8, r8)
 8003464:	20000604 	.word	0x20000604
 8003468:	2000000c 	.word	0x2000000c
 800346c:	20000600 	.word	0x20000600

08003470 <get_fattime>:
 8003470:	b580      	push	{r7, lr}
 8003472:	af00      	add	r7, sp, #0
 8003474:	2300      	movs	r3, #0
 8003476:	0018      	movs	r0, r3
 8003478:	46bd      	mov	sp, r7
 800347a:	bd80      	pop	{r7, pc}

0800347c <USER_initialize>:
 800347c:	b580      	push	{r7, lr}
 800347e:	b082      	sub	sp, #8
 8003480:	af00      	add	r7, sp, #0
 8003482:	0002      	movs	r2, r0
 8003484:	1dfb      	adds	r3, r7, #7
 8003486:	701a      	strb	r2, [r3, #0]
 8003488:	1dfb      	adds	r3, r7, #7
 800348a:	781b      	ldrb	r3, [r3, #0]
 800348c:	0018      	movs	r0, r3
 800348e:	f000 fa19 	bl	80038c4 <USER_SPI_initialize>
 8003492:	0003      	movs	r3, r0
 8003494:	0018      	movs	r0, r3
 8003496:	46bd      	mov	sp, r7
 8003498:	b002      	add	sp, #8
 800349a:	bd80      	pop	{r7, pc}

0800349c <USER_status>:
 800349c:	b580      	push	{r7, lr}
 800349e:	b082      	sub	sp, #8
 80034a0:	af00      	add	r7, sp, #0
 80034a2:	0002      	movs	r2, r0
 80034a4:	1dfb      	adds	r3, r7, #7
 80034a6:	701a      	strb	r2, [r3, #0]
 80034a8:	1dfb      	adds	r3, r7, #7
 80034aa:	781b      	ldrb	r3, [r3, #0]
 80034ac:	0018      	movs	r0, r3
 80034ae:	f000 fb21 	bl	8003af4 <USER_SPI_status>
 80034b2:	0003      	movs	r3, r0
 80034b4:	0018      	movs	r0, r3
 80034b6:	46bd      	mov	sp, r7
 80034b8:	b002      	add	sp, #8
 80034ba:	bd80      	pop	{r7, pc}

080034bc <USER_read>:
 80034bc:	b5b0      	push	{r4, r5, r7, lr}
 80034be:	b084      	sub	sp, #16
 80034c0:	af00      	add	r7, sp, #0
 80034c2:	60b9      	str	r1, [r7, #8]
 80034c4:	607a      	str	r2, [r7, #4]
 80034c6:	603b      	str	r3, [r7, #0]
 80034c8:	250f      	movs	r5, #15
 80034ca:	197b      	adds	r3, r7, r5
 80034cc:	1c02      	adds	r2, r0, #0
 80034ce:	701a      	strb	r2, [r3, #0]
 80034d0:	683c      	ldr	r4, [r7, #0]
 80034d2:	687a      	ldr	r2, [r7, #4]
 80034d4:	68b9      	ldr	r1, [r7, #8]
 80034d6:	197b      	adds	r3, r7, r5
 80034d8:	7818      	ldrb	r0, [r3, #0]
 80034da:	0023      	movs	r3, r4
 80034dc:	f000 fb20 	bl	8003b20 <USER_SPI_read>
 80034e0:	0003      	movs	r3, r0
 80034e2:	0018      	movs	r0, r3
 80034e4:	46bd      	mov	sp, r7
 80034e6:	b004      	add	sp, #16
 80034e8:	bdb0      	pop	{r4, r5, r7, pc}

080034ea <USER_write>:
 80034ea:	b5b0      	push	{r4, r5, r7, lr}
 80034ec:	b084      	sub	sp, #16
 80034ee:	af00      	add	r7, sp, #0
 80034f0:	60b9      	str	r1, [r7, #8]
 80034f2:	607a      	str	r2, [r7, #4]
 80034f4:	603b      	str	r3, [r7, #0]
 80034f6:	250f      	movs	r5, #15
 80034f8:	197b      	adds	r3, r7, r5
 80034fa:	1c02      	adds	r2, r0, #0
 80034fc:	701a      	strb	r2, [r3, #0]
 80034fe:	683c      	ldr	r4, [r7, #0]
 8003500:	687a      	ldr	r2, [r7, #4]
 8003502:	68b9      	ldr	r1, [r7, #8]
 8003504:	197b      	adds	r3, r7, r5
 8003506:	7818      	ldrb	r0, [r3, #0]
 8003508:	0023      	movs	r3, r4
 800350a:	f000 fb75 	bl	8003bf8 <USER_SPI_write>
 800350e:	0003      	movs	r3, r0
 8003510:	0018      	movs	r0, r3
 8003512:	46bd      	mov	sp, r7
 8003514:	b004      	add	sp, #16
 8003516:	bdb0      	pop	{r4, r5, r7, pc}

08003518 <USER_ioctl>:
 8003518:	b580      	push	{r7, lr}
 800351a:	b082      	sub	sp, #8
 800351c:	af00      	add	r7, sp, #0
 800351e:	603a      	str	r2, [r7, #0]
 8003520:	1dfb      	adds	r3, r7, #7
 8003522:	1c02      	adds	r2, r0, #0
 8003524:	701a      	strb	r2, [r3, #0]
 8003526:	1dbb      	adds	r3, r7, #6
 8003528:	1c0a      	adds	r2, r1, #0
 800352a:	701a      	strb	r2, [r3, #0]
 800352c:	683a      	ldr	r2, [r7, #0]
 800352e:	1dbb      	adds	r3, r7, #6
 8003530:	7819      	ldrb	r1, [r3, #0]
 8003532:	1dfb      	adds	r3, r7, #7
 8003534:	781b      	ldrb	r3, [r3, #0]
 8003536:	0018      	movs	r0, r3
 8003538:	f000 fbde 	bl	8003cf8 <USER_SPI_ioctl>
 800353c:	0003      	movs	r3, r0
 800353e:	0018      	movs	r0, r3
 8003540:	46bd      	mov	sp, r7
 8003542:	b002      	add	sp, #8
 8003544:	bd80      	pop	{r7, pc}
	...

08003548 <SPI_Timer_On>:
 8003548:	b580      	push	{r7, lr}
 800354a:	b082      	sub	sp, #8
 800354c:	af00      	add	r7, sp, #0
 800354e:	6078      	str	r0, [r7, #4]
 8003550:	f7fd fe78 	bl	8001244 <HAL_GetTick>
 8003554:	0002      	movs	r2, r0
 8003556:	4b04      	ldr	r3, [pc, #16]	; (8003568 <SPI_Timer_On+0x20>)
 8003558:	601a      	str	r2, [r3, #0]
 800355a:	4b04      	ldr	r3, [pc, #16]	; (800356c <SPI_Timer_On+0x24>)
 800355c:	687a      	ldr	r2, [r7, #4]
 800355e:	601a      	str	r2, [r3, #0]
 8003560:	46c0      	nop			; (mov r8, r8)
 8003562:	46bd      	mov	sp, r7
 8003564:	b002      	add	sp, #8
 8003566:	bd80      	pop	{r7, pc}
 8003568:	2000060c 	.word	0x2000060c
 800356c:	20000610 	.word	0x20000610

08003570 <SPI_Timer_Status>:
 8003570:	b580      	push	{r7, lr}
 8003572:	af00      	add	r7, sp, #0
 8003574:	f7fd fe66 	bl	8001244 <HAL_GetTick>
 8003578:	0002      	movs	r2, r0
 800357a:	4b06      	ldr	r3, [pc, #24]	; (8003594 <SPI_Timer_Status+0x24>)
 800357c:	681b      	ldr	r3, [r3, #0]
 800357e:	1ad2      	subs	r2, r2, r3
 8003580:	4b05      	ldr	r3, [pc, #20]	; (8003598 <SPI_Timer_Status+0x28>)
 8003582:	681b      	ldr	r3, [r3, #0]
 8003584:	429a      	cmp	r2, r3
 8003586:	419b      	sbcs	r3, r3
 8003588:	425b      	negs	r3, r3
 800358a:	b2db      	uxtb	r3, r3
 800358c:	0018      	movs	r0, r3
 800358e:	46bd      	mov	sp, r7
 8003590:	bd80      	pop	{r7, pc}
 8003592:	46c0      	nop			; (mov r8, r8)
 8003594:	2000060c 	.word	0x2000060c
 8003598:	20000610 	.word	0x20000610

0800359c <xchg_spi>:
 800359c:	b590      	push	{r4, r7, lr}
 800359e:	b087      	sub	sp, #28
 80035a0:	af02      	add	r7, sp, #8
 80035a2:	0002      	movs	r2, r0
 80035a4:	1dfb      	adds	r3, r7, #7
 80035a6:	701a      	strb	r2, [r3, #0]
 80035a8:	240f      	movs	r4, #15
 80035aa:	193a      	adds	r2, r7, r4
 80035ac:	1df9      	adds	r1, r7, #7
 80035ae:	4806      	ldr	r0, [pc, #24]	; (80035c8 <xchg_spi+0x2c>)
 80035b0:	2332      	movs	r3, #50	; 0x32
 80035b2:	9300      	str	r3, [sp, #0]
 80035b4:	2301      	movs	r3, #1
 80035b6:	f7fe ffff 	bl	80025b8 <HAL_SPI_TransmitReceive>
 80035ba:	193b      	adds	r3, r7, r4
 80035bc:	781b      	ldrb	r3, [r3, #0]
 80035be:	0018      	movs	r0, r3
 80035c0:	46bd      	mov	sp, r7
 80035c2:	b005      	add	sp, #20
 80035c4:	bd90      	pop	{r4, r7, pc}
 80035c6:	46c0      	nop			; (mov r8, r8)
 80035c8:	2000004c 	.word	0x2000004c

080035cc <rcvr_spi_multi>:
 80035cc:	b590      	push	{r4, r7, lr}
 80035ce:	b085      	sub	sp, #20
 80035d0:	af00      	add	r7, sp, #0
 80035d2:	6078      	str	r0, [r7, #4]
 80035d4:	6039      	str	r1, [r7, #0]
 80035d6:	2300      	movs	r3, #0
 80035d8:	60fb      	str	r3, [r7, #12]
 80035da:	e00a      	b.n	80035f2 <rcvr_spi_multi+0x26>
 80035dc:	687a      	ldr	r2, [r7, #4]
 80035de:	68fb      	ldr	r3, [r7, #12]
 80035e0:	18d4      	adds	r4, r2, r3
 80035e2:	20ff      	movs	r0, #255	; 0xff
 80035e4:	f7ff ffda 	bl	800359c <xchg_spi>
 80035e8:	0003      	movs	r3, r0
 80035ea:	7023      	strb	r3, [r4, #0]
 80035ec:	68fb      	ldr	r3, [r7, #12]
 80035ee:	3301      	adds	r3, #1
 80035f0:	60fb      	str	r3, [r7, #12]
 80035f2:	68fa      	ldr	r2, [r7, #12]
 80035f4:	683b      	ldr	r3, [r7, #0]
 80035f6:	429a      	cmp	r2, r3
 80035f8:	d3f0      	bcc.n	80035dc <rcvr_spi_multi+0x10>
 80035fa:	46c0      	nop			; (mov r8, r8)
 80035fc:	46c0      	nop			; (mov r8, r8)
 80035fe:	46bd      	mov	sp, r7
 8003600:	b005      	add	sp, #20
 8003602:	bd90      	pop	{r4, r7, pc}

08003604 <xmit_spi_multi>:
 8003604:	b580      	push	{r7, lr}
 8003606:	b082      	sub	sp, #8
 8003608:	af00      	add	r7, sp, #0
 800360a:	6078      	str	r0, [r7, #4]
 800360c:	6039      	str	r1, [r7, #0]
 800360e:	683b      	ldr	r3, [r7, #0]
 8003610:	b29a      	uxth	r2, r3
 8003612:	2301      	movs	r3, #1
 8003614:	425b      	negs	r3, r3
 8003616:	6879      	ldr	r1, [r7, #4]
 8003618:	4803      	ldr	r0, [pc, #12]	; (8003628 <xmit_spi_multi+0x24>)
 800361a:	f7fe fe6d 	bl	80022f8 <HAL_SPI_Transmit>
 800361e:	46c0      	nop			; (mov r8, r8)
 8003620:	46bd      	mov	sp, r7
 8003622:	b002      	add	sp, #8
 8003624:	bd80      	pop	{r7, pc}
 8003626:	46c0      	nop			; (mov r8, r8)
 8003628:	2000004c 	.word	0x2000004c

0800362c <wait_ready>:
 800362c:	b5b0      	push	{r4, r5, r7, lr}
 800362e:	b086      	sub	sp, #24
 8003630:	af00      	add	r7, sp, #0
 8003632:	6078      	str	r0, [r7, #4]
 8003634:	f7fd fe06 	bl	8001244 <HAL_GetTick>
 8003638:	0003      	movs	r3, r0
 800363a:	617b      	str	r3, [r7, #20]
 800363c:	687b      	ldr	r3, [r7, #4]
 800363e:	613b      	str	r3, [r7, #16]
 8003640:	250f      	movs	r5, #15
 8003642:	197c      	adds	r4, r7, r5
 8003644:	20ff      	movs	r0, #255	; 0xff
 8003646:	f7ff ffa9 	bl	800359c <xchg_spi>
 800364a:	0003      	movs	r3, r0
 800364c:	7023      	strb	r3, [r4, #0]
 800364e:	197b      	adds	r3, r7, r5
 8003650:	781b      	ldrb	r3, [r3, #0]
 8003652:	2bff      	cmp	r3, #255	; 0xff
 8003654:	d007      	beq.n	8003666 <wait_ready+0x3a>
 8003656:	f7fd fdf5 	bl	8001244 <HAL_GetTick>
 800365a:	0002      	movs	r2, r0
 800365c:	697b      	ldr	r3, [r7, #20]
 800365e:	1ad3      	subs	r3, r2, r3
 8003660:	693a      	ldr	r2, [r7, #16]
 8003662:	429a      	cmp	r2, r3
 8003664:	d8ec      	bhi.n	8003640 <wait_ready+0x14>
 8003666:	230f      	movs	r3, #15
 8003668:	18fb      	adds	r3, r7, r3
 800366a:	781b      	ldrb	r3, [r3, #0]
 800366c:	3bff      	subs	r3, #255	; 0xff
 800366e:	425a      	negs	r2, r3
 8003670:	4153      	adcs	r3, r2
 8003672:	b2db      	uxtb	r3, r3
 8003674:	0018      	movs	r0, r3
 8003676:	46bd      	mov	sp, r7
 8003678:	b006      	add	sp, #24
 800367a:	bdb0      	pop	{r4, r5, r7, pc}

0800367c <despiselect>:
 800367c:	b580      	push	{r7, lr}
 800367e:	af00      	add	r7, sp, #0
 8003680:	4b05      	ldr	r3, [pc, #20]	; (8003698 <despiselect+0x1c>)
 8003682:	2201      	movs	r2, #1
 8003684:	2102      	movs	r1, #2
 8003686:	0018      	movs	r0, r3
 8003688:	f7fe f82e 	bl	80016e8 <HAL_GPIO_WritePin>
 800368c:	20ff      	movs	r0, #255	; 0xff
 800368e:	f7ff ff85 	bl	800359c <xchg_spi>
 8003692:	46c0      	nop			; (mov r8, r8)
 8003694:	46bd      	mov	sp, r7
 8003696:	bd80      	pop	{r7, pc}
 8003698:	48000400 	.word	0x48000400

0800369c <spiselect>:
 800369c:	b580      	push	{r7, lr}
 800369e:	af00      	add	r7, sp, #0
 80036a0:	4b0b      	ldr	r3, [pc, #44]	; (80036d0 <spiselect+0x34>)
 80036a2:	2200      	movs	r2, #0
 80036a4:	2102      	movs	r1, #2
 80036a6:	0018      	movs	r0, r3
 80036a8:	f7fe f81e 	bl	80016e8 <HAL_GPIO_WritePin>
 80036ac:	20ff      	movs	r0, #255	; 0xff
 80036ae:	f7ff ff75 	bl	800359c <xchg_spi>
 80036b2:	23fa      	movs	r3, #250	; 0xfa
 80036b4:	005b      	lsls	r3, r3, #1
 80036b6:	0018      	movs	r0, r3
 80036b8:	f7ff ffb8 	bl	800362c <wait_ready>
 80036bc:	1e03      	subs	r3, r0, #0
 80036be:	d001      	beq.n	80036c4 <spiselect+0x28>
 80036c0:	2301      	movs	r3, #1
 80036c2:	e002      	b.n	80036ca <spiselect+0x2e>
 80036c4:	f7ff ffda 	bl	800367c <despiselect>
 80036c8:	2300      	movs	r3, #0
 80036ca:	0018      	movs	r0, r3
 80036cc:	46bd      	mov	sp, r7
 80036ce:	bd80      	pop	{r7, pc}
 80036d0:	48000400 	.word	0x48000400

080036d4 <rcvr_datablock>:
 80036d4:	b5b0      	push	{r4, r5, r7, lr}
 80036d6:	b084      	sub	sp, #16
 80036d8:	af00      	add	r7, sp, #0
 80036da:	6078      	str	r0, [r7, #4]
 80036dc:	6039      	str	r1, [r7, #0]
 80036de:	20c8      	movs	r0, #200	; 0xc8
 80036e0:	f7ff ff32 	bl	8003548 <SPI_Timer_On>
 80036e4:	250f      	movs	r5, #15
 80036e6:	197c      	adds	r4, r7, r5
 80036e8:	20ff      	movs	r0, #255	; 0xff
 80036ea:	f7ff ff57 	bl	800359c <xchg_spi>
 80036ee:	0003      	movs	r3, r0
 80036f0:	7023      	strb	r3, [r4, #0]
 80036f2:	197b      	adds	r3, r7, r5
 80036f4:	781b      	ldrb	r3, [r3, #0]
 80036f6:	2bff      	cmp	r3, #255	; 0xff
 80036f8:	d103      	bne.n	8003702 <rcvr_datablock+0x2e>
 80036fa:	f7ff ff39 	bl	8003570 <SPI_Timer_Status>
 80036fe:	1e03      	subs	r3, r0, #0
 8003700:	d1f0      	bne.n	80036e4 <rcvr_datablock+0x10>
 8003702:	230f      	movs	r3, #15
 8003704:	18fb      	adds	r3, r7, r3
 8003706:	781b      	ldrb	r3, [r3, #0]
 8003708:	2bfe      	cmp	r3, #254	; 0xfe
 800370a:	d001      	beq.n	8003710 <rcvr_datablock+0x3c>
 800370c:	2300      	movs	r3, #0
 800370e:	e00c      	b.n	800372a <rcvr_datablock+0x56>
 8003710:	683a      	ldr	r2, [r7, #0]
 8003712:	687b      	ldr	r3, [r7, #4]
 8003714:	0011      	movs	r1, r2
 8003716:	0018      	movs	r0, r3
 8003718:	f7ff ff58 	bl	80035cc <rcvr_spi_multi>
 800371c:	20ff      	movs	r0, #255	; 0xff
 800371e:	f7ff ff3d 	bl	800359c <xchg_spi>
 8003722:	20ff      	movs	r0, #255	; 0xff
 8003724:	f7ff ff3a 	bl	800359c <xchg_spi>
 8003728:	2301      	movs	r3, #1
 800372a:	0018      	movs	r0, r3
 800372c:	46bd      	mov	sp, r7
 800372e:	b004      	add	sp, #16
 8003730:	bdb0      	pop	{r4, r5, r7, pc}

08003732 <xmit_datablock>:
 8003732:	b5b0      	push	{r4, r5, r7, lr}
 8003734:	b084      	sub	sp, #16
 8003736:	af00      	add	r7, sp, #0
 8003738:	6078      	str	r0, [r7, #4]
 800373a:	000a      	movs	r2, r1
 800373c:	1cfb      	adds	r3, r7, #3
 800373e:	701a      	strb	r2, [r3, #0]
 8003740:	23fa      	movs	r3, #250	; 0xfa
 8003742:	005b      	lsls	r3, r3, #1
 8003744:	0018      	movs	r0, r3
 8003746:	f7ff ff71 	bl	800362c <wait_ready>
 800374a:	1e03      	subs	r3, r0, #0
 800374c:	d101      	bne.n	8003752 <xmit_datablock+0x20>
 800374e:	2300      	movs	r3, #0
 8003750:	e025      	b.n	800379e <xmit_datablock+0x6c>
 8003752:	1cfb      	adds	r3, r7, #3
 8003754:	781b      	ldrb	r3, [r3, #0]
 8003756:	0018      	movs	r0, r3
 8003758:	f7ff ff20 	bl	800359c <xchg_spi>
 800375c:	1cfb      	adds	r3, r7, #3
 800375e:	781b      	ldrb	r3, [r3, #0]
 8003760:	2bfd      	cmp	r3, #253	; 0xfd
 8003762:	d01b      	beq.n	800379c <xmit_datablock+0x6a>
 8003764:	2380      	movs	r3, #128	; 0x80
 8003766:	009a      	lsls	r2, r3, #2
 8003768:	687b      	ldr	r3, [r7, #4]
 800376a:	0011      	movs	r1, r2
 800376c:	0018      	movs	r0, r3
 800376e:	f7ff ff49 	bl	8003604 <xmit_spi_multi>
 8003772:	20ff      	movs	r0, #255	; 0xff
 8003774:	f7ff ff12 	bl	800359c <xchg_spi>
 8003778:	20ff      	movs	r0, #255	; 0xff
 800377a:	f7ff ff0f 	bl	800359c <xchg_spi>
 800377e:	250f      	movs	r5, #15
 8003780:	197c      	adds	r4, r7, r5
 8003782:	20ff      	movs	r0, #255	; 0xff
 8003784:	f7ff ff0a 	bl	800359c <xchg_spi>
 8003788:	0003      	movs	r3, r0
 800378a:	7023      	strb	r3, [r4, #0]
 800378c:	197b      	adds	r3, r7, r5
 800378e:	781b      	ldrb	r3, [r3, #0]
 8003790:	221f      	movs	r2, #31
 8003792:	4013      	ands	r3, r2
 8003794:	2b05      	cmp	r3, #5
 8003796:	d001      	beq.n	800379c <xmit_datablock+0x6a>
 8003798:	2300      	movs	r3, #0
 800379a:	e000      	b.n	800379e <xmit_datablock+0x6c>
 800379c:	2301      	movs	r3, #1
 800379e:	0018      	movs	r0, r3
 80037a0:	46bd      	mov	sp, r7
 80037a2:	b004      	add	sp, #16
 80037a4:	bdb0      	pop	{r4, r5, r7, pc}

080037a6 <send_cmd>:
 80037a6:	b5b0      	push	{r4, r5, r7, lr}
 80037a8:	b084      	sub	sp, #16
 80037aa:	af00      	add	r7, sp, #0
 80037ac:	0002      	movs	r2, r0
 80037ae:	6039      	str	r1, [r7, #0]
 80037b0:	1dfb      	adds	r3, r7, #7
 80037b2:	701a      	strb	r2, [r3, #0]
 80037b4:	1dfb      	adds	r3, r7, #7
 80037b6:	781b      	ldrb	r3, [r3, #0]
 80037b8:	b25b      	sxtb	r3, r3
 80037ba:	2b00      	cmp	r3, #0
 80037bc:	da15      	bge.n	80037ea <send_cmd+0x44>
 80037be:	1dfb      	adds	r3, r7, #7
 80037c0:	1dfa      	adds	r2, r7, #7
 80037c2:	7812      	ldrb	r2, [r2, #0]
 80037c4:	217f      	movs	r1, #127	; 0x7f
 80037c6:	400a      	ands	r2, r1
 80037c8:	701a      	strb	r2, [r3, #0]
 80037ca:	250e      	movs	r5, #14
 80037cc:	197c      	adds	r4, r7, r5
 80037ce:	2100      	movs	r1, #0
 80037d0:	2037      	movs	r0, #55	; 0x37
 80037d2:	f7ff ffe8 	bl	80037a6 <send_cmd>
 80037d6:	0003      	movs	r3, r0
 80037d8:	7023      	strb	r3, [r4, #0]
 80037da:	002a      	movs	r2, r5
 80037dc:	18bb      	adds	r3, r7, r2
 80037de:	781b      	ldrb	r3, [r3, #0]
 80037e0:	2b01      	cmp	r3, #1
 80037e2:	d902      	bls.n	80037ea <send_cmd+0x44>
 80037e4:	18bb      	adds	r3, r7, r2
 80037e6:	781b      	ldrb	r3, [r3, #0]
 80037e8:	e067      	b.n	80038ba <send_cmd+0x114>
 80037ea:	1dfb      	adds	r3, r7, #7
 80037ec:	781b      	ldrb	r3, [r3, #0]
 80037ee:	2b0c      	cmp	r3, #12
 80037f0:	d007      	beq.n	8003802 <send_cmd+0x5c>
 80037f2:	f7ff ff43 	bl	800367c <despiselect>
 80037f6:	f7ff ff51 	bl	800369c <spiselect>
 80037fa:	1e03      	subs	r3, r0, #0
 80037fc:	d101      	bne.n	8003802 <send_cmd+0x5c>
 80037fe:	23ff      	movs	r3, #255	; 0xff
 8003800:	e05b      	b.n	80038ba <send_cmd+0x114>
 8003802:	1dfb      	adds	r3, r7, #7
 8003804:	781b      	ldrb	r3, [r3, #0]
 8003806:	2240      	movs	r2, #64	; 0x40
 8003808:	4313      	orrs	r3, r2
 800380a:	b2db      	uxtb	r3, r3
 800380c:	0018      	movs	r0, r3
 800380e:	f7ff fec5 	bl	800359c <xchg_spi>
 8003812:	683b      	ldr	r3, [r7, #0]
 8003814:	0e1b      	lsrs	r3, r3, #24
 8003816:	b2db      	uxtb	r3, r3
 8003818:	0018      	movs	r0, r3
 800381a:	f7ff febf 	bl	800359c <xchg_spi>
 800381e:	683b      	ldr	r3, [r7, #0]
 8003820:	0c1b      	lsrs	r3, r3, #16
 8003822:	b2db      	uxtb	r3, r3
 8003824:	0018      	movs	r0, r3
 8003826:	f7ff feb9 	bl	800359c <xchg_spi>
 800382a:	683b      	ldr	r3, [r7, #0]
 800382c:	0a1b      	lsrs	r3, r3, #8
 800382e:	b2db      	uxtb	r3, r3
 8003830:	0018      	movs	r0, r3
 8003832:	f7ff feb3 	bl	800359c <xchg_spi>
 8003836:	683b      	ldr	r3, [r7, #0]
 8003838:	b2db      	uxtb	r3, r3
 800383a:	0018      	movs	r0, r3
 800383c:	f7ff feae 	bl	800359c <xchg_spi>
 8003840:	210f      	movs	r1, #15
 8003842:	187b      	adds	r3, r7, r1
 8003844:	2201      	movs	r2, #1
 8003846:	701a      	strb	r2, [r3, #0]
 8003848:	1dfb      	adds	r3, r7, #7
 800384a:	781b      	ldrb	r3, [r3, #0]
 800384c:	2b00      	cmp	r3, #0
 800384e:	d102      	bne.n	8003856 <send_cmd+0xb0>
 8003850:	187b      	adds	r3, r7, r1
 8003852:	2295      	movs	r2, #149	; 0x95
 8003854:	701a      	strb	r2, [r3, #0]
 8003856:	1dfb      	adds	r3, r7, #7
 8003858:	781b      	ldrb	r3, [r3, #0]
 800385a:	2b08      	cmp	r3, #8
 800385c:	d103      	bne.n	8003866 <send_cmd+0xc0>
 800385e:	230f      	movs	r3, #15
 8003860:	18fb      	adds	r3, r7, r3
 8003862:	2287      	movs	r2, #135	; 0x87
 8003864:	701a      	strb	r2, [r3, #0]
 8003866:	230f      	movs	r3, #15
 8003868:	18fb      	adds	r3, r7, r3
 800386a:	781b      	ldrb	r3, [r3, #0]
 800386c:	0018      	movs	r0, r3
 800386e:	f7ff fe95 	bl	800359c <xchg_spi>
 8003872:	1dfb      	adds	r3, r7, #7
 8003874:	781b      	ldrb	r3, [r3, #0]
 8003876:	2b0c      	cmp	r3, #12
 8003878:	d102      	bne.n	8003880 <send_cmd+0xda>
 800387a:	20ff      	movs	r0, #255	; 0xff
 800387c:	f7ff fe8e 	bl	800359c <xchg_spi>
 8003880:	230f      	movs	r3, #15
 8003882:	18fb      	adds	r3, r7, r3
 8003884:	220a      	movs	r2, #10
 8003886:	701a      	strb	r2, [r3, #0]
 8003888:	250e      	movs	r5, #14
 800388a:	197c      	adds	r4, r7, r5
 800388c:	20ff      	movs	r0, #255	; 0xff
 800388e:	f7ff fe85 	bl	800359c <xchg_spi>
 8003892:	0003      	movs	r3, r0
 8003894:	7023      	strb	r3, [r4, #0]
 8003896:	197b      	adds	r3, r7, r5
 8003898:	781b      	ldrb	r3, [r3, #0]
 800389a:	b25b      	sxtb	r3, r3
 800389c:	2b00      	cmp	r3, #0
 800389e:	da09      	bge.n	80038b4 <send_cmd+0x10e>
 80038a0:	210f      	movs	r1, #15
 80038a2:	187b      	adds	r3, r7, r1
 80038a4:	187a      	adds	r2, r7, r1
 80038a6:	7812      	ldrb	r2, [r2, #0]
 80038a8:	3a01      	subs	r2, #1
 80038aa:	701a      	strb	r2, [r3, #0]
 80038ac:	187b      	adds	r3, r7, r1
 80038ae:	781b      	ldrb	r3, [r3, #0]
 80038b0:	2b00      	cmp	r3, #0
 80038b2:	d1e9      	bne.n	8003888 <send_cmd+0xe2>
 80038b4:	230e      	movs	r3, #14
 80038b6:	18fb      	adds	r3, r7, r3
 80038b8:	781b      	ldrb	r3, [r3, #0]
 80038ba:	0018      	movs	r0, r3
 80038bc:	46bd      	mov	sp, r7
 80038be:	b004      	add	sp, #16
 80038c0:	bdb0      	pop	{r4, r5, r7, pc}
	...

080038c4 <USER_SPI_initialize>:
 80038c4:	b5b0      	push	{r4, r5, r7, lr}
 80038c6:	b084      	sub	sp, #16
 80038c8:	af00      	add	r7, sp, #0
 80038ca:	0002      	movs	r2, r0
 80038cc:	1dfb      	adds	r3, r7, #7
 80038ce:	701a      	strb	r2, [r3, #0]
 80038d0:	1dfb      	adds	r3, r7, #7
 80038d2:	781b      	ldrb	r3, [r3, #0]
 80038d4:	2b00      	cmp	r3, #0
 80038d6:	d001      	beq.n	80038dc <USER_SPI_initialize+0x18>
 80038d8:	2301      	movs	r3, #1
 80038da:	e100      	b.n	8003ade <USER_SPI_initialize+0x21a>
 80038dc:	4b82      	ldr	r3, [pc, #520]	; (8003ae8 <USER_SPI_initialize+0x224>)
 80038de:	781b      	ldrb	r3, [r3, #0]
 80038e0:	b2db      	uxtb	r3, r3
 80038e2:	001a      	movs	r2, r3
 80038e4:	2302      	movs	r3, #2
 80038e6:	4013      	ands	r3, r2
 80038e8:	d003      	beq.n	80038f2 <USER_SPI_initialize+0x2e>
 80038ea:	4b7f      	ldr	r3, [pc, #508]	; (8003ae8 <USER_SPI_initialize+0x224>)
 80038ec:	781b      	ldrb	r3, [r3, #0]
 80038ee:	b2db      	uxtb	r3, r3
 80038f0:	e0f5      	b.n	8003ade <USER_SPI_initialize+0x21a>
 80038f2:	4b7e      	ldr	r3, [pc, #504]	; (8003aec <USER_SPI_initialize+0x228>)
 80038f4:	681b      	ldr	r3, [r3, #0]
 80038f6:	681b      	ldr	r3, [r3, #0]
 80038f8:	2238      	movs	r2, #56	; 0x38
 80038fa:	4393      	bics	r3, r2
 80038fc:	001a      	movs	r2, r3
 80038fe:	4b7b      	ldr	r3, [pc, #492]	; (8003aec <USER_SPI_initialize+0x228>)
 8003900:	681b      	ldr	r3, [r3, #0]
 8003902:	2130      	movs	r1, #48	; 0x30
 8003904:	430a      	orrs	r2, r1
 8003906:	601a      	str	r2, [r3, #0]
 8003908:	230f      	movs	r3, #15
 800390a:	18fb      	adds	r3, r7, r3
 800390c:	220a      	movs	r2, #10
 800390e:	701a      	strb	r2, [r3, #0]
 8003910:	e008      	b.n	8003924 <USER_SPI_initialize+0x60>
 8003912:	20ff      	movs	r0, #255	; 0xff
 8003914:	f7ff fe42 	bl	800359c <xchg_spi>
 8003918:	210f      	movs	r1, #15
 800391a:	187b      	adds	r3, r7, r1
 800391c:	781a      	ldrb	r2, [r3, #0]
 800391e:	187b      	adds	r3, r7, r1
 8003920:	3a01      	subs	r2, #1
 8003922:	701a      	strb	r2, [r3, #0]
 8003924:	240f      	movs	r4, #15
 8003926:	193b      	adds	r3, r7, r4
 8003928:	781b      	ldrb	r3, [r3, #0]
 800392a:	2b00      	cmp	r3, #0
 800392c:	d1f1      	bne.n	8003912 <USER_SPI_initialize+0x4e>
 800392e:	230d      	movs	r3, #13
 8003930:	18fb      	adds	r3, r7, r3
 8003932:	2200      	movs	r2, #0
 8003934:	701a      	strb	r2, [r3, #0]
 8003936:	2100      	movs	r1, #0
 8003938:	2000      	movs	r0, #0
 800393a:	f7ff ff34 	bl	80037a6 <send_cmd>
 800393e:	0003      	movs	r3, r0
 8003940:	2b01      	cmp	r3, #1
 8003942:	d000      	beq.n	8003946 <USER_SPI_initialize+0x82>
 8003944:	e0a6      	b.n	8003a94 <USER_SPI_initialize+0x1d0>
 8003946:	23fa      	movs	r3, #250	; 0xfa
 8003948:	009b      	lsls	r3, r3, #2
 800394a:	0018      	movs	r0, r3
 800394c:	f7ff fdfc 	bl	8003548 <SPI_Timer_On>
 8003950:	23d5      	movs	r3, #213	; 0xd5
 8003952:	005b      	lsls	r3, r3, #1
 8003954:	0019      	movs	r1, r3
 8003956:	2008      	movs	r0, #8
 8003958:	f7ff ff25 	bl	80037a6 <send_cmd>
 800395c:	0003      	movs	r3, r0
 800395e:	2b01      	cmp	r3, #1
 8003960:	d162      	bne.n	8003a28 <USER_SPI_initialize+0x164>
 8003962:	193b      	adds	r3, r7, r4
 8003964:	2200      	movs	r2, #0
 8003966:	701a      	strb	r2, [r3, #0]
 8003968:	e00f      	b.n	800398a <USER_SPI_initialize+0xc6>
 800396a:	250f      	movs	r5, #15
 800396c:	197b      	adds	r3, r7, r5
 800396e:	781c      	ldrb	r4, [r3, #0]
 8003970:	20ff      	movs	r0, #255	; 0xff
 8003972:	f7ff fe13 	bl	800359c <xchg_spi>
 8003976:	0003      	movs	r3, r0
 8003978:	001a      	movs	r2, r3
 800397a:	2308      	movs	r3, #8
 800397c:	18fb      	adds	r3, r7, r3
 800397e:	551a      	strb	r2, [r3, r4]
 8003980:	197b      	adds	r3, r7, r5
 8003982:	781a      	ldrb	r2, [r3, #0]
 8003984:	197b      	adds	r3, r7, r5
 8003986:	3201      	adds	r2, #1
 8003988:	701a      	strb	r2, [r3, #0]
 800398a:	230f      	movs	r3, #15
 800398c:	18fb      	adds	r3, r7, r3
 800398e:	781b      	ldrb	r3, [r3, #0]
 8003990:	2b03      	cmp	r3, #3
 8003992:	d9ea      	bls.n	800396a <USER_SPI_initialize+0xa6>
 8003994:	2208      	movs	r2, #8
 8003996:	18bb      	adds	r3, r7, r2
 8003998:	789b      	ldrb	r3, [r3, #2]
 800399a:	2b01      	cmp	r3, #1
 800399c:	d000      	beq.n	80039a0 <USER_SPI_initialize+0xdc>
 800399e:	e079      	b.n	8003a94 <USER_SPI_initialize+0x1d0>
 80039a0:	18bb      	adds	r3, r7, r2
 80039a2:	78db      	ldrb	r3, [r3, #3]
 80039a4:	2baa      	cmp	r3, #170	; 0xaa
 80039a6:	d000      	beq.n	80039aa <USER_SPI_initialize+0xe6>
 80039a8:	e074      	b.n	8003a94 <USER_SPI_initialize+0x1d0>
 80039aa:	46c0      	nop			; (mov r8, r8)
 80039ac:	f7ff fde0 	bl	8003570 <SPI_Timer_Status>
 80039b0:	1e03      	subs	r3, r0, #0
 80039b2:	d007      	beq.n	80039c4 <USER_SPI_initialize+0x100>
 80039b4:	2380      	movs	r3, #128	; 0x80
 80039b6:	05db      	lsls	r3, r3, #23
 80039b8:	0019      	movs	r1, r3
 80039ba:	20a9      	movs	r0, #169	; 0xa9
 80039bc:	f7ff fef3 	bl	80037a6 <send_cmd>
 80039c0:	1e03      	subs	r3, r0, #0
 80039c2:	d1f3      	bne.n	80039ac <USER_SPI_initialize+0xe8>
 80039c4:	f7ff fdd4 	bl	8003570 <SPI_Timer_Status>
 80039c8:	1e03      	subs	r3, r0, #0
 80039ca:	d063      	beq.n	8003a94 <USER_SPI_initialize+0x1d0>
 80039cc:	2100      	movs	r1, #0
 80039ce:	203a      	movs	r0, #58	; 0x3a
 80039d0:	f7ff fee9 	bl	80037a6 <send_cmd>
 80039d4:	1e03      	subs	r3, r0, #0
 80039d6:	d15d      	bne.n	8003a94 <USER_SPI_initialize+0x1d0>
 80039d8:	230f      	movs	r3, #15
 80039da:	18fb      	adds	r3, r7, r3
 80039dc:	2200      	movs	r2, #0
 80039de:	701a      	strb	r2, [r3, #0]
 80039e0:	e00f      	b.n	8003a02 <USER_SPI_initialize+0x13e>
 80039e2:	250f      	movs	r5, #15
 80039e4:	197b      	adds	r3, r7, r5
 80039e6:	781c      	ldrb	r4, [r3, #0]
 80039e8:	20ff      	movs	r0, #255	; 0xff
 80039ea:	f7ff fdd7 	bl	800359c <xchg_spi>
 80039ee:	0003      	movs	r3, r0
 80039f0:	001a      	movs	r2, r3
 80039f2:	2308      	movs	r3, #8
 80039f4:	18fb      	adds	r3, r7, r3
 80039f6:	551a      	strb	r2, [r3, r4]
 80039f8:	197b      	adds	r3, r7, r5
 80039fa:	781a      	ldrb	r2, [r3, #0]
 80039fc:	197b      	adds	r3, r7, r5
 80039fe:	3201      	adds	r2, #1
 8003a00:	701a      	strb	r2, [r3, #0]
 8003a02:	230f      	movs	r3, #15
 8003a04:	18fb      	adds	r3, r7, r3
 8003a06:	781b      	ldrb	r3, [r3, #0]
 8003a08:	2b03      	cmp	r3, #3
 8003a0a:	d9ea      	bls.n	80039e2 <USER_SPI_initialize+0x11e>
 8003a0c:	2308      	movs	r3, #8
 8003a0e:	18fb      	adds	r3, r7, r3
 8003a10:	781b      	ldrb	r3, [r3, #0]
 8003a12:	001a      	movs	r2, r3
 8003a14:	2340      	movs	r3, #64	; 0x40
 8003a16:	4013      	ands	r3, r2
 8003a18:	d001      	beq.n	8003a1e <USER_SPI_initialize+0x15a>
 8003a1a:	220c      	movs	r2, #12
 8003a1c:	e000      	b.n	8003a20 <USER_SPI_initialize+0x15c>
 8003a1e:	2204      	movs	r2, #4
 8003a20:	230d      	movs	r3, #13
 8003a22:	18fb      	adds	r3, r7, r3
 8003a24:	701a      	strb	r2, [r3, #0]
 8003a26:	e035      	b.n	8003a94 <USER_SPI_initialize+0x1d0>
 8003a28:	2100      	movs	r1, #0
 8003a2a:	20a9      	movs	r0, #169	; 0xa9
 8003a2c:	f7ff febb 	bl	80037a6 <send_cmd>
 8003a30:	0003      	movs	r3, r0
 8003a32:	2b01      	cmp	r3, #1
 8003a34:	d808      	bhi.n	8003a48 <USER_SPI_initialize+0x184>
 8003a36:	230d      	movs	r3, #13
 8003a38:	18fb      	adds	r3, r7, r3
 8003a3a:	2202      	movs	r2, #2
 8003a3c:	701a      	strb	r2, [r3, #0]
 8003a3e:	230e      	movs	r3, #14
 8003a40:	18fb      	adds	r3, r7, r3
 8003a42:	22a9      	movs	r2, #169	; 0xa9
 8003a44:	701a      	strb	r2, [r3, #0]
 8003a46:	e007      	b.n	8003a58 <USER_SPI_initialize+0x194>
 8003a48:	230d      	movs	r3, #13
 8003a4a:	18fb      	adds	r3, r7, r3
 8003a4c:	2201      	movs	r2, #1
 8003a4e:	701a      	strb	r2, [r3, #0]
 8003a50:	230e      	movs	r3, #14
 8003a52:	18fb      	adds	r3, r7, r3
 8003a54:	2201      	movs	r2, #1
 8003a56:	701a      	strb	r2, [r3, #0]
 8003a58:	46c0      	nop			; (mov r8, r8)
 8003a5a:	f7ff fd89 	bl	8003570 <SPI_Timer_Status>
 8003a5e:	1e03      	subs	r3, r0, #0
 8003a60:	d008      	beq.n	8003a74 <USER_SPI_initialize+0x1b0>
 8003a62:	230e      	movs	r3, #14
 8003a64:	18fb      	adds	r3, r7, r3
 8003a66:	781b      	ldrb	r3, [r3, #0]
 8003a68:	2100      	movs	r1, #0
 8003a6a:	0018      	movs	r0, r3
 8003a6c:	f7ff fe9b 	bl	80037a6 <send_cmd>
 8003a70:	1e03      	subs	r3, r0, #0
 8003a72:	d1f2      	bne.n	8003a5a <USER_SPI_initialize+0x196>
 8003a74:	f7ff fd7c 	bl	8003570 <SPI_Timer_Status>
 8003a78:	1e03      	subs	r3, r0, #0
 8003a7a:	d007      	beq.n	8003a8c <USER_SPI_initialize+0x1c8>
 8003a7c:	2380      	movs	r3, #128	; 0x80
 8003a7e:	009b      	lsls	r3, r3, #2
 8003a80:	0019      	movs	r1, r3
 8003a82:	2010      	movs	r0, #16
 8003a84:	f7ff fe8f 	bl	80037a6 <send_cmd>
 8003a88:	1e03      	subs	r3, r0, #0
 8003a8a:	d003      	beq.n	8003a94 <USER_SPI_initialize+0x1d0>
 8003a8c:	230d      	movs	r3, #13
 8003a8e:	18fb      	adds	r3, r7, r3
 8003a90:	2200      	movs	r2, #0
 8003a92:	701a      	strb	r2, [r3, #0]
 8003a94:	4b16      	ldr	r3, [pc, #88]	; (8003af0 <USER_SPI_initialize+0x22c>)
 8003a96:	240d      	movs	r4, #13
 8003a98:	193a      	adds	r2, r7, r4
 8003a9a:	7812      	ldrb	r2, [r2, #0]
 8003a9c:	701a      	strb	r2, [r3, #0]
 8003a9e:	f7ff fded 	bl	800367c <despiselect>
 8003aa2:	193b      	adds	r3, r7, r4
 8003aa4:	781b      	ldrb	r3, [r3, #0]
 8003aa6:	2b00      	cmp	r3, #0
 8003aa8:	d013      	beq.n	8003ad2 <USER_SPI_initialize+0x20e>
 8003aaa:	4b10      	ldr	r3, [pc, #64]	; (8003aec <USER_SPI_initialize+0x228>)
 8003aac:	681b      	ldr	r3, [r3, #0]
 8003aae:	681b      	ldr	r3, [r3, #0]
 8003ab0:	2238      	movs	r2, #56	; 0x38
 8003ab2:	4393      	bics	r3, r2
 8003ab4:	001a      	movs	r2, r3
 8003ab6:	4b0d      	ldr	r3, [pc, #52]	; (8003aec <USER_SPI_initialize+0x228>)
 8003ab8:	681b      	ldr	r3, [r3, #0]
 8003aba:	2110      	movs	r1, #16
 8003abc:	430a      	orrs	r2, r1
 8003abe:	601a      	str	r2, [r3, #0]
 8003ac0:	4b09      	ldr	r3, [pc, #36]	; (8003ae8 <USER_SPI_initialize+0x224>)
 8003ac2:	781b      	ldrb	r3, [r3, #0]
 8003ac4:	b2db      	uxtb	r3, r3
 8003ac6:	2201      	movs	r2, #1
 8003ac8:	4393      	bics	r3, r2
 8003aca:	b2da      	uxtb	r2, r3
 8003acc:	4b06      	ldr	r3, [pc, #24]	; (8003ae8 <USER_SPI_initialize+0x224>)
 8003ace:	701a      	strb	r2, [r3, #0]
 8003ad0:	e002      	b.n	8003ad8 <USER_SPI_initialize+0x214>
 8003ad2:	4b05      	ldr	r3, [pc, #20]	; (8003ae8 <USER_SPI_initialize+0x224>)
 8003ad4:	2201      	movs	r2, #1
 8003ad6:	701a      	strb	r2, [r3, #0]
 8003ad8:	4b03      	ldr	r3, [pc, #12]	; (8003ae8 <USER_SPI_initialize+0x224>)
 8003ada:	781b      	ldrb	r3, [r3, #0]
 8003adc:	b2db      	uxtb	r3, r3
 8003ade:	0018      	movs	r0, r3
 8003ae0:	46bd      	mov	sp, r7
 8003ae2:	b004      	add	sp, #16
 8003ae4:	bdb0      	pop	{r4, r5, r7, pc}
 8003ae6:	46c0      	nop			; (mov r8, r8)
 8003ae8:	20000020 	.word	0x20000020
 8003aec:	2000004c 	.word	0x2000004c
 8003af0:	20000608 	.word	0x20000608

08003af4 <USER_SPI_status>:
 8003af4:	b580      	push	{r7, lr}
 8003af6:	b082      	sub	sp, #8
 8003af8:	af00      	add	r7, sp, #0
 8003afa:	0002      	movs	r2, r0
 8003afc:	1dfb      	adds	r3, r7, #7
 8003afe:	701a      	strb	r2, [r3, #0]
 8003b00:	1dfb      	adds	r3, r7, #7
 8003b02:	781b      	ldrb	r3, [r3, #0]
 8003b04:	2b00      	cmp	r3, #0
 8003b06:	d001      	beq.n	8003b0c <USER_SPI_status+0x18>
 8003b08:	2301      	movs	r3, #1
 8003b0a:	e002      	b.n	8003b12 <USER_SPI_status+0x1e>
 8003b0c:	4b03      	ldr	r3, [pc, #12]	; (8003b1c <USER_SPI_status+0x28>)
 8003b0e:	781b      	ldrb	r3, [r3, #0]
 8003b10:	b2db      	uxtb	r3, r3
 8003b12:	0018      	movs	r0, r3
 8003b14:	46bd      	mov	sp, r7
 8003b16:	b002      	add	sp, #8
 8003b18:	bd80      	pop	{r7, pc}
 8003b1a:	46c0      	nop			; (mov r8, r8)
 8003b1c:	20000020 	.word	0x20000020

08003b20 <USER_SPI_read>:
 8003b20:	b580      	push	{r7, lr}
 8003b22:	b084      	sub	sp, #16
 8003b24:	af00      	add	r7, sp, #0
 8003b26:	60b9      	str	r1, [r7, #8]
 8003b28:	607a      	str	r2, [r7, #4]
 8003b2a:	603b      	str	r3, [r7, #0]
 8003b2c:	210f      	movs	r1, #15
 8003b2e:	187b      	adds	r3, r7, r1
 8003b30:	1c02      	adds	r2, r0, #0
 8003b32:	701a      	strb	r2, [r3, #0]
 8003b34:	187b      	adds	r3, r7, r1
 8003b36:	781b      	ldrb	r3, [r3, #0]
 8003b38:	2b00      	cmp	r3, #0
 8003b3a:	d102      	bne.n	8003b42 <USER_SPI_read+0x22>
 8003b3c:	683b      	ldr	r3, [r7, #0]
 8003b3e:	2b00      	cmp	r3, #0
 8003b40:	d101      	bne.n	8003b46 <USER_SPI_read+0x26>
 8003b42:	2304      	movs	r3, #4
 8003b44:	e04f      	b.n	8003be6 <USER_SPI_read+0xc6>
 8003b46:	4b2a      	ldr	r3, [pc, #168]	; (8003bf0 <USER_SPI_read+0xd0>)
 8003b48:	781b      	ldrb	r3, [r3, #0]
 8003b4a:	b2db      	uxtb	r3, r3
 8003b4c:	001a      	movs	r2, r3
 8003b4e:	2301      	movs	r3, #1
 8003b50:	4013      	ands	r3, r2
 8003b52:	d001      	beq.n	8003b58 <USER_SPI_read+0x38>
 8003b54:	2303      	movs	r3, #3
 8003b56:	e046      	b.n	8003be6 <USER_SPI_read+0xc6>
 8003b58:	4b26      	ldr	r3, [pc, #152]	; (8003bf4 <USER_SPI_read+0xd4>)
 8003b5a:	781b      	ldrb	r3, [r3, #0]
 8003b5c:	001a      	movs	r2, r3
 8003b5e:	2308      	movs	r3, #8
 8003b60:	4013      	ands	r3, r2
 8003b62:	d102      	bne.n	8003b6a <USER_SPI_read+0x4a>
 8003b64:	687b      	ldr	r3, [r7, #4]
 8003b66:	025b      	lsls	r3, r3, #9
 8003b68:	607b      	str	r3, [r7, #4]
 8003b6a:	683b      	ldr	r3, [r7, #0]
 8003b6c:	2b01      	cmp	r3, #1
 8003b6e:	d112      	bne.n	8003b96 <USER_SPI_read+0x76>
 8003b70:	687b      	ldr	r3, [r7, #4]
 8003b72:	0019      	movs	r1, r3
 8003b74:	2011      	movs	r0, #17
 8003b76:	f7ff fe16 	bl	80037a6 <send_cmd>
 8003b7a:	1e03      	subs	r3, r0, #0
 8003b7c:	d12d      	bne.n	8003bda <USER_SPI_read+0xba>
 8003b7e:	2380      	movs	r3, #128	; 0x80
 8003b80:	009a      	lsls	r2, r3, #2
 8003b82:	68bb      	ldr	r3, [r7, #8]
 8003b84:	0011      	movs	r1, r2
 8003b86:	0018      	movs	r0, r3
 8003b88:	f7ff fda4 	bl	80036d4 <rcvr_datablock>
 8003b8c:	1e03      	subs	r3, r0, #0
 8003b8e:	d024      	beq.n	8003bda <USER_SPI_read+0xba>
 8003b90:	2300      	movs	r3, #0
 8003b92:	603b      	str	r3, [r7, #0]
 8003b94:	e021      	b.n	8003bda <USER_SPI_read+0xba>
 8003b96:	687b      	ldr	r3, [r7, #4]
 8003b98:	0019      	movs	r1, r3
 8003b9a:	2012      	movs	r0, #18
 8003b9c:	f7ff fe03 	bl	80037a6 <send_cmd>
 8003ba0:	1e03      	subs	r3, r0, #0
 8003ba2:	d11a      	bne.n	8003bda <USER_SPI_read+0xba>
 8003ba4:	2380      	movs	r3, #128	; 0x80
 8003ba6:	009a      	lsls	r2, r3, #2
 8003ba8:	68bb      	ldr	r3, [r7, #8]
 8003baa:	0011      	movs	r1, r2
 8003bac:	0018      	movs	r0, r3
 8003bae:	f7ff fd91 	bl	80036d4 <rcvr_datablock>
 8003bb2:	1e03      	subs	r3, r0, #0
 8003bb4:	d00c      	beq.n	8003bd0 <USER_SPI_read+0xb0>
 8003bb6:	68bb      	ldr	r3, [r7, #8]
 8003bb8:	2280      	movs	r2, #128	; 0x80
 8003bba:	0092      	lsls	r2, r2, #2
 8003bbc:	4694      	mov	ip, r2
 8003bbe:	4463      	add	r3, ip
 8003bc0:	60bb      	str	r3, [r7, #8]
 8003bc2:	683b      	ldr	r3, [r7, #0]
 8003bc4:	3b01      	subs	r3, #1
 8003bc6:	603b      	str	r3, [r7, #0]
 8003bc8:	683b      	ldr	r3, [r7, #0]
 8003bca:	2b00      	cmp	r3, #0
 8003bcc:	d1ea      	bne.n	8003ba4 <USER_SPI_read+0x84>
 8003bce:	e000      	b.n	8003bd2 <USER_SPI_read+0xb2>
 8003bd0:	46c0      	nop			; (mov r8, r8)
 8003bd2:	2100      	movs	r1, #0
 8003bd4:	200c      	movs	r0, #12
 8003bd6:	f7ff fde6 	bl	80037a6 <send_cmd>
 8003bda:	f7ff fd4f 	bl	800367c <despiselect>
 8003bde:	683b      	ldr	r3, [r7, #0]
 8003be0:	1e5a      	subs	r2, r3, #1
 8003be2:	4193      	sbcs	r3, r2
 8003be4:	b2db      	uxtb	r3, r3
 8003be6:	0018      	movs	r0, r3
 8003be8:	46bd      	mov	sp, r7
 8003bea:	b004      	add	sp, #16
 8003bec:	bd80      	pop	{r7, pc}
 8003bee:	46c0      	nop			; (mov r8, r8)
 8003bf0:	20000020 	.word	0x20000020
 8003bf4:	20000608 	.word	0x20000608

08003bf8 <USER_SPI_write>:
 8003bf8:	b580      	push	{r7, lr}
 8003bfa:	b084      	sub	sp, #16
 8003bfc:	af00      	add	r7, sp, #0
 8003bfe:	60b9      	str	r1, [r7, #8]
 8003c00:	607a      	str	r2, [r7, #4]
 8003c02:	603b      	str	r3, [r7, #0]
 8003c04:	210f      	movs	r1, #15
 8003c06:	187b      	adds	r3, r7, r1
 8003c08:	1c02      	adds	r2, r0, #0
 8003c0a:	701a      	strb	r2, [r3, #0]
 8003c0c:	187b      	adds	r3, r7, r1
 8003c0e:	781b      	ldrb	r3, [r3, #0]
 8003c10:	2b00      	cmp	r3, #0
 8003c12:	d102      	bne.n	8003c1a <USER_SPI_write+0x22>
 8003c14:	683b      	ldr	r3, [r7, #0]
 8003c16:	2b00      	cmp	r3, #0
 8003c18:	d101      	bne.n	8003c1e <USER_SPI_write+0x26>
 8003c1a:	2304      	movs	r3, #4
 8003c1c:	e063      	b.n	8003ce6 <USER_SPI_write+0xee>
 8003c1e:	4b34      	ldr	r3, [pc, #208]	; (8003cf0 <USER_SPI_write+0xf8>)
 8003c20:	781b      	ldrb	r3, [r3, #0]
 8003c22:	b2db      	uxtb	r3, r3
 8003c24:	001a      	movs	r2, r3
 8003c26:	2301      	movs	r3, #1
 8003c28:	4013      	ands	r3, r2
 8003c2a:	d001      	beq.n	8003c30 <USER_SPI_write+0x38>
 8003c2c:	2303      	movs	r3, #3
 8003c2e:	e05a      	b.n	8003ce6 <USER_SPI_write+0xee>
 8003c30:	4b2f      	ldr	r3, [pc, #188]	; (8003cf0 <USER_SPI_write+0xf8>)
 8003c32:	781b      	ldrb	r3, [r3, #0]
 8003c34:	b2db      	uxtb	r3, r3
 8003c36:	001a      	movs	r2, r3
 8003c38:	2304      	movs	r3, #4
 8003c3a:	4013      	ands	r3, r2
 8003c3c:	d001      	beq.n	8003c42 <USER_SPI_write+0x4a>
 8003c3e:	2302      	movs	r3, #2
 8003c40:	e051      	b.n	8003ce6 <USER_SPI_write+0xee>
 8003c42:	4b2c      	ldr	r3, [pc, #176]	; (8003cf4 <USER_SPI_write+0xfc>)
 8003c44:	781b      	ldrb	r3, [r3, #0]
 8003c46:	001a      	movs	r2, r3
 8003c48:	2308      	movs	r3, #8
 8003c4a:	4013      	ands	r3, r2
 8003c4c:	d102      	bne.n	8003c54 <USER_SPI_write+0x5c>
 8003c4e:	687b      	ldr	r3, [r7, #4]
 8003c50:	025b      	lsls	r3, r3, #9
 8003c52:	607b      	str	r3, [r7, #4]
 8003c54:	683b      	ldr	r3, [r7, #0]
 8003c56:	2b01      	cmp	r3, #1
 8003c58:	d110      	bne.n	8003c7c <USER_SPI_write+0x84>
 8003c5a:	687b      	ldr	r3, [r7, #4]
 8003c5c:	0019      	movs	r1, r3
 8003c5e:	2018      	movs	r0, #24
 8003c60:	f7ff fda1 	bl	80037a6 <send_cmd>
 8003c64:	1e03      	subs	r3, r0, #0
 8003c66:	d138      	bne.n	8003cda <USER_SPI_write+0xe2>
 8003c68:	68bb      	ldr	r3, [r7, #8]
 8003c6a:	21fe      	movs	r1, #254	; 0xfe
 8003c6c:	0018      	movs	r0, r3
 8003c6e:	f7ff fd60 	bl	8003732 <xmit_datablock>
 8003c72:	1e03      	subs	r3, r0, #0
 8003c74:	d031      	beq.n	8003cda <USER_SPI_write+0xe2>
 8003c76:	2300      	movs	r3, #0
 8003c78:	603b      	str	r3, [r7, #0]
 8003c7a:	e02e      	b.n	8003cda <USER_SPI_write+0xe2>
 8003c7c:	4b1d      	ldr	r3, [pc, #116]	; (8003cf4 <USER_SPI_write+0xfc>)
 8003c7e:	781b      	ldrb	r3, [r3, #0]
 8003c80:	001a      	movs	r2, r3
 8003c82:	2306      	movs	r3, #6
 8003c84:	4013      	ands	r3, r2
 8003c86:	d004      	beq.n	8003c92 <USER_SPI_write+0x9a>
 8003c88:	683b      	ldr	r3, [r7, #0]
 8003c8a:	0019      	movs	r1, r3
 8003c8c:	2097      	movs	r0, #151	; 0x97
 8003c8e:	f7ff fd8a 	bl	80037a6 <send_cmd>
 8003c92:	687b      	ldr	r3, [r7, #4]
 8003c94:	0019      	movs	r1, r3
 8003c96:	2019      	movs	r0, #25
 8003c98:	f7ff fd85 	bl	80037a6 <send_cmd>
 8003c9c:	1e03      	subs	r3, r0, #0
 8003c9e:	d11c      	bne.n	8003cda <USER_SPI_write+0xe2>
 8003ca0:	68bb      	ldr	r3, [r7, #8]
 8003ca2:	21fc      	movs	r1, #252	; 0xfc
 8003ca4:	0018      	movs	r0, r3
 8003ca6:	f7ff fd44 	bl	8003732 <xmit_datablock>
 8003caa:	1e03      	subs	r3, r0, #0
 8003cac:	d00c      	beq.n	8003cc8 <USER_SPI_write+0xd0>
 8003cae:	68bb      	ldr	r3, [r7, #8]
 8003cb0:	2280      	movs	r2, #128	; 0x80
 8003cb2:	0092      	lsls	r2, r2, #2
 8003cb4:	4694      	mov	ip, r2
 8003cb6:	4463      	add	r3, ip
 8003cb8:	60bb      	str	r3, [r7, #8]
 8003cba:	683b      	ldr	r3, [r7, #0]
 8003cbc:	3b01      	subs	r3, #1
 8003cbe:	603b      	str	r3, [r7, #0]
 8003cc0:	683b      	ldr	r3, [r7, #0]
 8003cc2:	2b00      	cmp	r3, #0
 8003cc4:	d1ec      	bne.n	8003ca0 <USER_SPI_write+0xa8>
 8003cc6:	e000      	b.n	8003cca <USER_SPI_write+0xd2>
 8003cc8:	46c0      	nop			; (mov r8, r8)
 8003cca:	21fd      	movs	r1, #253	; 0xfd
 8003ccc:	2000      	movs	r0, #0
 8003cce:	f7ff fd30 	bl	8003732 <xmit_datablock>
 8003cd2:	1e03      	subs	r3, r0, #0
 8003cd4:	d101      	bne.n	8003cda <USER_SPI_write+0xe2>
 8003cd6:	2301      	movs	r3, #1
 8003cd8:	603b      	str	r3, [r7, #0]
 8003cda:	f7ff fccf 	bl	800367c <despiselect>
 8003cde:	683b      	ldr	r3, [r7, #0]
 8003ce0:	1e5a      	subs	r2, r3, #1
 8003ce2:	4193      	sbcs	r3, r2
 8003ce4:	b2db      	uxtb	r3, r3
 8003ce6:	0018      	movs	r0, r3
 8003ce8:	46bd      	mov	sp, r7
 8003cea:	b004      	add	sp, #16
 8003cec:	bd80      	pop	{r7, pc}
 8003cee:	46c0      	nop			; (mov r8, r8)
 8003cf0:	20000020 	.word	0x20000020
 8003cf4:	20000608 	.word	0x20000608

08003cf8 <USER_SPI_ioctl>:
 8003cf8:	b590      	push	{r4, r7, lr}
 8003cfa:	b08d      	sub	sp, #52	; 0x34
 8003cfc:	af00      	add	r7, sp, #0
 8003cfe:	603a      	str	r2, [r7, #0]
 8003d00:	1dfb      	adds	r3, r7, #7
 8003d02:	1c02      	adds	r2, r0, #0
 8003d04:	701a      	strb	r2, [r3, #0]
 8003d06:	1dbb      	adds	r3, r7, #6
 8003d08:	1c0a      	adds	r2, r1, #0
 8003d0a:	701a      	strb	r2, [r3, #0]
 8003d0c:	1dfb      	adds	r3, r7, #7
 8003d0e:	781b      	ldrb	r3, [r3, #0]
 8003d10:	2b00      	cmp	r3, #0
 8003d12:	d001      	beq.n	8003d18 <USER_SPI_ioctl+0x20>
 8003d14:	2304      	movs	r3, #4
 8003d16:	e178      	b.n	800400a <USER_SPI_ioctl+0x312>
 8003d18:	4bbe      	ldr	r3, [pc, #760]	; (8004014 <USER_SPI_ioctl+0x31c>)
 8003d1a:	781b      	ldrb	r3, [r3, #0]
 8003d1c:	b2db      	uxtb	r3, r3
 8003d1e:	001a      	movs	r2, r3
 8003d20:	2301      	movs	r3, #1
 8003d22:	4013      	ands	r3, r2
 8003d24:	d001      	beq.n	8003d2a <USER_SPI_ioctl+0x32>
 8003d26:	2303      	movs	r3, #3
 8003d28:	e16f      	b.n	800400a <USER_SPI_ioctl+0x312>
 8003d2a:	232f      	movs	r3, #47	; 0x2f
 8003d2c:	18fb      	adds	r3, r7, r3
 8003d2e:	2201      	movs	r2, #1
 8003d30:	701a      	strb	r2, [r3, #0]
 8003d32:	1dbb      	adds	r3, r7, #6
 8003d34:	781b      	ldrb	r3, [r3, #0]
 8003d36:	2b04      	cmp	r3, #4
 8003d38:	d100      	bne.n	8003d3c <USER_SPI_ioctl+0x44>
 8003d3a:	e100      	b.n	8003f3e <USER_SPI_ioctl+0x246>
 8003d3c:	dd00      	ble.n	8003d40 <USER_SPI_ioctl+0x48>
 8003d3e:	e14d      	b.n	8003fdc <USER_SPI_ioctl+0x2e4>
 8003d40:	2b03      	cmp	r3, #3
 8003d42:	d100      	bne.n	8003d46 <USER_SPI_ioctl+0x4e>
 8003d44:	e074      	b.n	8003e30 <USER_SPI_ioctl+0x138>
 8003d46:	dd00      	ble.n	8003d4a <USER_SPI_ioctl+0x52>
 8003d48:	e148      	b.n	8003fdc <USER_SPI_ioctl+0x2e4>
 8003d4a:	2b00      	cmp	r3, #0
 8003d4c:	d002      	beq.n	8003d54 <USER_SPI_ioctl+0x5c>
 8003d4e:	2b01      	cmp	r3, #1
 8003d50:	d00a      	beq.n	8003d68 <USER_SPI_ioctl+0x70>
 8003d52:	e143      	b.n	8003fdc <USER_SPI_ioctl+0x2e4>
 8003d54:	f7ff fca2 	bl	800369c <spiselect>
 8003d58:	1e03      	subs	r3, r0, #0
 8003d5a:	d100      	bne.n	8003d5e <USER_SPI_ioctl+0x66>
 8003d5c:	e143      	b.n	8003fe6 <USER_SPI_ioctl+0x2ee>
 8003d5e:	232f      	movs	r3, #47	; 0x2f
 8003d60:	18fb      	adds	r3, r7, r3
 8003d62:	2200      	movs	r2, #0
 8003d64:	701a      	strb	r2, [r3, #0]
 8003d66:	e13e      	b.n	8003fe6 <USER_SPI_ioctl+0x2ee>
 8003d68:	2100      	movs	r1, #0
 8003d6a:	2009      	movs	r0, #9
 8003d6c:	f7ff fd1b 	bl	80037a6 <send_cmd>
 8003d70:	1e03      	subs	r3, r0, #0
 8003d72:	d000      	beq.n	8003d76 <USER_SPI_ioctl+0x7e>
 8003d74:	e139      	b.n	8003fea <USER_SPI_ioctl+0x2f2>
 8003d76:	240c      	movs	r4, #12
 8003d78:	193b      	adds	r3, r7, r4
 8003d7a:	2110      	movs	r1, #16
 8003d7c:	0018      	movs	r0, r3
 8003d7e:	f7ff fca9 	bl	80036d4 <rcvr_datablock>
 8003d82:	1e03      	subs	r3, r0, #0
 8003d84:	d100      	bne.n	8003d88 <USER_SPI_ioctl+0x90>
 8003d86:	e130      	b.n	8003fea <USER_SPI_ioctl+0x2f2>
 8003d88:	0020      	movs	r0, r4
 8003d8a:	183b      	adds	r3, r7, r0
 8003d8c:	781b      	ldrb	r3, [r3, #0]
 8003d8e:	099b      	lsrs	r3, r3, #6
 8003d90:	b2db      	uxtb	r3, r3
 8003d92:	2b01      	cmp	r3, #1
 8003d94:	d115      	bne.n	8003dc2 <USER_SPI_ioctl+0xca>
 8003d96:	183b      	adds	r3, r7, r0
 8003d98:	7a5b      	ldrb	r3, [r3, #9]
 8003d9a:	001a      	movs	r2, r3
 8003d9c:	183b      	adds	r3, r7, r0
 8003d9e:	7a1b      	ldrb	r3, [r3, #8]
 8003da0:	021b      	lsls	r3, r3, #8
 8003da2:	18d3      	adds	r3, r2, r3
 8003da4:	0019      	movs	r1, r3
 8003da6:	183b      	adds	r3, r7, r0
 8003da8:	79db      	ldrb	r3, [r3, #7]
 8003daa:	041a      	lsls	r2, r3, #16
 8003dac:	23fc      	movs	r3, #252	; 0xfc
 8003dae:	039b      	lsls	r3, r3, #14
 8003db0:	4013      	ands	r3, r2
 8003db2:	18cb      	adds	r3, r1, r3
 8003db4:	3301      	adds	r3, #1
 8003db6:	61fb      	str	r3, [r7, #28]
 8003db8:	69fb      	ldr	r3, [r7, #28]
 8003dba:	029a      	lsls	r2, r3, #10
 8003dbc:	683b      	ldr	r3, [r7, #0]
 8003dbe:	601a      	str	r2, [r3, #0]
 8003dc0:	e031      	b.n	8003e26 <USER_SPI_ioctl+0x12e>
 8003dc2:	200c      	movs	r0, #12
 8003dc4:	183b      	adds	r3, r7, r0
 8003dc6:	795b      	ldrb	r3, [r3, #5]
 8003dc8:	220f      	movs	r2, #15
 8003dca:	4013      	ands	r3, r2
 8003dcc:	b2da      	uxtb	r2, r3
 8003dce:	183b      	adds	r3, r7, r0
 8003dd0:	7a9b      	ldrb	r3, [r3, #10]
 8003dd2:	09db      	lsrs	r3, r3, #7
 8003dd4:	b2db      	uxtb	r3, r3
 8003dd6:	18d3      	adds	r3, r2, r3
 8003dd8:	b2da      	uxtb	r2, r3
 8003dda:	183b      	adds	r3, r7, r0
 8003ddc:	7a5b      	ldrb	r3, [r3, #9]
 8003dde:	005b      	lsls	r3, r3, #1
 8003de0:	b2db      	uxtb	r3, r3
 8003de2:	2106      	movs	r1, #6
 8003de4:	400b      	ands	r3, r1
 8003de6:	b2db      	uxtb	r3, r3
 8003de8:	18d3      	adds	r3, r2, r3
 8003dea:	b2da      	uxtb	r2, r3
 8003dec:	242e      	movs	r4, #46	; 0x2e
 8003dee:	193b      	adds	r3, r7, r4
 8003df0:	3202      	adds	r2, #2
 8003df2:	701a      	strb	r2, [r3, #0]
 8003df4:	183b      	adds	r3, r7, r0
 8003df6:	7a1b      	ldrb	r3, [r3, #8]
 8003df8:	099b      	lsrs	r3, r3, #6
 8003dfa:	b2db      	uxtb	r3, r3
 8003dfc:	001a      	movs	r2, r3
 8003dfe:	183b      	adds	r3, r7, r0
 8003e00:	79db      	ldrb	r3, [r3, #7]
 8003e02:	009b      	lsls	r3, r3, #2
 8003e04:	18d2      	adds	r2, r2, r3
 8003e06:	183b      	adds	r3, r7, r0
 8003e08:	799b      	ldrb	r3, [r3, #6]
 8003e0a:	0299      	lsls	r1, r3, #10
 8003e0c:	23c0      	movs	r3, #192	; 0xc0
 8003e0e:	011b      	lsls	r3, r3, #4
 8003e10:	400b      	ands	r3, r1
 8003e12:	18d3      	adds	r3, r2, r3
 8003e14:	3301      	adds	r3, #1
 8003e16:	61fb      	str	r3, [r7, #28]
 8003e18:	193b      	adds	r3, r7, r4
 8003e1a:	781b      	ldrb	r3, [r3, #0]
 8003e1c:	3b09      	subs	r3, #9
 8003e1e:	69fa      	ldr	r2, [r7, #28]
 8003e20:	409a      	lsls	r2, r3
 8003e22:	683b      	ldr	r3, [r7, #0]
 8003e24:	601a      	str	r2, [r3, #0]
 8003e26:	232f      	movs	r3, #47	; 0x2f
 8003e28:	18fb      	adds	r3, r7, r3
 8003e2a:	2200      	movs	r2, #0
 8003e2c:	701a      	strb	r2, [r3, #0]
 8003e2e:	e0dc      	b.n	8003fea <USER_SPI_ioctl+0x2f2>
 8003e30:	4b79      	ldr	r3, [pc, #484]	; (8004018 <USER_SPI_ioctl+0x320>)
 8003e32:	781b      	ldrb	r3, [r3, #0]
 8003e34:	001a      	movs	r2, r3
 8003e36:	2304      	movs	r3, #4
 8003e38:	4013      	ands	r3, r2
 8003e3a:	d035      	beq.n	8003ea8 <USER_SPI_ioctl+0x1b0>
 8003e3c:	2100      	movs	r1, #0
 8003e3e:	208d      	movs	r0, #141	; 0x8d
 8003e40:	f7ff fcb1 	bl	80037a6 <send_cmd>
 8003e44:	1e03      	subs	r3, r0, #0
 8003e46:	d000      	beq.n	8003e4a <USER_SPI_ioctl+0x152>
 8003e48:	e0d1      	b.n	8003fee <USER_SPI_ioctl+0x2f6>
 8003e4a:	20ff      	movs	r0, #255	; 0xff
 8003e4c:	f7ff fba6 	bl	800359c <xchg_spi>
 8003e50:	230c      	movs	r3, #12
 8003e52:	18fb      	adds	r3, r7, r3
 8003e54:	2110      	movs	r1, #16
 8003e56:	0018      	movs	r0, r3
 8003e58:	f7ff fc3c 	bl	80036d4 <rcvr_datablock>
 8003e5c:	1e03      	subs	r3, r0, #0
 8003e5e:	d100      	bne.n	8003e62 <USER_SPI_ioctl+0x16a>
 8003e60:	e0c5      	b.n	8003fee <USER_SPI_ioctl+0x2f6>
 8003e62:	232e      	movs	r3, #46	; 0x2e
 8003e64:	18fb      	adds	r3, r7, r3
 8003e66:	2230      	movs	r2, #48	; 0x30
 8003e68:	701a      	strb	r2, [r3, #0]
 8003e6a:	e008      	b.n	8003e7e <USER_SPI_ioctl+0x186>
 8003e6c:	20ff      	movs	r0, #255	; 0xff
 8003e6e:	f7ff fb95 	bl	800359c <xchg_spi>
 8003e72:	212e      	movs	r1, #46	; 0x2e
 8003e74:	187b      	adds	r3, r7, r1
 8003e76:	781a      	ldrb	r2, [r3, #0]
 8003e78:	187b      	adds	r3, r7, r1
 8003e7a:	3a01      	subs	r2, #1
 8003e7c:	701a      	strb	r2, [r3, #0]
 8003e7e:	232e      	movs	r3, #46	; 0x2e
 8003e80:	18fb      	adds	r3, r7, r3
 8003e82:	781b      	ldrb	r3, [r3, #0]
 8003e84:	2b00      	cmp	r3, #0
 8003e86:	d1f1      	bne.n	8003e6c <USER_SPI_ioctl+0x174>
 8003e88:	230c      	movs	r3, #12
 8003e8a:	18fb      	adds	r3, r7, r3
 8003e8c:	7a9b      	ldrb	r3, [r3, #10]
 8003e8e:	091b      	lsrs	r3, r3, #4
 8003e90:	b2db      	uxtb	r3, r3
 8003e92:	001a      	movs	r2, r3
 8003e94:	2310      	movs	r3, #16
 8003e96:	4093      	lsls	r3, r2
 8003e98:	001a      	movs	r2, r3
 8003e9a:	683b      	ldr	r3, [r7, #0]
 8003e9c:	601a      	str	r2, [r3, #0]
 8003e9e:	232f      	movs	r3, #47	; 0x2f
 8003ea0:	18fb      	adds	r3, r7, r3
 8003ea2:	2200      	movs	r2, #0
 8003ea4:	701a      	strb	r2, [r3, #0]
 8003ea6:	e0a2      	b.n	8003fee <USER_SPI_ioctl+0x2f6>
 8003ea8:	2100      	movs	r1, #0
 8003eaa:	2009      	movs	r0, #9
 8003eac:	f7ff fc7b 	bl	80037a6 <send_cmd>
 8003eb0:	1e03      	subs	r3, r0, #0
 8003eb2:	d000      	beq.n	8003eb6 <USER_SPI_ioctl+0x1be>
 8003eb4:	e09b      	b.n	8003fee <USER_SPI_ioctl+0x2f6>
 8003eb6:	240c      	movs	r4, #12
 8003eb8:	193b      	adds	r3, r7, r4
 8003eba:	2110      	movs	r1, #16
 8003ebc:	0018      	movs	r0, r3
 8003ebe:	f7ff fc09 	bl	80036d4 <rcvr_datablock>
 8003ec2:	1e03      	subs	r3, r0, #0
 8003ec4:	d100      	bne.n	8003ec8 <USER_SPI_ioctl+0x1d0>
 8003ec6:	e092      	b.n	8003fee <USER_SPI_ioctl+0x2f6>
 8003ec8:	4b53      	ldr	r3, [pc, #332]	; (8004018 <USER_SPI_ioctl+0x320>)
 8003eca:	781b      	ldrb	r3, [r3, #0]
 8003ecc:	001a      	movs	r2, r3
 8003ece:	2302      	movs	r3, #2
 8003ed0:	4013      	ands	r3, r2
 8003ed2:	d016      	beq.n	8003f02 <USER_SPI_ioctl+0x20a>
 8003ed4:	0021      	movs	r1, r4
 8003ed6:	187b      	adds	r3, r7, r1
 8003ed8:	7a9b      	ldrb	r3, [r3, #10]
 8003eda:	005b      	lsls	r3, r3, #1
 8003edc:	227e      	movs	r2, #126	; 0x7e
 8003ede:	4013      	ands	r3, r2
 8003ee0:	187a      	adds	r2, r7, r1
 8003ee2:	7ad2      	ldrb	r2, [r2, #11]
 8003ee4:	09d2      	lsrs	r2, r2, #7
 8003ee6:	b2d2      	uxtb	r2, r2
 8003ee8:	189b      	adds	r3, r3, r2
 8003eea:	1c5a      	adds	r2, r3, #1
 8003eec:	187b      	adds	r3, r7, r1
 8003eee:	7b5b      	ldrb	r3, [r3, #13]
 8003ef0:	099b      	lsrs	r3, r3, #6
 8003ef2:	b2db      	uxtb	r3, r3
 8003ef4:	3b01      	subs	r3, #1
 8003ef6:	409a      	lsls	r2, r3
 8003ef8:	0013      	movs	r3, r2
 8003efa:	001a      	movs	r2, r3
 8003efc:	683b      	ldr	r3, [r7, #0]
 8003efe:	601a      	str	r2, [r3, #0]
 8003f00:	e018      	b.n	8003f34 <USER_SPI_ioctl+0x23c>
 8003f02:	210c      	movs	r1, #12
 8003f04:	187b      	adds	r3, r7, r1
 8003f06:	7a9b      	ldrb	r3, [r3, #10]
 8003f08:	109b      	asrs	r3, r3, #2
 8003f0a:	b29b      	uxth	r3, r3
 8003f0c:	001a      	movs	r2, r3
 8003f0e:	231f      	movs	r3, #31
 8003f10:	4013      	ands	r3, r2
 8003f12:	3301      	adds	r3, #1
 8003f14:	0008      	movs	r0, r1
 8003f16:	187a      	adds	r2, r7, r1
 8003f18:	7ad2      	ldrb	r2, [r2, #11]
 8003f1a:	00d2      	lsls	r2, r2, #3
 8003f1c:	2118      	movs	r1, #24
 8003f1e:	400a      	ands	r2, r1
 8003f20:	1839      	adds	r1, r7, r0
 8003f22:	7ac9      	ldrb	r1, [r1, #11]
 8003f24:	0949      	lsrs	r1, r1, #5
 8003f26:	b2c9      	uxtb	r1, r1
 8003f28:	1852      	adds	r2, r2, r1
 8003f2a:	3201      	adds	r2, #1
 8003f2c:	4353      	muls	r3, r2
 8003f2e:	001a      	movs	r2, r3
 8003f30:	683b      	ldr	r3, [r7, #0]
 8003f32:	601a      	str	r2, [r3, #0]
 8003f34:	232f      	movs	r3, #47	; 0x2f
 8003f36:	18fb      	adds	r3, r7, r3
 8003f38:	2200      	movs	r2, #0
 8003f3a:	701a      	strb	r2, [r3, #0]
 8003f3c:	e057      	b.n	8003fee <USER_SPI_ioctl+0x2f6>
 8003f3e:	4b36      	ldr	r3, [pc, #216]	; (8004018 <USER_SPI_ioctl+0x320>)
 8003f40:	781b      	ldrb	r3, [r3, #0]
 8003f42:	001a      	movs	r2, r3
 8003f44:	2306      	movs	r3, #6
 8003f46:	4013      	ands	r3, r2
 8003f48:	d053      	beq.n	8003ff2 <USER_SPI_ioctl+0x2fa>
 8003f4a:	240c      	movs	r4, #12
 8003f4c:	193a      	adds	r2, r7, r4
 8003f4e:	1dfb      	adds	r3, r7, #7
 8003f50:	781b      	ldrb	r3, [r3, #0]
 8003f52:	210b      	movs	r1, #11
 8003f54:	0018      	movs	r0, r3
 8003f56:	f7ff fecf 	bl	8003cf8 <USER_SPI_ioctl>
 8003f5a:	1e03      	subs	r3, r0, #0
 8003f5c:	d14b      	bne.n	8003ff6 <USER_SPI_ioctl+0x2fe>
 8003f5e:	193b      	adds	r3, r7, r4
 8003f60:	781b      	ldrb	r3, [r3, #0]
 8003f62:	099b      	lsrs	r3, r3, #6
 8003f64:	b2db      	uxtb	r3, r3
 8003f66:	2b00      	cmp	r3, #0
 8003f68:	d105      	bne.n	8003f76 <USER_SPI_ioctl+0x27e>
 8003f6a:	193b      	adds	r3, r7, r4
 8003f6c:	7a9b      	ldrb	r3, [r3, #10]
 8003f6e:	001a      	movs	r2, r3
 8003f70:	2340      	movs	r3, #64	; 0x40
 8003f72:	4013      	ands	r3, r2
 8003f74:	d041      	beq.n	8003ffa <USER_SPI_ioctl+0x302>
 8003f76:	683b      	ldr	r3, [r7, #0]
 8003f78:	623b      	str	r3, [r7, #32]
 8003f7a:	6a3b      	ldr	r3, [r7, #32]
 8003f7c:	681b      	ldr	r3, [r3, #0]
 8003f7e:	62bb      	str	r3, [r7, #40]	; 0x28
 8003f80:	6a3b      	ldr	r3, [r7, #32]
 8003f82:	685b      	ldr	r3, [r3, #4]
 8003f84:	627b      	str	r3, [r7, #36]	; 0x24
 8003f86:	4b24      	ldr	r3, [pc, #144]	; (8004018 <USER_SPI_ioctl+0x320>)
 8003f88:	781b      	ldrb	r3, [r3, #0]
 8003f8a:	001a      	movs	r2, r3
 8003f8c:	2308      	movs	r3, #8
 8003f8e:	4013      	ands	r3, r2
 8003f90:	d105      	bne.n	8003f9e <USER_SPI_ioctl+0x2a6>
 8003f92:	6abb      	ldr	r3, [r7, #40]	; 0x28
 8003f94:	025b      	lsls	r3, r3, #9
 8003f96:	62bb      	str	r3, [r7, #40]	; 0x28
 8003f98:	6a7b      	ldr	r3, [r7, #36]	; 0x24
 8003f9a:	025b      	lsls	r3, r3, #9
 8003f9c:	627b      	str	r3, [r7, #36]	; 0x24
 8003f9e:	6abb      	ldr	r3, [r7, #40]	; 0x28
 8003fa0:	0019      	movs	r1, r3
 8003fa2:	2020      	movs	r0, #32
 8003fa4:	f7ff fbff 	bl	80037a6 <send_cmd>
 8003fa8:	1e03      	subs	r3, r0, #0
 8003faa:	d128      	bne.n	8003ffe <USER_SPI_ioctl+0x306>
 8003fac:	6a7b      	ldr	r3, [r7, #36]	; 0x24
 8003fae:	0019      	movs	r1, r3
 8003fb0:	2021      	movs	r0, #33	; 0x21
 8003fb2:	f7ff fbf8 	bl	80037a6 <send_cmd>
 8003fb6:	1e03      	subs	r3, r0, #0
 8003fb8:	d121      	bne.n	8003ffe <USER_SPI_ioctl+0x306>
 8003fba:	2100      	movs	r1, #0
 8003fbc:	2026      	movs	r0, #38	; 0x26
 8003fbe:	f7ff fbf2 	bl	80037a6 <send_cmd>
 8003fc2:	1e03      	subs	r3, r0, #0
 8003fc4:	d11b      	bne.n	8003ffe <USER_SPI_ioctl+0x306>
 8003fc6:	4b15      	ldr	r3, [pc, #84]	; (800401c <USER_SPI_ioctl+0x324>)
 8003fc8:	0018      	movs	r0, r3
 8003fca:	f7ff fb2f 	bl	800362c <wait_ready>
 8003fce:	1e03      	subs	r3, r0, #0
 8003fd0:	d015      	beq.n	8003ffe <USER_SPI_ioctl+0x306>
 8003fd2:	232f      	movs	r3, #47	; 0x2f
 8003fd4:	18fb      	adds	r3, r7, r3
 8003fd6:	2200      	movs	r2, #0
 8003fd8:	701a      	strb	r2, [r3, #0]
 8003fda:	e010      	b.n	8003ffe <USER_SPI_ioctl+0x306>
 8003fdc:	232f      	movs	r3, #47	; 0x2f
 8003fde:	18fb      	adds	r3, r7, r3
 8003fe0:	2204      	movs	r2, #4
 8003fe2:	701a      	strb	r2, [r3, #0]
 8003fe4:	e00c      	b.n	8004000 <USER_SPI_ioctl+0x308>
 8003fe6:	46c0      	nop			; (mov r8, r8)
 8003fe8:	e00a      	b.n	8004000 <USER_SPI_ioctl+0x308>
 8003fea:	46c0      	nop			; (mov r8, r8)
 8003fec:	e008      	b.n	8004000 <USER_SPI_ioctl+0x308>
 8003fee:	46c0      	nop			; (mov r8, r8)
 8003ff0:	e006      	b.n	8004000 <USER_SPI_ioctl+0x308>
 8003ff2:	46c0      	nop			; (mov r8, r8)
 8003ff4:	e004      	b.n	8004000 <USER_SPI_ioctl+0x308>
 8003ff6:	46c0      	nop			; (mov r8, r8)
 8003ff8:	e002      	b.n	8004000 <USER_SPI_ioctl+0x308>
 8003ffa:	46c0      	nop			; (mov r8, r8)
 8003ffc:	e000      	b.n	8004000 <USER_SPI_ioctl+0x308>
 8003ffe:	46c0      	nop			; (mov r8, r8)
 8004000:	f7ff fb3c 	bl	800367c <despiselect>
 8004004:	232f      	movs	r3, #47	; 0x2f
 8004006:	18fb      	adds	r3, r7, r3
 8004008:	781b      	ldrb	r3, [r3, #0]
 800400a:	0018      	movs	r0, r3
 800400c:	46bd      	mov	sp, r7
 800400e:	b00d      	add	sp, #52	; 0x34
 8004010:	bd90      	pop	{r4, r7, pc}
 8004012:	46c0      	nop			; (mov r8, r8)
 8004014:	20000020 	.word	0x20000020
 8004018:	20000608 	.word	0x20000608
 800401c:	00007530 	.word	0x00007530

08004020 <disk_status>:
 8004020:	b5b0      	push	{r4, r5, r7, lr}
 8004022:	b084      	sub	sp, #16
 8004024:	af00      	add	r7, sp, #0
 8004026:	0002      	movs	r2, r0
 8004028:	1dfb      	adds	r3, r7, #7
 800402a:	701a      	strb	r2, [r3, #0]
 800402c:	1dfb      	adds	r3, r7, #7
 800402e:	781b      	ldrb	r3, [r3, #0]
 8004030:	4a0b      	ldr	r2, [pc, #44]	; (8004060 <disk_status+0x40>)
 8004032:	009b      	lsls	r3, r3, #2
 8004034:	18d3      	adds	r3, r2, r3
 8004036:	3304      	adds	r3, #4
 8004038:	681b      	ldr	r3, [r3, #0]
 800403a:	685b      	ldr	r3, [r3, #4]
 800403c:	1dfa      	adds	r2, r7, #7
 800403e:	7812      	ldrb	r2, [r2, #0]
 8004040:	4907      	ldr	r1, [pc, #28]	; (8004060 <disk_status+0x40>)
 8004042:	188a      	adds	r2, r1, r2
 8004044:	7a12      	ldrb	r2, [r2, #8]
 8004046:	250f      	movs	r5, #15
 8004048:	197c      	adds	r4, r7, r5
 800404a:	0010      	movs	r0, r2
 800404c:	4798      	blx	r3
 800404e:	0003      	movs	r3, r0
 8004050:	7023      	strb	r3, [r4, #0]
 8004052:	197b      	adds	r3, r7, r5
 8004054:	781b      	ldrb	r3, [r3, #0]
 8004056:	0018      	movs	r0, r3
 8004058:	46bd      	mov	sp, r7
 800405a:	b004      	add	sp, #16
 800405c:	bdb0      	pop	{r4, r5, r7, pc}
 800405e:	46c0      	nop			; (mov r8, r8)
 8004060:	20000634 	.word	0x20000634

08004064 <disk_initialize>:
 8004064:	b590      	push	{r4, r7, lr}
 8004066:	b085      	sub	sp, #20
 8004068:	af00      	add	r7, sp, #0
 800406a:	0002      	movs	r2, r0
 800406c:	1dfb      	adds	r3, r7, #7
 800406e:	701a      	strb	r2, [r3, #0]
 8004070:	200f      	movs	r0, #15
 8004072:	183b      	adds	r3, r7, r0
 8004074:	2200      	movs	r2, #0
 8004076:	701a      	strb	r2, [r3, #0]
 8004078:	1dfb      	adds	r3, r7, #7
 800407a:	781b      	ldrb	r3, [r3, #0]
 800407c:	4a10      	ldr	r2, [pc, #64]	; (80040c0 <disk_initialize+0x5c>)
 800407e:	5cd3      	ldrb	r3, [r2, r3]
 8004080:	2b00      	cmp	r3, #0
 8004082:	d116      	bne.n	80040b2 <disk_initialize+0x4e>
 8004084:	1dfb      	adds	r3, r7, #7
 8004086:	781b      	ldrb	r3, [r3, #0]
 8004088:	4a0d      	ldr	r2, [pc, #52]	; (80040c0 <disk_initialize+0x5c>)
 800408a:	2101      	movs	r1, #1
 800408c:	54d1      	strb	r1, [r2, r3]
 800408e:	1dfb      	adds	r3, r7, #7
 8004090:	781b      	ldrb	r3, [r3, #0]
 8004092:	4a0b      	ldr	r2, [pc, #44]	; (80040c0 <disk_initialize+0x5c>)
 8004094:	009b      	lsls	r3, r3, #2
 8004096:	18d3      	adds	r3, r2, r3
 8004098:	3304      	adds	r3, #4
 800409a:	681b      	ldr	r3, [r3, #0]
 800409c:	681b      	ldr	r3, [r3, #0]
 800409e:	1dfa      	adds	r2, r7, #7
 80040a0:	7812      	ldrb	r2, [r2, #0]
 80040a2:	4907      	ldr	r1, [pc, #28]	; (80040c0 <disk_initialize+0x5c>)
 80040a4:	188a      	adds	r2, r1, r2
 80040a6:	7a12      	ldrb	r2, [r2, #8]
 80040a8:	183c      	adds	r4, r7, r0
 80040aa:	0010      	movs	r0, r2
 80040ac:	4798      	blx	r3
 80040ae:	0003      	movs	r3, r0
 80040b0:	7023      	strb	r3, [r4, #0]
 80040b2:	230f      	movs	r3, #15
 80040b4:	18fb      	adds	r3, r7, r3
 80040b6:	781b      	ldrb	r3, [r3, #0]
 80040b8:	0018      	movs	r0, r3
 80040ba:	46bd      	mov	sp, r7
 80040bc:	b005      	add	sp, #20
 80040be:	bd90      	pop	{r4, r7, pc}
 80040c0:	20000634 	.word	0x20000634

080040c4 <disk_read>:
 80040c4:	b5f0      	push	{r4, r5, r6, r7, lr}
 80040c6:	b087      	sub	sp, #28
 80040c8:	af00      	add	r7, sp, #0
 80040ca:	60b9      	str	r1, [r7, #8]
 80040cc:	607a      	str	r2, [r7, #4]
 80040ce:	603b      	str	r3, [r7, #0]
 80040d0:	210f      	movs	r1, #15
 80040d2:	187b      	adds	r3, r7, r1
 80040d4:	1c02      	adds	r2, r0, #0
 80040d6:	701a      	strb	r2, [r3, #0]
 80040d8:	187b      	adds	r3, r7, r1
 80040da:	781b      	ldrb	r3, [r3, #0]
 80040dc:	4a0c      	ldr	r2, [pc, #48]	; (8004110 <disk_read+0x4c>)
 80040de:	009b      	lsls	r3, r3, #2
 80040e0:	18d3      	adds	r3, r2, r3
 80040e2:	3304      	adds	r3, #4
 80040e4:	681b      	ldr	r3, [r3, #0]
 80040e6:	689d      	ldr	r5, [r3, #8]
 80040e8:	187b      	adds	r3, r7, r1
 80040ea:	781b      	ldrb	r3, [r3, #0]
 80040ec:	4a08      	ldr	r2, [pc, #32]	; (8004110 <disk_read+0x4c>)
 80040ee:	18d3      	adds	r3, r2, r3
 80040f0:	7a18      	ldrb	r0, [r3, #8]
 80040f2:	2617      	movs	r6, #23
 80040f4:	19bc      	adds	r4, r7, r6
 80040f6:	683b      	ldr	r3, [r7, #0]
 80040f8:	687a      	ldr	r2, [r7, #4]
 80040fa:	68b9      	ldr	r1, [r7, #8]
 80040fc:	47a8      	blx	r5
 80040fe:	0003      	movs	r3, r0
 8004100:	7023      	strb	r3, [r4, #0]
 8004102:	19bb      	adds	r3, r7, r6
 8004104:	781b      	ldrb	r3, [r3, #0]
 8004106:	0018      	movs	r0, r3
 8004108:	46bd      	mov	sp, r7
 800410a:	b007      	add	sp, #28
 800410c:	bdf0      	pop	{r4, r5, r6, r7, pc}
 800410e:	46c0      	nop			; (mov r8, r8)
 8004110:	20000634 	.word	0x20000634

08004114 <disk_write>:
 8004114:	b5f0      	push	{r4, r5, r6, r7, lr}
 8004116:	b087      	sub	sp, #28
 8004118:	af00      	add	r7, sp, #0
 800411a:	60b9      	str	r1, [r7, #8]
 800411c:	607a      	str	r2, [r7, #4]
 800411e:	603b      	str	r3, [r7, #0]
 8004120:	210f      	movs	r1, #15
 8004122:	187b      	adds	r3, r7, r1
 8004124:	1c02      	adds	r2, r0, #0
 8004126:	701a      	strb	r2, [r3, #0]
 8004128:	187b      	adds	r3, r7, r1
 800412a:	781b      	ldrb	r3, [r3, #0]
 800412c:	4a0c      	ldr	r2, [pc, #48]	; (8004160 <disk_write+0x4c>)
 800412e:	009b      	lsls	r3, r3, #2
 8004130:	18d3      	adds	r3, r2, r3
 8004132:	3304      	adds	r3, #4
 8004134:	681b      	ldr	r3, [r3, #0]
 8004136:	68dd      	ldr	r5, [r3, #12]
 8004138:	187b      	adds	r3, r7, r1
 800413a:	781b      	ldrb	r3, [r3, #0]
 800413c:	4a08      	ldr	r2, [pc, #32]	; (8004160 <disk_write+0x4c>)
 800413e:	18d3      	adds	r3, r2, r3
 8004140:	7a18      	ldrb	r0, [r3, #8]
 8004142:	2617      	movs	r6, #23
 8004144:	19bc      	adds	r4, r7, r6
 8004146:	683b      	ldr	r3, [r7, #0]
 8004148:	687a      	ldr	r2, [r7, #4]
 800414a:	68b9      	ldr	r1, [r7, #8]
 800414c:	47a8      	blx	r5
 800414e:	0003      	movs	r3, r0
 8004150:	7023      	strb	r3, [r4, #0]
 8004152:	19bb      	adds	r3, r7, r6
 8004154:	781b      	ldrb	r3, [r3, #0]
 8004156:	0018      	movs	r0, r3
 8004158:	46bd      	mov	sp, r7
 800415a:	b007      	add	sp, #28
 800415c:	bdf0      	pop	{r4, r5, r6, r7, pc}
 800415e:	46c0      	nop			; (mov r8, r8)
 8004160:	20000634 	.word	0x20000634

08004164 <disk_ioctl>:
 8004164:	b5f0      	push	{r4, r5, r6, r7, lr}
 8004166:	b085      	sub	sp, #20
 8004168:	af00      	add	r7, sp, #0
 800416a:	603a      	str	r2, [r7, #0]
 800416c:	1dfb      	adds	r3, r7, #7
 800416e:	1c02      	adds	r2, r0, #0
 8004170:	701a      	strb	r2, [r3, #0]
 8004172:	1dbb      	adds	r3, r7, #6
 8004174:	1c0a      	adds	r2, r1, #0
 8004176:	701a      	strb	r2, [r3, #0]
 8004178:	1dfb      	adds	r3, r7, #7
 800417a:	781b      	ldrb	r3, [r3, #0]
 800417c:	4a0c      	ldr	r2, [pc, #48]	; (80041b0 <disk_ioctl+0x4c>)
 800417e:	009b      	lsls	r3, r3, #2
 8004180:	18d3      	adds	r3, r2, r3
 8004182:	3304      	adds	r3, #4
 8004184:	681b      	ldr	r3, [r3, #0]
 8004186:	691b      	ldr	r3, [r3, #16]
 8004188:	1dfa      	adds	r2, r7, #7
 800418a:	7812      	ldrb	r2, [r2, #0]
 800418c:	4908      	ldr	r1, [pc, #32]	; (80041b0 <disk_ioctl+0x4c>)
 800418e:	188a      	adds	r2, r1, r2
 8004190:	7a10      	ldrb	r0, [r2, #8]
 8004192:	260f      	movs	r6, #15
 8004194:	19bc      	adds	r4, r7, r6
 8004196:	683d      	ldr	r5, [r7, #0]
 8004198:	1dba      	adds	r2, r7, #6
 800419a:	7811      	ldrb	r1, [r2, #0]
 800419c:	002a      	movs	r2, r5
 800419e:	4798      	blx	r3
 80041a0:	0003      	movs	r3, r0
 80041a2:	7023      	strb	r3, [r4, #0]
 80041a4:	19bb      	adds	r3, r7, r6
 80041a6:	781b      	ldrb	r3, [r3, #0]
 80041a8:	0018      	movs	r0, r3
 80041aa:	46bd      	mov	sp, r7
 80041ac:	b005      	add	sp, #20
 80041ae:	bdf0      	pop	{r4, r5, r6, r7, pc}
 80041b0:	20000634 	.word	0x20000634

080041b4 <mem_cpy>:
 80041b4:	b580      	push	{r7, lr}
 80041b6:	b086      	sub	sp, #24
 80041b8:	af00      	add	r7, sp, #0
 80041ba:	60f8      	str	r0, [r7, #12]
 80041bc:	60b9      	str	r1, [r7, #8]
 80041be:	607a      	str	r2, [r7, #4]
 80041c0:	68fb      	ldr	r3, [r7, #12]
 80041c2:	617b      	str	r3, [r7, #20]
 80041c4:	68bb      	ldr	r3, [r7, #8]
 80041c6:	613b      	str	r3, [r7, #16]
 80041c8:	e007      	b.n	80041da <mem_cpy+0x26>
 80041ca:	693a      	ldr	r2, [r7, #16]
 80041cc:	1c53      	adds	r3, r2, #1
 80041ce:	613b      	str	r3, [r7, #16]
 80041d0:	697b      	ldr	r3, [r7, #20]
 80041d2:	1c59      	adds	r1, r3, #1
 80041d4:	6179      	str	r1, [r7, #20]
 80041d6:	7812      	ldrb	r2, [r2, #0]
 80041d8:	701a      	strb	r2, [r3, #0]
 80041da:	687b      	ldr	r3, [r7, #4]
 80041dc:	1e5a      	subs	r2, r3, #1
 80041de:	607a      	str	r2, [r7, #4]
 80041e0:	2b00      	cmp	r3, #0
 80041e2:	d1f2      	bne.n	80041ca <mem_cpy+0x16>
 80041e4:	46c0      	nop			; (mov r8, r8)
 80041e6:	46c0      	nop			; (mov r8, r8)
 80041e8:	46bd      	mov	sp, r7
 80041ea:	b006      	add	sp, #24
 80041ec:	bd80      	pop	{r7, pc}

080041ee <mem_set>:
 80041ee:	b580      	push	{r7, lr}
 80041f0:	b086      	sub	sp, #24
 80041f2:	af00      	add	r7, sp, #0
 80041f4:	60f8      	str	r0, [r7, #12]
 80041f6:	60b9      	str	r1, [r7, #8]
 80041f8:	607a      	str	r2, [r7, #4]
 80041fa:	68fb      	ldr	r3, [r7, #12]
 80041fc:	617b      	str	r3, [r7, #20]
 80041fe:	e005      	b.n	800420c <mem_set+0x1e>
 8004200:	697b      	ldr	r3, [r7, #20]
 8004202:	1c5a      	adds	r2, r3, #1
 8004204:	617a      	str	r2, [r7, #20]
 8004206:	68ba      	ldr	r2, [r7, #8]
 8004208:	b2d2      	uxtb	r2, r2
 800420a:	701a      	strb	r2, [r3, #0]
 800420c:	687b      	ldr	r3, [r7, #4]
 800420e:	1e5a      	subs	r2, r3, #1
 8004210:	607a      	str	r2, [r7, #4]
 8004212:	2b00      	cmp	r3, #0
 8004214:	d1f4      	bne.n	8004200 <mem_set+0x12>
 8004216:	46c0      	nop			; (mov r8, r8)
 8004218:	46c0      	nop			; (mov r8, r8)
 800421a:	46bd      	mov	sp, r7
 800421c:	b006      	add	sp, #24
 800421e:	bd80      	pop	{r7, pc}

08004220 <mem_cmp>:
 8004220:	b580      	push	{r7, lr}
 8004222:	b088      	sub	sp, #32
 8004224:	af00      	add	r7, sp, #0
 8004226:	60f8      	str	r0, [r7, #12]
 8004228:	60b9      	str	r1, [r7, #8]
 800422a:	607a      	str	r2, [r7, #4]
 800422c:	68fb      	ldr	r3, [r7, #12]
 800422e:	61fb      	str	r3, [r7, #28]
 8004230:	68bb      	ldr	r3, [r7, #8]
 8004232:	61bb      	str	r3, [r7, #24]
 8004234:	2300      	movs	r3, #0
 8004236:	617b      	str	r3, [r7, #20]
 8004238:	46c0      	nop			; (mov r8, r8)
 800423a:	687b      	ldr	r3, [r7, #4]
 800423c:	1e5a      	subs	r2, r3, #1
 800423e:	607a      	str	r2, [r7, #4]
 8004240:	2b00      	cmp	r3, #0
 8004242:	d00d      	beq.n	8004260 <mem_cmp+0x40>
 8004244:	69fb      	ldr	r3, [r7, #28]
 8004246:	1c5a      	adds	r2, r3, #1
 8004248:	61fa      	str	r2, [r7, #28]
 800424a:	781b      	ldrb	r3, [r3, #0]
 800424c:	0019      	movs	r1, r3
 800424e:	69bb      	ldr	r3, [r7, #24]
 8004250:	1c5a      	adds	r2, r3, #1
 8004252:	61ba      	str	r2, [r7, #24]
 8004254:	781b      	ldrb	r3, [r3, #0]
 8004256:	1acb      	subs	r3, r1, r3
 8004258:	617b      	str	r3, [r7, #20]
 800425a:	697b      	ldr	r3, [r7, #20]
 800425c:	2b00      	cmp	r3, #0
 800425e:	d0ec      	beq.n	800423a <mem_cmp+0x1a>
 8004260:	697b      	ldr	r3, [r7, #20]
 8004262:	0018      	movs	r0, r3
 8004264:	46bd      	mov	sp, r7
 8004266:	b008      	add	sp, #32
 8004268:	bd80      	pop	{r7, pc}

0800426a <chk_chr>:
 800426a:	b580      	push	{r7, lr}
 800426c:	b082      	sub	sp, #8
 800426e:	af00      	add	r7, sp, #0
 8004270:	6078      	str	r0, [r7, #4]
 8004272:	6039      	str	r1, [r7, #0]
 8004274:	e002      	b.n	800427c <chk_chr+0x12>
 8004276:	687b      	ldr	r3, [r7, #4]
 8004278:	3301      	adds	r3, #1
 800427a:	607b      	str	r3, [r7, #4]
 800427c:	687b      	ldr	r3, [r7, #4]
 800427e:	781b      	ldrb	r3, [r3, #0]
 8004280:	2b00      	cmp	r3, #0
 8004282:	d005      	beq.n	8004290 <chk_chr+0x26>
 8004284:	687b      	ldr	r3, [r7, #4]
 8004286:	781b      	ldrb	r3, [r3, #0]
 8004288:	001a      	movs	r2, r3
 800428a:	683b      	ldr	r3, [r7, #0]
 800428c:	4293      	cmp	r3, r2
 800428e:	d1f2      	bne.n	8004276 <chk_chr+0xc>
 8004290:	687b      	ldr	r3, [r7, #4]
 8004292:	781b      	ldrb	r3, [r3, #0]
 8004294:	0018      	movs	r0, r3
 8004296:	46bd      	mov	sp, r7
 8004298:	b002      	add	sp, #8
 800429a:	bd80      	pop	{r7, pc}

0800429c <chk_lock>:
 800429c:	b580      	push	{r7, lr}
 800429e:	b084      	sub	sp, #16
 80042a0:	af00      	add	r7, sp, #0
 80042a2:	6078      	str	r0, [r7, #4]
 80042a4:	6039      	str	r1, [r7, #0]
 80042a6:	2300      	movs	r3, #0
 80042a8:	60bb      	str	r3, [r7, #8]
 80042aa:	68bb      	ldr	r3, [r7, #8]
 80042ac:	60fb      	str	r3, [r7, #12]
 80042ae:	e038      	b.n	8004322 <chk_lock+0x86>
 80042b0:	492f      	ldr	r1, [pc, #188]	; (8004370 <chk_lock+0xd4>)
 80042b2:	68fa      	ldr	r2, [r7, #12]
 80042b4:	0013      	movs	r3, r2
 80042b6:	005b      	lsls	r3, r3, #1
 80042b8:	189b      	adds	r3, r3, r2
 80042ba:	009b      	lsls	r3, r3, #2
 80042bc:	585b      	ldr	r3, [r3, r1]
 80042be:	2b00      	cmp	r3, #0
 80042c0:	d02a      	beq.n	8004318 <chk_lock+0x7c>
 80042c2:	492b      	ldr	r1, [pc, #172]	; (8004370 <chk_lock+0xd4>)
 80042c4:	68fa      	ldr	r2, [r7, #12]
 80042c6:	0013      	movs	r3, r2
 80042c8:	005b      	lsls	r3, r3, #1
 80042ca:	189b      	adds	r3, r3, r2
 80042cc:	009b      	lsls	r3, r3, #2
 80042ce:	585a      	ldr	r2, [r3, r1]
 80042d0:	6879      	ldr	r1, [r7, #4]
 80042d2:	2380      	movs	r3, #128	; 0x80
 80042d4:	009b      	lsls	r3, r3, #2
 80042d6:	58cb      	ldr	r3, [r1, r3]
 80042d8:	429a      	cmp	r2, r3
 80042da:	d11f      	bne.n	800431c <chk_lock+0x80>
 80042dc:	4924      	ldr	r1, [pc, #144]	; (8004370 <chk_lock+0xd4>)
 80042de:	68fa      	ldr	r2, [r7, #12]
 80042e0:	0013      	movs	r3, r2
 80042e2:	005b      	lsls	r3, r3, #1
 80042e4:	189b      	adds	r3, r3, r2
 80042e6:	009b      	lsls	r3, r3, #2
 80042e8:	18cb      	adds	r3, r1, r3
 80042ea:	3304      	adds	r3, #4
 80042ec:	681a      	ldr	r2, [r3, #0]
 80042ee:	6879      	ldr	r1, [r7, #4]
 80042f0:	2382      	movs	r3, #130	; 0x82
 80042f2:	009b      	lsls	r3, r3, #2
 80042f4:	58cb      	ldr	r3, [r1, r3]
 80042f6:	429a      	cmp	r2, r3
 80042f8:	d110      	bne.n	800431c <chk_lock+0x80>
 80042fa:	491d      	ldr	r1, [pc, #116]	; (8004370 <chk_lock+0xd4>)
 80042fc:	68fa      	ldr	r2, [r7, #12]
 80042fe:	0013      	movs	r3, r2
 8004300:	005b      	lsls	r3, r3, #1
 8004302:	189b      	adds	r3, r3, r2
 8004304:	009b      	lsls	r3, r3, #2
 8004306:	18cb      	adds	r3, r1, r3
 8004308:	3308      	adds	r3, #8
 800430a:	881a      	ldrh	r2, [r3, #0]
 800430c:	687b      	ldr	r3, [r7, #4]
 800430e:	4919      	ldr	r1, [pc, #100]	; (8004374 <chk_lock+0xd8>)
 8004310:	5a5b      	ldrh	r3, [r3, r1]
 8004312:	429a      	cmp	r2, r3
 8004314:	d102      	bne.n	800431c <chk_lock+0x80>
 8004316:	e007      	b.n	8004328 <chk_lock+0x8c>
 8004318:	2301      	movs	r3, #1
 800431a:	60bb      	str	r3, [r7, #8]
 800431c:	68fb      	ldr	r3, [r7, #12]
 800431e:	3301      	adds	r3, #1
 8004320:	60fb      	str	r3, [r7, #12]
 8004322:	68fb      	ldr	r3, [r7, #12]
 8004324:	2b01      	cmp	r3, #1
 8004326:	d9c3      	bls.n	80042b0 <chk_lock+0x14>
 8004328:	68fb      	ldr	r3, [r7, #12]
 800432a:	2b02      	cmp	r3, #2
 800432c:	d109      	bne.n	8004342 <chk_lock+0xa6>
 800432e:	68bb      	ldr	r3, [r7, #8]
 8004330:	2b00      	cmp	r3, #0
 8004332:	d102      	bne.n	800433a <chk_lock+0x9e>
 8004334:	683b      	ldr	r3, [r7, #0]
 8004336:	2b02      	cmp	r3, #2
 8004338:	d101      	bne.n	800433e <chk_lock+0xa2>
 800433a:	2300      	movs	r3, #0
 800433c:	e014      	b.n	8004368 <chk_lock+0xcc>
 800433e:	2312      	movs	r3, #18
 8004340:	e012      	b.n	8004368 <chk_lock+0xcc>
 8004342:	683b      	ldr	r3, [r7, #0]
 8004344:	2b00      	cmp	r3, #0
 8004346:	d10c      	bne.n	8004362 <chk_lock+0xc6>
 8004348:	4909      	ldr	r1, [pc, #36]	; (8004370 <chk_lock+0xd4>)
 800434a:	68fa      	ldr	r2, [r7, #12]
 800434c:	0013      	movs	r3, r2
 800434e:	005b      	lsls	r3, r3, #1
 8004350:	189b      	adds	r3, r3, r2
 8004352:	009b      	lsls	r3, r3, #2
 8004354:	18cb      	adds	r3, r1, r3
 8004356:	330a      	adds	r3, #10
 8004358:	881a      	ldrh	r2, [r3, #0]
 800435a:	2380      	movs	r3, #128	; 0x80
 800435c:	005b      	lsls	r3, r3, #1
 800435e:	429a      	cmp	r2, r3
 8004360:	d101      	bne.n	8004366 <chk_lock+0xca>
 8004362:	2310      	movs	r3, #16
 8004364:	e000      	b.n	8004368 <chk_lock+0xcc>
 8004366:	2300      	movs	r3, #0
 8004368:	0018      	movs	r0, r3
 800436a:	46bd      	mov	sp, r7
 800436c:	b004      	add	sp, #16
 800436e:	bd80      	pop	{r7, pc}
 8004370:	2000061c 	.word	0x2000061c
 8004374:	00000206 	.word	0x00000206

08004378 <enq_lock>:
 8004378:	b580      	push	{r7, lr}
 800437a:	b082      	sub	sp, #8
 800437c:	af00      	add	r7, sp, #0
 800437e:	2300      	movs	r3, #0
 8004380:	607b      	str	r3, [r7, #4]
 8004382:	e002      	b.n	800438a <enq_lock+0x12>
 8004384:	687b      	ldr	r3, [r7, #4]
 8004386:	3301      	adds	r3, #1
 8004388:	607b      	str	r3, [r7, #4]
 800438a:	687b      	ldr	r3, [r7, #4]
 800438c:	2b01      	cmp	r3, #1
 800438e:	d808      	bhi.n	80043a2 <enq_lock+0x2a>
 8004390:	4908      	ldr	r1, [pc, #32]	; (80043b4 <enq_lock+0x3c>)
 8004392:	687a      	ldr	r2, [r7, #4]
 8004394:	0013      	movs	r3, r2
 8004396:	005b      	lsls	r3, r3, #1
 8004398:	189b      	adds	r3, r3, r2
 800439a:	009b      	lsls	r3, r3, #2
 800439c:	585b      	ldr	r3, [r3, r1]
 800439e:	2b00      	cmp	r3, #0
 80043a0:	d1f0      	bne.n	8004384 <enq_lock+0xc>
 80043a2:	687b      	ldr	r3, [r7, #4]
 80043a4:	3b02      	subs	r3, #2
 80043a6:	1e5a      	subs	r2, r3, #1
 80043a8:	4193      	sbcs	r3, r2
 80043aa:	b2db      	uxtb	r3, r3
 80043ac:	0018      	movs	r0, r3
 80043ae:	46bd      	mov	sp, r7
 80043b0:	b002      	add	sp, #8
 80043b2:	bd80      	pop	{r7, pc}
 80043b4:	2000061c 	.word	0x2000061c

080043b8 <inc_lock>:
 80043b8:	b580      	push	{r7, lr}
 80043ba:	b084      	sub	sp, #16
 80043bc:	af00      	add	r7, sp, #0
 80043be:	6078      	str	r0, [r7, #4]
 80043c0:	6039      	str	r1, [r7, #0]
 80043c2:	2300      	movs	r3, #0
 80043c4:	60fb      	str	r3, [r7, #12]
 80043c6:	e02c      	b.n	8004422 <inc_lock+0x6a>
 80043c8:	4955      	ldr	r1, [pc, #340]	; (8004520 <inc_lock+0x168>)
 80043ca:	68fa      	ldr	r2, [r7, #12]
 80043cc:	0013      	movs	r3, r2
 80043ce:	005b      	lsls	r3, r3, #1
 80043d0:	189b      	adds	r3, r3, r2
 80043d2:	009b      	lsls	r3, r3, #2
 80043d4:	585a      	ldr	r2, [r3, r1]
 80043d6:	6879      	ldr	r1, [r7, #4]
 80043d8:	2380      	movs	r3, #128	; 0x80
 80043da:	009b      	lsls	r3, r3, #2
 80043dc:	58cb      	ldr	r3, [r1, r3]
 80043de:	429a      	cmp	r2, r3
 80043e0:	d11c      	bne.n	800441c <inc_lock+0x64>
 80043e2:	494f      	ldr	r1, [pc, #316]	; (8004520 <inc_lock+0x168>)
 80043e4:	68fa      	ldr	r2, [r7, #12]
 80043e6:	0013      	movs	r3, r2
 80043e8:	005b      	lsls	r3, r3, #1
 80043ea:	189b      	adds	r3, r3, r2
 80043ec:	009b      	lsls	r3, r3, #2
 80043ee:	18cb      	adds	r3, r1, r3
 80043f0:	3304      	adds	r3, #4
 80043f2:	681a      	ldr	r2, [r3, #0]
 80043f4:	6879      	ldr	r1, [r7, #4]
 80043f6:	2382      	movs	r3, #130	; 0x82
 80043f8:	009b      	lsls	r3, r3, #2
 80043fa:	58cb      	ldr	r3, [r1, r3]
 80043fc:	429a      	cmp	r2, r3
 80043fe:	d10d      	bne.n	800441c <inc_lock+0x64>
 8004400:	4947      	ldr	r1, [pc, #284]	; (8004520 <inc_lock+0x168>)
 8004402:	68fa      	ldr	r2, [r7, #12]
 8004404:	0013      	movs	r3, r2
 8004406:	005b      	lsls	r3, r3, #1
 8004408:	189b      	adds	r3, r3, r2
 800440a:	009b      	lsls	r3, r3, #2
 800440c:	18cb      	adds	r3, r1, r3
 800440e:	3308      	adds	r3, #8
 8004410:	881a      	ldrh	r2, [r3, #0]
 8004412:	687b      	ldr	r3, [r7, #4]
 8004414:	4943      	ldr	r1, [pc, #268]	; (8004524 <inc_lock+0x16c>)
 8004416:	5a5b      	ldrh	r3, [r3, r1]
 8004418:	429a      	cmp	r2, r3
 800441a:	d006      	beq.n	800442a <inc_lock+0x72>
 800441c:	68fb      	ldr	r3, [r7, #12]
 800441e:	3301      	adds	r3, #1
 8004420:	60fb      	str	r3, [r7, #12]
 8004422:	68fb      	ldr	r3, [r7, #12]
 8004424:	2b01      	cmp	r3, #1
 8004426:	d9cf      	bls.n	80043c8 <inc_lock+0x10>
 8004428:	e000      	b.n	800442c <inc_lock+0x74>
 800442a:	46c0      	nop			; (mov r8, r8)
 800442c:	68fb      	ldr	r3, [r7, #12]
 800442e:	2b02      	cmp	r3, #2
 8004430:	d145      	bne.n	80044be <inc_lock+0x106>
 8004432:	2300      	movs	r3, #0
 8004434:	60fb      	str	r3, [r7, #12]
 8004436:	e002      	b.n	800443e <inc_lock+0x86>
 8004438:	68fb      	ldr	r3, [r7, #12]
 800443a:	3301      	adds	r3, #1
 800443c:	60fb      	str	r3, [r7, #12]
 800443e:	68fb      	ldr	r3, [r7, #12]
 8004440:	2b01      	cmp	r3, #1
 8004442:	d808      	bhi.n	8004456 <inc_lock+0x9e>
 8004444:	4936      	ldr	r1, [pc, #216]	; (8004520 <inc_lock+0x168>)
 8004446:	68fa      	ldr	r2, [r7, #12]
 8004448:	0013      	movs	r3, r2
 800444a:	005b      	lsls	r3, r3, #1
 800444c:	189b      	adds	r3, r3, r2
 800444e:	009b      	lsls	r3, r3, #2
 8004450:	585b      	ldr	r3, [r3, r1]
 8004452:	2b00      	cmp	r3, #0
 8004454:	d1f0      	bne.n	8004438 <inc_lock+0x80>
 8004456:	68fb      	ldr	r3, [r7, #12]
 8004458:	2b02      	cmp	r3, #2
 800445a:	d101      	bne.n	8004460 <inc_lock+0xa8>
 800445c:	2300      	movs	r3, #0
 800445e:	e05a      	b.n	8004516 <inc_lock+0x15e>
 8004460:	687a      	ldr	r2, [r7, #4]
 8004462:	2380      	movs	r3, #128	; 0x80
 8004464:	009b      	lsls	r3, r3, #2
 8004466:	58d0      	ldr	r0, [r2, r3]
 8004468:	492d      	ldr	r1, [pc, #180]	; (8004520 <inc_lock+0x168>)
 800446a:	68fa      	ldr	r2, [r7, #12]
 800446c:	0013      	movs	r3, r2
 800446e:	005b      	lsls	r3, r3, #1
 8004470:	189b      	adds	r3, r3, r2
 8004472:	009b      	lsls	r3, r3, #2
 8004474:	5058      	str	r0, [r3, r1]
 8004476:	687a      	ldr	r2, [r7, #4]
 8004478:	2382      	movs	r3, #130	; 0x82
 800447a:	009b      	lsls	r3, r3, #2
 800447c:	58d1      	ldr	r1, [r2, r3]
 800447e:	4828      	ldr	r0, [pc, #160]	; (8004520 <inc_lock+0x168>)
 8004480:	68fa      	ldr	r2, [r7, #12]
 8004482:	0013      	movs	r3, r2
 8004484:	005b      	lsls	r3, r3, #1
 8004486:	189b      	adds	r3, r3, r2
 8004488:	009b      	lsls	r3, r3, #2
 800448a:	18c3      	adds	r3, r0, r3
 800448c:	3304      	adds	r3, #4
 800448e:	6019      	str	r1, [r3, #0]
 8004490:	687b      	ldr	r3, [r7, #4]
 8004492:	4a24      	ldr	r2, [pc, #144]	; (8004524 <inc_lock+0x16c>)
 8004494:	5a98      	ldrh	r0, [r3, r2]
 8004496:	4922      	ldr	r1, [pc, #136]	; (8004520 <inc_lock+0x168>)
 8004498:	68fa      	ldr	r2, [r7, #12]
 800449a:	0013      	movs	r3, r2
 800449c:	005b      	lsls	r3, r3, #1
 800449e:	189b      	adds	r3, r3, r2
 80044a0:	009b      	lsls	r3, r3, #2
 80044a2:	18cb      	adds	r3, r1, r3
 80044a4:	3308      	adds	r3, #8
 80044a6:	1c02      	adds	r2, r0, #0
 80044a8:	801a      	strh	r2, [r3, #0]
 80044aa:	491d      	ldr	r1, [pc, #116]	; (8004520 <inc_lock+0x168>)
 80044ac:	68fa      	ldr	r2, [r7, #12]
 80044ae:	0013      	movs	r3, r2
 80044b0:	005b      	lsls	r3, r3, #1
 80044b2:	189b      	adds	r3, r3, r2
 80044b4:	009b      	lsls	r3, r3, #2
 80044b6:	18cb      	adds	r3, r1, r3
 80044b8:	330a      	adds	r3, #10
 80044ba:	2200      	movs	r2, #0
 80044bc:	801a      	strh	r2, [r3, #0]
 80044be:	683b      	ldr	r3, [r7, #0]
 80044c0:	2b00      	cmp	r3, #0
 80044c2:	d00c      	beq.n	80044de <inc_lock+0x126>
 80044c4:	4916      	ldr	r1, [pc, #88]	; (8004520 <inc_lock+0x168>)
 80044c6:	68fa      	ldr	r2, [r7, #12]
 80044c8:	0013      	movs	r3, r2
 80044ca:	005b      	lsls	r3, r3, #1
 80044cc:	189b      	adds	r3, r3, r2
 80044ce:	009b      	lsls	r3, r3, #2
 80044d0:	18cb      	adds	r3, r1, r3
 80044d2:	330a      	adds	r3, #10
 80044d4:	881b      	ldrh	r3, [r3, #0]
 80044d6:	2b00      	cmp	r3, #0
 80044d8:	d001      	beq.n	80044de <inc_lock+0x126>
 80044da:	2300      	movs	r3, #0
 80044dc:	e01b      	b.n	8004516 <inc_lock+0x15e>
 80044de:	683b      	ldr	r3, [r7, #0]
 80044e0:	2b00      	cmp	r3, #0
 80044e2:	d10b      	bne.n	80044fc <inc_lock+0x144>
 80044e4:	490e      	ldr	r1, [pc, #56]	; (8004520 <inc_lock+0x168>)
 80044e6:	68fa      	ldr	r2, [r7, #12]
 80044e8:	0013      	movs	r3, r2
 80044ea:	005b      	lsls	r3, r3, #1
 80044ec:	189b      	adds	r3, r3, r2
 80044ee:	009b      	lsls	r3, r3, #2
 80044f0:	18cb      	adds	r3, r1, r3
 80044f2:	330a      	adds	r3, #10
 80044f4:	881b      	ldrh	r3, [r3, #0]
 80044f6:	3301      	adds	r3, #1
 80044f8:	b29a      	uxth	r2, r3
 80044fa:	e001      	b.n	8004500 <inc_lock+0x148>
 80044fc:	2380      	movs	r3, #128	; 0x80
 80044fe:	005a      	lsls	r2, r3, #1
 8004500:	4807      	ldr	r0, [pc, #28]	; (8004520 <inc_lock+0x168>)
 8004502:	68f9      	ldr	r1, [r7, #12]
 8004504:	000b      	movs	r3, r1
 8004506:	005b      	lsls	r3, r3, #1
 8004508:	185b      	adds	r3, r3, r1
 800450a:	009b      	lsls	r3, r3, #2
 800450c:	18c3      	adds	r3, r0, r3
 800450e:	330a      	adds	r3, #10
 8004510:	801a      	strh	r2, [r3, #0]
 8004512:	68fb      	ldr	r3, [r7, #12]
 8004514:	3301      	adds	r3, #1
 8004516:	0018      	movs	r0, r3
 8004518:	46bd      	mov	sp, r7
 800451a:	b004      	add	sp, #16
 800451c:	bd80      	pop	{r7, pc}
 800451e:	46c0      	nop			; (mov r8, r8)
 8004520:	2000061c 	.word	0x2000061c
 8004524:	00000206 	.word	0x00000206

08004528 <dec_lock>:
 8004528:	b590      	push	{r4, r7, lr}
 800452a:	b085      	sub	sp, #20
 800452c:	af00      	add	r7, sp, #0
 800452e:	6078      	str	r0, [r7, #4]
 8004530:	687b      	ldr	r3, [r7, #4]
 8004532:	3b01      	subs	r3, #1
 8004534:	607b      	str	r3, [r7, #4]
 8004536:	687b      	ldr	r3, [r7, #4]
 8004538:	2b01      	cmp	r3, #1
 800453a:	d83b      	bhi.n	80045b4 <dec_lock+0x8c>
 800453c:	240e      	movs	r4, #14
 800453e:	1939      	adds	r1, r7, r4
 8004540:	4822      	ldr	r0, [pc, #136]	; (80045cc <dec_lock+0xa4>)
 8004542:	687a      	ldr	r2, [r7, #4]
 8004544:	0013      	movs	r3, r2
 8004546:	005b      	lsls	r3, r3, #1
 8004548:	189b      	adds	r3, r3, r2
 800454a:	009b      	lsls	r3, r3, #2
 800454c:	18c3      	adds	r3, r0, r3
 800454e:	330a      	adds	r3, #10
 8004550:	881b      	ldrh	r3, [r3, #0]
 8004552:	800b      	strh	r3, [r1, #0]
 8004554:	193b      	adds	r3, r7, r4
 8004556:	881a      	ldrh	r2, [r3, #0]
 8004558:	2380      	movs	r3, #128	; 0x80
 800455a:	005b      	lsls	r3, r3, #1
 800455c:	429a      	cmp	r2, r3
 800455e:	d102      	bne.n	8004566 <dec_lock+0x3e>
 8004560:	193b      	adds	r3, r7, r4
 8004562:	2200      	movs	r2, #0
 8004564:	801a      	strh	r2, [r3, #0]
 8004566:	210e      	movs	r1, #14
 8004568:	187b      	adds	r3, r7, r1
 800456a:	881b      	ldrh	r3, [r3, #0]
 800456c:	2b00      	cmp	r3, #0
 800456e:	d004      	beq.n	800457a <dec_lock+0x52>
 8004570:	187b      	adds	r3, r7, r1
 8004572:	881a      	ldrh	r2, [r3, #0]
 8004574:	187b      	adds	r3, r7, r1
 8004576:	3a01      	subs	r2, #1
 8004578:	801a      	strh	r2, [r3, #0]
 800457a:	4914      	ldr	r1, [pc, #80]	; (80045cc <dec_lock+0xa4>)
 800457c:	687a      	ldr	r2, [r7, #4]
 800457e:	0013      	movs	r3, r2
 8004580:	005b      	lsls	r3, r3, #1
 8004582:	189b      	adds	r3, r3, r2
 8004584:	009b      	lsls	r3, r3, #2
 8004586:	18cb      	adds	r3, r1, r3
 8004588:	330a      	adds	r3, #10
 800458a:	210e      	movs	r1, #14
 800458c:	187a      	adds	r2, r7, r1
 800458e:	8812      	ldrh	r2, [r2, #0]
 8004590:	801a      	strh	r2, [r3, #0]
 8004592:	187b      	adds	r3, r7, r1
 8004594:	881b      	ldrh	r3, [r3, #0]
 8004596:	2b00      	cmp	r3, #0
 8004598:	d107      	bne.n	80045aa <dec_lock+0x82>
 800459a:	490c      	ldr	r1, [pc, #48]	; (80045cc <dec_lock+0xa4>)
 800459c:	687a      	ldr	r2, [r7, #4]
 800459e:	0013      	movs	r3, r2
 80045a0:	005b      	lsls	r3, r3, #1
 80045a2:	189b      	adds	r3, r3, r2
 80045a4:	009b      	lsls	r3, r3, #2
 80045a6:	2200      	movs	r2, #0
 80045a8:	505a      	str	r2, [r3, r1]
 80045aa:	230d      	movs	r3, #13
 80045ac:	18fb      	adds	r3, r7, r3
 80045ae:	2200      	movs	r2, #0
 80045b0:	701a      	strb	r2, [r3, #0]
 80045b2:	e003      	b.n	80045bc <dec_lock+0x94>
 80045b4:	230d      	movs	r3, #13
 80045b6:	18fb      	adds	r3, r7, r3
 80045b8:	2202      	movs	r2, #2
 80045ba:	701a      	strb	r2, [r3, #0]
 80045bc:	230d      	movs	r3, #13
 80045be:	18fb      	adds	r3, r7, r3
 80045c0:	781b      	ldrb	r3, [r3, #0]
 80045c2:	0018      	movs	r0, r3
 80045c4:	46bd      	mov	sp, r7
 80045c6:	b005      	add	sp, #20
 80045c8:	bd90      	pop	{r4, r7, pc}
 80045ca:	46c0      	nop			; (mov r8, r8)
 80045cc:	2000061c 	.word	0x2000061c

080045d0 <clear_lock>:
 80045d0:	b580      	push	{r7, lr}
 80045d2:	b084      	sub	sp, #16
 80045d4:	af00      	add	r7, sp, #0
 80045d6:	6078      	str	r0, [r7, #4]
 80045d8:	2300      	movs	r3, #0
 80045da:	60fb      	str	r3, [r7, #12]
 80045dc:	e014      	b.n	8004608 <clear_lock+0x38>
 80045de:	490e      	ldr	r1, [pc, #56]	; (8004618 <clear_lock+0x48>)
 80045e0:	68fa      	ldr	r2, [r7, #12]
 80045e2:	0013      	movs	r3, r2
 80045e4:	005b      	lsls	r3, r3, #1
 80045e6:	189b      	adds	r3, r3, r2
 80045e8:	009b      	lsls	r3, r3, #2
 80045ea:	585b      	ldr	r3, [r3, r1]
 80045ec:	687a      	ldr	r2, [r7, #4]
 80045ee:	429a      	cmp	r2, r3
 80045f0:	d107      	bne.n	8004602 <clear_lock+0x32>
 80045f2:	4909      	ldr	r1, [pc, #36]	; (8004618 <clear_lock+0x48>)
 80045f4:	68fa      	ldr	r2, [r7, #12]
 80045f6:	0013      	movs	r3, r2
 80045f8:	005b      	lsls	r3, r3, #1
 80045fa:	189b      	adds	r3, r3, r2
 80045fc:	009b      	lsls	r3, r3, #2
 80045fe:	2200      	movs	r2, #0
 8004600:	505a      	str	r2, [r3, r1]
 8004602:	68fb      	ldr	r3, [r7, #12]
 8004604:	3301      	adds	r3, #1
 8004606:	60fb      	str	r3, [r7, #12]
 8004608:	68fb      	ldr	r3, [r7, #12]
 800460a:	2b01      	cmp	r3, #1
 800460c:	d9e7      	bls.n	80045de <clear_lock+0xe>
 800460e:	46c0      	nop			; (mov r8, r8)
 8004610:	46c0      	nop			; (mov r8, r8)
 8004612:	46bd      	mov	sp, r7
 8004614:	b004      	add	sp, #16
 8004616:	bd80      	pop	{r7, pc}
 8004618:	2000061c 	.word	0x2000061c

0800461c <sync_window>:
 800461c:	b590      	push	{r4, r7, lr}
 800461e:	b087      	sub	sp, #28
 8004620:	af00      	add	r7, sp, #0
 8004622:	6078      	str	r0, [r7, #4]
 8004624:	240f      	movs	r4, #15
 8004626:	193b      	adds	r3, r7, r4
 8004628:	2200      	movs	r2, #0
 800462a:	701a      	strb	r2, [r3, #0]
 800462c:	687a      	ldr	r2, [r7, #4]
 800462e:	2381      	movs	r3, #129	; 0x81
 8004630:	009b      	lsls	r3, r3, #2
 8004632:	5cd3      	ldrb	r3, [r2, r3]
 8004634:	2b00      	cmp	r3, #0
 8004636:	d03d      	beq.n	80046b4 <sync_window+0x98>
 8004638:	687a      	ldr	r2, [r7, #4]
 800463a:	238b      	movs	r3, #139	; 0x8b
 800463c:	009b      	lsls	r3, r3, #2
 800463e:	58d3      	ldr	r3, [r2, r3]
 8004640:	617b      	str	r3, [r7, #20]
 8004642:	687b      	ldr	r3, [r7, #4]
 8004644:	4a1f      	ldr	r2, [pc, #124]	; (80046c4 <sync_window+0xa8>)
 8004646:	5c98      	ldrb	r0, [r3, r2]
 8004648:	6879      	ldr	r1, [r7, #4]
 800464a:	697a      	ldr	r2, [r7, #20]
 800464c:	2301      	movs	r3, #1
 800464e:	f7ff fd61 	bl	8004114 <disk_write>
 8004652:	1e03      	subs	r3, r0, #0
 8004654:	d003      	beq.n	800465e <sync_window+0x42>
 8004656:	193b      	adds	r3, r7, r4
 8004658:	2201      	movs	r2, #1
 800465a:	701a      	strb	r2, [r3, #0]
 800465c:	e02a      	b.n	80046b4 <sync_window+0x98>
 800465e:	687a      	ldr	r2, [r7, #4]
 8004660:	2381      	movs	r3, #129	; 0x81
 8004662:	009b      	lsls	r3, r3, #2
 8004664:	2100      	movs	r1, #0
 8004666:	54d1      	strb	r1, [r2, r3]
 8004668:	687a      	ldr	r2, [r7, #4]
 800466a:	2388      	movs	r3, #136	; 0x88
 800466c:	009b      	lsls	r3, r3, #2
 800466e:	58d3      	ldr	r3, [r2, r3]
 8004670:	697a      	ldr	r2, [r7, #20]
 8004672:	1ad2      	subs	r2, r2, r3
 8004674:	6879      	ldr	r1, [r7, #4]
 8004676:	2386      	movs	r3, #134	; 0x86
 8004678:	009b      	lsls	r3, r3, #2
 800467a:	58cb      	ldr	r3, [r1, r3]
 800467c:	429a      	cmp	r2, r3
 800467e:	d219      	bcs.n	80046b4 <sync_window+0x98>
 8004680:	687b      	ldr	r3, [r7, #4]
 8004682:	4a11      	ldr	r2, [pc, #68]	; (80046c8 <sync_window+0xac>)
 8004684:	5c9b      	ldrb	r3, [r3, r2]
 8004686:	613b      	str	r3, [r7, #16]
 8004688:	e011      	b.n	80046ae <sync_window+0x92>
 800468a:	687a      	ldr	r2, [r7, #4]
 800468c:	2386      	movs	r3, #134	; 0x86
 800468e:	009b      	lsls	r3, r3, #2
 8004690:	58d3      	ldr	r3, [r2, r3]
 8004692:	697a      	ldr	r2, [r7, #20]
 8004694:	18d3      	adds	r3, r2, r3
 8004696:	617b      	str	r3, [r7, #20]
 8004698:	687b      	ldr	r3, [r7, #4]
 800469a:	4a0a      	ldr	r2, [pc, #40]	; (80046c4 <sync_window+0xa8>)
 800469c:	5c98      	ldrb	r0, [r3, r2]
 800469e:	6879      	ldr	r1, [r7, #4]
 80046a0:	697a      	ldr	r2, [r7, #20]
 80046a2:	2301      	movs	r3, #1
 80046a4:	f7ff fd36 	bl	8004114 <disk_write>
 80046a8:	693b      	ldr	r3, [r7, #16]
 80046aa:	3b01      	subs	r3, #1
 80046ac:	613b      	str	r3, [r7, #16]
 80046ae:	693b      	ldr	r3, [r7, #16]
 80046b0:	2b01      	cmp	r3, #1
 80046b2:	d8ea      	bhi.n	800468a <sync_window+0x6e>
 80046b4:	230f      	movs	r3, #15
 80046b6:	18fb      	adds	r3, r7, r3
 80046b8:	781b      	ldrb	r3, [r3, #0]
 80046ba:	0018      	movs	r0, r3
 80046bc:	46bd      	mov	sp, r7
 80046be:	b007      	add	sp, #28
 80046c0:	bd90      	pop	{r4, r7, pc}
 80046c2:	46c0      	nop			; (mov r8, r8)
 80046c4:	00000201 	.word	0x00000201
 80046c8:	00000203 	.word	0x00000203

080046cc <move_window>:
 80046cc:	b5b0      	push	{r4, r5, r7, lr}
 80046ce:	b084      	sub	sp, #16
 80046d0:	af00      	add	r7, sp, #0
 80046d2:	6078      	str	r0, [r7, #4]
 80046d4:	6039      	str	r1, [r7, #0]
 80046d6:	240f      	movs	r4, #15
 80046d8:	193b      	adds	r3, r7, r4
 80046da:	2200      	movs	r2, #0
 80046dc:	701a      	strb	r2, [r3, #0]
 80046de:	687a      	ldr	r2, [r7, #4]
 80046e0:	238b      	movs	r3, #139	; 0x8b
 80046e2:	009b      	lsls	r3, r3, #2
 80046e4:	58d3      	ldr	r3, [r2, r3]
 80046e6:	683a      	ldr	r2, [r7, #0]
 80046e8:	429a      	cmp	r2, r3
 80046ea:	d021      	beq.n	8004730 <move_window+0x64>
 80046ec:	0025      	movs	r5, r4
 80046ee:	193c      	adds	r4, r7, r4
 80046f0:	687b      	ldr	r3, [r7, #4]
 80046f2:	0018      	movs	r0, r3
 80046f4:	f7ff ff92 	bl	800461c <sync_window>
 80046f8:	0003      	movs	r3, r0
 80046fa:	7023      	strb	r3, [r4, #0]
 80046fc:	002c      	movs	r4, r5
 80046fe:	193b      	adds	r3, r7, r4
 8004700:	781b      	ldrb	r3, [r3, #0]
 8004702:	2b00      	cmp	r3, #0
 8004704:	d114      	bne.n	8004730 <move_window+0x64>
 8004706:	687b      	ldr	r3, [r7, #4]
 8004708:	4a0d      	ldr	r2, [pc, #52]	; (8004740 <move_window+0x74>)
 800470a:	5c98      	ldrb	r0, [r3, r2]
 800470c:	6879      	ldr	r1, [r7, #4]
 800470e:	683a      	ldr	r2, [r7, #0]
 8004710:	2301      	movs	r3, #1
 8004712:	f7ff fcd7 	bl	80040c4 <disk_read>
 8004716:	1e03      	subs	r3, r0, #0
 8004718:	d005      	beq.n	8004726 <move_window+0x5a>
 800471a:	2301      	movs	r3, #1
 800471c:	425b      	negs	r3, r3
 800471e:	603b      	str	r3, [r7, #0]
 8004720:	193b      	adds	r3, r7, r4
 8004722:	2201      	movs	r2, #1
 8004724:	701a      	strb	r2, [r3, #0]
 8004726:	687a      	ldr	r2, [r7, #4]
 8004728:	238b      	movs	r3, #139	; 0x8b
 800472a:	009b      	lsls	r3, r3, #2
 800472c:	6839      	ldr	r1, [r7, #0]
 800472e:	50d1      	str	r1, [r2, r3]
 8004730:	230f      	movs	r3, #15
 8004732:	18fb      	adds	r3, r7, r3
 8004734:	781b      	ldrb	r3, [r3, #0]
 8004736:	0018      	movs	r0, r3
 8004738:	46bd      	mov	sp, r7
 800473a:	b004      	add	sp, #16
 800473c:	bdb0      	pop	{r4, r5, r7, pc}
 800473e:	46c0      	nop			; (mov r8, r8)
 8004740:	00000201 	.word	0x00000201

08004744 <sync_fs>:
 8004744:	b5b0      	push	{r4, r5, r7, lr}
 8004746:	b084      	sub	sp, #16
 8004748:	af00      	add	r7, sp, #0
 800474a:	6078      	str	r0, [r7, #4]
 800474c:	250f      	movs	r5, #15
 800474e:	197c      	adds	r4, r7, r5
 8004750:	687b      	ldr	r3, [r7, #4]
 8004752:	0018      	movs	r0, r3
 8004754:	f7ff ff62 	bl	800461c <sync_window>
 8004758:	0003      	movs	r3, r0
 800475a:	7023      	strb	r3, [r4, #0]
 800475c:	197b      	adds	r3, r7, r5
 800475e:	781b      	ldrb	r3, [r3, #0]
 8004760:	2b00      	cmp	r3, #0
 8004762:	d000      	beq.n	8004766 <sync_fs+0x22>
 8004764:	e0b4      	b.n	80048d0 <sync_fs+0x18c>
 8004766:	687a      	ldr	r2, [r7, #4]
 8004768:	2380      	movs	r3, #128	; 0x80
 800476a:	009b      	lsls	r3, r3, #2
 800476c:	5cd3      	ldrb	r3, [r2, r3]
 800476e:	2b03      	cmp	r3, #3
 8004770:	d000      	beq.n	8004774 <sync_fs+0x30>
 8004772:	e09f      	b.n	80048b4 <sync_fs+0x170>
 8004774:	687b      	ldr	r3, [r7, #4]
 8004776:	4a5a      	ldr	r2, [pc, #360]	; (80048e0 <sync_fs+0x19c>)
 8004778:	5c9b      	ldrb	r3, [r3, r2]
 800477a:	2b01      	cmp	r3, #1
 800477c:	d000      	beq.n	8004780 <sync_fs+0x3c>
 800477e:	e099      	b.n	80048b4 <sync_fs+0x170>
 8004780:	687b      	ldr	r3, [r7, #4]
 8004782:	2280      	movs	r2, #128	; 0x80
 8004784:	0092      	lsls	r2, r2, #2
 8004786:	2100      	movs	r1, #0
 8004788:	0018      	movs	r0, r3
 800478a:	f7ff fd30 	bl	80041ee <mem_set>
 800478e:	687a      	ldr	r2, [r7, #4]
 8004790:	23ff      	movs	r3, #255	; 0xff
 8004792:	005b      	lsls	r3, r3, #1
 8004794:	2155      	movs	r1, #85	; 0x55
 8004796:	54d1      	strb	r1, [r2, r3]
 8004798:	687b      	ldr	r3, [r7, #4]
 800479a:	4a52      	ldr	r2, [pc, #328]	; (80048e4 <sync_fs+0x1a0>)
 800479c:	21aa      	movs	r1, #170	; 0xaa
 800479e:	5499      	strb	r1, [r3, r2]
 80047a0:	687b      	ldr	r3, [r7, #4]
 80047a2:	2252      	movs	r2, #82	; 0x52
 80047a4:	701a      	strb	r2, [r3, #0]
 80047a6:	687b      	ldr	r3, [r7, #4]
 80047a8:	2252      	movs	r2, #82	; 0x52
 80047aa:	705a      	strb	r2, [r3, #1]
 80047ac:	687b      	ldr	r3, [r7, #4]
 80047ae:	2261      	movs	r2, #97	; 0x61
 80047b0:	709a      	strb	r2, [r3, #2]
 80047b2:	687b      	ldr	r3, [r7, #4]
 80047b4:	2241      	movs	r2, #65	; 0x41
 80047b6:	70da      	strb	r2, [r3, #3]
 80047b8:	687a      	ldr	r2, [r7, #4]
 80047ba:	23f2      	movs	r3, #242	; 0xf2
 80047bc:	005b      	lsls	r3, r3, #1
 80047be:	2172      	movs	r1, #114	; 0x72
 80047c0:	54d1      	strb	r1, [r2, r3]
 80047c2:	687a      	ldr	r2, [r7, #4]
 80047c4:	23e6      	movs	r3, #230	; 0xe6
 80047c6:	33ff      	adds	r3, #255	; 0xff
 80047c8:	2172      	movs	r1, #114	; 0x72
 80047ca:	54d1      	strb	r1, [r2, r3]
 80047cc:	687a      	ldr	r2, [r7, #4]
 80047ce:	23f3      	movs	r3, #243	; 0xf3
 80047d0:	005b      	lsls	r3, r3, #1
 80047d2:	2141      	movs	r1, #65	; 0x41
 80047d4:	54d1      	strb	r1, [r2, r3]
 80047d6:	687a      	ldr	r2, [r7, #4]
 80047d8:	23e8      	movs	r3, #232	; 0xe8
 80047da:	33ff      	adds	r3, #255	; 0xff
 80047dc:	2161      	movs	r1, #97	; 0x61
 80047de:	54d1      	strb	r1, [r2, r3]
 80047e0:	687a      	ldr	r2, [r7, #4]
 80047e2:	2384      	movs	r3, #132	; 0x84
 80047e4:	009b      	lsls	r3, r3, #2
 80047e6:	58d3      	ldr	r3, [r2, r3]
 80047e8:	b2d9      	uxtb	r1, r3
 80047ea:	687a      	ldr	r2, [r7, #4]
 80047ec:	23f4      	movs	r3, #244	; 0xf4
 80047ee:	005b      	lsls	r3, r3, #1
 80047f0:	54d1      	strb	r1, [r2, r3]
 80047f2:	687a      	ldr	r2, [r7, #4]
 80047f4:	2384      	movs	r3, #132	; 0x84
 80047f6:	009b      	lsls	r3, r3, #2
 80047f8:	58d3      	ldr	r3, [r2, r3]
 80047fa:	b29b      	uxth	r3, r3
 80047fc:	0a1b      	lsrs	r3, r3, #8
 80047fe:	b29b      	uxth	r3, r3
 8004800:	b2d9      	uxtb	r1, r3
 8004802:	687a      	ldr	r2, [r7, #4]
 8004804:	23ea      	movs	r3, #234	; 0xea
 8004806:	33ff      	adds	r3, #255	; 0xff
 8004808:	54d1      	strb	r1, [r2, r3]
 800480a:	687a      	ldr	r2, [r7, #4]
 800480c:	2384      	movs	r3, #132	; 0x84
 800480e:	009b      	lsls	r3, r3, #2
 8004810:	58d3      	ldr	r3, [r2, r3]
 8004812:	0c1b      	lsrs	r3, r3, #16
 8004814:	b2d9      	uxtb	r1, r3
 8004816:	687a      	ldr	r2, [r7, #4]
 8004818:	23f5      	movs	r3, #245	; 0xf5
 800481a:	005b      	lsls	r3, r3, #1
 800481c:	54d1      	strb	r1, [r2, r3]
 800481e:	687a      	ldr	r2, [r7, #4]
 8004820:	2384      	movs	r3, #132	; 0x84
 8004822:	009b      	lsls	r3, r3, #2
 8004824:	58d3      	ldr	r3, [r2, r3]
 8004826:	0e1b      	lsrs	r3, r3, #24
 8004828:	b2d9      	uxtb	r1, r3
 800482a:	687a      	ldr	r2, [r7, #4]
 800482c:	23ec      	movs	r3, #236	; 0xec
 800482e:	33ff      	adds	r3, #255	; 0xff
 8004830:	54d1      	strb	r1, [r2, r3]
 8004832:	687a      	ldr	r2, [r7, #4]
 8004834:	2383      	movs	r3, #131	; 0x83
 8004836:	009b      	lsls	r3, r3, #2
 8004838:	58d3      	ldr	r3, [r2, r3]
 800483a:	b2d9      	uxtb	r1, r3
 800483c:	687a      	ldr	r2, [r7, #4]
 800483e:	23f6      	movs	r3, #246	; 0xf6
 8004840:	005b      	lsls	r3, r3, #1
 8004842:	54d1      	strb	r1, [r2, r3]
 8004844:	687a      	ldr	r2, [r7, #4]
 8004846:	2383      	movs	r3, #131	; 0x83
 8004848:	009b      	lsls	r3, r3, #2
 800484a:	58d3      	ldr	r3, [r2, r3]
 800484c:	b29b      	uxth	r3, r3
 800484e:	0a1b      	lsrs	r3, r3, #8
 8004850:	b29b      	uxth	r3, r3
 8004852:	b2d9      	uxtb	r1, r3
 8004854:	687a      	ldr	r2, [r7, #4]
 8004856:	23ee      	movs	r3, #238	; 0xee
 8004858:	33ff      	adds	r3, #255	; 0xff
 800485a:	54d1      	strb	r1, [r2, r3]
 800485c:	687a      	ldr	r2, [r7, #4]
 800485e:	2383      	movs	r3, #131	; 0x83
 8004860:	009b      	lsls	r3, r3, #2
 8004862:	58d3      	ldr	r3, [r2, r3]
 8004864:	0c1b      	lsrs	r3, r3, #16
 8004866:	b2d9      	uxtb	r1, r3
 8004868:	687a      	ldr	r2, [r7, #4]
 800486a:	23f7      	movs	r3, #247	; 0xf7
 800486c:	005b      	lsls	r3, r3, #1
 800486e:	54d1      	strb	r1, [r2, r3]
 8004870:	687a      	ldr	r2, [r7, #4]
 8004872:	2383      	movs	r3, #131	; 0x83
 8004874:	009b      	lsls	r3, r3, #2
 8004876:	58d3      	ldr	r3, [r2, r3]
 8004878:	0e1b      	lsrs	r3, r3, #24
 800487a:	b2d9      	uxtb	r1, r3
 800487c:	687a      	ldr	r2, [r7, #4]
 800487e:	23f0      	movs	r3, #240	; 0xf0
 8004880:	33ff      	adds	r3, #255	; 0xff
 8004882:	54d1      	strb	r1, [r2, r3]
 8004884:	687a      	ldr	r2, [r7, #4]
 8004886:	2387      	movs	r3, #135	; 0x87
 8004888:	009b      	lsls	r3, r3, #2
 800488a:	58d3      	ldr	r3, [r2, r3]
 800488c:	1c59      	adds	r1, r3, #1
 800488e:	687a      	ldr	r2, [r7, #4]
 8004890:	238b      	movs	r3, #139	; 0x8b
 8004892:	009b      	lsls	r3, r3, #2
 8004894:	50d1      	str	r1, [r2, r3]
 8004896:	687b      	ldr	r3, [r7, #4]
 8004898:	4a13      	ldr	r2, [pc, #76]	; (80048e8 <sync_fs+0x1a4>)
 800489a:	5c98      	ldrb	r0, [r3, r2]
 800489c:	6879      	ldr	r1, [r7, #4]
 800489e:	687a      	ldr	r2, [r7, #4]
 80048a0:	238b      	movs	r3, #139	; 0x8b
 80048a2:	009b      	lsls	r3, r3, #2
 80048a4:	58d2      	ldr	r2, [r2, r3]
 80048a6:	2301      	movs	r3, #1
 80048a8:	f7ff fc34 	bl	8004114 <disk_write>
 80048ac:	687b      	ldr	r3, [r7, #4]
 80048ae:	4a0c      	ldr	r2, [pc, #48]	; (80048e0 <sync_fs+0x19c>)
 80048b0:	2100      	movs	r1, #0
 80048b2:	5499      	strb	r1, [r3, r2]
 80048b4:	687b      	ldr	r3, [r7, #4]
 80048b6:	4a0c      	ldr	r2, [pc, #48]	; (80048e8 <sync_fs+0x1a4>)
 80048b8:	5c9b      	ldrb	r3, [r3, r2]
 80048ba:	2200      	movs	r2, #0
 80048bc:	2100      	movs	r1, #0
 80048be:	0018      	movs	r0, r3
 80048c0:	f7ff fc50 	bl	8004164 <disk_ioctl>
 80048c4:	1e03      	subs	r3, r0, #0
 80048c6:	d003      	beq.n	80048d0 <sync_fs+0x18c>
 80048c8:	230f      	movs	r3, #15
 80048ca:	18fb      	adds	r3, r7, r3
 80048cc:	2201      	movs	r2, #1
 80048ce:	701a      	strb	r2, [r3, #0]
 80048d0:	230f      	movs	r3, #15
 80048d2:	18fb      	adds	r3, r7, r3
 80048d4:	781b      	ldrb	r3, [r3, #0]
 80048d6:	0018      	movs	r0, r3
 80048d8:	46bd      	mov	sp, r7
 80048da:	b004      	add	sp, #16
 80048dc:	bdb0      	pop	{r4, r5, r7, pc}
 80048de:	46c0      	nop			; (mov r8, r8)
 80048e0:	00000205 	.word	0x00000205
 80048e4:	000001ff 	.word	0x000001ff
 80048e8:	00000201 	.word	0x00000201

080048ec <clust2sect>:
 80048ec:	b580      	push	{r7, lr}
 80048ee:	b082      	sub	sp, #8
 80048f0:	af00      	add	r7, sp, #0
 80048f2:	6078      	str	r0, [r7, #4]
 80048f4:	6039      	str	r1, [r7, #0]
 80048f6:	683b      	ldr	r3, [r7, #0]
 80048f8:	3b02      	subs	r3, #2
 80048fa:	603b      	str	r3, [r7, #0]
 80048fc:	687a      	ldr	r2, [r7, #4]
 80048fe:	2385      	movs	r3, #133	; 0x85
 8004900:	009b      	lsls	r3, r3, #2
 8004902:	58d3      	ldr	r3, [r2, r3]
 8004904:	3b02      	subs	r3, #2
 8004906:	683a      	ldr	r2, [r7, #0]
 8004908:	429a      	cmp	r2, r3
 800490a:	d301      	bcc.n	8004910 <clust2sect+0x24>
 800490c:	2300      	movs	r3, #0
 800490e:	e00a      	b.n	8004926 <clust2sect+0x3a>
 8004910:	687b      	ldr	r3, [r7, #4]
 8004912:	4a07      	ldr	r2, [pc, #28]	; (8004930 <clust2sect+0x44>)
 8004914:	5c9b      	ldrb	r3, [r3, r2]
 8004916:	001a      	movs	r2, r3
 8004918:	683b      	ldr	r3, [r7, #0]
 800491a:	435a      	muls	r2, r3
 800491c:	6879      	ldr	r1, [r7, #4]
 800491e:	238a      	movs	r3, #138	; 0x8a
 8004920:	009b      	lsls	r3, r3, #2
 8004922:	58cb      	ldr	r3, [r1, r3]
 8004924:	18d3      	adds	r3, r2, r3
 8004926:	0018      	movs	r0, r3
 8004928:	46bd      	mov	sp, r7
 800492a:	b002      	add	sp, #8
 800492c:	bd80      	pop	{r7, pc}
 800492e:	46c0      	nop			; (mov r8, r8)
 8004930:	00000202 	.word	0x00000202

08004934 <get_fat>:
 8004934:	b580      	push	{r7, lr}
 8004936:	b086      	sub	sp, #24
 8004938:	af00      	add	r7, sp, #0
 800493a:	6078      	str	r0, [r7, #4]
 800493c:	6039      	str	r1, [r7, #0]
 800493e:	683b      	ldr	r3, [r7, #0]
 8004940:	2b01      	cmp	r3, #1
 8004942:	d906      	bls.n	8004952 <get_fat+0x1e>
 8004944:	687a      	ldr	r2, [r7, #4]
 8004946:	2385      	movs	r3, #133	; 0x85
 8004948:	009b      	lsls	r3, r3, #2
 800494a:	58d3      	ldr	r3, [r2, r3]
 800494c:	683a      	ldr	r2, [r7, #0]
 800494e:	429a      	cmp	r2, r3
 8004950:	d302      	bcc.n	8004958 <get_fat+0x24>
 8004952:	2301      	movs	r3, #1
 8004954:	617b      	str	r3, [r7, #20]
 8004956:	e0aa      	b.n	8004aae <get_fat+0x17a>
 8004958:	2301      	movs	r3, #1
 800495a:	425b      	negs	r3, r3
 800495c:	617b      	str	r3, [r7, #20]
 800495e:	687a      	ldr	r2, [r7, #4]
 8004960:	2380      	movs	r3, #128	; 0x80
 8004962:	009b      	lsls	r3, r3, #2
 8004964:	5cd3      	ldrb	r3, [r2, r3]
 8004966:	2b03      	cmp	r3, #3
 8004968:	d100      	bne.n	800496c <get_fat+0x38>
 800496a:	e06b      	b.n	8004a44 <get_fat+0x110>
 800496c:	dd00      	ble.n	8004970 <get_fat+0x3c>
 800496e:	e094      	b.n	8004a9a <get_fat+0x166>
 8004970:	2b01      	cmp	r3, #1
 8004972:	d002      	beq.n	800497a <get_fat+0x46>
 8004974:	2b02      	cmp	r3, #2
 8004976:	d042      	beq.n	80049fe <get_fat+0xca>
 8004978:	e08f      	b.n	8004a9a <get_fat+0x166>
 800497a:	683b      	ldr	r3, [r7, #0]
 800497c:	60fb      	str	r3, [r7, #12]
 800497e:	68fb      	ldr	r3, [r7, #12]
 8004980:	085b      	lsrs	r3, r3, #1
 8004982:	68fa      	ldr	r2, [r7, #12]
 8004984:	18d3      	adds	r3, r2, r3
 8004986:	60fb      	str	r3, [r7, #12]
 8004988:	687a      	ldr	r2, [r7, #4]
 800498a:	2388      	movs	r3, #136	; 0x88
 800498c:	009b      	lsls	r3, r3, #2
 800498e:	58d2      	ldr	r2, [r2, r3]
 8004990:	68fb      	ldr	r3, [r7, #12]
 8004992:	0a5b      	lsrs	r3, r3, #9
 8004994:	18d2      	adds	r2, r2, r3
 8004996:	687b      	ldr	r3, [r7, #4]
 8004998:	0011      	movs	r1, r2
 800499a:	0018      	movs	r0, r3
 800499c:	f7ff fe96 	bl	80046cc <move_window>
 80049a0:	1e03      	subs	r3, r0, #0
 80049a2:	d000      	beq.n	80049a6 <get_fat+0x72>
 80049a4:	e07c      	b.n	8004aa0 <get_fat+0x16c>
 80049a6:	68fb      	ldr	r3, [r7, #12]
 80049a8:	1c5a      	adds	r2, r3, #1
 80049aa:	60fa      	str	r2, [r7, #12]
 80049ac:	05db      	lsls	r3, r3, #23
 80049ae:	0ddb      	lsrs	r3, r3, #23
 80049b0:	687a      	ldr	r2, [r7, #4]
 80049b2:	5cd3      	ldrb	r3, [r2, r3]
 80049b4:	60bb      	str	r3, [r7, #8]
 80049b6:	687a      	ldr	r2, [r7, #4]
 80049b8:	2388      	movs	r3, #136	; 0x88
 80049ba:	009b      	lsls	r3, r3, #2
 80049bc:	58d2      	ldr	r2, [r2, r3]
 80049be:	68fb      	ldr	r3, [r7, #12]
 80049c0:	0a5b      	lsrs	r3, r3, #9
 80049c2:	18d2      	adds	r2, r2, r3
 80049c4:	687b      	ldr	r3, [r7, #4]
 80049c6:	0011      	movs	r1, r2
 80049c8:	0018      	movs	r0, r3
 80049ca:	f7ff fe7f 	bl	80046cc <move_window>
 80049ce:	1e03      	subs	r3, r0, #0
 80049d0:	d168      	bne.n	8004aa4 <get_fat+0x170>
 80049d2:	68fb      	ldr	r3, [r7, #12]
 80049d4:	05db      	lsls	r3, r3, #23
 80049d6:	0ddb      	lsrs	r3, r3, #23
 80049d8:	687a      	ldr	r2, [r7, #4]
 80049da:	5cd3      	ldrb	r3, [r2, r3]
 80049dc:	021b      	lsls	r3, r3, #8
 80049de:	001a      	movs	r2, r3
 80049e0:	68bb      	ldr	r3, [r7, #8]
 80049e2:	4313      	orrs	r3, r2
 80049e4:	60bb      	str	r3, [r7, #8]
 80049e6:	683b      	ldr	r3, [r7, #0]
 80049e8:	2201      	movs	r2, #1
 80049ea:	4013      	ands	r3, r2
 80049ec:	d002      	beq.n	80049f4 <get_fat+0xc0>
 80049ee:	68bb      	ldr	r3, [r7, #8]
 80049f0:	091b      	lsrs	r3, r3, #4
 80049f2:	e002      	b.n	80049fa <get_fat+0xc6>
 80049f4:	68bb      	ldr	r3, [r7, #8]
 80049f6:	051b      	lsls	r3, r3, #20
 80049f8:	0d1b      	lsrs	r3, r3, #20
 80049fa:	617b      	str	r3, [r7, #20]
 80049fc:	e057      	b.n	8004aae <get_fat+0x17a>
 80049fe:	687a      	ldr	r2, [r7, #4]
 8004a00:	2388      	movs	r3, #136	; 0x88
 8004a02:	009b      	lsls	r3, r3, #2
 8004a04:	58d2      	ldr	r2, [r2, r3]
 8004a06:	683b      	ldr	r3, [r7, #0]
 8004a08:	0a1b      	lsrs	r3, r3, #8
 8004a0a:	18d2      	adds	r2, r2, r3
 8004a0c:	687b      	ldr	r3, [r7, #4]
 8004a0e:	0011      	movs	r1, r2
 8004a10:	0018      	movs	r0, r3
 8004a12:	f7ff fe5b 	bl	80046cc <move_window>
 8004a16:	1e03      	subs	r3, r0, #0
 8004a18:	d146      	bne.n	8004aa8 <get_fat+0x174>
 8004a1a:	683b      	ldr	r3, [r7, #0]
 8004a1c:	005a      	lsls	r2, r3, #1
 8004a1e:	23ff      	movs	r3, #255	; 0xff
 8004a20:	005b      	lsls	r3, r3, #1
 8004a22:	4013      	ands	r3, r2
 8004a24:	687a      	ldr	r2, [r7, #4]
 8004a26:	18d3      	adds	r3, r2, r3
 8004a28:	613b      	str	r3, [r7, #16]
 8004a2a:	693b      	ldr	r3, [r7, #16]
 8004a2c:	3301      	adds	r3, #1
 8004a2e:	781b      	ldrb	r3, [r3, #0]
 8004a30:	021b      	lsls	r3, r3, #8
 8004a32:	b21a      	sxth	r2, r3
 8004a34:	693b      	ldr	r3, [r7, #16]
 8004a36:	781b      	ldrb	r3, [r3, #0]
 8004a38:	b21b      	sxth	r3, r3
 8004a3a:	4313      	orrs	r3, r2
 8004a3c:	b21b      	sxth	r3, r3
 8004a3e:	b29b      	uxth	r3, r3
 8004a40:	617b      	str	r3, [r7, #20]
 8004a42:	e034      	b.n	8004aae <get_fat+0x17a>
 8004a44:	687a      	ldr	r2, [r7, #4]
 8004a46:	2388      	movs	r3, #136	; 0x88
 8004a48:	009b      	lsls	r3, r3, #2
 8004a4a:	58d2      	ldr	r2, [r2, r3]
 8004a4c:	683b      	ldr	r3, [r7, #0]
 8004a4e:	09db      	lsrs	r3, r3, #7
 8004a50:	18d2      	adds	r2, r2, r3
 8004a52:	687b      	ldr	r3, [r7, #4]
 8004a54:	0011      	movs	r1, r2
 8004a56:	0018      	movs	r0, r3
 8004a58:	f7ff fe38 	bl	80046cc <move_window>
 8004a5c:	1e03      	subs	r3, r0, #0
 8004a5e:	d125      	bne.n	8004aac <get_fat+0x178>
 8004a60:	683b      	ldr	r3, [r7, #0]
 8004a62:	009a      	lsls	r2, r3, #2
 8004a64:	23fe      	movs	r3, #254	; 0xfe
 8004a66:	005b      	lsls	r3, r3, #1
 8004a68:	4013      	ands	r3, r2
 8004a6a:	687a      	ldr	r2, [r7, #4]
 8004a6c:	18d3      	adds	r3, r2, r3
 8004a6e:	613b      	str	r3, [r7, #16]
 8004a70:	693b      	ldr	r3, [r7, #16]
 8004a72:	3303      	adds	r3, #3
 8004a74:	781b      	ldrb	r3, [r3, #0]
 8004a76:	061a      	lsls	r2, r3, #24
 8004a78:	693b      	ldr	r3, [r7, #16]
 8004a7a:	3302      	adds	r3, #2
 8004a7c:	781b      	ldrb	r3, [r3, #0]
 8004a7e:	041b      	lsls	r3, r3, #16
 8004a80:	4313      	orrs	r3, r2
 8004a82:	693a      	ldr	r2, [r7, #16]
 8004a84:	3201      	adds	r2, #1
 8004a86:	7812      	ldrb	r2, [r2, #0]
 8004a88:	0212      	lsls	r2, r2, #8
 8004a8a:	4313      	orrs	r3, r2
 8004a8c:	693a      	ldr	r2, [r7, #16]
 8004a8e:	7812      	ldrb	r2, [r2, #0]
 8004a90:	4313      	orrs	r3, r2
 8004a92:	011b      	lsls	r3, r3, #4
 8004a94:	091b      	lsrs	r3, r3, #4
 8004a96:	617b      	str	r3, [r7, #20]
 8004a98:	e009      	b.n	8004aae <get_fat+0x17a>
 8004a9a:	2301      	movs	r3, #1
 8004a9c:	617b      	str	r3, [r7, #20]
 8004a9e:	e006      	b.n	8004aae <get_fat+0x17a>
 8004aa0:	46c0      	nop			; (mov r8, r8)
 8004aa2:	e004      	b.n	8004aae <get_fat+0x17a>
 8004aa4:	46c0      	nop			; (mov r8, r8)
 8004aa6:	e002      	b.n	8004aae <get_fat+0x17a>
 8004aa8:	46c0      	nop			; (mov r8, r8)
 8004aaa:	e000      	b.n	8004aae <get_fat+0x17a>
 8004aac:	46c0      	nop			; (mov r8, r8)
 8004aae:	697b      	ldr	r3, [r7, #20]
 8004ab0:	0018      	movs	r0, r3
 8004ab2:	46bd      	mov	sp, r7
 8004ab4:	b006      	add	sp, #24
 8004ab6:	bd80      	pop	{r7, pc}

08004ab8 <put_fat>:
 8004ab8:	b5b0      	push	{r4, r5, r7, lr}
 8004aba:	b088      	sub	sp, #32
 8004abc:	af00      	add	r7, sp, #0
 8004abe:	60f8      	str	r0, [r7, #12]
 8004ac0:	60b9      	str	r1, [r7, #8]
 8004ac2:	607a      	str	r2, [r7, #4]
 8004ac4:	68bb      	ldr	r3, [r7, #8]
 8004ac6:	2b01      	cmp	r3, #1
 8004ac8:	d906      	bls.n	8004ad8 <put_fat+0x20>
 8004aca:	68fa      	ldr	r2, [r7, #12]
 8004acc:	2385      	movs	r3, #133	; 0x85
 8004ace:	009b      	lsls	r3, r3, #2
 8004ad0:	58d3      	ldr	r3, [r2, r3]
 8004ad2:	68ba      	ldr	r2, [r7, #8]
 8004ad4:	429a      	cmp	r2, r3
 8004ad6:	d304      	bcc.n	8004ae2 <put_fat+0x2a>
 8004ad8:	231f      	movs	r3, #31
 8004ada:	18fb      	adds	r3, r7, r3
 8004adc:	2202      	movs	r2, #2
 8004ade:	701a      	strb	r2, [r3, #0]
 8004ae0:	e111      	b.n	8004d06 <put_fat+0x24e>
 8004ae2:	68fa      	ldr	r2, [r7, #12]
 8004ae4:	2380      	movs	r3, #128	; 0x80
 8004ae6:	009b      	lsls	r3, r3, #2
 8004ae8:	5cd3      	ldrb	r3, [r2, r3]
 8004aea:	2b03      	cmp	r3, #3
 8004aec:	d100      	bne.n	8004af0 <put_fat+0x38>
 8004aee:	e0ae      	b.n	8004c4e <put_fat+0x196>
 8004af0:	dd00      	ble.n	8004af4 <put_fat+0x3c>
 8004af2:	e0fc      	b.n	8004cee <put_fat+0x236>
 8004af4:	2b01      	cmp	r3, #1
 8004af6:	d003      	beq.n	8004b00 <put_fat+0x48>
 8004af8:	2b02      	cmp	r3, #2
 8004afa:	d100      	bne.n	8004afe <put_fat+0x46>
 8004afc:	e079      	b.n	8004bf2 <put_fat+0x13a>
 8004afe:	e0f6      	b.n	8004cee <put_fat+0x236>
 8004b00:	68bb      	ldr	r3, [r7, #8]
 8004b02:	617b      	str	r3, [r7, #20]
 8004b04:	697b      	ldr	r3, [r7, #20]
 8004b06:	085b      	lsrs	r3, r3, #1
 8004b08:	697a      	ldr	r2, [r7, #20]
 8004b0a:	18d3      	adds	r3, r2, r3
 8004b0c:	617b      	str	r3, [r7, #20]
 8004b0e:	68fa      	ldr	r2, [r7, #12]
 8004b10:	2388      	movs	r3, #136	; 0x88
 8004b12:	009b      	lsls	r3, r3, #2
 8004b14:	58d2      	ldr	r2, [r2, r3]
 8004b16:	697b      	ldr	r3, [r7, #20]
 8004b18:	0a5b      	lsrs	r3, r3, #9
 8004b1a:	18d2      	adds	r2, r2, r3
 8004b1c:	251f      	movs	r5, #31
 8004b1e:	197c      	adds	r4, r7, r5
 8004b20:	68fb      	ldr	r3, [r7, #12]
 8004b22:	0011      	movs	r1, r2
 8004b24:	0018      	movs	r0, r3
 8004b26:	f7ff fdd1 	bl	80046cc <move_window>
 8004b2a:	0003      	movs	r3, r0
 8004b2c:	7023      	strb	r3, [r4, #0]
 8004b2e:	197b      	adds	r3, r7, r5
 8004b30:	781b      	ldrb	r3, [r3, #0]
 8004b32:	2b00      	cmp	r3, #0
 8004b34:	d000      	beq.n	8004b38 <put_fat+0x80>
 8004b36:	e0df      	b.n	8004cf8 <put_fat+0x240>
 8004b38:	697b      	ldr	r3, [r7, #20]
 8004b3a:	1c5a      	adds	r2, r3, #1
 8004b3c:	617a      	str	r2, [r7, #20]
 8004b3e:	05db      	lsls	r3, r3, #23
 8004b40:	0ddb      	lsrs	r3, r3, #23
 8004b42:	68fa      	ldr	r2, [r7, #12]
 8004b44:	18d3      	adds	r3, r2, r3
 8004b46:	61bb      	str	r3, [r7, #24]
 8004b48:	68bb      	ldr	r3, [r7, #8]
 8004b4a:	2201      	movs	r2, #1
 8004b4c:	4013      	ands	r3, r2
 8004b4e:	d00d      	beq.n	8004b6c <put_fat+0xb4>
 8004b50:	69bb      	ldr	r3, [r7, #24]
 8004b52:	781b      	ldrb	r3, [r3, #0]
 8004b54:	b25b      	sxtb	r3, r3
 8004b56:	220f      	movs	r2, #15
 8004b58:	4013      	ands	r3, r2
 8004b5a:	b25a      	sxtb	r2, r3
 8004b5c:	687b      	ldr	r3, [r7, #4]
 8004b5e:	b2db      	uxtb	r3, r3
 8004b60:	011b      	lsls	r3, r3, #4
 8004b62:	b25b      	sxtb	r3, r3
 8004b64:	4313      	orrs	r3, r2
 8004b66:	b25b      	sxtb	r3, r3
 8004b68:	b2db      	uxtb	r3, r3
 8004b6a:	e001      	b.n	8004b70 <put_fat+0xb8>
 8004b6c:	687b      	ldr	r3, [r7, #4]
 8004b6e:	b2db      	uxtb	r3, r3
 8004b70:	69ba      	ldr	r2, [r7, #24]
 8004b72:	7013      	strb	r3, [r2, #0]
 8004b74:	68fa      	ldr	r2, [r7, #12]
 8004b76:	2381      	movs	r3, #129	; 0x81
 8004b78:	009b      	lsls	r3, r3, #2
 8004b7a:	2101      	movs	r1, #1
 8004b7c:	54d1      	strb	r1, [r2, r3]
 8004b7e:	68fa      	ldr	r2, [r7, #12]
 8004b80:	2388      	movs	r3, #136	; 0x88
 8004b82:	009b      	lsls	r3, r3, #2
 8004b84:	58d2      	ldr	r2, [r2, r3]
 8004b86:	697b      	ldr	r3, [r7, #20]
 8004b88:	0a5b      	lsrs	r3, r3, #9
 8004b8a:	18d2      	adds	r2, r2, r3
 8004b8c:	251f      	movs	r5, #31
 8004b8e:	197c      	adds	r4, r7, r5
 8004b90:	68fb      	ldr	r3, [r7, #12]
 8004b92:	0011      	movs	r1, r2
 8004b94:	0018      	movs	r0, r3
 8004b96:	f7ff fd99 	bl	80046cc <move_window>
 8004b9a:	0003      	movs	r3, r0
 8004b9c:	7023      	strb	r3, [r4, #0]
 8004b9e:	197b      	adds	r3, r7, r5
 8004ba0:	781b      	ldrb	r3, [r3, #0]
 8004ba2:	2b00      	cmp	r3, #0
 8004ba4:	d000      	beq.n	8004ba8 <put_fat+0xf0>
 8004ba6:	e0a9      	b.n	8004cfc <put_fat+0x244>
 8004ba8:	697b      	ldr	r3, [r7, #20]
 8004baa:	05db      	lsls	r3, r3, #23
 8004bac:	0ddb      	lsrs	r3, r3, #23
 8004bae:	68fa      	ldr	r2, [r7, #12]
 8004bb0:	18d3      	adds	r3, r2, r3
 8004bb2:	61bb      	str	r3, [r7, #24]
 8004bb4:	68bb      	ldr	r3, [r7, #8]
 8004bb6:	2201      	movs	r2, #1
 8004bb8:	4013      	ands	r3, r2
 8004bba:	d003      	beq.n	8004bc4 <put_fat+0x10c>
 8004bbc:	687b      	ldr	r3, [r7, #4]
 8004bbe:	091b      	lsrs	r3, r3, #4
 8004bc0:	b2db      	uxtb	r3, r3
 8004bc2:	e00e      	b.n	8004be2 <put_fat+0x12a>
 8004bc4:	69bb      	ldr	r3, [r7, #24]
 8004bc6:	781b      	ldrb	r3, [r3, #0]
 8004bc8:	b25b      	sxtb	r3, r3
 8004bca:	220f      	movs	r2, #15
 8004bcc:	4393      	bics	r3, r2
 8004bce:	b25a      	sxtb	r2, r3
 8004bd0:	687b      	ldr	r3, [r7, #4]
 8004bd2:	0a1b      	lsrs	r3, r3, #8
 8004bd4:	b25b      	sxtb	r3, r3
 8004bd6:	210f      	movs	r1, #15
 8004bd8:	400b      	ands	r3, r1
 8004bda:	b25b      	sxtb	r3, r3
 8004bdc:	4313      	orrs	r3, r2
 8004bde:	b25b      	sxtb	r3, r3
 8004be0:	b2db      	uxtb	r3, r3
 8004be2:	69ba      	ldr	r2, [r7, #24]
 8004be4:	7013      	strb	r3, [r2, #0]
 8004be6:	68fa      	ldr	r2, [r7, #12]
 8004be8:	2381      	movs	r3, #129	; 0x81
 8004bea:	009b      	lsls	r3, r3, #2
 8004bec:	2101      	movs	r1, #1
 8004bee:	54d1      	strb	r1, [r2, r3]
 8004bf0:	e089      	b.n	8004d06 <put_fat+0x24e>
 8004bf2:	68fa      	ldr	r2, [r7, #12]
 8004bf4:	2388      	movs	r3, #136	; 0x88
 8004bf6:	009b      	lsls	r3, r3, #2
 8004bf8:	58d2      	ldr	r2, [r2, r3]
 8004bfa:	68bb      	ldr	r3, [r7, #8]
 8004bfc:	0a1b      	lsrs	r3, r3, #8
 8004bfe:	18d2      	adds	r2, r2, r3
 8004c00:	251f      	movs	r5, #31
 8004c02:	197c      	adds	r4, r7, r5
 8004c04:	68fb      	ldr	r3, [r7, #12]
 8004c06:	0011      	movs	r1, r2
 8004c08:	0018      	movs	r0, r3
 8004c0a:	f7ff fd5f 	bl	80046cc <move_window>
 8004c0e:	0003      	movs	r3, r0
 8004c10:	7023      	strb	r3, [r4, #0]
 8004c12:	197b      	adds	r3, r7, r5
 8004c14:	781b      	ldrb	r3, [r3, #0]
 8004c16:	2b00      	cmp	r3, #0
 8004c18:	d172      	bne.n	8004d00 <put_fat+0x248>
 8004c1a:	68bb      	ldr	r3, [r7, #8]
 8004c1c:	005a      	lsls	r2, r3, #1
 8004c1e:	23ff      	movs	r3, #255	; 0xff
 8004c20:	005b      	lsls	r3, r3, #1
 8004c22:	4013      	ands	r3, r2
 8004c24:	68fa      	ldr	r2, [r7, #12]
 8004c26:	18d3      	adds	r3, r2, r3
 8004c28:	61bb      	str	r3, [r7, #24]
 8004c2a:	687b      	ldr	r3, [r7, #4]
 8004c2c:	b2da      	uxtb	r2, r3
 8004c2e:	69bb      	ldr	r3, [r7, #24]
 8004c30:	701a      	strb	r2, [r3, #0]
 8004c32:	687b      	ldr	r3, [r7, #4]
 8004c34:	b29b      	uxth	r3, r3
 8004c36:	0a1b      	lsrs	r3, r3, #8
 8004c38:	b29a      	uxth	r2, r3
 8004c3a:	69bb      	ldr	r3, [r7, #24]
 8004c3c:	3301      	adds	r3, #1
 8004c3e:	b2d2      	uxtb	r2, r2
 8004c40:	701a      	strb	r2, [r3, #0]
 8004c42:	68fa      	ldr	r2, [r7, #12]
 8004c44:	2381      	movs	r3, #129	; 0x81
 8004c46:	009b      	lsls	r3, r3, #2
 8004c48:	2101      	movs	r1, #1
 8004c4a:	54d1      	strb	r1, [r2, r3]
 8004c4c:	e05b      	b.n	8004d06 <put_fat+0x24e>
 8004c4e:	68fa      	ldr	r2, [r7, #12]
 8004c50:	2388      	movs	r3, #136	; 0x88
 8004c52:	009b      	lsls	r3, r3, #2
 8004c54:	58d2      	ldr	r2, [r2, r3]
 8004c56:	68bb      	ldr	r3, [r7, #8]
 8004c58:	09db      	lsrs	r3, r3, #7
 8004c5a:	18d2      	adds	r2, r2, r3
 8004c5c:	251f      	movs	r5, #31
 8004c5e:	197c      	adds	r4, r7, r5
 8004c60:	68fb      	ldr	r3, [r7, #12]
 8004c62:	0011      	movs	r1, r2
 8004c64:	0018      	movs	r0, r3
 8004c66:	f7ff fd31 	bl	80046cc <move_window>
 8004c6a:	0003      	movs	r3, r0
 8004c6c:	7023      	strb	r3, [r4, #0]
 8004c6e:	197b      	adds	r3, r7, r5
 8004c70:	781b      	ldrb	r3, [r3, #0]
 8004c72:	2b00      	cmp	r3, #0
 8004c74:	d146      	bne.n	8004d04 <put_fat+0x24c>
 8004c76:	68bb      	ldr	r3, [r7, #8]
 8004c78:	009a      	lsls	r2, r3, #2
 8004c7a:	23fe      	movs	r3, #254	; 0xfe
 8004c7c:	005b      	lsls	r3, r3, #1
 8004c7e:	4013      	ands	r3, r2
 8004c80:	68fa      	ldr	r2, [r7, #12]
 8004c82:	18d3      	adds	r3, r2, r3
 8004c84:	61bb      	str	r3, [r7, #24]
 8004c86:	69bb      	ldr	r3, [r7, #24]
 8004c88:	3303      	adds	r3, #3
 8004c8a:	781b      	ldrb	r3, [r3, #0]
 8004c8c:	061a      	lsls	r2, r3, #24
 8004c8e:	69bb      	ldr	r3, [r7, #24]
 8004c90:	3302      	adds	r3, #2
 8004c92:	781b      	ldrb	r3, [r3, #0]
 8004c94:	041b      	lsls	r3, r3, #16
 8004c96:	4313      	orrs	r3, r2
 8004c98:	69ba      	ldr	r2, [r7, #24]
 8004c9a:	3201      	adds	r2, #1
 8004c9c:	7812      	ldrb	r2, [r2, #0]
 8004c9e:	0212      	lsls	r2, r2, #8
 8004ca0:	4313      	orrs	r3, r2
 8004ca2:	69ba      	ldr	r2, [r7, #24]
 8004ca4:	7812      	ldrb	r2, [r2, #0]
 8004ca6:	4313      	orrs	r3, r2
 8004ca8:	0f1b      	lsrs	r3, r3, #28
 8004caa:	071b      	lsls	r3, r3, #28
 8004cac:	687a      	ldr	r2, [r7, #4]
 8004cae:	4313      	orrs	r3, r2
 8004cb0:	607b      	str	r3, [r7, #4]
 8004cb2:	687b      	ldr	r3, [r7, #4]
 8004cb4:	b2da      	uxtb	r2, r3
 8004cb6:	69bb      	ldr	r3, [r7, #24]
 8004cb8:	701a      	strb	r2, [r3, #0]
 8004cba:	687b      	ldr	r3, [r7, #4]
 8004cbc:	b29b      	uxth	r3, r3
 8004cbe:	0a1b      	lsrs	r3, r3, #8
 8004cc0:	b29a      	uxth	r2, r3
 8004cc2:	69bb      	ldr	r3, [r7, #24]
 8004cc4:	3301      	adds	r3, #1
 8004cc6:	b2d2      	uxtb	r2, r2
 8004cc8:	701a      	strb	r2, [r3, #0]
 8004cca:	687b      	ldr	r3, [r7, #4]
 8004ccc:	0c1a      	lsrs	r2, r3, #16
 8004cce:	69bb      	ldr	r3, [r7, #24]
 8004cd0:	3302      	adds	r3, #2
 8004cd2:	b2d2      	uxtb	r2, r2
 8004cd4:	701a      	strb	r2, [r3, #0]
 8004cd6:	687b      	ldr	r3, [r7, #4]
 8004cd8:	0e1a      	lsrs	r2, r3, #24
 8004cda:	69bb      	ldr	r3, [r7, #24]
 8004cdc:	3303      	adds	r3, #3
 8004cde:	b2d2      	uxtb	r2, r2
 8004ce0:	701a      	strb	r2, [r3, #0]
 8004ce2:	68fa      	ldr	r2, [r7, #12]
 8004ce4:	2381      	movs	r3, #129	; 0x81
 8004ce6:	009b      	lsls	r3, r3, #2
 8004ce8:	2101      	movs	r1, #1
 8004cea:	54d1      	strb	r1, [r2, r3]
 8004cec:	e00b      	b.n	8004d06 <put_fat+0x24e>
 8004cee:	231f      	movs	r3, #31
 8004cf0:	18fb      	adds	r3, r7, r3
 8004cf2:	2202      	movs	r2, #2
 8004cf4:	701a      	strb	r2, [r3, #0]
 8004cf6:	e006      	b.n	8004d06 <put_fat+0x24e>
 8004cf8:	46c0      	nop			; (mov r8, r8)
 8004cfa:	e004      	b.n	8004d06 <put_fat+0x24e>
 8004cfc:	46c0      	nop			; (mov r8, r8)
 8004cfe:	e002      	b.n	8004d06 <put_fat+0x24e>
 8004d00:	46c0      	nop			; (mov r8, r8)
 8004d02:	e000      	b.n	8004d06 <put_fat+0x24e>
 8004d04:	46c0      	nop			; (mov r8, r8)
 8004d06:	231f      	movs	r3, #31
 8004d08:	18fb      	adds	r3, r7, r3
 8004d0a:	781b      	ldrb	r3, [r3, #0]
 8004d0c:	0018      	movs	r0, r3
 8004d0e:	46bd      	mov	sp, r7
 8004d10:	b008      	add	sp, #32
 8004d12:	bdb0      	pop	{r4, r5, r7, pc}

08004d14 <remove_chain>:
 8004d14:	b5b0      	push	{r4, r5, r7, lr}
 8004d16:	b084      	sub	sp, #16
 8004d18:	af00      	add	r7, sp, #0
 8004d1a:	6078      	str	r0, [r7, #4]
 8004d1c:	6039      	str	r1, [r7, #0]
 8004d1e:	683b      	ldr	r3, [r7, #0]
 8004d20:	2b01      	cmp	r3, #1
 8004d22:	d906      	bls.n	8004d32 <remove_chain+0x1e>
 8004d24:	687a      	ldr	r2, [r7, #4]
 8004d26:	2385      	movs	r3, #133	; 0x85
 8004d28:	009b      	lsls	r3, r3, #2
 8004d2a:	58d3      	ldr	r3, [r2, r3]
 8004d2c:	683a      	ldr	r2, [r7, #0]
 8004d2e:	429a      	cmp	r2, r3
 8004d30:	d304      	bcc.n	8004d3c <remove_chain+0x28>
 8004d32:	230f      	movs	r3, #15
 8004d34:	18fb      	adds	r3, r7, r3
 8004d36:	2202      	movs	r2, #2
 8004d38:	701a      	strb	r2, [r3, #0]
 8004d3a:	e052      	b.n	8004de2 <remove_chain+0xce>
 8004d3c:	230f      	movs	r3, #15
 8004d3e:	18fb      	adds	r3, r7, r3
 8004d40:	2200      	movs	r2, #0
 8004d42:	701a      	strb	r2, [r3, #0]
 8004d44:	e042      	b.n	8004dcc <remove_chain+0xb8>
 8004d46:	683a      	ldr	r2, [r7, #0]
 8004d48:	687b      	ldr	r3, [r7, #4]
 8004d4a:	0011      	movs	r1, r2
 8004d4c:	0018      	movs	r0, r3
 8004d4e:	f7ff fdf1 	bl	8004934 <get_fat>
 8004d52:	0003      	movs	r3, r0
 8004d54:	60bb      	str	r3, [r7, #8]
 8004d56:	68bb      	ldr	r3, [r7, #8]
 8004d58:	2b00      	cmp	r3, #0
 8004d5a:	d03f      	beq.n	8004ddc <remove_chain+0xc8>
 8004d5c:	68bb      	ldr	r3, [r7, #8]
 8004d5e:	2b01      	cmp	r3, #1
 8004d60:	d104      	bne.n	8004d6c <remove_chain+0x58>
 8004d62:	230f      	movs	r3, #15
 8004d64:	18fb      	adds	r3, r7, r3
 8004d66:	2202      	movs	r2, #2
 8004d68:	701a      	strb	r2, [r3, #0]
 8004d6a:	e03a      	b.n	8004de2 <remove_chain+0xce>
 8004d6c:	68bb      	ldr	r3, [r7, #8]
 8004d6e:	3301      	adds	r3, #1
 8004d70:	d104      	bne.n	8004d7c <remove_chain+0x68>
 8004d72:	230f      	movs	r3, #15
 8004d74:	18fb      	adds	r3, r7, r3
 8004d76:	2201      	movs	r2, #1
 8004d78:	701a      	strb	r2, [r3, #0]
 8004d7a:	e032      	b.n	8004de2 <remove_chain+0xce>
 8004d7c:	250f      	movs	r5, #15
 8004d7e:	197c      	adds	r4, r7, r5
 8004d80:	6839      	ldr	r1, [r7, #0]
 8004d82:	687b      	ldr	r3, [r7, #4]
 8004d84:	2200      	movs	r2, #0
 8004d86:	0018      	movs	r0, r3
 8004d88:	f7ff fe96 	bl	8004ab8 <put_fat>
 8004d8c:	0003      	movs	r3, r0
 8004d8e:	7023      	strb	r3, [r4, #0]
 8004d90:	197b      	adds	r3, r7, r5
 8004d92:	781b      	ldrb	r3, [r3, #0]
 8004d94:	2b00      	cmp	r3, #0
 8004d96:	d123      	bne.n	8004de0 <remove_chain+0xcc>
 8004d98:	687a      	ldr	r2, [r7, #4]
 8004d9a:	2384      	movs	r3, #132	; 0x84
 8004d9c:	009b      	lsls	r3, r3, #2
 8004d9e:	58d3      	ldr	r3, [r2, r3]
 8004da0:	3301      	adds	r3, #1
 8004da2:	d011      	beq.n	8004dc8 <remove_chain+0xb4>
 8004da4:	687a      	ldr	r2, [r7, #4]
 8004da6:	2384      	movs	r3, #132	; 0x84
 8004da8:	009b      	lsls	r3, r3, #2
 8004daa:	58d3      	ldr	r3, [r2, r3]
 8004dac:	1c59      	adds	r1, r3, #1
 8004dae:	687a      	ldr	r2, [r7, #4]
 8004db0:	2384      	movs	r3, #132	; 0x84
 8004db2:	009b      	lsls	r3, r3, #2
 8004db4:	50d1      	str	r1, [r2, r3]
 8004db6:	687b      	ldr	r3, [r7, #4]
 8004db8:	4a0d      	ldr	r2, [pc, #52]	; (8004df0 <remove_chain+0xdc>)
 8004dba:	5c9b      	ldrb	r3, [r3, r2]
 8004dbc:	2201      	movs	r2, #1
 8004dbe:	4313      	orrs	r3, r2
 8004dc0:	b2d9      	uxtb	r1, r3
 8004dc2:	687b      	ldr	r3, [r7, #4]
 8004dc4:	4a0a      	ldr	r2, [pc, #40]	; (8004df0 <remove_chain+0xdc>)
 8004dc6:	5499      	strb	r1, [r3, r2]
 8004dc8:	68bb      	ldr	r3, [r7, #8]
 8004dca:	603b      	str	r3, [r7, #0]
 8004dcc:	687a      	ldr	r2, [r7, #4]
 8004dce:	2385      	movs	r3, #133	; 0x85
 8004dd0:	009b      	lsls	r3, r3, #2
 8004dd2:	58d3      	ldr	r3, [r2, r3]
 8004dd4:	683a      	ldr	r2, [r7, #0]
 8004dd6:	429a      	cmp	r2, r3
 8004dd8:	d3b5      	bcc.n	8004d46 <remove_chain+0x32>
 8004dda:	e002      	b.n	8004de2 <remove_chain+0xce>
 8004ddc:	46c0      	nop			; (mov r8, r8)
 8004dde:	e000      	b.n	8004de2 <remove_chain+0xce>
 8004de0:	46c0      	nop			; (mov r8, r8)
 8004de2:	230f      	movs	r3, #15
 8004de4:	18fb      	adds	r3, r7, r3
 8004de6:	781b      	ldrb	r3, [r3, #0]
 8004de8:	0018      	movs	r0, r3
 8004dea:	46bd      	mov	sp, r7
 8004dec:	b004      	add	sp, #16
 8004dee:	bdb0      	pop	{r4, r5, r7, pc}
 8004df0:	00000205 	.word	0x00000205

08004df4 <create_chain>:
 8004df4:	b5b0      	push	{r4, r5, r7, lr}
 8004df6:	b086      	sub	sp, #24
 8004df8:	af00      	add	r7, sp, #0
 8004dfa:	6078      	str	r0, [r7, #4]
 8004dfc:	6039      	str	r1, [r7, #0]
 8004dfe:	683b      	ldr	r3, [r7, #0]
 8004e00:	2b00      	cmp	r3, #0
 8004e02:	d111      	bne.n	8004e28 <create_chain+0x34>
 8004e04:	687a      	ldr	r2, [r7, #4]
 8004e06:	2383      	movs	r3, #131	; 0x83
 8004e08:	009b      	lsls	r3, r3, #2
 8004e0a:	58d3      	ldr	r3, [r2, r3]
 8004e0c:	613b      	str	r3, [r7, #16]
 8004e0e:	693b      	ldr	r3, [r7, #16]
 8004e10:	2b00      	cmp	r3, #0
 8004e12:	d006      	beq.n	8004e22 <create_chain+0x2e>
 8004e14:	687a      	ldr	r2, [r7, #4]
 8004e16:	2385      	movs	r3, #133	; 0x85
 8004e18:	009b      	lsls	r3, r3, #2
 8004e1a:	58d3      	ldr	r3, [r2, r3]
 8004e1c:	693a      	ldr	r2, [r7, #16]
 8004e1e:	429a      	cmp	r2, r3
 8004e20:	d31f      	bcc.n	8004e62 <create_chain+0x6e>
 8004e22:	2301      	movs	r3, #1
 8004e24:	613b      	str	r3, [r7, #16]
 8004e26:	e01c      	b.n	8004e62 <create_chain+0x6e>
 8004e28:	683a      	ldr	r2, [r7, #0]
 8004e2a:	687b      	ldr	r3, [r7, #4]
 8004e2c:	0011      	movs	r1, r2
 8004e2e:	0018      	movs	r0, r3
 8004e30:	f7ff fd80 	bl	8004934 <get_fat>
 8004e34:	0003      	movs	r3, r0
 8004e36:	60bb      	str	r3, [r7, #8]
 8004e38:	68bb      	ldr	r3, [r7, #8]
 8004e3a:	2b01      	cmp	r3, #1
 8004e3c:	d801      	bhi.n	8004e42 <create_chain+0x4e>
 8004e3e:	2301      	movs	r3, #1
 8004e40:	e085      	b.n	8004f4e <create_chain+0x15a>
 8004e42:	68bb      	ldr	r3, [r7, #8]
 8004e44:	3301      	adds	r3, #1
 8004e46:	d101      	bne.n	8004e4c <create_chain+0x58>
 8004e48:	68bb      	ldr	r3, [r7, #8]
 8004e4a:	e080      	b.n	8004f4e <create_chain+0x15a>
 8004e4c:	687a      	ldr	r2, [r7, #4]
 8004e4e:	2385      	movs	r3, #133	; 0x85
 8004e50:	009b      	lsls	r3, r3, #2
 8004e52:	58d3      	ldr	r3, [r2, r3]
 8004e54:	68ba      	ldr	r2, [r7, #8]
 8004e56:	429a      	cmp	r2, r3
 8004e58:	d201      	bcs.n	8004e5e <create_chain+0x6a>
 8004e5a:	68bb      	ldr	r3, [r7, #8]
 8004e5c:	e077      	b.n	8004f4e <create_chain+0x15a>
 8004e5e:	683b      	ldr	r3, [r7, #0]
 8004e60:	613b      	str	r3, [r7, #16]
 8004e62:	693b      	ldr	r3, [r7, #16]
 8004e64:	617b      	str	r3, [r7, #20]
 8004e66:	697b      	ldr	r3, [r7, #20]
 8004e68:	3301      	adds	r3, #1
 8004e6a:	617b      	str	r3, [r7, #20]
 8004e6c:	687a      	ldr	r2, [r7, #4]
 8004e6e:	2385      	movs	r3, #133	; 0x85
 8004e70:	009b      	lsls	r3, r3, #2
 8004e72:	58d3      	ldr	r3, [r2, r3]
 8004e74:	697a      	ldr	r2, [r7, #20]
 8004e76:	429a      	cmp	r2, r3
 8004e78:	d307      	bcc.n	8004e8a <create_chain+0x96>
 8004e7a:	2302      	movs	r3, #2
 8004e7c:	617b      	str	r3, [r7, #20]
 8004e7e:	697a      	ldr	r2, [r7, #20]
 8004e80:	693b      	ldr	r3, [r7, #16]
 8004e82:	429a      	cmp	r2, r3
 8004e84:	d901      	bls.n	8004e8a <create_chain+0x96>
 8004e86:	2300      	movs	r3, #0
 8004e88:	e061      	b.n	8004f4e <create_chain+0x15a>
 8004e8a:	697a      	ldr	r2, [r7, #20]
 8004e8c:	687b      	ldr	r3, [r7, #4]
 8004e8e:	0011      	movs	r1, r2
 8004e90:	0018      	movs	r0, r3
 8004e92:	f7ff fd4f 	bl	8004934 <get_fat>
 8004e96:	0003      	movs	r3, r0
 8004e98:	60bb      	str	r3, [r7, #8]
 8004e9a:	68bb      	ldr	r3, [r7, #8]
 8004e9c:	2b00      	cmp	r3, #0
 8004e9e:	d00d      	beq.n	8004ebc <create_chain+0xc8>
 8004ea0:	68bb      	ldr	r3, [r7, #8]
 8004ea2:	3301      	adds	r3, #1
 8004ea4:	d002      	beq.n	8004eac <create_chain+0xb8>
 8004ea6:	68bb      	ldr	r3, [r7, #8]
 8004ea8:	2b01      	cmp	r3, #1
 8004eaa:	d101      	bne.n	8004eb0 <create_chain+0xbc>
 8004eac:	68bb      	ldr	r3, [r7, #8]
 8004eae:	e04e      	b.n	8004f4e <create_chain+0x15a>
 8004eb0:	697a      	ldr	r2, [r7, #20]
 8004eb2:	693b      	ldr	r3, [r7, #16]
 8004eb4:	429a      	cmp	r2, r3
 8004eb6:	d1d6      	bne.n	8004e66 <create_chain+0x72>
 8004eb8:	2300      	movs	r3, #0
 8004eba:	e048      	b.n	8004f4e <create_chain+0x15a>
 8004ebc:	46c0      	nop			; (mov r8, r8)
 8004ebe:	250f      	movs	r5, #15
 8004ec0:	197c      	adds	r4, r7, r5
 8004ec2:	4a25      	ldr	r2, [pc, #148]	; (8004f58 <create_chain+0x164>)
 8004ec4:	6979      	ldr	r1, [r7, #20]
 8004ec6:	687b      	ldr	r3, [r7, #4]
 8004ec8:	0018      	movs	r0, r3
 8004eca:	f7ff fdf5 	bl	8004ab8 <put_fat>
 8004ece:	0003      	movs	r3, r0
 8004ed0:	7023      	strb	r3, [r4, #0]
 8004ed2:	197b      	adds	r3, r7, r5
 8004ed4:	781b      	ldrb	r3, [r3, #0]
 8004ed6:	2b00      	cmp	r3, #0
 8004ed8:	d10b      	bne.n	8004ef2 <create_chain+0xfe>
 8004eda:	683b      	ldr	r3, [r7, #0]
 8004edc:	2b00      	cmp	r3, #0
 8004ede:	d008      	beq.n	8004ef2 <create_chain+0xfe>
 8004ee0:	197c      	adds	r4, r7, r5
 8004ee2:	697a      	ldr	r2, [r7, #20]
 8004ee4:	6839      	ldr	r1, [r7, #0]
 8004ee6:	687b      	ldr	r3, [r7, #4]
 8004ee8:	0018      	movs	r0, r3
 8004eea:	f7ff fde5 	bl	8004ab8 <put_fat>
 8004eee:	0003      	movs	r3, r0
 8004ef0:	7023      	strb	r3, [r4, #0]
 8004ef2:	230f      	movs	r3, #15
 8004ef4:	18fb      	adds	r3, r7, r3
 8004ef6:	781b      	ldrb	r3, [r3, #0]
 8004ef8:	2b00      	cmp	r3, #0
 8004efa:	d11d      	bne.n	8004f38 <create_chain+0x144>
 8004efc:	687a      	ldr	r2, [r7, #4]
 8004efe:	2383      	movs	r3, #131	; 0x83
 8004f00:	009b      	lsls	r3, r3, #2
 8004f02:	6979      	ldr	r1, [r7, #20]
 8004f04:	50d1      	str	r1, [r2, r3]
 8004f06:	687a      	ldr	r2, [r7, #4]
 8004f08:	2384      	movs	r3, #132	; 0x84
 8004f0a:	009b      	lsls	r3, r3, #2
 8004f0c:	58d3      	ldr	r3, [r2, r3]
 8004f0e:	3301      	adds	r3, #1
 8004f10:	d01c      	beq.n	8004f4c <create_chain+0x158>
 8004f12:	687a      	ldr	r2, [r7, #4]
 8004f14:	2384      	movs	r3, #132	; 0x84
 8004f16:	009b      	lsls	r3, r3, #2
 8004f18:	58d3      	ldr	r3, [r2, r3]
 8004f1a:	1e59      	subs	r1, r3, #1
 8004f1c:	687a      	ldr	r2, [r7, #4]
 8004f1e:	2384      	movs	r3, #132	; 0x84
 8004f20:	009b      	lsls	r3, r3, #2
 8004f22:	50d1      	str	r1, [r2, r3]
 8004f24:	687b      	ldr	r3, [r7, #4]
 8004f26:	4a0d      	ldr	r2, [pc, #52]	; (8004f5c <create_chain+0x168>)
 8004f28:	5c9b      	ldrb	r3, [r3, r2]
 8004f2a:	2201      	movs	r2, #1
 8004f2c:	4313      	orrs	r3, r2
 8004f2e:	b2d9      	uxtb	r1, r3
 8004f30:	687b      	ldr	r3, [r7, #4]
 8004f32:	4a0a      	ldr	r2, [pc, #40]	; (8004f5c <create_chain+0x168>)
 8004f34:	5499      	strb	r1, [r3, r2]
 8004f36:	e009      	b.n	8004f4c <create_chain+0x158>
 8004f38:	230f      	movs	r3, #15
 8004f3a:	18fb      	adds	r3, r7, r3
 8004f3c:	781b      	ldrb	r3, [r3, #0]
 8004f3e:	2b01      	cmp	r3, #1
 8004f40:	d102      	bne.n	8004f48 <create_chain+0x154>
 8004f42:	2301      	movs	r3, #1
 8004f44:	425b      	negs	r3, r3
 8004f46:	e000      	b.n	8004f4a <create_chain+0x156>
 8004f48:	2301      	movs	r3, #1
 8004f4a:	617b      	str	r3, [r7, #20]
 8004f4c:	697b      	ldr	r3, [r7, #20]
 8004f4e:	0018      	movs	r0, r3
 8004f50:	46bd      	mov	sp, r7
 8004f52:	b006      	add	sp, #24
 8004f54:	bdb0      	pop	{r4, r5, r7, pc}
 8004f56:	46c0      	nop			; (mov r8, r8)
 8004f58:	0fffffff 	.word	0x0fffffff
 8004f5c:	00000205 	.word	0x00000205

08004f60 <clmt_clust>:
 8004f60:	b580      	push	{r7, lr}
 8004f62:	b086      	sub	sp, #24
 8004f64:	af00      	add	r7, sp, #0
 8004f66:	6078      	str	r0, [r7, #4]
 8004f68:	6039      	str	r1, [r7, #0]
 8004f6a:	687a      	ldr	r2, [r7, #4]
 8004f6c:	2389      	movs	r3, #137	; 0x89
 8004f6e:	009b      	lsls	r3, r3, #2
 8004f70:	58d3      	ldr	r3, [r2, r3]
 8004f72:	3304      	adds	r3, #4
 8004f74:	613b      	str	r3, [r7, #16]
 8004f76:	683b      	ldr	r3, [r7, #0]
 8004f78:	0a58      	lsrs	r0, r3, #9
 8004f7a:	687a      	ldr	r2, [r7, #4]
 8004f7c:	2380      	movs	r3, #128	; 0x80
 8004f7e:	009b      	lsls	r3, r3, #2
 8004f80:	58d3      	ldr	r3, [r2, r3]
 8004f82:	4a13      	ldr	r2, [pc, #76]	; (8004fd0 <clmt_clust+0x70>)
 8004f84:	5c9b      	ldrb	r3, [r3, r2]
 8004f86:	0019      	movs	r1, r3
 8004f88:	f7fb f8bc 	bl	8000104 <__udivsi3>
 8004f8c:	0003      	movs	r3, r0
 8004f8e:	617b      	str	r3, [r7, #20]
 8004f90:	693b      	ldr	r3, [r7, #16]
 8004f92:	1d1a      	adds	r2, r3, #4
 8004f94:	613a      	str	r2, [r7, #16]
 8004f96:	681b      	ldr	r3, [r3, #0]
 8004f98:	60fb      	str	r3, [r7, #12]
 8004f9a:	68fb      	ldr	r3, [r7, #12]
 8004f9c:	2b00      	cmp	r3, #0
 8004f9e:	d101      	bne.n	8004fa4 <clmt_clust+0x44>
 8004fa0:	2300      	movs	r3, #0
 8004fa2:	e010      	b.n	8004fc6 <clmt_clust+0x66>
 8004fa4:	697a      	ldr	r2, [r7, #20]
 8004fa6:	68fb      	ldr	r3, [r7, #12]
 8004fa8:	429a      	cmp	r2, r3
 8004faa:	d307      	bcc.n	8004fbc <clmt_clust+0x5c>
 8004fac:	697a      	ldr	r2, [r7, #20]
 8004fae:	68fb      	ldr	r3, [r7, #12]
 8004fb0:	1ad3      	subs	r3, r2, r3
 8004fb2:	617b      	str	r3, [r7, #20]
 8004fb4:	693b      	ldr	r3, [r7, #16]
 8004fb6:	3304      	adds	r3, #4
 8004fb8:	613b      	str	r3, [r7, #16]
 8004fba:	e7e9      	b.n	8004f90 <clmt_clust+0x30>
 8004fbc:	46c0      	nop			; (mov r8, r8)
 8004fbe:	693b      	ldr	r3, [r7, #16]
 8004fc0:	681a      	ldr	r2, [r3, #0]
 8004fc2:	697b      	ldr	r3, [r7, #20]
 8004fc4:	18d3      	adds	r3, r2, r3
 8004fc6:	0018      	movs	r0, r3
 8004fc8:	46bd      	mov	sp, r7
 8004fca:	b006      	add	sp, #24
 8004fcc:	bd80      	pop	{r7, pc}
 8004fce:	46c0      	nop			; (mov r8, r8)
 8004fd0:	00000202 	.word	0x00000202

08004fd4 <dir_sdi>:
 8004fd4:	b580      	push	{r7, lr}
 8004fd6:	b086      	sub	sp, #24
 8004fd8:	af00      	add	r7, sp, #0
 8004fda:	6078      	str	r0, [r7, #4]
 8004fdc:	6039      	str	r1, [r7, #0]
 8004fde:	683b      	ldr	r3, [r7, #0]
 8004fe0:	b299      	uxth	r1, r3
 8004fe2:	687b      	ldr	r3, [r7, #4]
 8004fe4:	4a51      	ldr	r2, [pc, #324]	; (800512c <dir_sdi+0x158>)
 8004fe6:	5299      	strh	r1, [r3, r2]
 8004fe8:	687a      	ldr	r2, [r7, #4]
 8004fea:	2382      	movs	r3, #130	; 0x82
 8004fec:	009b      	lsls	r3, r3, #2
 8004fee:	58d3      	ldr	r3, [r2, r3]
 8004ff0:	617b      	str	r3, [r7, #20]
 8004ff2:	697b      	ldr	r3, [r7, #20]
 8004ff4:	2b01      	cmp	r3, #1
 8004ff6:	d009      	beq.n	800500c <dir_sdi+0x38>
 8004ff8:	687a      	ldr	r2, [r7, #4]
 8004ffa:	2380      	movs	r3, #128	; 0x80
 8004ffc:	009b      	lsls	r3, r3, #2
 8004ffe:	58d2      	ldr	r2, [r2, r3]
 8005000:	2385      	movs	r3, #133	; 0x85
 8005002:	009b      	lsls	r3, r3, #2
 8005004:	58d3      	ldr	r3, [r2, r3]
 8005006:	697a      	ldr	r2, [r7, #20]
 8005008:	429a      	cmp	r2, r3
 800500a:	d301      	bcc.n	8005010 <dir_sdi+0x3c>
 800500c:	2302      	movs	r3, #2
 800500e:	e088      	b.n	8005122 <dir_sdi+0x14e>
 8005010:	697b      	ldr	r3, [r7, #20]
 8005012:	2b00      	cmp	r3, #0
 8005014:	d110      	bne.n	8005038 <dir_sdi+0x64>
 8005016:	687a      	ldr	r2, [r7, #4]
 8005018:	2380      	movs	r3, #128	; 0x80
 800501a:	009b      	lsls	r3, r3, #2
 800501c:	58d2      	ldr	r2, [r2, r3]
 800501e:	2380      	movs	r3, #128	; 0x80
 8005020:	009b      	lsls	r3, r3, #2
 8005022:	5cd3      	ldrb	r3, [r2, r3]
 8005024:	2b03      	cmp	r3, #3
 8005026:	d107      	bne.n	8005038 <dir_sdi+0x64>
 8005028:	687a      	ldr	r2, [r7, #4]
 800502a:	2380      	movs	r3, #128	; 0x80
 800502c:	009b      	lsls	r3, r3, #2
 800502e:	58d2      	ldr	r2, [r2, r3]
 8005030:	2389      	movs	r3, #137	; 0x89
 8005032:	009b      	lsls	r3, r3, #2
 8005034:	58d3      	ldr	r3, [r2, r3]
 8005036:	617b      	str	r3, [r7, #20]
 8005038:	697b      	ldr	r3, [r7, #20]
 800503a:	2b00      	cmp	r3, #0
 800503c:	d115      	bne.n	800506a <dir_sdi+0x96>
 800503e:	687a      	ldr	r2, [r7, #4]
 8005040:	2380      	movs	r3, #128	; 0x80
 8005042:	009b      	lsls	r3, r3, #2
 8005044:	58d2      	ldr	r2, [r2, r3]
 8005046:	2382      	movs	r3, #130	; 0x82
 8005048:	009b      	lsls	r3, r3, #2
 800504a:	5ad3      	ldrh	r3, [r2, r3]
 800504c:	001a      	movs	r2, r3
 800504e:	683b      	ldr	r3, [r7, #0]
 8005050:	4293      	cmp	r3, r2
 8005052:	d301      	bcc.n	8005058 <dir_sdi+0x84>
 8005054:	2302      	movs	r3, #2
 8005056:	e064      	b.n	8005122 <dir_sdi+0x14e>
 8005058:	687a      	ldr	r2, [r7, #4]
 800505a:	2380      	movs	r3, #128	; 0x80
 800505c:	009b      	lsls	r3, r3, #2
 800505e:	58d2      	ldr	r2, [r2, r3]
 8005060:	2389      	movs	r3, #137	; 0x89
 8005062:	009b      	lsls	r3, r3, #2
 8005064:	58d3      	ldr	r3, [r2, r3]
 8005066:	613b      	str	r3, [r7, #16]
 8005068:	e03a      	b.n	80050e0 <dir_sdi+0x10c>
 800506a:	687a      	ldr	r2, [r7, #4]
 800506c:	2380      	movs	r3, #128	; 0x80
 800506e:	009b      	lsls	r3, r3, #2
 8005070:	58d3      	ldr	r3, [r2, r3]
 8005072:	4a2f      	ldr	r2, [pc, #188]	; (8005130 <dir_sdi+0x15c>)
 8005074:	5c9b      	ldrb	r3, [r3, r2]
 8005076:	011b      	lsls	r3, r3, #4
 8005078:	60fb      	str	r3, [r7, #12]
 800507a:	e022      	b.n	80050c2 <dir_sdi+0xee>
 800507c:	687a      	ldr	r2, [r7, #4]
 800507e:	2380      	movs	r3, #128	; 0x80
 8005080:	009b      	lsls	r3, r3, #2
 8005082:	58d3      	ldr	r3, [r2, r3]
 8005084:	697a      	ldr	r2, [r7, #20]
 8005086:	0011      	movs	r1, r2
 8005088:	0018      	movs	r0, r3
 800508a:	f7ff fc53 	bl	8004934 <get_fat>
 800508e:	0003      	movs	r3, r0
 8005090:	617b      	str	r3, [r7, #20]
 8005092:	697b      	ldr	r3, [r7, #20]
 8005094:	3301      	adds	r3, #1
 8005096:	d101      	bne.n	800509c <dir_sdi+0xc8>
 8005098:	2301      	movs	r3, #1
 800509a:	e042      	b.n	8005122 <dir_sdi+0x14e>
 800509c:	697b      	ldr	r3, [r7, #20]
 800509e:	2b01      	cmp	r3, #1
 80050a0:	d909      	bls.n	80050b6 <dir_sdi+0xe2>
 80050a2:	687a      	ldr	r2, [r7, #4]
 80050a4:	2380      	movs	r3, #128	; 0x80
 80050a6:	009b      	lsls	r3, r3, #2
 80050a8:	58d2      	ldr	r2, [r2, r3]
 80050aa:	2385      	movs	r3, #133	; 0x85
 80050ac:	009b      	lsls	r3, r3, #2
 80050ae:	58d3      	ldr	r3, [r2, r3]
 80050b0:	697a      	ldr	r2, [r7, #20]
 80050b2:	429a      	cmp	r2, r3
 80050b4:	d301      	bcc.n	80050ba <dir_sdi+0xe6>
 80050b6:	2302      	movs	r3, #2
 80050b8:	e033      	b.n	8005122 <dir_sdi+0x14e>
 80050ba:	683a      	ldr	r2, [r7, #0]
 80050bc:	68fb      	ldr	r3, [r7, #12]
 80050be:	1ad3      	subs	r3, r2, r3
 80050c0:	603b      	str	r3, [r7, #0]
 80050c2:	683a      	ldr	r2, [r7, #0]
 80050c4:	68fb      	ldr	r3, [r7, #12]
 80050c6:	429a      	cmp	r2, r3
 80050c8:	d2d8      	bcs.n	800507c <dir_sdi+0xa8>
 80050ca:	687a      	ldr	r2, [r7, #4]
 80050cc:	2380      	movs	r3, #128	; 0x80
 80050ce:	009b      	lsls	r3, r3, #2
 80050d0:	58d3      	ldr	r3, [r2, r3]
 80050d2:	697a      	ldr	r2, [r7, #20]
 80050d4:	0011      	movs	r1, r2
 80050d6:	0018      	movs	r0, r3
 80050d8:	f7ff fc08 	bl	80048ec <clust2sect>
 80050dc:	0003      	movs	r3, r0
 80050de:	613b      	str	r3, [r7, #16]
 80050e0:	687a      	ldr	r2, [r7, #4]
 80050e2:	2383      	movs	r3, #131	; 0x83
 80050e4:	009b      	lsls	r3, r3, #2
 80050e6:	6979      	ldr	r1, [r7, #20]
 80050e8:	50d1      	str	r1, [r2, r3]
 80050ea:	693b      	ldr	r3, [r7, #16]
 80050ec:	2b00      	cmp	r3, #0
 80050ee:	d101      	bne.n	80050f4 <dir_sdi+0x120>
 80050f0:	2302      	movs	r3, #2
 80050f2:	e016      	b.n	8005122 <dir_sdi+0x14e>
 80050f4:	683b      	ldr	r3, [r7, #0]
 80050f6:	091a      	lsrs	r2, r3, #4
 80050f8:	693b      	ldr	r3, [r7, #16]
 80050fa:	18d1      	adds	r1, r2, r3
 80050fc:	687a      	ldr	r2, [r7, #4]
 80050fe:	2384      	movs	r3, #132	; 0x84
 8005100:	009b      	lsls	r3, r3, #2
 8005102:	50d1      	str	r1, [r2, r3]
 8005104:	687a      	ldr	r2, [r7, #4]
 8005106:	2380      	movs	r3, #128	; 0x80
 8005108:	009b      	lsls	r3, r3, #2
 800510a:	58d3      	ldr	r3, [r2, r3]
 800510c:	0019      	movs	r1, r3
 800510e:	683b      	ldr	r3, [r7, #0]
 8005110:	220f      	movs	r2, #15
 8005112:	4013      	ands	r3, r2
 8005114:	015b      	lsls	r3, r3, #5
 8005116:	18c9      	adds	r1, r1, r3
 8005118:	687a      	ldr	r2, [r7, #4]
 800511a:	2385      	movs	r3, #133	; 0x85
 800511c:	009b      	lsls	r3, r3, #2
 800511e:	50d1      	str	r1, [r2, r3]
 8005120:	2300      	movs	r3, #0
 8005122:	0018      	movs	r0, r3
 8005124:	46bd      	mov	sp, r7
 8005126:	b006      	add	sp, #24
 8005128:	bd80      	pop	{r7, pc}
 800512a:	46c0      	nop			; (mov r8, r8)
 800512c:	00000206 	.word	0x00000206
 8005130:	00000202 	.word	0x00000202

08005134 <dir_next>:
 8005134:	b590      	push	{r4, r7, lr}
 8005136:	b087      	sub	sp, #28
 8005138:	af00      	add	r7, sp, #0
 800513a:	6078      	str	r0, [r7, #4]
 800513c:	6039      	str	r1, [r7, #0]
 800513e:	687b      	ldr	r3, [r7, #4]
 8005140:	4a87      	ldr	r2, [pc, #540]	; (8005360 <dir_next+0x22c>)
 8005142:	5a9b      	ldrh	r3, [r3, r2]
 8005144:	3301      	adds	r3, #1
 8005146:	60fb      	str	r3, [r7, #12]
 8005148:	68fb      	ldr	r3, [r7, #12]
 800514a:	041b      	lsls	r3, r3, #16
 800514c:	0c1b      	lsrs	r3, r3, #16
 800514e:	d005      	beq.n	800515c <dir_next+0x28>
 8005150:	687a      	ldr	r2, [r7, #4]
 8005152:	2384      	movs	r3, #132	; 0x84
 8005154:	009b      	lsls	r3, r3, #2
 8005156:	58d3      	ldr	r3, [r2, r3]
 8005158:	2b00      	cmp	r3, #0
 800515a:	d101      	bne.n	8005160 <dir_next+0x2c>
 800515c:	2304      	movs	r3, #4
 800515e:	e0fb      	b.n	8005358 <dir_next+0x224>
 8005160:	68fb      	ldr	r3, [r7, #12]
 8005162:	220f      	movs	r2, #15
 8005164:	4013      	ands	r3, r2
 8005166:	d000      	beq.n	800516a <dir_next+0x36>
 8005168:	e0e2      	b.n	8005330 <dir_next+0x1fc>
 800516a:	687a      	ldr	r2, [r7, #4]
 800516c:	2384      	movs	r3, #132	; 0x84
 800516e:	009b      	lsls	r3, r3, #2
 8005170:	58d3      	ldr	r3, [r2, r3]
 8005172:	1c59      	adds	r1, r3, #1
 8005174:	687a      	ldr	r2, [r7, #4]
 8005176:	2384      	movs	r3, #132	; 0x84
 8005178:	009b      	lsls	r3, r3, #2
 800517a:	50d1      	str	r1, [r2, r3]
 800517c:	687a      	ldr	r2, [r7, #4]
 800517e:	2383      	movs	r3, #131	; 0x83
 8005180:	009b      	lsls	r3, r3, #2
 8005182:	58d3      	ldr	r3, [r2, r3]
 8005184:	2b00      	cmp	r3, #0
 8005186:	d10d      	bne.n	80051a4 <dir_next+0x70>
 8005188:	687a      	ldr	r2, [r7, #4]
 800518a:	2380      	movs	r3, #128	; 0x80
 800518c:	009b      	lsls	r3, r3, #2
 800518e:	58d2      	ldr	r2, [r2, r3]
 8005190:	2382      	movs	r3, #130	; 0x82
 8005192:	009b      	lsls	r3, r3, #2
 8005194:	5ad3      	ldrh	r3, [r2, r3]
 8005196:	001a      	movs	r2, r3
 8005198:	68fb      	ldr	r3, [r7, #12]
 800519a:	4293      	cmp	r3, r2
 800519c:	d200      	bcs.n	80051a0 <dir_next+0x6c>
 800519e:	e0c7      	b.n	8005330 <dir_next+0x1fc>
 80051a0:	2304      	movs	r3, #4
 80051a2:	e0d9      	b.n	8005358 <dir_next+0x224>
 80051a4:	68fb      	ldr	r3, [r7, #12]
 80051a6:	091b      	lsrs	r3, r3, #4
 80051a8:	6879      	ldr	r1, [r7, #4]
 80051aa:	2280      	movs	r2, #128	; 0x80
 80051ac:	0092      	lsls	r2, r2, #2
 80051ae:	588a      	ldr	r2, [r1, r2]
 80051b0:	496c      	ldr	r1, [pc, #432]	; (8005364 <dir_next+0x230>)
 80051b2:	5c52      	ldrb	r2, [r2, r1]
 80051b4:	3a01      	subs	r2, #1
 80051b6:	4013      	ands	r3, r2
 80051b8:	d000      	beq.n	80051bc <dir_next+0x88>
 80051ba:	e0b9      	b.n	8005330 <dir_next+0x1fc>
 80051bc:	687a      	ldr	r2, [r7, #4]
 80051be:	2380      	movs	r3, #128	; 0x80
 80051c0:	009b      	lsls	r3, r3, #2
 80051c2:	58d0      	ldr	r0, [r2, r3]
 80051c4:	687a      	ldr	r2, [r7, #4]
 80051c6:	2383      	movs	r3, #131	; 0x83
 80051c8:	009b      	lsls	r3, r3, #2
 80051ca:	58d3      	ldr	r3, [r2, r3]
 80051cc:	0019      	movs	r1, r3
 80051ce:	f7ff fbb1 	bl	8004934 <get_fat>
 80051d2:	0003      	movs	r3, r0
 80051d4:	617b      	str	r3, [r7, #20]
 80051d6:	697b      	ldr	r3, [r7, #20]
 80051d8:	2b01      	cmp	r3, #1
 80051da:	d801      	bhi.n	80051e0 <dir_next+0xac>
 80051dc:	2302      	movs	r3, #2
 80051de:	e0bb      	b.n	8005358 <dir_next+0x224>
 80051e0:	697b      	ldr	r3, [r7, #20]
 80051e2:	3301      	adds	r3, #1
 80051e4:	d101      	bne.n	80051ea <dir_next+0xb6>
 80051e6:	2301      	movs	r3, #1
 80051e8:	e0b6      	b.n	8005358 <dir_next+0x224>
 80051ea:	687a      	ldr	r2, [r7, #4]
 80051ec:	2380      	movs	r3, #128	; 0x80
 80051ee:	009b      	lsls	r3, r3, #2
 80051f0:	58d2      	ldr	r2, [r2, r3]
 80051f2:	2385      	movs	r3, #133	; 0x85
 80051f4:	009b      	lsls	r3, r3, #2
 80051f6:	58d3      	ldr	r3, [r2, r3]
 80051f8:	697a      	ldr	r2, [r7, #20]
 80051fa:	429a      	cmp	r2, r3
 80051fc:	d200      	bcs.n	8005200 <dir_next+0xcc>
 80051fe:	e084      	b.n	800530a <dir_next+0x1d6>
 8005200:	683b      	ldr	r3, [r7, #0]
 8005202:	2b00      	cmp	r3, #0
 8005204:	d101      	bne.n	800520a <dir_next+0xd6>
 8005206:	2304      	movs	r3, #4
 8005208:	e0a6      	b.n	8005358 <dir_next+0x224>
 800520a:	687a      	ldr	r2, [r7, #4]
 800520c:	2380      	movs	r3, #128	; 0x80
 800520e:	009b      	lsls	r3, r3, #2
 8005210:	58d0      	ldr	r0, [r2, r3]
 8005212:	687a      	ldr	r2, [r7, #4]
 8005214:	2383      	movs	r3, #131	; 0x83
 8005216:	009b      	lsls	r3, r3, #2
 8005218:	58d3      	ldr	r3, [r2, r3]
 800521a:	0019      	movs	r1, r3
 800521c:	f7ff fdea 	bl	8004df4 <create_chain>
 8005220:	0003      	movs	r3, r0
 8005222:	617b      	str	r3, [r7, #20]
 8005224:	697b      	ldr	r3, [r7, #20]
 8005226:	2b00      	cmp	r3, #0
 8005228:	d101      	bne.n	800522e <dir_next+0xfa>
 800522a:	2307      	movs	r3, #7
 800522c:	e094      	b.n	8005358 <dir_next+0x224>
 800522e:	697b      	ldr	r3, [r7, #20]
 8005230:	2b01      	cmp	r3, #1
 8005232:	d101      	bne.n	8005238 <dir_next+0x104>
 8005234:	2302      	movs	r3, #2
 8005236:	e08f      	b.n	8005358 <dir_next+0x224>
 8005238:	697b      	ldr	r3, [r7, #20]
 800523a:	3301      	adds	r3, #1
 800523c:	d101      	bne.n	8005242 <dir_next+0x10e>
 800523e:	2301      	movs	r3, #1
 8005240:	e08a      	b.n	8005358 <dir_next+0x224>
 8005242:	687a      	ldr	r2, [r7, #4]
 8005244:	2380      	movs	r3, #128	; 0x80
 8005246:	009b      	lsls	r3, r3, #2
 8005248:	58d3      	ldr	r3, [r2, r3]
 800524a:	0018      	movs	r0, r3
 800524c:	f7ff f9e6 	bl	800461c <sync_window>
 8005250:	1e03      	subs	r3, r0, #0
 8005252:	d001      	beq.n	8005258 <dir_next+0x124>
 8005254:	2301      	movs	r3, #1
 8005256:	e07f      	b.n	8005358 <dir_next+0x224>
 8005258:	687a      	ldr	r2, [r7, #4]
 800525a:	2380      	movs	r3, #128	; 0x80
 800525c:	009b      	lsls	r3, r3, #2
 800525e:	58d3      	ldr	r3, [r2, r3]
 8005260:	0018      	movs	r0, r3
 8005262:	2380      	movs	r3, #128	; 0x80
 8005264:	009b      	lsls	r3, r3, #2
 8005266:	001a      	movs	r2, r3
 8005268:	2100      	movs	r1, #0
 800526a:	f7fe ffc0 	bl	80041ee <mem_set>
 800526e:	687a      	ldr	r2, [r7, #4]
 8005270:	2380      	movs	r3, #128	; 0x80
 8005272:	009b      	lsls	r3, r3, #2
 8005274:	58d0      	ldr	r0, [r2, r3]
 8005276:	687a      	ldr	r2, [r7, #4]
 8005278:	2380      	movs	r3, #128	; 0x80
 800527a:	009b      	lsls	r3, r3, #2
 800527c:	58d4      	ldr	r4, [r2, r3]
 800527e:	697b      	ldr	r3, [r7, #20]
 8005280:	0019      	movs	r1, r3
 8005282:	f7ff fb33 	bl	80048ec <clust2sect>
 8005286:	0002      	movs	r2, r0
 8005288:	238b      	movs	r3, #139	; 0x8b
 800528a:	009b      	lsls	r3, r3, #2
 800528c:	50e2      	str	r2, [r4, r3]
 800528e:	2300      	movs	r3, #0
 8005290:	613b      	str	r3, [r7, #16]
 8005292:	e020      	b.n	80052d6 <dir_next+0x1a2>
 8005294:	687a      	ldr	r2, [r7, #4]
 8005296:	2380      	movs	r3, #128	; 0x80
 8005298:	009b      	lsls	r3, r3, #2
 800529a:	58d2      	ldr	r2, [r2, r3]
 800529c:	2381      	movs	r3, #129	; 0x81
 800529e:	009b      	lsls	r3, r3, #2
 80052a0:	2101      	movs	r1, #1
 80052a2:	54d1      	strb	r1, [r2, r3]
 80052a4:	687a      	ldr	r2, [r7, #4]
 80052a6:	2380      	movs	r3, #128	; 0x80
 80052a8:	009b      	lsls	r3, r3, #2
 80052aa:	58d3      	ldr	r3, [r2, r3]
 80052ac:	0018      	movs	r0, r3
 80052ae:	f7ff f9b5 	bl	800461c <sync_window>
 80052b2:	1e03      	subs	r3, r0, #0
 80052b4:	d001      	beq.n	80052ba <dir_next+0x186>
 80052b6:	2301      	movs	r3, #1
 80052b8:	e04e      	b.n	8005358 <dir_next+0x224>
 80052ba:	687a      	ldr	r2, [r7, #4]
 80052bc:	2380      	movs	r3, #128	; 0x80
 80052be:	009b      	lsls	r3, r3, #2
 80052c0:	58d3      	ldr	r3, [r2, r3]
 80052c2:	228b      	movs	r2, #139	; 0x8b
 80052c4:	0092      	lsls	r2, r2, #2
 80052c6:	589a      	ldr	r2, [r3, r2]
 80052c8:	1c51      	adds	r1, r2, #1
 80052ca:	228b      	movs	r2, #139	; 0x8b
 80052cc:	0092      	lsls	r2, r2, #2
 80052ce:	5099      	str	r1, [r3, r2]
 80052d0:	693b      	ldr	r3, [r7, #16]
 80052d2:	3301      	adds	r3, #1
 80052d4:	613b      	str	r3, [r7, #16]
 80052d6:	687a      	ldr	r2, [r7, #4]
 80052d8:	2380      	movs	r3, #128	; 0x80
 80052da:	009b      	lsls	r3, r3, #2
 80052dc:	58d3      	ldr	r3, [r2, r3]
 80052de:	4a21      	ldr	r2, [pc, #132]	; (8005364 <dir_next+0x230>)
 80052e0:	5c9b      	ldrb	r3, [r3, r2]
 80052e2:	001a      	movs	r2, r3
 80052e4:	693b      	ldr	r3, [r7, #16]
 80052e6:	4293      	cmp	r3, r2
 80052e8:	d3d4      	bcc.n	8005294 <dir_next+0x160>
 80052ea:	687a      	ldr	r2, [r7, #4]
 80052ec:	2380      	movs	r3, #128	; 0x80
 80052ee:	009b      	lsls	r3, r3, #2
 80052f0:	58d2      	ldr	r2, [r2, r3]
 80052f2:	238b      	movs	r3, #139	; 0x8b
 80052f4:	009b      	lsls	r3, r3, #2
 80052f6:	58d1      	ldr	r1, [r2, r3]
 80052f8:	687a      	ldr	r2, [r7, #4]
 80052fa:	2380      	movs	r3, #128	; 0x80
 80052fc:	009b      	lsls	r3, r3, #2
 80052fe:	58d2      	ldr	r2, [r2, r3]
 8005300:	693b      	ldr	r3, [r7, #16]
 8005302:	1ac9      	subs	r1, r1, r3
 8005304:	238b      	movs	r3, #139	; 0x8b
 8005306:	009b      	lsls	r3, r3, #2
 8005308:	50d1      	str	r1, [r2, r3]
 800530a:	687a      	ldr	r2, [r7, #4]
 800530c:	2383      	movs	r3, #131	; 0x83
 800530e:	009b      	lsls	r3, r3, #2
 8005310:	6979      	ldr	r1, [r7, #20]
 8005312:	50d1      	str	r1, [r2, r3]
 8005314:	687a      	ldr	r2, [r7, #4]
 8005316:	2380      	movs	r3, #128	; 0x80
 8005318:	009b      	lsls	r3, r3, #2
 800531a:	58d3      	ldr	r3, [r2, r3]
 800531c:	697a      	ldr	r2, [r7, #20]
 800531e:	0011      	movs	r1, r2
 8005320:	0018      	movs	r0, r3
 8005322:	f7ff fae3 	bl	80048ec <clust2sect>
 8005326:	0001      	movs	r1, r0
 8005328:	687a      	ldr	r2, [r7, #4]
 800532a:	2384      	movs	r3, #132	; 0x84
 800532c:	009b      	lsls	r3, r3, #2
 800532e:	50d1      	str	r1, [r2, r3]
 8005330:	68fb      	ldr	r3, [r7, #12]
 8005332:	b299      	uxth	r1, r3
 8005334:	687b      	ldr	r3, [r7, #4]
 8005336:	4a0a      	ldr	r2, [pc, #40]	; (8005360 <dir_next+0x22c>)
 8005338:	5299      	strh	r1, [r3, r2]
 800533a:	687a      	ldr	r2, [r7, #4]
 800533c:	2380      	movs	r3, #128	; 0x80
 800533e:	009b      	lsls	r3, r3, #2
 8005340:	58d3      	ldr	r3, [r2, r3]
 8005342:	0019      	movs	r1, r3
 8005344:	68fb      	ldr	r3, [r7, #12]
 8005346:	220f      	movs	r2, #15
 8005348:	4013      	ands	r3, r2
 800534a:	015b      	lsls	r3, r3, #5
 800534c:	18c9      	adds	r1, r1, r3
 800534e:	687a      	ldr	r2, [r7, #4]
 8005350:	2385      	movs	r3, #133	; 0x85
 8005352:	009b      	lsls	r3, r3, #2
 8005354:	50d1      	str	r1, [r2, r3]
 8005356:	2300      	movs	r3, #0
 8005358:	0018      	movs	r0, r3
 800535a:	46bd      	mov	sp, r7
 800535c:	b007      	add	sp, #28
 800535e:	bd90      	pop	{r4, r7, pc}
 8005360:	00000206 	.word	0x00000206
 8005364:	00000202 	.word	0x00000202

08005368 <dir_alloc>:
 8005368:	b5b0      	push	{r4, r5, r7, lr}
 800536a:	b084      	sub	sp, #16
 800536c:	af00      	add	r7, sp, #0
 800536e:	6078      	str	r0, [r7, #4]
 8005370:	6039      	str	r1, [r7, #0]
 8005372:	250f      	movs	r5, #15
 8005374:	197c      	adds	r4, r7, r5
 8005376:	687b      	ldr	r3, [r7, #4]
 8005378:	2100      	movs	r1, #0
 800537a:	0018      	movs	r0, r3
 800537c:	f7ff fe2a 	bl	8004fd4 <dir_sdi>
 8005380:	0003      	movs	r3, r0
 8005382:	7023      	strb	r3, [r4, #0]
 8005384:	197b      	adds	r3, r7, r5
 8005386:	781b      	ldrb	r3, [r3, #0]
 8005388:	2b00      	cmp	r3, #0
 800538a:	d13b      	bne.n	8005404 <dir_alloc+0x9c>
 800538c:	2300      	movs	r3, #0
 800538e:	60bb      	str	r3, [r7, #8]
 8005390:	687a      	ldr	r2, [r7, #4]
 8005392:	2380      	movs	r3, #128	; 0x80
 8005394:	009b      	lsls	r3, r3, #2
 8005396:	58d0      	ldr	r0, [r2, r3]
 8005398:	687a      	ldr	r2, [r7, #4]
 800539a:	2384      	movs	r3, #132	; 0x84
 800539c:	009b      	lsls	r3, r3, #2
 800539e:	58d3      	ldr	r3, [r2, r3]
 80053a0:	250f      	movs	r5, #15
 80053a2:	197c      	adds	r4, r7, r5
 80053a4:	0019      	movs	r1, r3
 80053a6:	f7ff f991 	bl	80046cc <move_window>
 80053aa:	0003      	movs	r3, r0
 80053ac:	7023      	strb	r3, [r4, #0]
 80053ae:	197b      	adds	r3, r7, r5
 80053b0:	781b      	ldrb	r3, [r3, #0]
 80053b2:	2b00      	cmp	r3, #0
 80053b4:	d125      	bne.n	8005402 <dir_alloc+0x9a>
 80053b6:	687a      	ldr	r2, [r7, #4]
 80053b8:	2385      	movs	r3, #133	; 0x85
 80053ba:	009b      	lsls	r3, r3, #2
 80053bc:	58d3      	ldr	r3, [r2, r3]
 80053be:	781b      	ldrb	r3, [r3, #0]
 80053c0:	2be5      	cmp	r3, #229	; 0xe5
 80053c2:	d006      	beq.n	80053d2 <dir_alloc+0x6a>
 80053c4:	687a      	ldr	r2, [r7, #4]
 80053c6:	2385      	movs	r3, #133	; 0x85
 80053c8:	009b      	lsls	r3, r3, #2
 80053ca:	58d3      	ldr	r3, [r2, r3]
 80053cc:	781b      	ldrb	r3, [r3, #0]
 80053ce:	2b00      	cmp	r3, #0
 80053d0:	d107      	bne.n	80053e2 <dir_alloc+0x7a>
 80053d2:	68bb      	ldr	r3, [r7, #8]
 80053d4:	3301      	adds	r3, #1
 80053d6:	60bb      	str	r3, [r7, #8]
 80053d8:	68ba      	ldr	r2, [r7, #8]
 80053da:	683b      	ldr	r3, [r7, #0]
 80053dc:	429a      	cmp	r2, r3
 80053de:	d102      	bne.n	80053e6 <dir_alloc+0x7e>
 80053e0:	e010      	b.n	8005404 <dir_alloc+0x9c>
 80053e2:	2300      	movs	r3, #0
 80053e4:	60bb      	str	r3, [r7, #8]
 80053e6:	250f      	movs	r5, #15
 80053e8:	197c      	adds	r4, r7, r5
 80053ea:	687b      	ldr	r3, [r7, #4]
 80053ec:	2101      	movs	r1, #1
 80053ee:	0018      	movs	r0, r3
 80053f0:	f7ff fea0 	bl	8005134 <dir_next>
 80053f4:	0003      	movs	r3, r0
 80053f6:	7023      	strb	r3, [r4, #0]
 80053f8:	197b      	adds	r3, r7, r5
 80053fa:	781b      	ldrb	r3, [r3, #0]
 80053fc:	2b00      	cmp	r3, #0
 80053fe:	d0c7      	beq.n	8005390 <dir_alloc+0x28>
 8005400:	e000      	b.n	8005404 <dir_alloc+0x9c>
 8005402:	46c0      	nop			; (mov r8, r8)
 8005404:	220f      	movs	r2, #15
 8005406:	18bb      	adds	r3, r7, r2
 8005408:	781b      	ldrb	r3, [r3, #0]
 800540a:	2b04      	cmp	r3, #4
 800540c:	d102      	bne.n	8005414 <dir_alloc+0xac>
 800540e:	18bb      	adds	r3, r7, r2
 8005410:	2207      	movs	r2, #7
 8005412:	701a      	strb	r2, [r3, #0]
 8005414:	230f      	movs	r3, #15
 8005416:	18fb      	adds	r3, r7, r3
 8005418:	781b      	ldrb	r3, [r3, #0]
 800541a:	0018      	movs	r0, r3
 800541c:	46bd      	mov	sp, r7
 800541e:	b004      	add	sp, #16
 8005420:	bdb0      	pop	{r4, r5, r7, pc}

08005422 <ld_clust>:
 8005422:	b580      	push	{r7, lr}
 8005424:	b084      	sub	sp, #16
 8005426:	af00      	add	r7, sp, #0
 8005428:	6078      	str	r0, [r7, #4]
 800542a:	6039      	str	r1, [r7, #0]
 800542c:	683b      	ldr	r3, [r7, #0]
 800542e:	331b      	adds	r3, #27
 8005430:	781b      	ldrb	r3, [r3, #0]
 8005432:	021b      	lsls	r3, r3, #8
 8005434:	b21a      	sxth	r2, r3
 8005436:	683b      	ldr	r3, [r7, #0]
 8005438:	331a      	adds	r3, #26
 800543a:	781b      	ldrb	r3, [r3, #0]
 800543c:	b21b      	sxth	r3, r3
 800543e:	4313      	orrs	r3, r2
 8005440:	b21b      	sxth	r3, r3
 8005442:	b29b      	uxth	r3, r3
 8005444:	60fb      	str	r3, [r7, #12]
 8005446:	687a      	ldr	r2, [r7, #4]
 8005448:	2380      	movs	r3, #128	; 0x80
 800544a:	009b      	lsls	r3, r3, #2
 800544c:	5cd3      	ldrb	r3, [r2, r3]
 800544e:	2b03      	cmp	r3, #3
 8005450:	d10f      	bne.n	8005472 <ld_clust+0x50>
 8005452:	683b      	ldr	r3, [r7, #0]
 8005454:	3315      	adds	r3, #21
 8005456:	781b      	ldrb	r3, [r3, #0]
 8005458:	021b      	lsls	r3, r3, #8
 800545a:	b21a      	sxth	r2, r3
 800545c:	683b      	ldr	r3, [r7, #0]
 800545e:	3314      	adds	r3, #20
 8005460:	781b      	ldrb	r3, [r3, #0]
 8005462:	b21b      	sxth	r3, r3
 8005464:	4313      	orrs	r3, r2
 8005466:	b21b      	sxth	r3, r3
 8005468:	b29b      	uxth	r3, r3
 800546a:	041b      	lsls	r3, r3, #16
 800546c:	68fa      	ldr	r2, [r7, #12]
 800546e:	4313      	orrs	r3, r2
 8005470:	60fb      	str	r3, [r7, #12]
 8005472:	68fb      	ldr	r3, [r7, #12]
 8005474:	0018      	movs	r0, r3
 8005476:	46bd      	mov	sp, r7
 8005478:	b004      	add	sp, #16
 800547a:	bd80      	pop	{r7, pc}

0800547c <st_clust>:
 800547c:	b580      	push	{r7, lr}
 800547e:	b082      	sub	sp, #8
 8005480:	af00      	add	r7, sp, #0
 8005482:	6078      	str	r0, [r7, #4]
 8005484:	6039      	str	r1, [r7, #0]
 8005486:	687b      	ldr	r3, [r7, #4]
 8005488:	331a      	adds	r3, #26
 800548a:	683a      	ldr	r2, [r7, #0]
 800548c:	b2d2      	uxtb	r2, r2
 800548e:	701a      	strb	r2, [r3, #0]
 8005490:	683b      	ldr	r3, [r7, #0]
 8005492:	b29b      	uxth	r3, r3
 8005494:	0a1b      	lsrs	r3, r3, #8
 8005496:	b29a      	uxth	r2, r3
 8005498:	687b      	ldr	r3, [r7, #4]
 800549a:	331b      	adds	r3, #27
 800549c:	b2d2      	uxtb	r2, r2
 800549e:	701a      	strb	r2, [r3, #0]
 80054a0:	683b      	ldr	r3, [r7, #0]
 80054a2:	0c1a      	lsrs	r2, r3, #16
 80054a4:	687b      	ldr	r3, [r7, #4]
 80054a6:	3314      	adds	r3, #20
 80054a8:	b2d2      	uxtb	r2, r2
 80054aa:	701a      	strb	r2, [r3, #0]
 80054ac:	683b      	ldr	r3, [r7, #0]
 80054ae:	0c1b      	lsrs	r3, r3, #16
 80054b0:	b29b      	uxth	r3, r3
 80054b2:	0a1b      	lsrs	r3, r3, #8
 80054b4:	b29a      	uxth	r2, r3
 80054b6:	687b      	ldr	r3, [r7, #4]
 80054b8:	3315      	adds	r3, #21
 80054ba:	b2d2      	uxtb	r2, r2
 80054bc:	701a      	strb	r2, [r3, #0]
 80054be:	46c0      	nop			; (mov r8, r8)
 80054c0:	46bd      	mov	sp, r7
 80054c2:	b002      	add	sp, #8
 80054c4:	bd80      	pop	{r7, pc}

080054c6 <dir_find>:
 80054c6:	b5b0      	push	{r4, r5, r7, lr}
 80054c8:	b086      	sub	sp, #24
 80054ca:	af00      	add	r7, sp, #0
 80054cc:	6078      	str	r0, [r7, #4]
 80054ce:	2517      	movs	r5, #23
 80054d0:	197c      	adds	r4, r7, r5
 80054d2:	687b      	ldr	r3, [r7, #4]
 80054d4:	2100      	movs	r1, #0
 80054d6:	0018      	movs	r0, r3
 80054d8:	f7ff fd7c 	bl	8004fd4 <dir_sdi>
 80054dc:	0003      	movs	r3, r0
 80054de:	7023      	strb	r3, [r4, #0]
 80054e0:	197b      	adds	r3, r7, r5
 80054e2:	781b      	ldrb	r3, [r3, #0]
 80054e4:	2b00      	cmp	r3, #0
 80054e6:	d002      	beq.n	80054ee <dir_find+0x28>
 80054e8:	197b      	adds	r3, r7, r5
 80054ea:	781b      	ldrb	r3, [r3, #0]
 80054ec:	e04b      	b.n	8005586 <dir_find+0xc0>
 80054ee:	687a      	ldr	r2, [r7, #4]
 80054f0:	2380      	movs	r3, #128	; 0x80
 80054f2:	009b      	lsls	r3, r3, #2
 80054f4:	58d0      	ldr	r0, [r2, r3]
 80054f6:	687a      	ldr	r2, [r7, #4]
 80054f8:	2384      	movs	r3, #132	; 0x84
 80054fa:	009b      	lsls	r3, r3, #2
 80054fc:	58d3      	ldr	r3, [r2, r3]
 80054fe:	2517      	movs	r5, #23
 8005500:	197c      	adds	r4, r7, r5
 8005502:	0019      	movs	r1, r3
 8005504:	f7ff f8e2 	bl	80046cc <move_window>
 8005508:	0003      	movs	r3, r0
 800550a:	7023      	strb	r3, [r4, #0]
 800550c:	0029      	movs	r1, r5
 800550e:	187b      	adds	r3, r7, r1
 8005510:	781b      	ldrb	r3, [r3, #0]
 8005512:	2b00      	cmp	r3, #0
 8005514:	d131      	bne.n	800557a <dir_find+0xb4>
 8005516:	687a      	ldr	r2, [r7, #4]
 8005518:	2385      	movs	r3, #133	; 0x85
 800551a:	009b      	lsls	r3, r3, #2
 800551c:	58d3      	ldr	r3, [r2, r3]
 800551e:	613b      	str	r3, [r7, #16]
 8005520:	200f      	movs	r0, #15
 8005522:	183b      	adds	r3, r7, r0
 8005524:	693a      	ldr	r2, [r7, #16]
 8005526:	7812      	ldrb	r2, [r2, #0]
 8005528:	701a      	strb	r2, [r3, #0]
 800552a:	183b      	adds	r3, r7, r0
 800552c:	781b      	ldrb	r3, [r3, #0]
 800552e:	2b00      	cmp	r3, #0
 8005530:	d103      	bne.n	800553a <dir_find+0x74>
 8005532:	187b      	adds	r3, r7, r1
 8005534:	2204      	movs	r2, #4
 8005536:	701a      	strb	r2, [r3, #0]
 8005538:	e022      	b.n	8005580 <dir_find+0xba>
 800553a:	693b      	ldr	r3, [r7, #16]
 800553c:	330b      	adds	r3, #11
 800553e:	781b      	ldrb	r3, [r3, #0]
 8005540:	001a      	movs	r2, r3
 8005542:	2308      	movs	r3, #8
 8005544:	4013      	ands	r3, r2
 8005546:	d10a      	bne.n	800555e <dir_find+0x98>
 8005548:	687a      	ldr	r2, [r7, #4]
 800554a:	2386      	movs	r3, #134	; 0x86
 800554c:	009b      	lsls	r3, r3, #2
 800554e:	58d1      	ldr	r1, [r2, r3]
 8005550:	693b      	ldr	r3, [r7, #16]
 8005552:	220b      	movs	r2, #11
 8005554:	0018      	movs	r0, r3
 8005556:	f7fe fe63 	bl	8004220 <mem_cmp>
 800555a:	1e03      	subs	r3, r0, #0
 800555c:	d00f      	beq.n	800557e <dir_find+0xb8>
 800555e:	2517      	movs	r5, #23
 8005560:	197c      	adds	r4, r7, r5
 8005562:	687b      	ldr	r3, [r7, #4]
 8005564:	2100      	movs	r1, #0
 8005566:	0018      	movs	r0, r3
 8005568:	f7ff fde4 	bl	8005134 <dir_next>
 800556c:	0003      	movs	r3, r0
 800556e:	7023      	strb	r3, [r4, #0]
 8005570:	197b      	adds	r3, r7, r5
 8005572:	781b      	ldrb	r3, [r3, #0]
 8005574:	2b00      	cmp	r3, #0
 8005576:	d0ba      	beq.n	80054ee <dir_find+0x28>
 8005578:	e002      	b.n	8005580 <dir_find+0xba>
 800557a:	46c0      	nop			; (mov r8, r8)
 800557c:	e000      	b.n	8005580 <dir_find+0xba>
 800557e:	46c0      	nop			; (mov r8, r8)
 8005580:	2317      	movs	r3, #23
 8005582:	18fb      	adds	r3, r7, r3
 8005584:	781b      	ldrb	r3, [r3, #0]
 8005586:	0018      	movs	r0, r3
 8005588:	46bd      	mov	sp, r7
 800558a:	b006      	add	sp, #24
 800558c:	bdb0      	pop	{r4, r5, r7, pc}

0800558e <dir_register>:
 800558e:	b5b0      	push	{r4, r5, r7, lr}
 8005590:	b084      	sub	sp, #16
 8005592:	af00      	add	r7, sp, #0
 8005594:	6078      	str	r0, [r7, #4]
 8005596:	250f      	movs	r5, #15
 8005598:	197c      	adds	r4, r7, r5
 800559a:	687b      	ldr	r3, [r7, #4]
 800559c:	2101      	movs	r1, #1
 800559e:	0018      	movs	r0, r3
 80055a0:	f7ff fee2 	bl	8005368 <dir_alloc>
 80055a4:	0003      	movs	r3, r0
 80055a6:	7023      	strb	r3, [r4, #0]
 80055a8:	0029      	movs	r1, r5
 80055aa:	187b      	adds	r3, r7, r1
 80055ac:	781b      	ldrb	r3, [r3, #0]
 80055ae:	2b00      	cmp	r3, #0
 80055b0:	d12f      	bne.n	8005612 <dir_register+0x84>
 80055b2:	687a      	ldr	r2, [r7, #4]
 80055b4:	2380      	movs	r3, #128	; 0x80
 80055b6:	009b      	lsls	r3, r3, #2
 80055b8:	58d0      	ldr	r0, [r2, r3]
 80055ba:	687a      	ldr	r2, [r7, #4]
 80055bc:	2384      	movs	r3, #132	; 0x84
 80055be:	009b      	lsls	r3, r3, #2
 80055c0:	58d3      	ldr	r3, [r2, r3]
 80055c2:	000d      	movs	r5, r1
 80055c4:	187c      	adds	r4, r7, r1
 80055c6:	0019      	movs	r1, r3
 80055c8:	f7ff f880 	bl	80046cc <move_window>
 80055cc:	0003      	movs	r3, r0
 80055ce:	7023      	strb	r3, [r4, #0]
 80055d0:	197b      	adds	r3, r7, r5
 80055d2:	781b      	ldrb	r3, [r3, #0]
 80055d4:	2b00      	cmp	r3, #0
 80055d6:	d11c      	bne.n	8005612 <dir_register+0x84>
 80055d8:	687a      	ldr	r2, [r7, #4]
 80055da:	2385      	movs	r3, #133	; 0x85
 80055dc:	009b      	lsls	r3, r3, #2
 80055de:	58d3      	ldr	r3, [r2, r3]
 80055e0:	2220      	movs	r2, #32
 80055e2:	2100      	movs	r1, #0
 80055e4:	0018      	movs	r0, r3
 80055e6:	f7fe fe02 	bl	80041ee <mem_set>
 80055ea:	687a      	ldr	r2, [r7, #4]
 80055ec:	2385      	movs	r3, #133	; 0x85
 80055ee:	009b      	lsls	r3, r3, #2
 80055f0:	58d0      	ldr	r0, [r2, r3]
 80055f2:	687a      	ldr	r2, [r7, #4]
 80055f4:	2386      	movs	r3, #134	; 0x86
 80055f6:	009b      	lsls	r3, r3, #2
 80055f8:	58d3      	ldr	r3, [r2, r3]
 80055fa:	220b      	movs	r2, #11
 80055fc:	0019      	movs	r1, r3
 80055fe:	f7fe fdd9 	bl	80041b4 <mem_cpy>
 8005602:	687a      	ldr	r2, [r7, #4]
 8005604:	2380      	movs	r3, #128	; 0x80
 8005606:	009b      	lsls	r3, r3, #2
 8005608:	58d2      	ldr	r2, [r2, r3]
 800560a:	2381      	movs	r3, #129	; 0x81
 800560c:	009b      	lsls	r3, r3, #2
 800560e:	2101      	movs	r1, #1
 8005610:	54d1      	strb	r1, [r2, r3]
 8005612:	230f      	movs	r3, #15
 8005614:	18fb      	adds	r3, r7, r3
 8005616:	781b      	ldrb	r3, [r3, #0]
 8005618:	0018      	movs	r0, r3
 800561a:	46bd      	mov	sp, r7
 800561c:	b004      	add	sp, #16
 800561e:	bdb0      	pop	{r4, r5, r7, pc}

08005620 <create_name>:
 8005620:	b580      	push	{r7, lr}
 8005622:	b088      	sub	sp, #32
 8005624:	af00      	add	r7, sp, #0
 8005626:	6078      	str	r0, [r7, #4]
 8005628:	6039      	str	r1, [r7, #0]
 800562a:	683b      	ldr	r3, [r7, #0]
 800562c:	681b      	ldr	r3, [r3, #0]
 800562e:	60fb      	str	r3, [r7, #12]
 8005630:	e002      	b.n	8005638 <create_name+0x18>
 8005632:	68fb      	ldr	r3, [r7, #12]
 8005634:	3301      	adds	r3, #1
 8005636:	60fb      	str	r3, [r7, #12]
 8005638:	68fb      	ldr	r3, [r7, #12]
 800563a:	781b      	ldrb	r3, [r3, #0]
 800563c:	2b2f      	cmp	r3, #47	; 0x2f
 800563e:	d0f8      	beq.n	8005632 <create_name+0x12>
 8005640:	68fb      	ldr	r3, [r7, #12]
 8005642:	781b      	ldrb	r3, [r3, #0]
 8005644:	2b5c      	cmp	r3, #92	; 0x5c
 8005646:	d0f4      	beq.n	8005632 <create_name+0x12>
 8005648:	687a      	ldr	r2, [r7, #4]
 800564a:	2386      	movs	r3, #134	; 0x86
 800564c:	009b      	lsls	r3, r3, #2
 800564e:	58d3      	ldr	r3, [r2, r3]
 8005650:	60bb      	str	r3, [r7, #8]
 8005652:	68bb      	ldr	r3, [r7, #8]
 8005654:	220b      	movs	r2, #11
 8005656:	2120      	movs	r1, #32
 8005658:	0018      	movs	r0, r3
 800565a:	f7fe fdc8 	bl	80041ee <mem_set>
 800565e:	231f      	movs	r3, #31
 8005660:	18fb      	adds	r3, r7, r3
 8005662:	2200      	movs	r2, #0
 8005664:	701a      	strb	r2, [r3, #0]
 8005666:	2300      	movs	r3, #0
 8005668:	613b      	str	r3, [r7, #16]
 800566a:	693b      	ldr	r3, [r7, #16]
 800566c:	617b      	str	r3, [r7, #20]
 800566e:	2308      	movs	r3, #8
 8005670:	61bb      	str	r3, [r7, #24]
 8005672:	697b      	ldr	r3, [r7, #20]
 8005674:	1c5a      	adds	r2, r3, #1
 8005676:	617a      	str	r2, [r7, #20]
 8005678:	68fa      	ldr	r2, [r7, #12]
 800567a:	18d2      	adds	r2, r2, r3
 800567c:	211e      	movs	r1, #30
 800567e:	187b      	adds	r3, r7, r1
 8005680:	7812      	ldrb	r2, [r2, #0]
 8005682:	701a      	strb	r2, [r3, #0]
 8005684:	000a      	movs	r2, r1
 8005686:	18bb      	adds	r3, r7, r2
 8005688:	781b      	ldrb	r3, [r3, #0]
 800568a:	2b20      	cmp	r3, #32
 800568c:	d800      	bhi.n	8005690 <create_name+0x70>
 800568e:	e077      	b.n	8005780 <create_name+0x160>
 8005690:	18bb      	adds	r3, r7, r2
 8005692:	781b      	ldrb	r3, [r3, #0]
 8005694:	2b2f      	cmp	r3, #47	; 0x2f
 8005696:	d100      	bne.n	800569a <create_name+0x7a>
 8005698:	e072      	b.n	8005780 <create_name+0x160>
 800569a:	18bb      	adds	r3, r7, r2
 800569c:	781b      	ldrb	r3, [r3, #0]
 800569e:	2b5c      	cmp	r3, #92	; 0x5c
 80056a0:	d100      	bne.n	80056a4 <create_name+0x84>
 80056a2:	e06d      	b.n	8005780 <create_name+0x160>
 80056a4:	18bb      	adds	r3, r7, r2
 80056a6:	781b      	ldrb	r3, [r3, #0]
 80056a8:	2b2e      	cmp	r3, #46	; 0x2e
 80056aa:	d003      	beq.n	80056b4 <create_name+0x94>
 80056ac:	693a      	ldr	r2, [r7, #16]
 80056ae:	69bb      	ldr	r3, [r7, #24]
 80056b0:	429a      	cmp	r2, r3
 80056b2:	d314      	bcc.n	80056de <create_name+0xbe>
 80056b4:	69bb      	ldr	r3, [r7, #24]
 80056b6:	2b08      	cmp	r3, #8
 80056b8:	d104      	bne.n	80056c4 <create_name+0xa4>
 80056ba:	231e      	movs	r3, #30
 80056bc:	18fb      	adds	r3, r7, r3
 80056be:	781b      	ldrb	r3, [r3, #0]
 80056c0:	2b2e      	cmp	r3, #46	; 0x2e
 80056c2:	d001      	beq.n	80056c8 <create_name+0xa8>
 80056c4:	2306      	movs	r3, #6
 80056c6:	e0a3      	b.n	8005810 <create_name+0x1f0>
 80056c8:	2308      	movs	r3, #8
 80056ca:	613b      	str	r3, [r7, #16]
 80056cc:	230b      	movs	r3, #11
 80056ce:	61bb      	str	r3, [r7, #24]
 80056d0:	221f      	movs	r2, #31
 80056d2:	18bb      	adds	r3, r7, r2
 80056d4:	18ba      	adds	r2, r7, r2
 80056d6:	7812      	ldrb	r2, [r2, #0]
 80056d8:	0092      	lsls	r2, r2, #2
 80056da:	701a      	strb	r2, [r3, #0]
 80056dc:	e04f      	b.n	800577e <create_name+0x15e>
 80056de:	201e      	movs	r0, #30
 80056e0:	183b      	adds	r3, r7, r0
 80056e2:	781b      	ldrb	r3, [r3, #0]
 80056e4:	b25b      	sxtb	r3, r3
 80056e6:	2b00      	cmp	r3, #0
 80056e8:	da0e      	bge.n	8005708 <create_name+0xe8>
 80056ea:	221f      	movs	r2, #31
 80056ec:	18bb      	adds	r3, r7, r2
 80056ee:	18ba      	adds	r2, r7, r2
 80056f0:	7812      	ldrb	r2, [r2, #0]
 80056f2:	2103      	movs	r1, #3
 80056f4:	430a      	orrs	r2, r1
 80056f6:	701a      	strb	r2, [r3, #0]
 80056f8:	183b      	adds	r3, r7, r0
 80056fa:	781b      	ldrb	r3, [r3, #0]
 80056fc:	3b80      	subs	r3, #128	; 0x80
 80056fe:	001a      	movs	r2, r3
 8005700:	183b      	adds	r3, r7, r0
 8005702:	4945      	ldr	r1, [pc, #276]	; (8005818 <create_name+0x1f8>)
 8005704:	5c8a      	ldrb	r2, [r1, r2]
 8005706:	701a      	strb	r2, [r3, #0]
 8005708:	231e      	movs	r3, #30
 800570a:	18fb      	adds	r3, r7, r3
 800570c:	781a      	ldrb	r2, [r3, #0]
 800570e:	4b43      	ldr	r3, [pc, #268]	; (800581c <create_name+0x1fc>)
 8005710:	0011      	movs	r1, r2
 8005712:	0018      	movs	r0, r3
 8005714:	f7fe fda9 	bl	800426a <chk_chr>
 8005718:	1e03      	subs	r3, r0, #0
 800571a:	d001      	beq.n	8005720 <create_name+0x100>
 800571c:	2306      	movs	r3, #6
 800571e:	e077      	b.n	8005810 <create_name+0x1f0>
 8005720:	221e      	movs	r2, #30
 8005722:	18bb      	adds	r3, r7, r2
 8005724:	781b      	ldrb	r3, [r3, #0]
 8005726:	2b40      	cmp	r3, #64	; 0x40
 8005728:	d90b      	bls.n	8005742 <create_name+0x122>
 800572a:	18bb      	adds	r3, r7, r2
 800572c:	781b      	ldrb	r3, [r3, #0]
 800572e:	2b5a      	cmp	r3, #90	; 0x5a
 8005730:	d807      	bhi.n	8005742 <create_name+0x122>
 8005732:	221f      	movs	r2, #31
 8005734:	18bb      	adds	r3, r7, r2
 8005736:	18ba      	adds	r2, r7, r2
 8005738:	7812      	ldrb	r2, [r2, #0]
 800573a:	2102      	movs	r1, #2
 800573c:	430a      	orrs	r2, r1
 800573e:	701a      	strb	r2, [r3, #0]
 8005740:	e014      	b.n	800576c <create_name+0x14c>
 8005742:	201e      	movs	r0, #30
 8005744:	183b      	adds	r3, r7, r0
 8005746:	781b      	ldrb	r3, [r3, #0]
 8005748:	2b60      	cmp	r3, #96	; 0x60
 800574a:	d90f      	bls.n	800576c <create_name+0x14c>
 800574c:	183b      	adds	r3, r7, r0
 800574e:	781b      	ldrb	r3, [r3, #0]
 8005750:	2b7a      	cmp	r3, #122	; 0x7a
 8005752:	d80b      	bhi.n	800576c <create_name+0x14c>
 8005754:	221f      	movs	r2, #31
 8005756:	18bb      	adds	r3, r7, r2
 8005758:	18ba      	adds	r2, r7, r2
 800575a:	7812      	ldrb	r2, [r2, #0]
 800575c:	2101      	movs	r1, #1
 800575e:	430a      	orrs	r2, r1
 8005760:	701a      	strb	r2, [r3, #0]
 8005762:	183b      	adds	r3, r7, r0
 8005764:	183a      	adds	r2, r7, r0
 8005766:	7812      	ldrb	r2, [r2, #0]
 8005768:	3a20      	subs	r2, #32
 800576a:	701a      	strb	r2, [r3, #0]
 800576c:	693b      	ldr	r3, [r7, #16]
 800576e:	1c5a      	adds	r2, r3, #1
 8005770:	613a      	str	r2, [r7, #16]
 8005772:	68ba      	ldr	r2, [r7, #8]
 8005774:	18d3      	adds	r3, r2, r3
 8005776:	221e      	movs	r2, #30
 8005778:	18ba      	adds	r2, r7, r2
 800577a:	7812      	ldrb	r2, [r2, #0]
 800577c:	701a      	strb	r2, [r3, #0]
 800577e:	e778      	b.n	8005672 <create_name+0x52>
 8005780:	68fa      	ldr	r2, [r7, #12]
 8005782:	697b      	ldr	r3, [r7, #20]
 8005784:	18d2      	adds	r2, r2, r3
 8005786:	683b      	ldr	r3, [r7, #0]
 8005788:	601a      	str	r2, [r3, #0]
 800578a:	231e      	movs	r3, #30
 800578c:	18fb      	adds	r3, r7, r3
 800578e:	781b      	ldrb	r3, [r3, #0]
 8005790:	2b20      	cmp	r3, #32
 8005792:	d801      	bhi.n	8005798 <create_name+0x178>
 8005794:	2204      	movs	r2, #4
 8005796:	e000      	b.n	800579a <create_name+0x17a>
 8005798:	2200      	movs	r2, #0
 800579a:	231e      	movs	r3, #30
 800579c:	18fb      	adds	r3, r7, r3
 800579e:	701a      	strb	r2, [r3, #0]
 80057a0:	693b      	ldr	r3, [r7, #16]
 80057a2:	2b00      	cmp	r3, #0
 80057a4:	d101      	bne.n	80057aa <create_name+0x18a>
 80057a6:	2306      	movs	r3, #6
 80057a8:	e032      	b.n	8005810 <create_name+0x1f0>
 80057aa:	68bb      	ldr	r3, [r7, #8]
 80057ac:	781b      	ldrb	r3, [r3, #0]
 80057ae:	2be5      	cmp	r3, #229	; 0xe5
 80057b0:	d102      	bne.n	80057b8 <create_name+0x198>
 80057b2:	68bb      	ldr	r3, [r7, #8]
 80057b4:	2205      	movs	r2, #5
 80057b6:	701a      	strb	r2, [r3, #0]
 80057b8:	69bb      	ldr	r3, [r7, #24]
 80057ba:	2b08      	cmp	r3, #8
 80057bc:	d105      	bne.n	80057ca <create_name+0x1aa>
 80057be:	221f      	movs	r2, #31
 80057c0:	18bb      	adds	r3, r7, r2
 80057c2:	18ba      	adds	r2, r7, r2
 80057c4:	7812      	ldrb	r2, [r2, #0]
 80057c6:	0092      	lsls	r2, r2, #2
 80057c8:	701a      	strb	r2, [r3, #0]
 80057ca:	231f      	movs	r3, #31
 80057cc:	18fb      	adds	r3, r7, r3
 80057ce:	781b      	ldrb	r3, [r3, #0]
 80057d0:	2203      	movs	r2, #3
 80057d2:	4013      	ands	r3, r2
 80057d4:	2b01      	cmp	r3, #1
 80057d6:	d106      	bne.n	80057e6 <create_name+0x1c6>
 80057d8:	221e      	movs	r2, #30
 80057da:	18bb      	adds	r3, r7, r2
 80057dc:	18ba      	adds	r2, r7, r2
 80057de:	7812      	ldrb	r2, [r2, #0]
 80057e0:	2110      	movs	r1, #16
 80057e2:	430a      	orrs	r2, r1
 80057e4:	701a      	strb	r2, [r3, #0]
 80057e6:	231f      	movs	r3, #31
 80057e8:	18fb      	adds	r3, r7, r3
 80057ea:	781b      	ldrb	r3, [r3, #0]
 80057ec:	220c      	movs	r2, #12
 80057ee:	4013      	ands	r3, r2
 80057f0:	2b04      	cmp	r3, #4
 80057f2:	d106      	bne.n	8005802 <create_name+0x1e2>
 80057f4:	221e      	movs	r2, #30
 80057f6:	18bb      	adds	r3, r7, r2
 80057f8:	18ba      	adds	r2, r7, r2
 80057fa:	7812      	ldrb	r2, [r2, #0]
 80057fc:	2108      	movs	r1, #8
 80057fe:	430a      	orrs	r2, r1
 8005800:	701a      	strb	r2, [r3, #0]
 8005802:	68bb      	ldr	r3, [r7, #8]
 8005804:	330b      	adds	r3, #11
 8005806:	221e      	movs	r2, #30
 8005808:	18ba      	adds	r2, r7, r2
 800580a:	7812      	ldrb	r2, [r2, #0]
 800580c:	701a      	strb	r2, [r3, #0]
 800580e:	2300      	movs	r3, #0
 8005810:	0018      	movs	r0, r3
 8005812:	46bd      	mov	sp, r7
 8005814:	b008      	add	sp, #32
 8005816:	bd80      	pop	{r7, pc}
 8005818:	080073d0 	.word	0x080073d0
 800581c:	080072e0 	.word	0x080072e0

08005820 <follow_path>:
 8005820:	b5b0      	push	{r4, r5, r7, lr}
 8005822:	b084      	sub	sp, #16
 8005824:	af00      	add	r7, sp, #0
 8005826:	6078      	str	r0, [r7, #4]
 8005828:	6039      	str	r1, [r7, #0]
 800582a:	683b      	ldr	r3, [r7, #0]
 800582c:	781b      	ldrb	r3, [r3, #0]
 800582e:	2b2f      	cmp	r3, #47	; 0x2f
 8005830:	d003      	beq.n	800583a <follow_path+0x1a>
 8005832:	683b      	ldr	r3, [r7, #0]
 8005834:	781b      	ldrb	r3, [r3, #0]
 8005836:	2b5c      	cmp	r3, #92	; 0x5c
 8005838:	d102      	bne.n	8005840 <follow_path+0x20>
 800583a:	683b      	ldr	r3, [r7, #0]
 800583c:	3301      	adds	r3, #1
 800583e:	603b      	str	r3, [r7, #0]
 8005840:	687a      	ldr	r2, [r7, #4]
 8005842:	2382      	movs	r3, #130	; 0x82
 8005844:	009b      	lsls	r3, r3, #2
 8005846:	2100      	movs	r1, #0
 8005848:	50d1      	str	r1, [r2, r3]
 800584a:	683b      	ldr	r3, [r7, #0]
 800584c:	781b      	ldrb	r3, [r3, #0]
 800584e:	2b1f      	cmp	r3, #31
 8005850:	d80e      	bhi.n	8005870 <follow_path+0x50>
 8005852:	230f      	movs	r3, #15
 8005854:	18fc      	adds	r4, r7, r3
 8005856:	687b      	ldr	r3, [r7, #4]
 8005858:	2100      	movs	r1, #0
 800585a:	0018      	movs	r0, r3
 800585c:	f7ff fbba 	bl	8004fd4 <dir_sdi>
 8005860:	0003      	movs	r3, r0
 8005862:	7023      	strb	r3, [r4, #0]
 8005864:	687a      	ldr	r2, [r7, #4]
 8005866:	2385      	movs	r3, #133	; 0x85
 8005868:	009b      	lsls	r3, r3, #2
 800586a:	2100      	movs	r1, #0
 800586c:	50d1      	str	r1, [r2, r3]
 800586e:	e058      	b.n	8005922 <follow_path+0x102>
 8005870:	250f      	movs	r5, #15
 8005872:	197c      	adds	r4, r7, r5
 8005874:	003a      	movs	r2, r7
 8005876:	687b      	ldr	r3, [r7, #4]
 8005878:	0011      	movs	r1, r2
 800587a:	0018      	movs	r0, r3
 800587c:	f7ff fed0 	bl	8005620 <create_name>
 8005880:	0003      	movs	r3, r0
 8005882:	7023      	strb	r3, [r4, #0]
 8005884:	197b      	adds	r3, r7, r5
 8005886:	781b      	ldrb	r3, [r3, #0]
 8005888:	2b00      	cmp	r3, #0
 800588a:	d145      	bne.n	8005918 <follow_path+0xf8>
 800588c:	197c      	adds	r4, r7, r5
 800588e:	687b      	ldr	r3, [r7, #4]
 8005890:	0018      	movs	r0, r3
 8005892:	f7ff fe18 	bl	80054c6 <dir_find>
 8005896:	0003      	movs	r3, r0
 8005898:	7023      	strb	r3, [r4, #0]
 800589a:	687a      	ldr	r2, [r7, #4]
 800589c:	2386      	movs	r3, #134	; 0x86
 800589e:	009b      	lsls	r3, r3, #2
 80058a0:	58d2      	ldr	r2, [r2, r3]
 80058a2:	210e      	movs	r1, #14
 80058a4:	187b      	adds	r3, r7, r1
 80058a6:	7ad2      	ldrb	r2, [r2, #11]
 80058a8:	701a      	strb	r2, [r3, #0]
 80058aa:	197b      	adds	r3, r7, r5
 80058ac:	781b      	ldrb	r3, [r3, #0]
 80058ae:	2b00      	cmp	r3, #0
 80058b0:	d00c      	beq.n	80058cc <follow_path+0xac>
 80058b2:	197b      	adds	r3, r7, r5
 80058b4:	781b      	ldrb	r3, [r3, #0]
 80058b6:	2b04      	cmp	r3, #4
 80058b8:	d130      	bne.n	800591c <follow_path+0xfc>
 80058ba:	187b      	adds	r3, r7, r1
 80058bc:	781b      	ldrb	r3, [r3, #0]
 80058be:	2204      	movs	r2, #4
 80058c0:	4013      	ands	r3, r2
 80058c2:	d12b      	bne.n	800591c <follow_path+0xfc>
 80058c4:	197b      	adds	r3, r7, r5
 80058c6:	2205      	movs	r2, #5
 80058c8:	701a      	strb	r2, [r3, #0]
 80058ca:	e027      	b.n	800591c <follow_path+0xfc>
 80058cc:	230e      	movs	r3, #14
 80058ce:	18fb      	adds	r3, r7, r3
 80058d0:	781b      	ldrb	r3, [r3, #0]
 80058d2:	2204      	movs	r2, #4
 80058d4:	4013      	ands	r3, r2
 80058d6:	d123      	bne.n	8005920 <follow_path+0x100>
 80058d8:	687a      	ldr	r2, [r7, #4]
 80058da:	2385      	movs	r3, #133	; 0x85
 80058dc:	009b      	lsls	r3, r3, #2
 80058de:	58d3      	ldr	r3, [r2, r3]
 80058e0:	60bb      	str	r3, [r7, #8]
 80058e2:	68bb      	ldr	r3, [r7, #8]
 80058e4:	330b      	adds	r3, #11
 80058e6:	781b      	ldrb	r3, [r3, #0]
 80058e8:	001a      	movs	r2, r3
 80058ea:	2310      	movs	r3, #16
 80058ec:	4013      	ands	r3, r2
 80058ee:	d104      	bne.n	80058fa <follow_path+0xda>
 80058f0:	230f      	movs	r3, #15
 80058f2:	18fb      	adds	r3, r7, r3
 80058f4:	2205      	movs	r2, #5
 80058f6:	701a      	strb	r2, [r3, #0]
 80058f8:	e013      	b.n	8005922 <follow_path+0x102>
 80058fa:	687a      	ldr	r2, [r7, #4]
 80058fc:	2380      	movs	r3, #128	; 0x80
 80058fe:	009b      	lsls	r3, r3, #2
 8005900:	58d3      	ldr	r3, [r2, r3]
 8005902:	68ba      	ldr	r2, [r7, #8]
 8005904:	0011      	movs	r1, r2
 8005906:	0018      	movs	r0, r3
 8005908:	f7ff fd8b 	bl	8005422 <ld_clust>
 800590c:	0001      	movs	r1, r0
 800590e:	687a      	ldr	r2, [r7, #4]
 8005910:	2382      	movs	r3, #130	; 0x82
 8005912:	009b      	lsls	r3, r3, #2
 8005914:	50d1      	str	r1, [r2, r3]
 8005916:	e7ab      	b.n	8005870 <follow_path+0x50>
 8005918:	46c0      	nop			; (mov r8, r8)
 800591a:	e002      	b.n	8005922 <follow_path+0x102>
 800591c:	46c0      	nop			; (mov r8, r8)
 800591e:	e000      	b.n	8005922 <follow_path+0x102>
 8005920:	46c0      	nop			; (mov r8, r8)
 8005922:	230f      	movs	r3, #15
 8005924:	18fb      	adds	r3, r7, r3
 8005926:	781b      	ldrb	r3, [r3, #0]
 8005928:	0018      	movs	r0, r3
 800592a:	46bd      	mov	sp, r7
 800592c:	b004      	add	sp, #16
 800592e:	bdb0      	pop	{r4, r5, r7, pc}

08005930 <get_ldnumber>:
 8005930:	b580      	push	{r7, lr}
 8005932:	b086      	sub	sp, #24
 8005934:	af00      	add	r7, sp, #0
 8005936:	6078      	str	r0, [r7, #4]
 8005938:	2301      	movs	r3, #1
 800593a:	425b      	negs	r3, r3
 800593c:	613b      	str	r3, [r7, #16]
 800593e:	687b      	ldr	r3, [r7, #4]
 8005940:	681b      	ldr	r3, [r3, #0]
 8005942:	2b00      	cmp	r3, #0
 8005944:	d031      	beq.n	80059aa <get_ldnumber+0x7a>
 8005946:	687b      	ldr	r3, [r7, #4]
 8005948:	681b      	ldr	r3, [r3, #0]
 800594a:	617b      	str	r3, [r7, #20]
 800594c:	e002      	b.n	8005954 <get_ldnumber+0x24>
 800594e:	697b      	ldr	r3, [r7, #20]
 8005950:	3301      	adds	r3, #1
 8005952:	617b      	str	r3, [r7, #20]
 8005954:	697b      	ldr	r3, [r7, #20]
 8005956:	781b      	ldrb	r3, [r3, #0]
 8005958:	2b20      	cmp	r3, #32
 800595a:	d903      	bls.n	8005964 <get_ldnumber+0x34>
 800595c:	697b      	ldr	r3, [r7, #20]
 800595e:	781b      	ldrb	r3, [r3, #0]
 8005960:	2b3a      	cmp	r3, #58	; 0x3a
 8005962:	d1f4      	bne.n	800594e <get_ldnumber+0x1e>
 8005964:	697b      	ldr	r3, [r7, #20]
 8005966:	781b      	ldrb	r3, [r3, #0]
 8005968:	2b3a      	cmp	r3, #58	; 0x3a
 800596a:	d11c      	bne.n	80059a6 <get_ldnumber+0x76>
 800596c:	687b      	ldr	r3, [r7, #4]
 800596e:	681b      	ldr	r3, [r3, #0]
 8005970:	60fb      	str	r3, [r7, #12]
 8005972:	68fb      	ldr	r3, [r7, #12]
 8005974:	1c5a      	adds	r2, r3, #1
 8005976:	60fa      	str	r2, [r7, #12]
 8005978:	781b      	ldrb	r3, [r3, #0]
 800597a:	3b30      	subs	r3, #48	; 0x30
 800597c:	60bb      	str	r3, [r7, #8]
 800597e:	68bb      	ldr	r3, [r7, #8]
 8005980:	2b09      	cmp	r3, #9
 8005982:	d80e      	bhi.n	80059a2 <get_ldnumber+0x72>
 8005984:	68fa      	ldr	r2, [r7, #12]
 8005986:	697b      	ldr	r3, [r7, #20]
 8005988:	429a      	cmp	r2, r3
 800598a:	d10a      	bne.n	80059a2 <get_ldnumber+0x72>
 800598c:	68bb      	ldr	r3, [r7, #8]
 800598e:	2b00      	cmp	r3, #0
 8005990:	d107      	bne.n	80059a2 <get_ldnumber+0x72>
 8005992:	68bb      	ldr	r3, [r7, #8]
 8005994:	613b      	str	r3, [r7, #16]
 8005996:	697b      	ldr	r3, [r7, #20]
 8005998:	3301      	adds	r3, #1
 800599a:	617b      	str	r3, [r7, #20]
 800599c:	687b      	ldr	r3, [r7, #4]
 800599e:	697a      	ldr	r2, [r7, #20]
 80059a0:	601a      	str	r2, [r3, #0]
 80059a2:	693b      	ldr	r3, [r7, #16]
 80059a4:	e002      	b.n	80059ac <get_ldnumber+0x7c>
 80059a6:	2300      	movs	r3, #0
 80059a8:	613b      	str	r3, [r7, #16]
 80059aa:	693b      	ldr	r3, [r7, #16]
 80059ac:	0018      	movs	r0, r3
 80059ae:	46bd      	mov	sp, r7
 80059b0:	b006      	add	sp, #24
 80059b2:	bd80      	pop	{r7, pc}

080059b4 <check_fs>:
 80059b4:	b580      	push	{r7, lr}
 80059b6:	b082      	sub	sp, #8
 80059b8:	af00      	add	r7, sp, #0
 80059ba:	6078      	str	r0, [r7, #4]
 80059bc:	6039      	str	r1, [r7, #0]
 80059be:	687a      	ldr	r2, [r7, #4]
 80059c0:	2381      	movs	r3, #129	; 0x81
 80059c2:	009b      	lsls	r3, r3, #2
 80059c4:	2100      	movs	r1, #0
 80059c6:	54d1      	strb	r1, [r2, r3]
 80059c8:	687a      	ldr	r2, [r7, #4]
 80059ca:	238b      	movs	r3, #139	; 0x8b
 80059cc:	009b      	lsls	r3, r3, #2
 80059ce:	2101      	movs	r1, #1
 80059d0:	4249      	negs	r1, r1
 80059d2:	50d1      	str	r1, [r2, r3]
 80059d4:	683a      	ldr	r2, [r7, #0]
 80059d6:	687b      	ldr	r3, [r7, #4]
 80059d8:	0011      	movs	r1, r2
 80059da:	0018      	movs	r0, r3
 80059dc:	f7fe fe76 	bl	80046cc <move_window>
 80059e0:	1e03      	subs	r3, r0, #0
 80059e2:	d001      	beq.n	80059e8 <check_fs+0x34>
 80059e4:	2303      	movs	r3, #3
 80059e6:	e04b      	b.n	8005a80 <check_fs+0xcc>
 80059e8:	687b      	ldr	r3, [r7, #4]
 80059ea:	33ff      	adds	r3, #255	; 0xff
 80059ec:	33ff      	adds	r3, #255	; 0xff
 80059ee:	3301      	adds	r3, #1
 80059f0:	781b      	ldrb	r3, [r3, #0]
 80059f2:	021b      	lsls	r3, r3, #8
 80059f4:	b21a      	sxth	r2, r3
 80059f6:	6879      	ldr	r1, [r7, #4]
 80059f8:	23ff      	movs	r3, #255	; 0xff
 80059fa:	005b      	lsls	r3, r3, #1
 80059fc:	5ccb      	ldrb	r3, [r1, r3]
 80059fe:	b21b      	sxth	r3, r3
 8005a00:	4313      	orrs	r3, r2
 8005a02:	b21b      	sxth	r3, r3
 8005a04:	4a20      	ldr	r2, [pc, #128]	; (8005a88 <check_fs+0xd4>)
 8005a06:	4293      	cmp	r3, r2
 8005a08:	d001      	beq.n	8005a0e <check_fs+0x5a>
 8005a0a:	2302      	movs	r3, #2
 8005a0c:	e038      	b.n	8005a80 <check_fs+0xcc>
 8005a0e:	687b      	ldr	r3, [r7, #4]
 8005a10:	3336      	adds	r3, #54	; 0x36
 8005a12:	3303      	adds	r3, #3
 8005a14:	781b      	ldrb	r3, [r3, #0]
 8005a16:	061a      	lsls	r2, r3, #24
 8005a18:	687b      	ldr	r3, [r7, #4]
 8005a1a:	3336      	adds	r3, #54	; 0x36
 8005a1c:	3302      	adds	r3, #2
 8005a1e:	781b      	ldrb	r3, [r3, #0]
 8005a20:	041b      	lsls	r3, r3, #16
 8005a22:	4313      	orrs	r3, r2
 8005a24:	687a      	ldr	r2, [r7, #4]
 8005a26:	3236      	adds	r2, #54	; 0x36
 8005a28:	3201      	adds	r2, #1
 8005a2a:	7812      	ldrb	r2, [r2, #0]
 8005a2c:	0212      	lsls	r2, r2, #8
 8005a2e:	4313      	orrs	r3, r2
 8005a30:	687a      	ldr	r2, [r7, #4]
 8005a32:	2136      	movs	r1, #54	; 0x36
 8005a34:	5c52      	ldrb	r2, [r2, r1]
 8005a36:	4313      	orrs	r3, r2
 8005a38:	021b      	lsls	r3, r3, #8
 8005a3a:	0a1b      	lsrs	r3, r3, #8
 8005a3c:	4a13      	ldr	r2, [pc, #76]	; (8005a8c <check_fs+0xd8>)
 8005a3e:	4293      	cmp	r3, r2
 8005a40:	d101      	bne.n	8005a46 <check_fs+0x92>
 8005a42:	2300      	movs	r3, #0
 8005a44:	e01c      	b.n	8005a80 <check_fs+0xcc>
 8005a46:	687b      	ldr	r3, [r7, #4]
 8005a48:	3352      	adds	r3, #82	; 0x52
 8005a4a:	3303      	adds	r3, #3
 8005a4c:	781b      	ldrb	r3, [r3, #0]
 8005a4e:	061a      	lsls	r2, r3, #24
 8005a50:	687b      	ldr	r3, [r7, #4]
 8005a52:	3352      	adds	r3, #82	; 0x52
 8005a54:	3302      	adds	r3, #2
 8005a56:	781b      	ldrb	r3, [r3, #0]
 8005a58:	041b      	lsls	r3, r3, #16
 8005a5a:	4313      	orrs	r3, r2
 8005a5c:	687a      	ldr	r2, [r7, #4]
 8005a5e:	3252      	adds	r2, #82	; 0x52
 8005a60:	3201      	adds	r2, #1
 8005a62:	7812      	ldrb	r2, [r2, #0]
 8005a64:	0212      	lsls	r2, r2, #8
 8005a66:	4313      	orrs	r3, r2
 8005a68:	687a      	ldr	r2, [r7, #4]
 8005a6a:	2152      	movs	r1, #82	; 0x52
 8005a6c:	5c52      	ldrb	r2, [r2, r1]
 8005a6e:	4313      	orrs	r3, r2
 8005a70:	021b      	lsls	r3, r3, #8
 8005a72:	0a1b      	lsrs	r3, r3, #8
 8005a74:	4a05      	ldr	r2, [pc, #20]	; (8005a8c <check_fs+0xd8>)
 8005a76:	4293      	cmp	r3, r2
 8005a78:	d101      	bne.n	8005a7e <check_fs+0xca>
 8005a7a:	2300      	movs	r3, #0
 8005a7c:	e000      	b.n	8005a80 <check_fs+0xcc>
 8005a7e:	2301      	movs	r3, #1
 8005a80:	0018      	movs	r0, r3
 8005a82:	46bd      	mov	sp, r7
 8005a84:	b002      	add	sp, #8
 8005a86:	bd80      	pop	{r7, pc}
 8005a88:	ffffaa55 	.word	0xffffaa55
 8005a8c:	00544146 	.word	0x00544146

08005a90 <find_volume>:
 8005a90:	b5b0      	push	{r4, r5, r7, lr}
 8005a92:	b096      	sub	sp, #88	; 0x58
 8005a94:	af00      	add	r7, sp, #0
 8005a96:	60f8      	str	r0, [r7, #12]
 8005a98:	60b9      	str	r1, [r7, #8]
 8005a9a:	1dfb      	adds	r3, r7, #7
 8005a9c:	701a      	strb	r2, [r3, #0]
 8005a9e:	68fb      	ldr	r3, [r7, #12]
 8005aa0:	2200      	movs	r2, #0
 8005aa2:	601a      	str	r2, [r3, #0]
 8005aa4:	68bb      	ldr	r3, [r7, #8]
 8005aa6:	0018      	movs	r0, r3
 8005aa8:	f7ff ff42 	bl	8005930 <get_ldnumber>
 8005aac:	0003      	movs	r3, r0
 8005aae:	63fb      	str	r3, [r7, #60]	; 0x3c
 8005ab0:	6bfb      	ldr	r3, [r7, #60]	; 0x3c
 8005ab2:	2b00      	cmp	r3, #0
 8005ab4:	da01      	bge.n	8005aba <find_volume+0x2a>
 8005ab6:	230b      	movs	r3, #11
 8005ab8:	e2f2      	b.n	80060a0 <find_volume+0x610>
 8005aba:	4bcf      	ldr	r3, [pc, #828]	; (8005df8 <find_volume+0x368>)
 8005abc:	6bfa      	ldr	r2, [r7, #60]	; 0x3c
 8005abe:	0092      	lsls	r2, r2, #2
 8005ac0:	58d3      	ldr	r3, [r2, r3]
 8005ac2:	63bb      	str	r3, [r7, #56]	; 0x38
 8005ac4:	6bbb      	ldr	r3, [r7, #56]	; 0x38
 8005ac6:	2b00      	cmp	r3, #0
 8005ac8:	d101      	bne.n	8005ace <find_volume+0x3e>
 8005aca:	230c      	movs	r3, #12
 8005acc:	e2e8      	b.n	80060a0 <find_volume+0x610>
 8005ace:	68fb      	ldr	r3, [r7, #12]
 8005ad0:	6bba      	ldr	r2, [r7, #56]	; 0x38
 8005ad2:	601a      	str	r2, [r3, #0]
 8005ad4:	6bba      	ldr	r2, [r7, #56]	; 0x38
 8005ad6:	2380      	movs	r3, #128	; 0x80
 8005ad8:	009b      	lsls	r3, r3, #2
 8005ada:	5cd3      	ldrb	r3, [r2, r3]
 8005adc:	2b00      	cmp	r3, #0
 8005ade:	d01c      	beq.n	8005b1a <find_volume+0x8a>
 8005ae0:	6bbb      	ldr	r3, [r7, #56]	; 0x38
 8005ae2:	4ac6      	ldr	r2, [pc, #792]	; (8005dfc <find_volume+0x36c>)
 8005ae4:	5c9b      	ldrb	r3, [r3, r2]
 8005ae6:	2537      	movs	r5, #55	; 0x37
 8005ae8:	197c      	adds	r4, r7, r5
 8005aea:	0018      	movs	r0, r3
 8005aec:	f7fe fa98 	bl	8004020 <disk_status>
 8005af0:	0003      	movs	r3, r0
 8005af2:	7023      	strb	r3, [r4, #0]
 8005af4:	0029      	movs	r1, r5
 8005af6:	187b      	adds	r3, r7, r1
 8005af8:	781b      	ldrb	r3, [r3, #0]
 8005afa:	2201      	movs	r2, #1
 8005afc:	4013      	ands	r3, r2
 8005afe:	d10c      	bne.n	8005b1a <find_volume+0x8a>
 8005b00:	1dfb      	adds	r3, r7, #7
 8005b02:	781b      	ldrb	r3, [r3, #0]
 8005b04:	2b00      	cmp	r3, #0
 8005b06:	d006      	beq.n	8005b16 <find_volume+0x86>
 8005b08:	187b      	adds	r3, r7, r1
 8005b0a:	781b      	ldrb	r3, [r3, #0]
 8005b0c:	2204      	movs	r2, #4
 8005b0e:	4013      	ands	r3, r2
 8005b10:	d001      	beq.n	8005b16 <find_volume+0x86>
 8005b12:	230a      	movs	r3, #10
 8005b14:	e2c4      	b.n	80060a0 <find_volume+0x610>
 8005b16:	2300      	movs	r3, #0
 8005b18:	e2c2      	b.n	80060a0 <find_volume+0x610>
 8005b1a:	6bba      	ldr	r2, [r7, #56]	; 0x38
 8005b1c:	2380      	movs	r3, #128	; 0x80
 8005b1e:	009b      	lsls	r3, r3, #2
 8005b20:	2100      	movs	r1, #0
 8005b22:	54d1      	strb	r1, [r2, r3]
 8005b24:	6bfb      	ldr	r3, [r7, #60]	; 0x3c
 8005b26:	b2d9      	uxtb	r1, r3
 8005b28:	6bbb      	ldr	r3, [r7, #56]	; 0x38
 8005b2a:	4ab4      	ldr	r2, [pc, #720]	; (8005dfc <find_volume+0x36c>)
 8005b2c:	5499      	strb	r1, [r3, r2]
 8005b2e:	6bbb      	ldr	r3, [r7, #56]	; 0x38
 8005b30:	4ab2      	ldr	r2, [pc, #712]	; (8005dfc <find_volume+0x36c>)
 8005b32:	5c9b      	ldrb	r3, [r3, r2]
 8005b34:	2537      	movs	r5, #55	; 0x37
 8005b36:	197c      	adds	r4, r7, r5
 8005b38:	0018      	movs	r0, r3
 8005b3a:	f7fe fa93 	bl	8004064 <disk_initialize>
 8005b3e:	0003      	movs	r3, r0
 8005b40:	7023      	strb	r3, [r4, #0]
 8005b42:	197b      	adds	r3, r7, r5
 8005b44:	781b      	ldrb	r3, [r3, #0]
 8005b46:	2201      	movs	r2, #1
 8005b48:	4013      	ands	r3, r2
 8005b4a:	d001      	beq.n	8005b50 <find_volume+0xc0>
 8005b4c:	2303      	movs	r3, #3
 8005b4e:	e2a7      	b.n	80060a0 <find_volume+0x610>
 8005b50:	1dfb      	adds	r3, r7, #7
 8005b52:	781b      	ldrb	r3, [r3, #0]
 8005b54:	2b00      	cmp	r3, #0
 8005b56:	d007      	beq.n	8005b68 <find_volume+0xd8>
 8005b58:	2337      	movs	r3, #55	; 0x37
 8005b5a:	18fb      	adds	r3, r7, r3
 8005b5c:	781b      	ldrb	r3, [r3, #0]
 8005b5e:	2204      	movs	r2, #4
 8005b60:	4013      	ands	r3, r2
 8005b62:	d001      	beq.n	8005b68 <find_volume+0xd8>
 8005b64:	230a      	movs	r3, #10
 8005b66:	e29b      	b.n	80060a0 <find_volume+0x610>
 8005b68:	2300      	movs	r3, #0
 8005b6a:	653b      	str	r3, [r7, #80]	; 0x50
 8005b6c:	2557      	movs	r5, #87	; 0x57
 8005b6e:	197c      	adds	r4, r7, r5
 8005b70:	6d3a      	ldr	r2, [r7, #80]	; 0x50
 8005b72:	6bbb      	ldr	r3, [r7, #56]	; 0x38
 8005b74:	0011      	movs	r1, r2
 8005b76:	0018      	movs	r0, r3
 8005b78:	f7ff ff1c 	bl	80059b4 <check_fs>
 8005b7c:	0003      	movs	r3, r0
 8005b7e:	7023      	strb	r3, [r4, #0]
 8005b80:	197b      	adds	r3, r7, r5
 8005b82:	781b      	ldrb	r3, [r3, #0]
 8005b84:	2b01      	cmp	r3, #1
 8005b86:	d155      	bne.n	8005c34 <find_volume+0x1a4>
 8005b88:	2300      	movs	r3, #0
 8005b8a:	643b      	str	r3, [r7, #64]	; 0x40
 8005b8c:	e027      	b.n	8005bde <find_volume+0x14e>
 8005b8e:	6bba      	ldr	r2, [r7, #56]	; 0x38
 8005b90:	6c3b      	ldr	r3, [r7, #64]	; 0x40
 8005b92:	011b      	lsls	r3, r3, #4
 8005b94:	33bf      	adds	r3, #191	; 0xbf
 8005b96:	33ff      	adds	r3, #255	; 0xff
 8005b98:	18d3      	adds	r3, r2, r3
 8005b9a:	633b      	str	r3, [r7, #48]	; 0x30
 8005b9c:	6b3b      	ldr	r3, [r7, #48]	; 0x30
 8005b9e:	3304      	adds	r3, #4
 8005ba0:	781b      	ldrb	r3, [r3, #0]
 8005ba2:	2b00      	cmp	r3, #0
 8005ba4:	d012      	beq.n	8005bcc <find_volume+0x13c>
 8005ba6:	6b3b      	ldr	r3, [r7, #48]	; 0x30
 8005ba8:	330b      	adds	r3, #11
 8005baa:	781b      	ldrb	r3, [r3, #0]
 8005bac:	061a      	lsls	r2, r3, #24
 8005bae:	6b3b      	ldr	r3, [r7, #48]	; 0x30
 8005bb0:	330a      	adds	r3, #10
 8005bb2:	781b      	ldrb	r3, [r3, #0]
 8005bb4:	041b      	lsls	r3, r3, #16
 8005bb6:	4313      	orrs	r3, r2
 8005bb8:	6b3a      	ldr	r2, [r7, #48]	; 0x30
 8005bba:	3209      	adds	r2, #9
 8005bbc:	7812      	ldrb	r2, [r2, #0]
 8005bbe:	0212      	lsls	r2, r2, #8
 8005bc0:	4313      	orrs	r3, r2
 8005bc2:	6b3a      	ldr	r2, [r7, #48]	; 0x30
 8005bc4:	3208      	adds	r2, #8
 8005bc6:	7812      	ldrb	r2, [r2, #0]
 8005bc8:	4313      	orrs	r3, r2
 8005bca:	e000      	b.n	8005bce <find_volume+0x13e>
 8005bcc:	2300      	movs	r3, #0
 8005bce:	2214      	movs	r2, #20
 8005bd0:	18ba      	adds	r2, r7, r2
 8005bd2:	6c39      	ldr	r1, [r7, #64]	; 0x40
 8005bd4:	0089      	lsls	r1, r1, #2
 8005bd6:	508b      	str	r3, [r1, r2]
 8005bd8:	6c3b      	ldr	r3, [r7, #64]	; 0x40
 8005bda:	3301      	adds	r3, #1
 8005bdc:	643b      	str	r3, [r7, #64]	; 0x40
 8005bde:	6c3b      	ldr	r3, [r7, #64]	; 0x40
 8005be0:	2b03      	cmp	r3, #3
 8005be2:	d9d4      	bls.n	8005b8e <find_volume+0xfe>
 8005be4:	2300      	movs	r3, #0
 8005be6:	643b      	str	r3, [r7, #64]	; 0x40
 8005be8:	6c3b      	ldr	r3, [r7, #64]	; 0x40
 8005bea:	2b00      	cmp	r3, #0
 8005bec:	d002      	beq.n	8005bf4 <find_volume+0x164>
 8005bee:	6c3b      	ldr	r3, [r7, #64]	; 0x40
 8005bf0:	3b01      	subs	r3, #1
 8005bf2:	643b      	str	r3, [r7, #64]	; 0x40
 8005bf4:	2314      	movs	r3, #20
 8005bf6:	18fb      	adds	r3, r7, r3
 8005bf8:	6c3a      	ldr	r2, [r7, #64]	; 0x40
 8005bfa:	0092      	lsls	r2, r2, #2
 8005bfc:	58d3      	ldr	r3, [r2, r3]
 8005bfe:	653b      	str	r3, [r7, #80]	; 0x50
 8005c00:	6d3b      	ldr	r3, [r7, #80]	; 0x50
 8005c02:	2b00      	cmp	r3, #0
 8005c04:	d008      	beq.n	8005c18 <find_volume+0x188>
 8005c06:	6d3a      	ldr	r2, [r7, #80]	; 0x50
 8005c08:	6bbb      	ldr	r3, [r7, #56]	; 0x38
 8005c0a:	0011      	movs	r1, r2
 8005c0c:	0018      	movs	r0, r3
 8005c0e:	f7ff fed1 	bl	80059b4 <check_fs>
 8005c12:	0003      	movs	r3, r0
 8005c14:	001a      	movs	r2, r3
 8005c16:	e000      	b.n	8005c1a <find_volume+0x18a>
 8005c18:	2202      	movs	r2, #2
 8005c1a:	2157      	movs	r1, #87	; 0x57
 8005c1c:	187b      	adds	r3, r7, r1
 8005c1e:	701a      	strb	r2, [r3, #0]
 8005c20:	187b      	adds	r3, r7, r1
 8005c22:	781b      	ldrb	r3, [r3, #0]
 8005c24:	2b00      	cmp	r3, #0
 8005c26:	d005      	beq.n	8005c34 <find_volume+0x1a4>
 8005c28:	6c3b      	ldr	r3, [r7, #64]	; 0x40
 8005c2a:	3301      	adds	r3, #1
 8005c2c:	643b      	str	r3, [r7, #64]	; 0x40
 8005c2e:	6c3b      	ldr	r3, [r7, #64]	; 0x40
 8005c30:	2b03      	cmp	r3, #3
 8005c32:	d9df      	bls.n	8005bf4 <find_volume+0x164>
 8005c34:	2357      	movs	r3, #87	; 0x57
 8005c36:	18fb      	adds	r3, r7, r3
 8005c38:	781b      	ldrb	r3, [r3, #0]
 8005c3a:	2b03      	cmp	r3, #3
 8005c3c:	d101      	bne.n	8005c42 <find_volume+0x1b2>
 8005c3e:	2301      	movs	r3, #1
 8005c40:	e22e      	b.n	80060a0 <find_volume+0x610>
 8005c42:	2357      	movs	r3, #87	; 0x57
 8005c44:	18fb      	adds	r3, r7, r3
 8005c46:	781b      	ldrb	r3, [r3, #0]
 8005c48:	2b00      	cmp	r3, #0
 8005c4a:	d001      	beq.n	8005c50 <find_volume+0x1c0>
 8005c4c:	230d      	movs	r3, #13
 8005c4e:	e227      	b.n	80060a0 <find_volume+0x610>
 8005c50:	6bbb      	ldr	r3, [r7, #56]	; 0x38
 8005c52:	7b1b      	ldrb	r3, [r3, #12]
 8005c54:	021b      	lsls	r3, r3, #8
 8005c56:	b21a      	sxth	r2, r3
 8005c58:	6bbb      	ldr	r3, [r7, #56]	; 0x38
 8005c5a:	7adb      	ldrb	r3, [r3, #11]
 8005c5c:	b21b      	sxth	r3, r3
 8005c5e:	4313      	orrs	r3, r2
 8005c60:	b21a      	sxth	r2, r3
 8005c62:	2380      	movs	r3, #128	; 0x80
 8005c64:	009b      	lsls	r3, r3, #2
 8005c66:	429a      	cmp	r2, r3
 8005c68:	d001      	beq.n	8005c6e <find_volume+0x1de>
 8005c6a:	230d      	movs	r3, #13
 8005c6c:	e218      	b.n	80060a0 <find_volume+0x610>
 8005c6e:	6bbb      	ldr	r3, [r7, #56]	; 0x38
 8005c70:	7ddb      	ldrb	r3, [r3, #23]
 8005c72:	021b      	lsls	r3, r3, #8
 8005c74:	b21a      	sxth	r2, r3
 8005c76:	6bbb      	ldr	r3, [r7, #56]	; 0x38
 8005c78:	7d9b      	ldrb	r3, [r3, #22]
 8005c7a:	b21b      	sxth	r3, r3
 8005c7c:	4313      	orrs	r3, r2
 8005c7e:	b21b      	sxth	r3, r3
 8005c80:	b29b      	uxth	r3, r3
 8005c82:	64fb      	str	r3, [r7, #76]	; 0x4c
 8005c84:	6cfb      	ldr	r3, [r7, #76]	; 0x4c
 8005c86:	2b00      	cmp	r3, #0
 8005c88:	d112      	bne.n	8005cb0 <find_volume+0x220>
 8005c8a:	6bbb      	ldr	r3, [r7, #56]	; 0x38
 8005c8c:	2227      	movs	r2, #39	; 0x27
 8005c8e:	5c9b      	ldrb	r3, [r3, r2]
 8005c90:	061a      	lsls	r2, r3, #24
 8005c92:	6bbb      	ldr	r3, [r7, #56]	; 0x38
 8005c94:	2126      	movs	r1, #38	; 0x26
 8005c96:	5c5b      	ldrb	r3, [r3, r1]
 8005c98:	041b      	lsls	r3, r3, #16
 8005c9a:	4313      	orrs	r3, r2
 8005c9c:	6bba      	ldr	r2, [r7, #56]	; 0x38
 8005c9e:	2125      	movs	r1, #37	; 0x25
 8005ca0:	5c52      	ldrb	r2, [r2, r1]
 8005ca2:	0212      	lsls	r2, r2, #8
 8005ca4:	4313      	orrs	r3, r2
 8005ca6:	6bba      	ldr	r2, [r7, #56]	; 0x38
 8005ca8:	2124      	movs	r1, #36	; 0x24
 8005caa:	5c52      	ldrb	r2, [r2, r1]
 8005cac:	4313      	orrs	r3, r2
 8005cae:	64fb      	str	r3, [r7, #76]	; 0x4c
 8005cb0:	6bba      	ldr	r2, [r7, #56]	; 0x38
 8005cb2:	2386      	movs	r3, #134	; 0x86
 8005cb4:	009b      	lsls	r3, r3, #2
 8005cb6:	6cf9      	ldr	r1, [r7, #76]	; 0x4c
 8005cb8:	50d1      	str	r1, [r2, r3]
 8005cba:	6bbb      	ldr	r3, [r7, #56]	; 0x38
 8005cbc:	7c19      	ldrb	r1, [r3, #16]
 8005cbe:	6bbb      	ldr	r3, [r7, #56]	; 0x38
 8005cc0:	4a4f      	ldr	r2, [pc, #316]	; (8005e00 <find_volume+0x370>)
 8005cc2:	5499      	strb	r1, [r3, r2]
 8005cc4:	6bbb      	ldr	r3, [r7, #56]	; 0x38
 8005cc6:	4a4e      	ldr	r2, [pc, #312]	; (8005e00 <find_volume+0x370>)
 8005cc8:	5c9b      	ldrb	r3, [r3, r2]
 8005cca:	2b01      	cmp	r3, #1
 8005ccc:	d006      	beq.n	8005cdc <find_volume+0x24c>
 8005cce:	6bbb      	ldr	r3, [r7, #56]	; 0x38
 8005cd0:	4a4b      	ldr	r2, [pc, #300]	; (8005e00 <find_volume+0x370>)
 8005cd2:	5c9b      	ldrb	r3, [r3, r2]
 8005cd4:	2b02      	cmp	r3, #2
 8005cd6:	d001      	beq.n	8005cdc <find_volume+0x24c>
 8005cd8:	230d      	movs	r3, #13
 8005cda:	e1e1      	b.n	80060a0 <find_volume+0x610>
 8005cdc:	6bbb      	ldr	r3, [r7, #56]	; 0x38
 8005cde:	4a48      	ldr	r2, [pc, #288]	; (8005e00 <find_volume+0x370>)
 8005ce0:	5c9b      	ldrb	r3, [r3, r2]
 8005ce2:	001a      	movs	r2, r3
 8005ce4:	6cfb      	ldr	r3, [r7, #76]	; 0x4c
 8005ce6:	4353      	muls	r3, r2
 8005ce8:	64fb      	str	r3, [r7, #76]	; 0x4c
 8005cea:	6bbb      	ldr	r3, [r7, #56]	; 0x38
 8005cec:	7b59      	ldrb	r1, [r3, #13]
 8005cee:	6bbb      	ldr	r3, [r7, #56]	; 0x38
 8005cf0:	4a44      	ldr	r2, [pc, #272]	; (8005e04 <find_volume+0x374>)
 8005cf2:	5499      	strb	r1, [r3, r2]
 8005cf4:	6bbb      	ldr	r3, [r7, #56]	; 0x38
 8005cf6:	4a43      	ldr	r2, [pc, #268]	; (8005e04 <find_volume+0x374>)
 8005cf8:	5c9b      	ldrb	r3, [r3, r2]
 8005cfa:	2b00      	cmp	r3, #0
 8005cfc:	d009      	beq.n	8005d12 <find_volume+0x282>
 8005cfe:	6bbb      	ldr	r3, [r7, #56]	; 0x38
 8005d00:	4a40      	ldr	r2, [pc, #256]	; (8005e04 <find_volume+0x374>)
 8005d02:	5c9b      	ldrb	r3, [r3, r2]
 8005d04:	0019      	movs	r1, r3
 8005d06:	6bbb      	ldr	r3, [r7, #56]	; 0x38
 8005d08:	4a3e      	ldr	r2, [pc, #248]	; (8005e04 <find_volume+0x374>)
 8005d0a:	5c9b      	ldrb	r3, [r3, r2]
 8005d0c:	3b01      	subs	r3, #1
 8005d0e:	400b      	ands	r3, r1
 8005d10:	d001      	beq.n	8005d16 <find_volume+0x286>
 8005d12:	230d      	movs	r3, #13
 8005d14:	e1c4      	b.n	80060a0 <find_volume+0x610>
 8005d16:	6bbb      	ldr	r3, [r7, #56]	; 0x38
 8005d18:	7c9b      	ldrb	r3, [r3, #18]
 8005d1a:	021b      	lsls	r3, r3, #8
 8005d1c:	b21a      	sxth	r2, r3
 8005d1e:	6bbb      	ldr	r3, [r7, #56]	; 0x38
 8005d20:	7c5b      	ldrb	r3, [r3, #17]
 8005d22:	b21b      	sxth	r3, r3
 8005d24:	4313      	orrs	r3, r2
 8005d26:	b21b      	sxth	r3, r3
 8005d28:	b299      	uxth	r1, r3
 8005d2a:	6bba      	ldr	r2, [r7, #56]	; 0x38
 8005d2c:	2382      	movs	r3, #130	; 0x82
 8005d2e:	009b      	lsls	r3, r3, #2
 8005d30:	52d1      	strh	r1, [r2, r3]
 8005d32:	6bba      	ldr	r2, [r7, #56]	; 0x38
 8005d34:	2382      	movs	r3, #130	; 0x82
 8005d36:	009b      	lsls	r3, r3, #2
 8005d38:	5ad3      	ldrh	r3, [r2, r3]
 8005d3a:	220f      	movs	r2, #15
 8005d3c:	4013      	ands	r3, r2
 8005d3e:	b29b      	uxth	r3, r3
 8005d40:	2b00      	cmp	r3, #0
 8005d42:	d001      	beq.n	8005d48 <find_volume+0x2b8>
 8005d44:	230d      	movs	r3, #13
 8005d46:	e1ab      	b.n	80060a0 <find_volume+0x610>
 8005d48:	6bbb      	ldr	r3, [r7, #56]	; 0x38
 8005d4a:	7d1b      	ldrb	r3, [r3, #20]
 8005d4c:	021b      	lsls	r3, r3, #8
 8005d4e:	b21a      	sxth	r2, r3
 8005d50:	6bbb      	ldr	r3, [r7, #56]	; 0x38
 8005d52:	7cdb      	ldrb	r3, [r3, #19]
 8005d54:	b21b      	sxth	r3, r3
 8005d56:	4313      	orrs	r3, r2
 8005d58:	b21b      	sxth	r3, r3
 8005d5a:	b29b      	uxth	r3, r3
 8005d5c:	64bb      	str	r3, [r7, #72]	; 0x48
 8005d5e:	6cbb      	ldr	r3, [r7, #72]	; 0x48
 8005d60:	2b00      	cmp	r3, #0
 8005d62:	d112      	bne.n	8005d8a <find_volume+0x2fa>
 8005d64:	6bbb      	ldr	r3, [r7, #56]	; 0x38
 8005d66:	2223      	movs	r2, #35	; 0x23
 8005d68:	5c9b      	ldrb	r3, [r3, r2]
 8005d6a:	061a      	lsls	r2, r3, #24
 8005d6c:	6bbb      	ldr	r3, [r7, #56]	; 0x38
 8005d6e:	2122      	movs	r1, #34	; 0x22
 8005d70:	5c5b      	ldrb	r3, [r3, r1]
 8005d72:	041b      	lsls	r3, r3, #16
 8005d74:	4313      	orrs	r3, r2
 8005d76:	6bba      	ldr	r2, [r7, #56]	; 0x38
 8005d78:	2121      	movs	r1, #33	; 0x21
 8005d7a:	5c52      	ldrb	r2, [r2, r1]
 8005d7c:	0212      	lsls	r2, r2, #8
 8005d7e:	4313      	orrs	r3, r2
 8005d80:	6bba      	ldr	r2, [r7, #56]	; 0x38
 8005d82:	2120      	movs	r1, #32
 8005d84:	5c52      	ldrb	r2, [r2, r1]
 8005d86:	4313      	orrs	r3, r2
 8005d88:	64bb      	str	r3, [r7, #72]	; 0x48
 8005d8a:	6bbb      	ldr	r3, [r7, #56]	; 0x38
 8005d8c:	7bdb      	ldrb	r3, [r3, #15]
 8005d8e:	021b      	lsls	r3, r3, #8
 8005d90:	b21a      	sxth	r2, r3
 8005d92:	6bbb      	ldr	r3, [r7, #56]	; 0x38
 8005d94:	7b9b      	ldrb	r3, [r3, #14]
 8005d96:	b21b      	sxth	r3, r3
 8005d98:	4313      	orrs	r3, r2
 8005d9a:	b21a      	sxth	r2, r3
 8005d9c:	212e      	movs	r1, #46	; 0x2e
 8005d9e:	187b      	adds	r3, r7, r1
 8005da0:	801a      	strh	r2, [r3, #0]
 8005da2:	187b      	adds	r3, r7, r1
 8005da4:	881b      	ldrh	r3, [r3, #0]
 8005da6:	2b00      	cmp	r3, #0
 8005da8:	d101      	bne.n	8005dae <find_volume+0x31e>
 8005daa:	230d      	movs	r3, #13
 8005dac:	e178      	b.n	80060a0 <find_volume+0x610>
 8005dae:	232e      	movs	r3, #46	; 0x2e
 8005db0:	18fb      	adds	r3, r7, r3
 8005db2:	881a      	ldrh	r2, [r3, #0]
 8005db4:	6cfb      	ldr	r3, [r7, #76]	; 0x4c
 8005db6:	18d3      	adds	r3, r2, r3
 8005db8:	6bb9      	ldr	r1, [r7, #56]	; 0x38
 8005dba:	2282      	movs	r2, #130	; 0x82
 8005dbc:	0092      	lsls	r2, r2, #2
 8005dbe:	5a8a      	ldrh	r2, [r1, r2]
 8005dc0:	0912      	lsrs	r2, r2, #4
 8005dc2:	b292      	uxth	r2, r2
 8005dc4:	189b      	adds	r3, r3, r2
 8005dc6:	62bb      	str	r3, [r7, #40]	; 0x28
 8005dc8:	6cba      	ldr	r2, [r7, #72]	; 0x48
 8005dca:	6abb      	ldr	r3, [r7, #40]	; 0x28
 8005dcc:	429a      	cmp	r2, r3
 8005dce:	d201      	bcs.n	8005dd4 <find_volume+0x344>
 8005dd0:	230d      	movs	r3, #13
 8005dd2:	e165      	b.n	80060a0 <find_volume+0x610>
 8005dd4:	6cba      	ldr	r2, [r7, #72]	; 0x48
 8005dd6:	6abb      	ldr	r3, [r7, #40]	; 0x28
 8005dd8:	1ad2      	subs	r2, r2, r3
 8005dda:	6bbb      	ldr	r3, [r7, #56]	; 0x38
 8005ddc:	4909      	ldr	r1, [pc, #36]	; (8005e04 <find_volume+0x374>)
 8005dde:	5c5b      	ldrb	r3, [r3, r1]
 8005de0:	0019      	movs	r1, r3
 8005de2:	0010      	movs	r0, r2
 8005de4:	f7fa f98e 	bl	8000104 <__udivsi3>
 8005de8:	0003      	movs	r3, r0
 8005dea:	627b      	str	r3, [r7, #36]	; 0x24
 8005dec:	6a7b      	ldr	r3, [r7, #36]	; 0x24
 8005dee:	2b00      	cmp	r3, #0
 8005df0:	d10a      	bne.n	8005e08 <find_volume+0x378>
 8005df2:	230d      	movs	r3, #13
 8005df4:	e154      	b.n	80060a0 <find_volume+0x610>
 8005df6:	46c0      	nop			; (mov r8, r8)
 8005df8:	20000614 	.word	0x20000614
 8005dfc:	00000201 	.word	0x00000201
 8005e00:	00000203 	.word	0x00000203
 8005e04:	00000202 	.word	0x00000202
 8005e08:	2157      	movs	r1, #87	; 0x57
 8005e0a:	187b      	adds	r3, r7, r1
 8005e0c:	2201      	movs	r2, #1
 8005e0e:	701a      	strb	r2, [r3, #0]
 8005e10:	6a7b      	ldr	r3, [r7, #36]	; 0x24
 8005e12:	4aa5      	ldr	r2, [pc, #660]	; (80060a8 <find_volume+0x618>)
 8005e14:	4293      	cmp	r3, r2
 8005e16:	d902      	bls.n	8005e1e <find_volume+0x38e>
 8005e18:	187b      	adds	r3, r7, r1
 8005e1a:	2202      	movs	r2, #2
 8005e1c:	701a      	strb	r2, [r3, #0]
 8005e1e:	6a7b      	ldr	r3, [r7, #36]	; 0x24
 8005e20:	4aa2      	ldr	r2, [pc, #648]	; (80060ac <find_volume+0x61c>)
 8005e22:	4293      	cmp	r3, r2
 8005e24:	d903      	bls.n	8005e2e <find_volume+0x39e>
 8005e26:	2357      	movs	r3, #87	; 0x57
 8005e28:	18fb      	adds	r3, r7, r3
 8005e2a:	2203      	movs	r2, #3
 8005e2c:	701a      	strb	r2, [r3, #0]
 8005e2e:	6a7b      	ldr	r3, [r7, #36]	; 0x24
 8005e30:	1c99      	adds	r1, r3, #2
 8005e32:	6bba      	ldr	r2, [r7, #56]	; 0x38
 8005e34:	2385      	movs	r3, #133	; 0x85
 8005e36:	009b      	lsls	r3, r3, #2
 8005e38:	50d1      	str	r1, [r2, r3]
 8005e3a:	6bba      	ldr	r2, [r7, #56]	; 0x38
 8005e3c:	2387      	movs	r3, #135	; 0x87
 8005e3e:	009b      	lsls	r3, r3, #2
 8005e40:	6d39      	ldr	r1, [r7, #80]	; 0x50
 8005e42:	50d1      	str	r1, [r2, r3]
 8005e44:	232e      	movs	r3, #46	; 0x2e
 8005e46:	18fb      	adds	r3, r7, r3
 8005e48:	881a      	ldrh	r2, [r3, #0]
 8005e4a:	6d3b      	ldr	r3, [r7, #80]	; 0x50
 8005e4c:	18d1      	adds	r1, r2, r3
 8005e4e:	6bba      	ldr	r2, [r7, #56]	; 0x38
 8005e50:	2388      	movs	r3, #136	; 0x88
 8005e52:	009b      	lsls	r3, r3, #2
 8005e54:	50d1      	str	r1, [r2, r3]
 8005e56:	6d3a      	ldr	r2, [r7, #80]	; 0x50
 8005e58:	6abb      	ldr	r3, [r7, #40]	; 0x28
 8005e5a:	18d1      	adds	r1, r2, r3
 8005e5c:	6bba      	ldr	r2, [r7, #56]	; 0x38
 8005e5e:	238a      	movs	r3, #138	; 0x8a
 8005e60:	009b      	lsls	r3, r3, #2
 8005e62:	50d1      	str	r1, [r2, r3]
 8005e64:	2357      	movs	r3, #87	; 0x57
 8005e66:	18fb      	adds	r3, r7, r3
 8005e68:	781b      	ldrb	r3, [r3, #0]
 8005e6a:	2b03      	cmp	r3, #3
 8005e6c:	d125      	bne.n	8005eba <find_volume+0x42a>
 8005e6e:	6bba      	ldr	r2, [r7, #56]	; 0x38
 8005e70:	2382      	movs	r3, #130	; 0x82
 8005e72:	009b      	lsls	r3, r3, #2
 8005e74:	5ad3      	ldrh	r3, [r2, r3]
 8005e76:	2b00      	cmp	r3, #0
 8005e78:	d001      	beq.n	8005e7e <find_volume+0x3ee>
 8005e7a:	230d      	movs	r3, #13
 8005e7c:	e110      	b.n	80060a0 <find_volume+0x610>
 8005e7e:	6bbb      	ldr	r3, [r7, #56]	; 0x38
 8005e80:	222f      	movs	r2, #47	; 0x2f
 8005e82:	5c9b      	ldrb	r3, [r3, r2]
 8005e84:	061a      	lsls	r2, r3, #24
 8005e86:	6bbb      	ldr	r3, [r7, #56]	; 0x38
 8005e88:	212e      	movs	r1, #46	; 0x2e
 8005e8a:	5c5b      	ldrb	r3, [r3, r1]
 8005e8c:	041b      	lsls	r3, r3, #16
 8005e8e:	4313      	orrs	r3, r2
 8005e90:	6bba      	ldr	r2, [r7, #56]	; 0x38
 8005e92:	212d      	movs	r1, #45	; 0x2d
 8005e94:	5c52      	ldrb	r2, [r2, r1]
 8005e96:	0212      	lsls	r2, r2, #8
 8005e98:	4313      	orrs	r3, r2
 8005e9a:	6bba      	ldr	r2, [r7, #56]	; 0x38
 8005e9c:	212c      	movs	r1, #44	; 0x2c
 8005e9e:	5c52      	ldrb	r2, [r2, r1]
 8005ea0:	4313      	orrs	r3, r2
 8005ea2:	0019      	movs	r1, r3
 8005ea4:	6bba      	ldr	r2, [r7, #56]	; 0x38
 8005ea6:	2389      	movs	r3, #137	; 0x89
 8005ea8:	009b      	lsls	r3, r3, #2
 8005eaa:	50d1      	str	r1, [r2, r3]
 8005eac:	6bba      	ldr	r2, [r7, #56]	; 0x38
 8005eae:	2385      	movs	r3, #133	; 0x85
 8005eb0:	009b      	lsls	r3, r3, #2
 8005eb2:	58d3      	ldr	r3, [r2, r3]
 8005eb4:	009b      	lsls	r3, r3, #2
 8005eb6:	647b      	str	r3, [r7, #68]	; 0x44
 8005eb8:	e02c      	b.n	8005f14 <find_volume+0x484>
 8005eba:	6bba      	ldr	r2, [r7, #56]	; 0x38
 8005ebc:	2382      	movs	r3, #130	; 0x82
 8005ebe:	009b      	lsls	r3, r3, #2
 8005ec0:	5ad3      	ldrh	r3, [r2, r3]
 8005ec2:	2b00      	cmp	r3, #0
 8005ec4:	d101      	bne.n	8005eca <find_volume+0x43a>
 8005ec6:	230d      	movs	r3, #13
 8005ec8:	e0ea      	b.n	80060a0 <find_volume+0x610>
 8005eca:	6bba      	ldr	r2, [r7, #56]	; 0x38
 8005ecc:	2388      	movs	r3, #136	; 0x88
 8005ece:	009b      	lsls	r3, r3, #2
 8005ed0:	58d2      	ldr	r2, [r2, r3]
 8005ed2:	6cfb      	ldr	r3, [r7, #76]	; 0x4c
 8005ed4:	18d1      	adds	r1, r2, r3
 8005ed6:	6bba      	ldr	r2, [r7, #56]	; 0x38
 8005ed8:	2389      	movs	r3, #137	; 0x89
 8005eda:	009b      	lsls	r3, r3, #2
 8005edc:	50d1      	str	r1, [r2, r3]
 8005ede:	2357      	movs	r3, #87	; 0x57
 8005ee0:	18fb      	adds	r3, r7, r3
 8005ee2:	781b      	ldrb	r3, [r3, #0]
 8005ee4:	2b02      	cmp	r3, #2
 8005ee6:	d105      	bne.n	8005ef4 <find_volume+0x464>
 8005ee8:	6bba      	ldr	r2, [r7, #56]	; 0x38
 8005eea:	2385      	movs	r3, #133	; 0x85
 8005eec:	009b      	lsls	r3, r3, #2
 8005eee:	58d3      	ldr	r3, [r2, r3]
 8005ef0:	005b      	lsls	r3, r3, #1
 8005ef2:	e00e      	b.n	8005f12 <find_volume+0x482>
 8005ef4:	6bba      	ldr	r2, [r7, #56]	; 0x38
 8005ef6:	2385      	movs	r3, #133	; 0x85
 8005ef8:	009b      	lsls	r3, r3, #2
 8005efa:	58d2      	ldr	r2, [r2, r3]
 8005efc:	0013      	movs	r3, r2
 8005efe:	005b      	lsls	r3, r3, #1
 8005f00:	189b      	adds	r3, r3, r2
 8005f02:	085a      	lsrs	r2, r3, #1
 8005f04:	6bb9      	ldr	r1, [r7, #56]	; 0x38
 8005f06:	2385      	movs	r3, #133	; 0x85
 8005f08:	009b      	lsls	r3, r3, #2
 8005f0a:	58cb      	ldr	r3, [r1, r3]
 8005f0c:	2101      	movs	r1, #1
 8005f0e:	400b      	ands	r3, r1
 8005f10:	18d3      	adds	r3, r2, r3
 8005f12:	647b      	str	r3, [r7, #68]	; 0x44
 8005f14:	6bba      	ldr	r2, [r7, #56]	; 0x38
 8005f16:	2386      	movs	r3, #134	; 0x86
 8005f18:	009b      	lsls	r3, r3, #2
 8005f1a:	58d2      	ldr	r2, [r2, r3]
 8005f1c:	6c7b      	ldr	r3, [r7, #68]	; 0x44
 8005f1e:	4964      	ldr	r1, [pc, #400]	; (80060b0 <find_volume+0x620>)
 8005f20:	468c      	mov	ip, r1
 8005f22:	4463      	add	r3, ip
 8005f24:	0a5b      	lsrs	r3, r3, #9
 8005f26:	429a      	cmp	r2, r3
 8005f28:	d201      	bcs.n	8005f2e <find_volume+0x49e>
 8005f2a:	230d      	movs	r3, #13
 8005f2c:	e0b8      	b.n	80060a0 <find_volume+0x610>
 8005f2e:	6bba      	ldr	r2, [r7, #56]	; 0x38
 8005f30:	2384      	movs	r3, #132	; 0x84
 8005f32:	009b      	lsls	r3, r3, #2
 8005f34:	2101      	movs	r1, #1
 8005f36:	4249      	negs	r1, r1
 8005f38:	50d1      	str	r1, [r2, r3]
 8005f3a:	6bba      	ldr	r2, [r7, #56]	; 0x38
 8005f3c:	2384      	movs	r3, #132	; 0x84
 8005f3e:	009b      	lsls	r3, r3, #2
 8005f40:	58d1      	ldr	r1, [r2, r3]
 8005f42:	6bba      	ldr	r2, [r7, #56]	; 0x38
 8005f44:	2383      	movs	r3, #131	; 0x83
 8005f46:	009b      	lsls	r3, r3, #2
 8005f48:	50d1      	str	r1, [r2, r3]
 8005f4a:	6bbb      	ldr	r3, [r7, #56]	; 0x38
 8005f4c:	4a59      	ldr	r2, [pc, #356]	; (80060b4 <find_volume+0x624>)
 8005f4e:	2180      	movs	r1, #128	; 0x80
 8005f50:	5499      	strb	r1, [r3, r2]
 8005f52:	2357      	movs	r3, #87	; 0x57
 8005f54:	18fb      	adds	r3, r7, r3
 8005f56:	781b      	ldrb	r3, [r3, #0]
 8005f58:	2b03      	cmp	r3, #3
 8005f5a:	d000      	beq.n	8005f5e <find_volume+0x4ce>
 8005f5c:	e089      	b.n	8006072 <find_volume+0x5e2>
 8005f5e:	6bbb      	ldr	r3, [r7, #56]	; 0x38
 8005f60:	2231      	movs	r2, #49	; 0x31
 8005f62:	5c9b      	ldrb	r3, [r3, r2]
 8005f64:	021b      	lsls	r3, r3, #8
 8005f66:	b21a      	sxth	r2, r3
 8005f68:	6bbb      	ldr	r3, [r7, #56]	; 0x38
 8005f6a:	2130      	movs	r1, #48	; 0x30
 8005f6c:	5c5b      	ldrb	r3, [r3, r1]
 8005f6e:	b21b      	sxth	r3, r3
 8005f70:	4313      	orrs	r3, r2
 8005f72:	b21b      	sxth	r3, r3
 8005f74:	2b01      	cmp	r3, #1
 8005f76:	d000      	beq.n	8005f7a <find_volume+0x4ea>
 8005f78:	e07b      	b.n	8006072 <find_volume+0x5e2>
 8005f7a:	6d3b      	ldr	r3, [r7, #80]	; 0x50
 8005f7c:	1c5a      	adds	r2, r3, #1
 8005f7e:	6bbb      	ldr	r3, [r7, #56]	; 0x38
 8005f80:	0011      	movs	r1, r2
 8005f82:	0018      	movs	r0, r3
 8005f84:	f7fe fba2 	bl	80046cc <move_window>
 8005f88:	1e03      	subs	r3, r0, #0
 8005f8a:	d172      	bne.n	8006072 <find_volume+0x5e2>
 8005f8c:	6bbb      	ldr	r3, [r7, #56]	; 0x38
 8005f8e:	4a49      	ldr	r2, [pc, #292]	; (80060b4 <find_volume+0x624>)
 8005f90:	2100      	movs	r1, #0
 8005f92:	5499      	strb	r1, [r3, r2]
 8005f94:	6bbb      	ldr	r3, [r7, #56]	; 0x38
 8005f96:	4a46      	ldr	r2, [pc, #280]	; (80060b0 <find_volume+0x620>)
 8005f98:	5c9b      	ldrb	r3, [r3, r2]
 8005f9a:	021b      	lsls	r3, r3, #8
 8005f9c:	b21a      	sxth	r2, r3
 8005f9e:	6bb9      	ldr	r1, [r7, #56]	; 0x38
 8005fa0:	23ff      	movs	r3, #255	; 0xff
 8005fa2:	005b      	lsls	r3, r3, #1
 8005fa4:	5ccb      	ldrb	r3, [r1, r3]
 8005fa6:	b21b      	sxth	r3, r3
 8005fa8:	4313      	orrs	r3, r2
 8005faa:	b21b      	sxth	r3, r3
 8005fac:	4a42      	ldr	r2, [pc, #264]	; (80060b8 <find_volume+0x628>)
 8005fae:	4293      	cmp	r3, r2
 8005fb0:	d15f      	bne.n	8006072 <find_volume+0x5e2>
 8005fb2:	6bbb      	ldr	r3, [r7, #56]	; 0x38
 8005fb4:	78db      	ldrb	r3, [r3, #3]
 8005fb6:	061a      	lsls	r2, r3, #24
 8005fb8:	6bbb      	ldr	r3, [r7, #56]	; 0x38
 8005fba:	789b      	ldrb	r3, [r3, #2]
 8005fbc:	041b      	lsls	r3, r3, #16
 8005fbe:	4313      	orrs	r3, r2
 8005fc0:	6bba      	ldr	r2, [r7, #56]	; 0x38
 8005fc2:	7852      	ldrb	r2, [r2, #1]
 8005fc4:	0212      	lsls	r2, r2, #8
 8005fc6:	4313      	orrs	r3, r2
 8005fc8:	6bba      	ldr	r2, [r7, #56]	; 0x38
 8005fca:	7812      	ldrb	r2, [r2, #0]
 8005fcc:	4313      	orrs	r3, r2
 8005fce:	4a3b      	ldr	r2, [pc, #236]	; (80060bc <find_volume+0x62c>)
 8005fd0:	4293      	cmp	r3, r2
 8005fd2:	d14e      	bne.n	8006072 <find_volume+0x5e2>
 8005fd4:	6bba      	ldr	r2, [r7, #56]	; 0x38
 8005fd6:	23e8      	movs	r3, #232	; 0xe8
 8005fd8:	33ff      	adds	r3, #255	; 0xff
 8005fda:	5cd3      	ldrb	r3, [r2, r3]
 8005fdc:	061a      	lsls	r2, r3, #24
 8005fde:	6bb9      	ldr	r1, [r7, #56]	; 0x38
 8005fe0:	23f3      	movs	r3, #243	; 0xf3
 8005fe2:	005b      	lsls	r3, r3, #1
 8005fe4:	5ccb      	ldrb	r3, [r1, r3]
 8005fe6:	041b      	lsls	r3, r3, #16
 8005fe8:	4313      	orrs	r3, r2
 8005fea:	6bb9      	ldr	r1, [r7, #56]	; 0x38
 8005fec:	22e6      	movs	r2, #230	; 0xe6
 8005fee:	32ff      	adds	r2, #255	; 0xff
 8005ff0:	5c8a      	ldrb	r2, [r1, r2]
 8005ff2:	0212      	lsls	r2, r2, #8
 8005ff4:	4313      	orrs	r3, r2
 8005ff6:	6bb9      	ldr	r1, [r7, #56]	; 0x38
 8005ff8:	22f2      	movs	r2, #242	; 0xf2
 8005ffa:	0052      	lsls	r2, r2, #1
 8005ffc:	5c8a      	ldrb	r2, [r1, r2]
 8005ffe:	4313      	orrs	r3, r2
 8006000:	4a2f      	ldr	r2, [pc, #188]	; (80060c0 <find_volume+0x630>)
 8006002:	4293      	cmp	r3, r2
 8006004:	d135      	bne.n	8006072 <find_volume+0x5e2>
 8006006:	6bba      	ldr	r2, [r7, #56]	; 0x38
 8006008:	23ec      	movs	r3, #236	; 0xec
 800600a:	33ff      	adds	r3, #255	; 0xff
 800600c:	5cd3      	ldrb	r3, [r2, r3]
 800600e:	061a      	lsls	r2, r3, #24
 8006010:	6bb9      	ldr	r1, [r7, #56]	; 0x38
 8006012:	23f5      	movs	r3, #245	; 0xf5
 8006014:	005b      	lsls	r3, r3, #1
 8006016:	5ccb      	ldrb	r3, [r1, r3]
 8006018:	041b      	lsls	r3, r3, #16
 800601a:	4313      	orrs	r3, r2
 800601c:	6bb9      	ldr	r1, [r7, #56]	; 0x38
 800601e:	22ea      	movs	r2, #234	; 0xea
 8006020:	32ff      	adds	r2, #255	; 0xff
 8006022:	5c8a      	ldrb	r2, [r1, r2]
 8006024:	0212      	lsls	r2, r2, #8
 8006026:	4313      	orrs	r3, r2
 8006028:	6bb9      	ldr	r1, [r7, #56]	; 0x38
 800602a:	22f4      	movs	r2, #244	; 0xf4
 800602c:	0052      	lsls	r2, r2, #1
 800602e:	5c8a      	ldrb	r2, [r1, r2]
 8006030:	4313      	orrs	r3, r2
 8006032:	0019      	movs	r1, r3
 8006034:	6bba      	ldr	r2, [r7, #56]	; 0x38
 8006036:	2384      	movs	r3, #132	; 0x84
 8006038:	009b      	lsls	r3, r3, #2
 800603a:	50d1      	str	r1, [r2, r3]
 800603c:	6bba      	ldr	r2, [r7, #56]	; 0x38
 800603e:	23f0      	movs	r3, #240	; 0xf0
 8006040:	33ff      	adds	r3, #255	; 0xff
 8006042:	5cd3      	ldrb	r3, [r2, r3]
 8006044:	061a      	lsls	r2, r3, #24
 8006046:	6bb9      	ldr	r1, [r7, #56]	; 0x38
 8006048:	23f7      	movs	r3, #247	; 0xf7
 800604a:	005b      	lsls	r3, r3, #1
 800604c:	5ccb      	ldrb	r3, [r1, r3]
 800604e:	041b      	lsls	r3, r3, #16
 8006050:	4313      	orrs	r3, r2
 8006052:	6bb9      	ldr	r1, [r7, #56]	; 0x38
 8006054:	22ee      	movs	r2, #238	; 0xee
 8006056:	32ff      	adds	r2, #255	; 0xff
 8006058:	5c8a      	ldrb	r2, [r1, r2]
 800605a:	0212      	lsls	r2, r2, #8
 800605c:	4313      	orrs	r3, r2
 800605e:	6bb9      	ldr	r1, [r7, #56]	; 0x38
 8006060:	22f6      	movs	r2, #246	; 0xf6
 8006062:	0052      	lsls	r2, r2, #1
 8006064:	5c8a      	ldrb	r2, [r1, r2]
 8006066:	4313      	orrs	r3, r2
 8006068:	0019      	movs	r1, r3
 800606a:	6bba      	ldr	r2, [r7, #56]	; 0x38
 800606c:	2383      	movs	r3, #131	; 0x83
 800606e:	009b      	lsls	r3, r3, #2
 8006070:	50d1      	str	r1, [r2, r3]
 8006072:	6bba      	ldr	r2, [r7, #56]	; 0x38
 8006074:	2357      	movs	r3, #87	; 0x57
 8006076:	18f9      	adds	r1, r7, r3
 8006078:	2380      	movs	r3, #128	; 0x80
 800607a:	009b      	lsls	r3, r3, #2
 800607c:	7809      	ldrb	r1, [r1, #0]
 800607e:	54d1      	strb	r1, [r2, r3]
 8006080:	4b10      	ldr	r3, [pc, #64]	; (80060c4 <find_volume+0x634>)
 8006082:	881b      	ldrh	r3, [r3, #0]
 8006084:	3301      	adds	r3, #1
 8006086:	b29a      	uxth	r2, r3
 8006088:	4b0e      	ldr	r3, [pc, #56]	; (80060c4 <find_volume+0x634>)
 800608a:	801a      	strh	r2, [r3, #0]
 800608c:	4b0d      	ldr	r3, [pc, #52]	; (80060c4 <find_volume+0x634>)
 800608e:	8819      	ldrh	r1, [r3, #0]
 8006090:	6bbb      	ldr	r3, [r7, #56]	; 0x38
 8006092:	4a0d      	ldr	r2, [pc, #52]	; (80060c8 <find_volume+0x638>)
 8006094:	5299      	strh	r1, [r3, r2]
 8006096:	6bbb      	ldr	r3, [r7, #56]	; 0x38
 8006098:	0018      	movs	r0, r3
 800609a:	f7fe fa99 	bl	80045d0 <clear_lock>
 800609e:	2300      	movs	r3, #0
 80060a0:	0018      	movs	r0, r3
 80060a2:	46bd      	mov	sp, r7
 80060a4:	b016      	add	sp, #88	; 0x58
 80060a6:	bdb0      	pop	{r4, r5, r7, pc}
 80060a8:	00000ff5 	.word	0x00000ff5
 80060ac:	0000fff5 	.word	0x0000fff5
 80060b0:	000001ff 	.word	0x000001ff
 80060b4:	00000205 	.word	0x00000205
 80060b8:	ffffaa55 	.word	0xffffaa55
 80060bc:	41615252 	.word	0x41615252
 80060c0:	61417272 	.word	0x61417272
 80060c4:	20000618 	.word	0x20000618
 80060c8:	00000206 	.word	0x00000206

080060cc <validate>:
 80060cc:	b580      	push	{r7, lr}
 80060ce:	b084      	sub	sp, #16
 80060d0:	af00      	add	r7, sp, #0
 80060d2:	6078      	str	r0, [r7, #4]
 80060d4:	687b      	ldr	r3, [r7, #4]
 80060d6:	60fb      	str	r3, [r7, #12]
 80060d8:	68fb      	ldr	r3, [r7, #12]
 80060da:	2b00      	cmp	r3, #0
 80060dc:	d028      	beq.n	8006130 <validate+0x64>
 80060de:	68fa      	ldr	r2, [r7, #12]
 80060e0:	2380      	movs	r3, #128	; 0x80
 80060e2:	009b      	lsls	r3, r3, #2
 80060e4:	58d3      	ldr	r3, [r2, r3]
 80060e6:	2b00      	cmp	r3, #0
 80060e8:	d022      	beq.n	8006130 <validate+0x64>
 80060ea:	68fa      	ldr	r2, [r7, #12]
 80060ec:	2380      	movs	r3, #128	; 0x80
 80060ee:	009b      	lsls	r3, r3, #2
 80060f0:	58d2      	ldr	r2, [r2, r3]
 80060f2:	2380      	movs	r3, #128	; 0x80
 80060f4:	009b      	lsls	r3, r3, #2
 80060f6:	5cd3      	ldrb	r3, [r2, r3]
 80060f8:	2b00      	cmp	r3, #0
 80060fa:	d019      	beq.n	8006130 <validate+0x64>
 80060fc:	68fa      	ldr	r2, [r7, #12]
 80060fe:	2380      	movs	r3, #128	; 0x80
 8006100:	009b      	lsls	r3, r3, #2
 8006102:	58d3      	ldr	r3, [r2, r3]
 8006104:	4a0e      	ldr	r2, [pc, #56]	; (8006140 <validate+0x74>)
 8006106:	5a9a      	ldrh	r2, [r3, r2]
 8006108:	68f9      	ldr	r1, [r7, #12]
 800610a:	2381      	movs	r3, #129	; 0x81
 800610c:	009b      	lsls	r3, r3, #2
 800610e:	5acb      	ldrh	r3, [r1, r3]
 8006110:	429a      	cmp	r2, r3
 8006112:	d10d      	bne.n	8006130 <validate+0x64>
 8006114:	68fa      	ldr	r2, [r7, #12]
 8006116:	2380      	movs	r3, #128	; 0x80
 8006118:	009b      	lsls	r3, r3, #2
 800611a:	58d3      	ldr	r3, [r2, r3]
 800611c:	4a09      	ldr	r2, [pc, #36]	; (8006144 <validate+0x78>)
 800611e:	5c9b      	ldrb	r3, [r3, r2]
 8006120:	0018      	movs	r0, r3
 8006122:	f7fd ff7d 	bl	8004020 <disk_status>
 8006126:	0003      	movs	r3, r0
 8006128:	001a      	movs	r2, r3
 800612a:	2301      	movs	r3, #1
 800612c:	4013      	ands	r3, r2
 800612e:	d001      	beq.n	8006134 <validate+0x68>
 8006130:	2309      	movs	r3, #9
 8006132:	e000      	b.n	8006136 <validate+0x6a>
 8006134:	2300      	movs	r3, #0
 8006136:	0018      	movs	r0, r3
 8006138:	46bd      	mov	sp, r7
 800613a:	b004      	add	sp, #16
 800613c:	bd80      	pop	{r7, pc}
 800613e:	46c0      	nop			; (mov r8, r8)
 8006140:	00000206 	.word	0x00000206
 8006144:	00000201 	.word	0x00000201

08006148 <f_mount>:
 8006148:	b5b0      	push	{r4, r5, r7, lr}
 800614a:	b088      	sub	sp, #32
 800614c:	af00      	add	r7, sp, #0
 800614e:	60f8      	str	r0, [r7, #12]
 8006150:	60b9      	str	r1, [r7, #8]
 8006152:	1dfb      	adds	r3, r7, #7
 8006154:	701a      	strb	r2, [r3, #0]
 8006156:	68bb      	ldr	r3, [r7, #8]
 8006158:	613b      	str	r3, [r7, #16]
 800615a:	2310      	movs	r3, #16
 800615c:	18fb      	adds	r3, r7, r3
 800615e:	0018      	movs	r0, r3
 8006160:	f7ff fbe6 	bl	8005930 <get_ldnumber>
 8006164:	0003      	movs	r3, r0
 8006166:	61fb      	str	r3, [r7, #28]
 8006168:	69fb      	ldr	r3, [r7, #28]
 800616a:	2b00      	cmp	r3, #0
 800616c:	da01      	bge.n	8006172 <f_mount+0x2a>
 800616e:	230b      	movs	r3, #11
 8006170:	e034      	b.n	80061dc <f_mount+0x94>
 8006172:	4b1c      	ldr	r3, [pc, #112]	; (80061e4 <f_mount+0x9c>)
 8006174:	69fa      	ldr	r2, [r7, #28]
 8006176:	0092      	lsls	r2, r2, #2
 8006178:	58d3      	ldr	r3, [r2, r3]
 800617a:	61bb      	str	r3, [r7, #24]
 800617c:	69bb      	ldr	r3, [r7, #24]
 800617e:	2b00      	cmp	r3, #0
 8006180:	d008      	beq.n	8006194 <f_mount+0x4c>
 8006182:	69bb      	ldr	r3, [r7, #24]
 8006184:	0018      	movs	r0, r3
 8006186:	f7fe fa23 	bl	80045d0 <clear_lock>
 800618a:	69ba      	ldr	r2, [r7, #24]
 800618c:	2380      	movs	r3, #128	; 0x80
 800618e:	009b      	lsls	r3, r3, #2
 8006190:	2100      	movs	r1, #0
 8006192:	54d1      	strb	r1, [r2, r3]
 8006194:	68fb      	ldr	r3, [r7, #12]
 8006196:	2b00      	cmp	r3, #0
 8006198:	d004      	beq.n	80061a4 <f_mount+0x5c>
 800619a:	68fa      	ldr	r2, [r7, #12]
 800619c:	2380      	movs	r3, #128	; 0x80
 800619e:	009b      	lsls	r3, r3, #2
 80061a0:	2100      	movs	r1, #0
 80061a2:	54d1      	strb	r1, [r2, r3]
 80061a4:	68f9      	ldr	r1, [r7, #12]
 80061a6:	4b0f      	ldr	r3, [pc, #60]	; (80061e4 <f_mount+0x9c>)
 80061a8:	69fa      	ldr	r2, [r7, #28]
 80061aa:	0092      	lsls	r2, r2, #2
 80061ac:	50d1      	str	r1, [r2, r3]
 80061ae:	68fb      	ldr	r3, [r7, #12]
 80061b0:	2b00      	cmp	r3, #0
 80061b2:	d003      	beq.n	80061bc <f_mount+0x74>
 80061b4:	1dfb      	adds	r3, r7, #7
 80061b6:	781b      	ldrb	r3, [r3, #0]
 80061b8:	2b01      	cmp	r3, #1
 80061ba:	d001      	beq.n	80061c0 <f_mount+0x78>
 80061bc:	2300      	movs	r3, #0
 80061be:	e00d      	b.n	80061dc <f_mount+0x94>
 80061c0:	2517      	movs	r5, #23
 80061c2:	197c      	adds	r4, r7, r5
 80061c4:	2308      	movs	r3, #8
 80061c6:	18f9      	adds	r1, r7, r3
 80061c8:	230c      	movs	r3, #12
 80061ca:	18fb      	adds	r3, r7, r3
 80061cc:	2200      	movs	r2, #0
 80061ce:	0018      	movs	r0, r3
 80061d0:	f7ff fc5e 	bl	8005a90 <find_volume>
 80061d4:	0003      	movs	r3, r0
 80061d6:	7023      	strb	r3, [r4, #0]
 80061d8:	197b      	adds	r3, r7, r5
 80061da:	781b      	ldrb	r3, [r3, #0]
 80061dc:	0018      	movs	r0, r3
 80061de:	46bd      	mov	sp, r7
 80061e0:	b008      	add	sp, #32
 80061e2:	bdb0      	pop	{r4, r5, r7, pc}
 80061e4:	20000614 	.word	0x20000614

080061e8 <f_open>:
 80061e8:	b5f0      	push	{r4, r5, r6, r7, lr}
 80061ea:	4ccf      	ldr	r4, [pc, #828]	; (8006528 <f_open+0x340>)
 80061ec:	44a5      	add	sp, r4
 80061ee:	af00      	add	r7, sp, #0
 80061f0:	60f8      	str	r0, [r7, #12]
 80061f2:	60b9      	str	r1, [r7, #8]
 80061f4:	4bcd      	ldr	r3, [pc, #820]	; (800652c <f_open+0x344>)
 80061f6:	2194      	movs	r1, #148	; 0x94
 80061f8:	0089      	lsls	r1, r1, #2
 80061fa:	185b      	adds	r3, r3, r1
 80061fc:	19db      	adds	r3, r3, r7
 80061fe:	701a      	strb	r2, [r3, #0]
 8006200:	68fb      	ldr	r3, [r7, #12]
 8006202:	2b00      	cmp	r3, #0
 8006204:	d101      	bne.n	800620a <f_open+0x22>
 8006206:	2309      	movs	r3, #9
 8006208:	e262      	b.n	80066d0 <f_open+0x4e8>
 800620a:	68fa      	ldr	r2, [r7, #12]
 800620c:	2380      	movs	r3, #128	; 0x80
 800620e:	009b      	lsls	r3, r3, #2
 8006210:	2100      	movs	r1, #0
 8006212:	50d1      	str	r1, [r2, r3]
 8006214:	4bc5      	ldr	r3, [pc, #788]	; (800652c <f_open+0x344>)
 8006216:	2594      	movs	r5, #148	; 0x94
 8006218:	00ad      	lsls	r5, r5, #2
 800621a:	195b      	adds	r3, r3, r5
 800621c:	19db      	adds	r3, r3, r7
 800621e:	4ac3      	ldr	r2, [pc, #780]	; (800652c <f_open+0x344>)
 8006220:	1952      	adds	r2, r2, r5
 8006222:	19d2      	adds	r2, r2, r7
 8006224:	7812      	ldrb	r2, [r2, #0]
 8006226:	211f      	movs	r1, #31
 8006228:	400a      	ands	r2, r1
 800622a:	701a      	strb	r2, [r3, #0]
 800622c:	4bbf      	ldr	r3, [pc, #764]	; (800652c <f_open+0x344>)
 800622e:	195b      	adds	r3, r3, r5
 8006230:	19db      	adds	r3, r3, r7
 8006232:	781b      	ldrb	r3, [r3, #0]
 8006234:	2201      	movs	r2, #1
 8006236:	4393      	bics	r3, r2
 8006238:	b2da      	uxtb	r2, r3
 800623a:	4ebd      	ldr	r6, [pc, #756]	; (8006530 <f_open+0x348>)
 800623c:	19bc      	adds	r4, r7, r6
 800623e:	2308      	movs	r3, #8
 8006240:	18f9      	adds	r1, r7, r3
 8006242:	2320      	movs	r3, #32
 8006244:	18fb      	adds	r3, r7, r3
 8006246:	2080      	movs	r0, #128	; 0x80
 8006248:	0080      	lsls	r0, r0, #2
 800624a:	4684      	mov	ip, r0
 800624c:	4463      	add	r3, ip
 800624e:	0018      	movs	r0, r3
 8006250:	f7ff fc1e 	bl	8005a90 <find_volume>
 8006254:	0003      	movs	r3, r0
 8006256:	7023      	strb	r3, [r4, #0]
 8006258:	19bb      	adds	r3, r7, r6
 800625a:	781b      	ldrb	r3, [r3, #0]
 800625c:	2b00      	cmp	r3, #0
 800625e:	d000      	beq.n	8006262 <f_open+0x7a>
 8006260:	e233      	b.n	80066ca <f_open+0x4e2>
 8006262:	4bb4      	ldr	r3, [pc, #720]	; (8006534 <f_open+0x34c>)
 8006264:	195a      	adds	r2, r3, r5
 8006266:	19d2      	adds	r2, r2, r7
 8006268:	2386      	movs	r3, #134	; 0x86
 800626a:	009b      	lsls	r3, r3, #2
 800626c:	2114      	movs	r1, #20
 800626e:	1879      	adds	r1, r7, r1
 8006270:	50d1      	str	r1, [r2, r3]
 8006272:	68ba      	ldr	r2, [r7, #8]
 8006274:	19bc      	adds	r4, r7, r6
 8006276:	2320      	movs	r3, #32
 8006278:	18fb      	adds	r3, r7, r3
 800627a:	0011      	movs	r1, r2
 800627c:	0018      	movs	r0, r3
 800627e:	f7ff facf 	bl	8005820 <follow_path>
 8006282:	0003      	movs	r3, r0
 8006284:	7023      	strb	r3, [r4, #0]
 8006286:	4bab      	ldr	r3, [pc, #684]	; (8006534 <f_open+0x34c>)
 8006288:	195b      	adds	r3, r3, r5
 800628a:	19da      	adds	r2, r3, r7
 800628c:	2385      	movs	r3, #133	; 0x85
 800628e:	009b      	lsls	r3, r3, #2
 8006290:	58d3      	ldr	r3, [r2, r3]
 8006292:	2292      	movs	r2, #146	; 0x92
 8006294:	0092      	lsls	r2, r2, #2
 8006296:	18b9      	adds	r1, r7, r2
 8006298:	600b      	str	r3, [r1, #0]
 800629a:	19bb      	adds	r3, r7, r6
 800629c:	781b      	ldrb	r3, [r3, #0]
 800629e:	2b00      	cmp	r3, #0
 80062a0:	d11d      	bne.n	80062de <f_open+0xf6>
 80062a2:	18bb      	adds	r3, r7, r2
 80062a4:	681b      	ldr	r3, [r3, #0]
 80062a6:	2b00      	cmp	r3, #0
 80062a8:	d103      	bne.n	80062b2 <f_open+0xca>
 80062aa:	19bb      	adds	r3, r7, r6
 80062ac:	2206      	movs	r2, #6
 80062ae:	701a      	strb	r2, [r3, #0]
 80062b0:	e015      	b.n	80062de <f_open+0xf6>
 80062b2:	4b9e      	ldr	r3, [pc, #632]	; (800652c <f_open+0x344>)
 80062b4:	2294      	movs	r2, #148	; 0x94
 80062b6:	0092      	lsls	r2, r2, #2
 80062b8:	189b      	adds	r3, r3, r2
 80062ba:	19db      	adds	r3, r3, r7
 80062bc:	781b      	ldrb	r3, [r3, #0]
 80062be:	2201      	movs	r2, #1
 80062c0:	4393      	bics	r3, r2
 80062c2:	1e5a      	subs	r2, r3, #1
 80062c4:	4193      	sbcs	r3, r2
 80062c6:	b2db      	uxtb	r3, r3
 80062c8:	001a      	movs	r2, r3
 80062ca:	4b99      	ldr	r3, [pc, #612]	; (8006530 <f_open+0x348>)
 80062cc:	18fc      	adds	r4, r7, r3
 80062ce:	2320      	movs	r3, #32
 80062d0:	18fb      	adds	r3, r7, r3
 80062d2:	0011      	movs	r1, r2
 80062d4:	0018      	movs	r0, r3
 80062d6:	f7fd ffe1 	bl	800429c <chk_lock>
 80062da:	0003      	movs	r3, r0
 80062dc:	7023      	strb	r3, [r4, #0]
 80062de:	4b93      	ldr	r3, [pc, #588]	; (800652c <f_open+0x344>)
 80062e0:	2294      	movs	r2, #148	; 0x94
 80062e2:	0092      	lsls	r2, r2, #2
 80062e4:	189b      	adds	r3, r3, r2
 80062e6:	19db      	adds	r3, r3, r7
 80062e8:	781b      	ldrb	r3, [r3, #0]
 80062ea:	221c      	movs	r2, #28
 80062ec:	4013      	ands	r3, r2
 80062ee:	d100      	bne.n	80062f2 <f_open+0x10a>
 80062f0:	e106      	b.n	8006500 <f_open+0x318>
 80062f2:	4a8f      	ldr	r2, [pc, #572]	; (8006530 <f_open+0x348>)
 80062f4:	18bb      	adds	r3, r7, r2
 80062f6:	781b      	ldrb	r3, [r3, #0]
 80062f8:	2b00      	cmp	r3, #0
 80062fa:	d02a      	beq.n	8006352 <f_open+0x16a>
 80062fc:	18bb      	adds	r3, r7, r2
 80062fe:	781b      	ldrb	r3, [r3, #0]
 8006300:	2b04      	cmp	r3, #4
 8006302:	d10f      	bne.n	8006324 <f_open+0x13c>
 8006304:	f7fe f838 	bl	8004378 <enq_lock>
 8006308:	1e03      	subs	r3, r0, #0
 800630a:	d007      	beq.n	800631c <f_open+0x134>
 800630c:	2320      	movs	r3, #32
 800630e:	18fb      	adds	r3, r7, r3
 8006310:	0018      	movs	r0, r3
 8006312:	f7ff f93c 	bl	800558e <dir_register>
 8006316:	0003      	movs	r3, r0
 8006318:	001a      	movs	r2, r3
 800631a:	e000      	b.n	800631e <f_open+0x136>
 800631c:	2212      	movs	r2, #18
 800631e:	4b84      	ldr	r3, [pc, #528]	; (8006530 <f_open+0x348>)
 8006320:	18fb      	adds	r3, r7, r3
 8006322:	701a      	strb	r2, [r3, #0]
 8006324:	4b81      	ldr	r3, [pc, #516]	; (800652c <f_open+0x344>)
 8006326:	2094      	movs	r0, #148	; 0x94
 8006328:	0080      	lsls	r0, r0, #2
 800632a:	181b      	adds	r3, r3, r0
 800632c:	19db      	adds	r3, r3, r7
 800632e:	4a7f      	ldr	r2, [pc, #508]	; (800652c <f_open+0x344>)
 8006330:	1812      	adds	r2, r2, r0
 8006332:	19d2      	adds	r2, r2, r7
 8006334:	7812      	ldrb	r2, [r2, #0]
 8006336:	2108      	movs	r1, #8
 8006338:	430a      	orrs	r2, r1
 800633a:	701a      	strb	r2, [r3, #0]
 800633c:	4b7d      	ldr	r3, [pc, #500]	; (8006534 <f_open+0x34c>)
 800633e:	181b      	adds	r3, r3, r0
 8006340:	19da      	adds	r2, r3, r7
 8006342:	2385      	movs	r3, #133	; 0x85
 8006344:	009b      	lsls	r3, r3, #2
 8006346:	58d3      	ldr	r3, [r2, r3]
 8006348:	2292      	movs	r2, #146	; 0x92
 800634a:	0092      	lsls	r2, r2, #2
 800634c:	18ba      	adds	r2, r7, r2
 800634e:	6013      	str	r3, [r2, #0]
 8006350:	e01b      	b.n	800638a <f_open+0x1a2>
 8006352:	2392      	movs	r3, #146	; 0x92
 8006354:	009b      	lsls	r3, r3, #2
 8006356:	18fb      	adds	r3, r7, r3
 8006358:	681b      	ldr	r3, [r3, #0]
 800635a:	330b      	adds	r3, #11
 800635c:	781b      	ldrb	r3, [r3, #0]
 800635e:	001a      	movs	r2, r3
 8006360:	2311      	movs	r3, #17
 8006362:	4013      	ands	r3, r2
 8006364:	d004      	beq.n	8006370 <f_open+0x188>
 8006366:	4b72      	ldr	r3, [pc, #456]	; (8006530 <f_open+0x348>)
 8006368:	18fb      	adds	r3, r7, r3
 800636a:	2207      	movs	r2, #7
 800636c:	701a      	strb	r2, [r3, #0]
 800636e:	e00c      	b.n	800638a <f_open+0x1a2>
 8006370:	4b6e      	ldr	r3, [pc, #440]	; (800652c <f_open+0x344>)
 8006372:	2294      	movs	r2, #148	; 0x94
 8006374:	0092      	lsls	r2, r2, #2
 8006376:	189b      	adds	r3, r3, r2
 8006378:	19db      	adds	r3, r3, r7
 800637a:	781b      	ldrb	r3, [r3, #0]
 800637c:	2204      	movs	r2, #4
 800637e:	4013      	ands	r3, r2
 8006380:	d003      	beq.n	800638a <f_open+0x1a2>
 8006382:	4b6b      	ldr	r3, [pc, #428]	; (8006530 <f_open+0x348>)
 8006384:	18fb      	adds	r3, r7, r3
 8006386:	2208      	movs	r2, #8
 8006388:	701a      	strb	r2, [r3, #0]
 800638a:	4869      	ldr	r0, [pc, #420]	; (8006530 <f_open+0x348>)
 800638c:	183b      	adds	r3, r7, r0
 800638e:	781b      	ldrb	r3, [r3, #0]
 8006390:	2b00      	cmp	r3, #0
 8006392:	d000      	beq.n	8006396 <f_open+0x1ae>
 8006394:	e0e7      	b.n	8006566 <f_open+0x37e>
 8006396:	4b65      	ldr	r3, [pc, #404]	; (800652c <f_open+0x344>)
 8006398:	2494      	movs	r4, #148	; 0x94
 800639a:	00a4      	lsls	r4, r4, #2
 800639c:	191b      	adds	r3, r3, r4
 800639e:	19db      	adds	r3, r3, r7
 80063a0:	781b      	ldrb	r3, [r3, #0]
 80063a2:	2208      	movs	r2, #8
 80063a4:	4013      	ands	r3, r2
 80063a6:	d100      	bne.n	80063aa <f_open+0x1c2>
 80063a8:	e0dd      	b.n	8006566 <f_open+0x37e>
 80063aa:	f7fd f861 	bl	8003470 <get_fattime>
 80063ae:	0003      	movs	r3, r0
 80063b0:	2691      	movs	r6, #145	; 0x91
 80063b2:	00b6      	lsls	r6, r6, #2
 80063b4:	19ba      	adds	r2, r7, r6
 80063b6:	6013      	str	r3, [r2, #0]
 80063b8:	2192      	movs	r1, #146	; 0x92
 80063ba:	0089      	lsls	r1, r1, #2
 80063bc:	187b      	adds	r3, r7, r1
 80063be:	681b      	ldr	r3, [r3, #0]
 80063c0:	330e      	adds	r3, #14
 80063c2:	19ba      	adds	r2, r7, r6
 80063c4:	6812      	ldr	r2, [r2, #0]
 80063c6:	b2d2      	uxtb	r2, r2
 80063c8:	701a      	strb	r2, [r3, #0]
 80063ca:	19bb      	adds	r3, r7, r6
 80063cc:	681b      	ldr	r3, [r3, #0]
 80063ce:	b29b      	uxth	r3, r3
 80063d0:	0a1b      	lsrs	r3, r3, #8
 80063d2:	b29a      	uxth	r2, r3
 80063d4:	187b      	adds	r3, r7, r1
 80063d6:	681b      	ldr	r3, [r3, #0]
 80063d8:	330f      	adds	r3, #15
 80063da:	b2d2      	uxtb	r2, r2
 80063dc:	701a      	strb	r2, [r3, #0]
 80063de:	19bb      	adds	r3, r7, r6
 80063e0:	681b      	ldr	r3, [r3, #0]
 80063e2:	0c1a      	lsrs	r2, r3, #16
 80063e4:	187b      	adds	r3, r7, r1
 80063e6:	681b      	ldr	r3, [r3, #0]
 80063e8:	3310      	adds	r3, #16
 80063ea:	b2d2      	uxtb	r2, r2
 80063ec:	701a      	strb	r2, [r3, #0]
 80063ee:	19bb      	adds	r3, r7, r6
 80063f0:	681b      	ldr	r3, [r3, #0]
 80063f2:	0e1a      	lsrs	r2, r3, #24
 80063f4:	187b      	adds	r3, r7, r1
 80063f6:	681b      	ldr	r3, [r3, #0]
 80063f8:	3311      	adds	r3, #17
 80063fa:	b2d2      	uxtb	r2, r2
 80063fc:	701a      	strb	r2, [r3, #0]
 80063fe:	187b      	adds	r3, r7, r1
 8006400:	681b      	ldr	r3, [r3, #0]
 8006402:	330b      	adds	r3, #11
 8006404:	2200      	movs	r2, #0
 8006406:	701a      	strb	r2, [r3, #0]
 8006408:	187b      	adds	r3, r7, r1
 800640a:	681b      	ldr	r3, [r3, #0]
 800640c:	331c      	adds	r3, #28
 800640e:	2200      	movs	r2, #0
 8006410:	701a      	strb	r2, [r3, #0]
 8006412:	187b      	adds	r3, r7, r1
 8006414:	681b      	ldr	r3, [r3, #0]
 8006416:	331d      	adds	r3, #29
 8006418:	2200      	movs	r2, #0
 800641a:	701a      	strb	r2, [r3, #0]
 800641c:	187b      	adds	r3, r7, r1
 800641e:	681b      	ldr	r3, [r3, #0]
 8006420:	331e      	adds	r3, #30
 8006422:	2200      	movs	r2, #0
 8006424:	701a      	strb	r2, [r3, #0]
 8006426:	187b      	adds	r3, r7, r1
 8006428:	681b      	ldr	r3, [r3, #0]
 800642a:	331f      	adds	r3, #31
 800642c:	2200      	movs	r2, #0
 800642e:	701a      	strb	r2, [r3, #0]
 8006430:	4b40      	ldr	r3, [pc, #256]	; (8006534 <f_open+0x34c>)
 8006432:	0025      	movs	r5, r4
 8006434:	191b      	adds	r3, r3, r4
 8006436:	19da      	adds	r2, r3, r7
 8006438:	2380      	movs	r3, #128	; 0x80
 800643a:	009b      	lsls	r3, r3, #2
 800643c:	58d3      	ldr	r3, [r2, r3]
 800643e:	000c      	movs	r4, r1
 8006440:	187a      	adds	r2, r7, r1
 8006442:	6812      	ldr	r2, [r2, #0]
 8006444:	0011      	movs	r1, r2
 8006446:	0018      	movs	r0, r3
 8006448:	f7fe ffeb 	bl	8005422 <ld_clust>
 800644c:	0003      	movs	r3, r0
 800644e:	2190      	movs	r1, #144	; 0x90
 8006450:	0089      	lsls	r1, r1, #2
 8006452:	187a      	adds	r2, r7, r1
 8006454:	6013      	str	r3, [r2, #0]
 8006456:	193b      	adds	r3, r7, r4
 8006458:	681b      	ldr	r3, [r3, #0]
 800645a:	2100      	movs	r1, #0
 800645c:	0018      	movs	r0, r3
 800645e:	f7ff f80d 	bl	800547c <st_clust>
 8006462:	4b34      	ldr	r3, [pc, #208]	; (8006534 <f_open+0x34c>)
 8006464:	195b      	adds	r3, r3, r5
 8006466:	19da      	adds	r2, r3, r7
 8006468:	2380      	movs	r3, #128	; 0x80
 800646a:	009b      	lsls	r3, r3, #2
 800646c:	58d2      	ldr	r2, [r2, r3]
 800646e:	2381      	movs	r3, #129	; 0x81
 8006470:	009b      	lsls	r3, r3, #2
 8006472:	2101      	movs	r1, #1
 8006474:	54d1      	strb	r1, [r2, r3]
 8006476:	2190      	movs	r1, #144	; 0x90
 8006478:	0089      	lsls	r1, r1, #2
 800647a:	187b      	adds	r3, r7, r1
 800647c:	681b      	ldr	r3, [r3, #0]
 800647e:	2b00      	cmp	r3, #0
 8006480:	d100      	bne.n	8006484 <f_open+0x29c>
 8006482:	e070      	b.n	8006566 <f_open+0x37e>
 8006484:	4b2b      	ldr	r3, [pc, #172]	; (8006534 <f_open+0x34c>)
 8006486:	195b      	adds	r3, r3, r5
 8006488:	19da      	adds	r2, r3, r7
 800648a:	2380      	movs	r3, #128	; 0x80
 800648c:	009b      	lsls	r3, r3, #2
 800648e:	58d2      	ldr	r2, [r2, r3]
 8006490:	238b      	movs	r3, #139	; 0x8b
 8006492:	009b      	lsls	r3, r3, #2
 8006494:	58d3      	ldr	r3, [r2, r3]
 8006496:	19ba      	adds	r2, r7, r6
 8006498:	6013      	str	r3, [r2, #0]
 800649a:	4b26      	ldr	r3, [pc, #152]	; (8006534 <f_open+0x34c>)
 800649c:	195b      	adds	r3, r3, r5
 800649e:	19da      	adds	r2, r3, r7
 80064a0:	2380      	movs	r3, #128	; 0x80
 80064a2:	009b      	lsls	r3, r3, #2
 80064a4:	58d3      	ldr	r3, [r2, r3]
 80064a6:	4822      	ldr	r0, [pc, #136]	; (8006530 <f_open+0x348>)
 80064a8:	183c      	adds	r4, r7, r0
 80064aa:	187a      	adds	r2, r7, r1
 80064ac:	6812      	ldr	r2, [r2, #0]
 80064ae:	0011      	movs	r1, r2
 80064b0:	0018      	movs	r0, r3
 80064b2:	f7fe fc2f 	bl	8004d14 <remove_chain>
 80064b6:	0003      	movs	r3, r0
 80064b8:	7023      	strb	r3, [r4, #0]
 80064ba:	481d      	ldr	r0, [pc, #116]	; (8006530 <f_open+0x348>)
 80064bc:	183b      	adds	r3, r7, r0
 80064be:	781b      	ldrb	r3, [r3, #0]
 80064c0:	2b00      	cmp	r3, #0
 80064c2:	d150      	bne.n	8006566 <f_open+0x37e>
 80064c4:	4b1b      	ldr	r3, [pc, #108]	; (8006534 <f_open+0x34c>)
 80064c6:	195b      	adds	r3, r3, r5
 80064c8:	19da      	adds	r2, r3, r7
 80064ca:	2380      	movs	r3, #128	; 0x80
 80064cc:	009b      	lsls	r3, r3, #2
 80064ce:	58d2      	ldr	r2, [r2, r3]
 80064d0:	2190      	movs	r1, #144	; 0x90
 80064d2:	0089      	lsls	r1, r1, #2
 80064d4:	187b      	adds	r3, r7, r1
 80064d6:	681b      	ldr	r3, [r3, #0]
 80064d8:	1e59      	subs	r1, r3, #1
 80064da:	2383      	movs	r3, #131	; 0x83
 80064dc:	009b      	lsls	r3, r3, #2
 80064de:	50d1      	str	r1, [r2, r3]
 80064e0:	4b14      	ldr	r3, [pc, #80]	; (8006534 <f_open+0x34c>)
 80064e2:	195b      	adds	r3, r3, r5
 80064e4:	19da      	adds	r2, r3, r7
 80064e6:	2380      	movs	r3, #128	; 0x80
 80064e8:	009b      	lsls	r3, r3, #2
 80064ea:	58d3      	ldr	r3, [r2, r3]
 80064ec:	183c      	adds	r4, r7, r0
 80064ee:	19ba      	adds	r2, r7, r6
 80064f0:	6812      	ldr	r2, [r2, #0]
 80064f2:	0011      	movs	r1, r2
 80064f4:	0018      	movs	r0, r3
 80064f6:	f7fe f8e9 	bl	80046cc <move_window>
 80064fa:	0003      	movs	r3, r0
 80064fc:	7023      	strb	r3, [r4, #0]
 80064fe:	e032      	b.n	8006566 <f_open+0x37e>
 8006500:	490b      	ldr	r1, [pc, #44]	; (8006530 <f_open+0x348>)
 8006502:	187b      	adds	r3, r7, r1
 8006504:	781b      	ldrb	r3, [r3, #0]
 8006506:	2b00      	cmp	r3, #0
 8006508:	d12d      	bne.n	8006566 <f_open+0x37e>
 800650a:	2392      	movs	r3, #146	; 0x92
 800650c:	009b      	lsls	r3, r3, #2
 800650e:	18fb      	adds	r3, r7, r3
 8006510:	681b      	ldr	r3, [r3, #0]
 8006512:	330b      	adds	r3, #11
 8006514:	781b      	ldrb	r3, [r3, #0]
 8006516:	001a      	movs	r2, r3
 8006518:	2310      	movs	r3, #16
 800651a:	4013      	ands	r3, r2
 800651c:	d00c      	beq.n	8006538 <f_open+0x350>
 800651e:	187b      	adds	r3, r7, r1
 8006520:	2204      	movs	r2, #4
 8006522:	701a      	strb	r2, [r3, #0]
 8006524:	e01f      	b.n	8006566 <f_open+0x37e>
 8006526:	46c0      	nop			; (mov r8, r8)
 8006528:	fffffdac 	.word	0xfffffdac
 800652c:	fffffdb7 	.word	0xfffffdb7
 8006530:	0000024f 	.word	0x0000024f
 8006534:	fffffdd0 	.word	0xfffffdd0
 8006538:	4b68      	ldr	r3, [pc, #416]	; (80066dc <f_open+0x4f4>)
 800653a:	2294      	movs	r2, #148	; 0x94
 800653c:	0092      	lsls	r2, r2, #2
 800653e:	189b      	adds	r3, r3, r2
 8006540:	19db      	adds	r3, r3, r7
 8006542:	781b      	ldrb	r3, [r3, #0]
 8006544:	2202      	movs	r2, #2
 8006546:	4013      	ands	r3, r2
 8006548:	d00d      	beq.n	8006566 <f_open+0x37e>
 800654a:	2392      	movs	r3, #146	; 0x92
 800654c:	009b      	lsls	r3, r3, #2
 800654e:	18fb      	adds	r3, r7, r3
 8006550:	681b      	ldr	r3, [r3, #0]
 8006552:	330b      	adds	r3, #11
 8006554:	781b      	ldrb	r3, [r3, #0]
 8006556:	001a      	movs	r2, r3
 8006558:	2301      	movs	r3, #1
 800655a:	4013      	ands	r3, r2
 800655c:	d003      	beq.n	8006566 <f_open+0x37e>
 800655e:	4b60      	ldr	r3, [pc, #384]	; (80066e0 <f_open+0x4f8>)
 8006560:	18fb      	adds	r3, r7, r3
 8006562:	2207      	movs	r2, #7
 8006564:	701a      	strb	r2, [r3, #0]
 8006566:	4b5e      	ldr	r3, [pc, #376]	; (80066e0 <f_open+0x4f8>)
 8006568:	18fb      	adds	r3, r7, r3
 800656a:	781b      	ldrb	r3, [r3, #0]
 800656c:	2b00      	cmp	r3, #0
 800656e:	d148      	bne.n	8006602 <f_open+0x41a>
 8006570:	4b5a      	ldr	r3, [pc, #360]	; (80066dc <f_open+0x4f4>)
 8006572:	2194      	movs	r1, #148	; 0x94
 8006574:	0089      	lsls	r1, r1, #2
 8006576:	185b      	adds	r3, r3, r1
 8006578:	19db      	adds	r3, r3, r7
 800657a:	781b      	ldrb	r3, [r3, #0]
 800657c:	2208      	movs	r2, #8
 800657e:	4013      	ands	r3, r2
 8006580:	d009      	beq.n	8006596 <f_open+0x3ae>
 8006582:	4b56      	ldr	r3, [pc, #344]	; (80066dc <f_open+0x4f4>)
 8006584:	185b      	adds	r3, r3, r1
 8006586:	19db      	adds	r3, r3, r7
 8006588:	4a54      	ldr	r2, [pc, #336]	; (80066dc <f_open+0x4f4>)
 800658a:	1852      	adds	r2, r2, r1
 800658c:	19d2      	adds	r2, r2, r7
 800658e:	7812      	ldrb	r2, [r2, #0]
 8006590:	2120      	movs	r1, #32
 8006592:	430a      	orrs	r2, r1
 8006594:	701a      	strb	r2, [r3, #0]
 8006596:	4b53      	ldr	r3, [pc, #332]	; (80066e4 <f_open+0x4fc>)
 8006598:	2094      	movs	r0, #148	; 0x94
 800659a:	0080      	lsls	r0, r0, #2
 800659c:	181b      	adds	r3, r3, r0
 800659e:	19da      	adds	r2, r3, r7
 80065a0:	2380      	movs	r3, #128	; 0x80
 80065a2:	009b      	lsls	r3, r3, #2
 80065a4:	58d2      	ldr	r2, [r2, r3]
 80065a6:	238b      	movs	r3, #139	; 0x8b
 80065a8:	009b      	lsls	r3, r3, #2
 80065aa:	58d1      	ldr	r1, [r2, r3]
 80065ac:	68fa      	ldr	r2, [r7, #12]
 80065ae:	2387      	movs	r3, #135	; 0x87
 80065b0:	009b      	lsls	r3, r3, #2
 80065b2:	50d1      	str	r1, [r2, r3]
 80065b4:	68fa      	ldr	r2, [r7, #12]
 80065b6:	2388      	movs	r3, #136	; 0x88
 80065b8:	009b      	lsls	r3, r3, #2
 80065ba:	2192      	movs	r1, #146	; 0x92
 80065bc:	0089      	lsls	r1, r1, #2
 80065be:	1879      	adds	r1, r7, r1
 80065c0:	6809      	ldr	r1, [r1, #0]
 80065c2:	50d1      	str	r1, [r2, r3]
 80065c4:	4b45      	ldr	r3, [pc, #276]	; (80066dc <f_open+0x4f4>)
 80065c6:	181b      	adds	r3, r3, r0
 80065c8:	19db      	adds	r3, r3, r7
 80065ca:	781b      	ldrb	r3, [r3, #0]
 80065cc:	2201      	movs	r2, #1
 80065ce:	4393      	bics	r3, r2
 80065d0:	1e5a      	subs	r2, r3, #1
 80065d2:	4193      	sbcs	r3, r2
 80065d4:	b2db      	uxtb	r3, r3
 80065d6:	001a      	movs	r2, r3
 80065d8:	2320      	movs	r3, #32
 80065da:	18fb      	adds	r3, r7, r3
 80065dc:	0011      	movs	r1, r2
 80065de:	0018      	movs	r0, r3
 80065e0:	f7fd feea 	bl	80043b8 <inc_lock>
 80065e4:	0001      	movs	r1, r0
 80065e6:	68fa      	ldr	r2, [r7, #12]
 80065e8:	238a      	movs	r3, #138	; 0x8a
 80065ea:	009b      	lsls	r3, r3, #2
 80065ec:	50d1      	str	r1, [r2, r3]
 80065ee:	68fa      	ldr	r2, [r7, #12]
 80065f0:	238a      	movs	r3, #138	; 0x8a
 80065f2:	009b      	lsls	r3, r3, #2
 80065f4:	58d3      	ldr	r3, [r2, r3]
 80065f6:	2b00      	cmp	r3, #0
 80065f8:	d103      	bne.n	8006602 <f_open+0x41a>
 80065fa:	4b39      	ldr	r3, [pc, #228]	; (80066e0 <f_open+0x4f8>)
 80065fc:	18fb      	adds	r3, r7, r3
 80065fe:	2202      	movs	r2, #2
 8006600:	701a      	strb	r2, [r3, #0]
 8006602:	4b37      	ldr	r3, [pc, #220]	; (80066e0 <f_open+0x4f8>)
 8006604:	18fb      	adds	r3, r7, r3
 8006606:	781b      	ldrb	r3, [r3, #0]
 8006608:	2b00      	cmp	r3, #0
 800660a:	d15e      	bne.n	80066ca <f_open+0x4e2>
 800660c:	68fb      	ldr	r3, [r7, #12]
 800660e:	4a33      	ldr	r2, [pc, #204]	; (80066dc <f_open+0x4f4>)
 8006610:	2594      	movs	r5, #148	; 0x94
 8006612:	00ad      	lsls	r5, r5, #2
 8006614:	1952      	adds	r2, r2, r5
 8006616:	19d2      	adds	r2, r2, r7
 8006618:	4933      	ldr	r1, [pc, #204]	; (80066e8 <f_open+0x500>)
 800661a:	7812      	ldrb	r2, [r2, #0]
 800661c:	545a      	strb	r2, [r3, r1]
 800661e:	68fb      	ldr	r3, [r7, #12]
 8006620:	4a32      	ldr	r2, [pc, #200]	; (80066ec <f_open+0x504>)
 8006622:	2100      	movs	r1, #0
 8006624:	5499      	strb	r1, [r3, r2]
 8006626:	4b2f      	ldr	r3, [pc, #188]	; (80066e4 <f_open+0x4fc>)
 8006628:	195b      	adds	r3, r3, r5
 800662a:	19da      	adds	r2, r3, r7
 800662c:	2380      	movs	r3, #128	; 0x80
 800662e:	009b      	lsls	r3, r3, #2
 8006630:	58d3      	ldr	r3, [r2, r3]
 8006632:	2492      	movs	r4, #146	; 0x92
 8006634:	00a4      	lsls	r4, r4, #2
 8006636:	193a      	adds	r2, r7, r4
 8006638:	6812      	ldr	r2, [r2, #0]
 800663a:	0011      	movs	r1, r2
 800663c:	0018      	movs	r0, r3
 800663e:	f7fe fef0 	bl	8005422 <ld_clust>
 8006642:	0001      	movs	r1, r0
 8006644:	68fa      	ldr	r2, [r7, #12]
 8006646:	2384      	movs	r3, #132	; 0x84
 8006648:	009b      	lsls	r3, r3, #2
 800664a:	50d1      	str	r1, [r2, r3]
 800664c:	0021      	movs	r1, r4
 800664e:	187b      	adds	r3, r7, r1
 8006650:	681b      	ldr	r3, [r3, #0]
 8006652:	331f      	adds	r3, #31
 8006654:	781b      	ldrb	r3, [r3, #0]
 8006656:	061a      	lsls	r2, r3, #24
 8006658:	187b      	adds	r3, r7, r1
 800665a:	681b      	ldr	r3, [r3, #0]
 800665c:	331e      	adds	r3, #30
 800665e:	781b      	ldrb	r3, [r3, #0]
 8006660:	041b      	lsls	r3, r3, #16
 8006662:	4313      	orrs	r3, r2
 8006664:	187a      	adds	r2, r7, r1
 8006666:	6812      	ldr	r2, [r2, #0]
 8006668:	321d      	adds	r2, #29
 800666a:	7812      	ldrb	r2, [r2, #0]
 800666c:	0212      	lsls	r2, r2, #8
 800666e:	4313      	orrs	r3, r2
 8006670:	187a      	adds	r2, r7, r1
 8006672:	6812      	ldr	r2, [r2, #0]
 8006674:	321c      	adds	r2, #28
 8006676:	7812      	ldrb	r2, [r2, #0]
 8006678:	4313      	orrs	r3, r2
 800667a:	0019      	movs	r1, r3
 800667c:	68fa      	ldr	r2, [r7, #12]
 800667e:	2383      	movs	r3, #131	; 0x83
 8006680:	009b      	lsls	r3, r3, #2
 8006682:	50d1      	str	r1, [r2, r3]
 8006684:	68fa      	ldr	r2, [r7, #12]
 8006686:	2382      	movs	r3, #130	; 0x82
 8006688:	009b      	lsls	r3, r3, #2
 800668a:	2100      	movs	r1, #0
 800668c:	50d1      	str	r1, [r2, r3]
 800668e:	68fa      	ldr	r2, [r7, #12]
 8006690:	2386      	movs	r3, #134	; 0x86
 8006692:	009b      	lsls	r3, r3, #2
 8006694:	2100      	movs	r1, #0
 8006696:	50d1      	str	r1, [r2, r3]
 8006698:	68fa      	ldr	r2, [r7, #12]
 800669a:	2389      	movs	r3, #137	; 0x89
 800669c:	009b      	lsls	r3, r3, #2
 800669e:	2100      	movs	r1, #0
 80066a0:	50d1      	str	r1, [r2, r3]
 80066a2:	4b10      	ldr	r3, [pc, #64]	; (80066e4 <f_open+0x4fc>)
 80066a4:	195b      	adds	r3, r3, r5
 80066a6:	19da      	adds	r2, r3, r7
 80066a8:	2380      	movs	r3, #128	; 0x80
 80066aa:	009b      	lsls	r3, r3, #2
 80066ac:	58d1      	ldr	r1, [r2, r3]
 80066ae:	68fa      	ldr	r2, [r7, #12]
 80066b0:	2380      	movs	r3, #128	; 0x80
 80066b2:	009b      	lsls	r3, r3, #2
 80066b4:	50d1      	str	r1, [r2, r3]
 80066b6:	68fa      	ldr	r2, [r7, #12]
 80066b8:	2380      	movs	r3, #128	; 0x80
 80066ba:	009b      	lsls	r3, r3, #2
 80066bc:	58d3      	ldr	r3, [r2, r3]
 80066be:	4a0a      	ldr	r2, [pc, #40]	; (80066e8 <f_open+0x500>)
 80066c0:	5a99      	ldrh	r1, [r3, r2]
 80066c2:	68fa      	ldr	r2, [r7, #12]
 80066c4:	2381      	movs	r3, #129	; 0x81
 80066c6:	009b      	lsls	r3, r3, #2
 80066c8:	52d1      	strh	r1, [r2, r3]
 80066ca:	4b05      	ldr	r3, [pc, #20]	; (80066e0 <f_open+0x4f8>)
 80066cc:	18fb      	adds	r3, r7, r3
 80066ce:	781b      	ldrb	r3, [r3, #0]
 80066d0:	0018      	movs	r0, r3
 80066d2:	46bd      	mov	sp, r7
 80066d4:	2395      	movs	r3, #149	; 0x95
 80066d6:	009b      	lsls	r3, r3, #2
 80066d8:	449d      	add	sp, r3
 80066da:	bdf0      	pop	{r4, r5, r6, r7, pc}
 80066dc:	fffffdb7 	.word	0xfffffdb7
 80066e0:	0000024f 	.word	0x0000024f
 80066e4:	fffffdd0 	.word	0xfffffdd0
 80066e8:	00000206 	.word	0x00000206
 80066ec:	00000207 	.word	0x00000207

080066f0 <f_read>:
 80066f0:	b5b0      	push	{r4, r5, r7, lr}
 80066f2:	b08c      	sub	sp, #48	; 0x30
 80066f4:	af00      	add	r7, sp, #0
 80066f6:	60f8      	str	r0, [r7, #12]
 80066f8:	60b9      	str	r1, [r7, #8]
 80066fa:	607a      	str	r2, [r7, #4]
 80066fc:	603b      	str	r3, [r7, #0]
 80066fe:	68bb      	ldr	r3, [r7, #8]
 8006700:	623b      	str	r3, [r7, #32]
 8006702:	683b      	ldr	r3, [r7, #0]
 8006704:	2200      	movs	r2, #0
 8006706:	601a      	str	r2, [r3, #0]
 8006708:	251f      	movs	r5, #31
 800670a:	197c      	adds	r4, r7, r5
 800670c:	68fb      	ldr	r3, [r7, #12]
 800670e:	0018      	movs	r0, r3
 8006710:	f7ff fcdc 	bl	80060cc <validate>
 8006714:	0003      	movs	r3, r0
 8006716:	7023      	strb	r3, [r4, #0]
 8006718:	197b      	adds	r3, r7, r5
 800671a:	781b      	ldrb	r3, [r3, #0]
 800671c:	2b00      	cmp	r3, #0
 800671e:	d002      	beq.n	8006726 <f_read+0x36>
 8006720:	197b      	adds	r3, r7, r5
 8006722:	781b      	ldrb	r3, [r3, #0]
 8006724:	e171      	b.n	8006a0a <f_read+0x31a>
 8006726:	68fb      	ldr	r3, [r7, #12]
 8006728:	4aba      	ldr	r2, [pc, #744]	; (8006a14 <f_read+0x324>)
 800672a:	5c9b      	ldrb	r3, [r3, r2]
 800672c:	2b00      	cmp	r3, #0
 800672e:	d003      	beq.n	8006738 <f_read+0x48>
 8006730:	68fb      	ldr	r3, [r7, #12]
 8006732:	4ab8      	ldr	r2, [pc, #736]	; (8006a14 <f_read+0x324>)
 8006734:	5c9b      	ldrb	r3, [r3, r2]
 8006736:	e168      	b.n	8006a0a <f_read+0x31a>
 8006738:	68fb      	ldr	r3, [r7, #12]
 800673a:	4ab7      	ldr	r2, [pc, #732]	; (8006a18 <f_read+0x328>)
 800673c:	5c9b      	ldrb	r3, [r3, r2]
 800673e:	001a      	movs	r2, r3
 8006740:	2301      	movs	r3, #1
 8006742:	4013      	ands	r3, r2
 8006744:	d101      	bne.n	800674a <f_read+0x5a>
 8006746:	2307      	movs	r3, #7
 8006748:	e15f      	b.n	8006a0a <f_read+0x31a>
 800674a:	68fa      	ldr	r2, [r7, #12]
 800674c:	2383      	movs	r3, #131	; 0x83
 800674e:	009b      	lsls	r3, r3, #2
 8006750:	58d2      	ldr	r2, [r2, r3]
 8006752:	68f9      	ldr	r1, [r7, #12]
 8006754:	2382      	movs	r3, #130	; 0x82
 8006756:	009b      	lsls	r3, r3, #2
 8006758:	58cb      	ldr	r3, [r1, r3]
 800675a:	1ad3      	subs	r3, r2, r3
 800675c:	61bb      	str	r3, [r7, #24]
 800675e:	687a      	ldr	r2, [r7, #4]
 8006760:	69bb      	ldr	r3, [r7, #24]
 8006762:	429a      	cmp	r2, r3
 8006764:	d800      	bhi.n	8006768 <f_read+0x78>
 8006766:	e14b      	b.n	8006a00 <f_read+0x310>
 8006768:	69bb      	ldr	r3, [r7, #24]
 800676a:	607b      	str	r3, [r7, #4]
 800676c:	e148      	b.n	8006a00 <f_read+0x310>
 800676e:	68fa      	ldr	r2, [r7, #12]
 8006770:	2382      	movs	r3, #130	; 0x82
 8006772:	009b      	lsls	r3, r3, #2
 8006774:	58d3      	ldr	r3, [r2, r3]
 8006776:	05db      	lsls	r3, r3, #23
 8006778:	0ddb      	lsrs	r3, r3, #23
 800677a:	d000      	beq.n	800677e <f_read+0x8e>
 800677c:	e10b      	b.n	8006996 <f_read+0x2a6>
 800677e:	68fa      	ldr	r2, [r7, #12]
 8006780:	2382      	movs	r3, #130	; 0x82
 8006782:	009b      	lsls	r3, r3, #2
 8006784:	58d3      	ldr	r3, [r2, r3]
 8006786:	0a5b      	lsrs	r3, r3, #9
 8006788:	b2da      	uxtb	r2, r3
 800678a:	68f9      	ldr	r1, [r7, #12]
 800678c:	2380      	movs	r3, #128	; 0x80
 800678e:	009b      	lsls	r3, r3, #2
 8006790:	58cb      	ldr	r3, [r1, r3]
 8006792:	49a2      	ldr	r1, [pc, #648]	; (8006a1c <f_read+0x32c>)
 8006794:	5c5b      	ldrb	r3, [r3, r1]
 8006796:	3b01      	subs	r3, #1
 8006798:	b2d9      	uxtb	r1, r3
 800679a:	2017      	movs	r0, #23
 800679c:	183b      	adds	r3, r7, r0
 800679e:	400a      	ands	r2, r1
 80067a0:	701a      	strb	r2, [r3, #0]
 80067a2:	183b      	adds	r3, r7, r0
 80067a4:	781b      	ldrb	r3, [r3, #0]
 80067a6:	2b00      	cmp	r3, #0
 80067a8:	d141      	bne.n	800682e <f_read+0x13e>
 80067aa:	68fa      	ldr	r2, [r7, #12]
 80067ac:	2382      	movs	r3, #130	; 0x82
 80067ae:	009b      	lsls	r3, r3, #2
 80067b0:	58d3      	ldr	r3, [r2, r3]
 80067b2:	2b00      	cmp	r3, #0
 80067b4:	d105      	bne.n	80067c2 <f_read+0xd2>
 80067b6:	68fa      	ldr	r2, [r7, #12]
 80067b8:	2384      	movs	r3, #132	; 0x84
 80067ba:	009b      	lsls	r3, r3, #2
 80067bc:	58d3      	ldr	r3, [r2, r3]
 80067be:	62fb      	str	r3, [r7, #44]	; 0x2c
 80067c0:	e01e      	b.n	8006800 <f_read+0x110>
 80067c2:	68fa      	ldr	r2, [r7, #12]
 80067c4:	2389      	movs	r3, #137	; 0x89
 80067c6:	009b      	lsls	r3, r3, #2
 80067c8:	58d3      	ldr	r3, [r2, r3]
 80067ca:	2b00      	cmp	r3, #0
 80067cc:	d00b      	beq.n	80067e6 <f_read+0xf6>
 80067ce:	68fa      	ldr	r2, [r7, #12]
 80067d0:	2382      	movs	r3, #130	; 0x82
 80067d2:	009b      	lsls	r3, r3, #2
 80067d4:	58d2      	ldr	r2, [r2, r3]
 80067d6:	68fb      	ldr	r3, [r7, #12]
 80067d8:	0011      	movs	r1, r2
 80067da:	0018      	movs	r0, r3
 80067dc:	f7fe fbc0 	bl	8004f60 <clmt_clust>
 80067e0:	0003      	movs	r3, r0
 80067e2:	62fb      	str	r3, [r7, #44]	; 0x2c
 80067e4:	e00c      	b.n	8006800 <f_read+0x110>
 80067e6:	68fa      	ldr	r2, [r7, #12]
 80067e8:	2380      	movs	r3, #128	; 0x80
 80067ea:	009b      	lsls	r3, r3, #2
 80067ec:	58d0      	ldr	r0, [r2, r3]
 80067ee:	68fa      	ldr	r2, [r7, #12]
 80067f0:	2385      	movs	r3, #133	; 0x85
 80067f2:	009b      	lsls	r3, r3, #2
 80067f4:	58d3      	ldr	r3, [r2, r3]
 80067f6:	0019      	movs	r1, r3
 80067f8:	f7fe f89c 	bl	8004934 <get_fat>
 80067fc:	0003      	movs	r3, r0
 80067fe:	62fb      	str	r3, [r7, #44]	; 0x2c
 8006800:	6afb      	ldr	r3, [r7, #44]	; 0x2c
 8006802:	2b01      	cmp	r3, #1
 8006804:	d805      	bhi.n	8006812 <f_read+0x122>
 8006806:	68fb      	ldr	r3, [r7, #12]
 8006808:	4a82      	ldr	r2, [pc, #520]	; (8006a14 <f_read+0x324>)
 800680a:	2102      	movs	r1, #2
 800680c:	5499      	strb	r1, [r3, r2]
 800680e:	2302      	movs	r3, #2
 8006810:	e0fb      	b.n	8006a0a <f_read+0x31a>
 8006812:	6afb      	ldr	r3, [r7, #44]	; 0x2c
 8006814:	3301      	adds	r3, #1
 8006816:	d105      	bne.n	8006824 <f_read+0x134>
 8006818:	68fb      	ldr	r3, [r7, #12]
 800681a:	4a7e      	ldr	r2, [pc, #504]	; (8006a14 <f_read+0x324>)
 800681c:	2101      	movs	r1, #1
 800681e:	5499      	strb	r1, [r3, r2]
 8006820:	2301      	movs	r3, #1
 8006822:	e0f2      	b.n	8006a0a <f_read+0x31a>
 8006824:	68fa      	ldr	r2, [r7, #12]
 8006826:	2385      	movs	r3, #133	; 0x85
 8006828:	009b      	lsls	r3, r3, #2
 800682a:	6af9      	ldr	r1, [r7, #44]	; 0x2c
 800682c:	50d1      	str	r1, [r2, r3]
 800682e:	68fa      	ldr	r2, [r7, #12]
 8006830:	2380      	movs	r3, #128	; 0x80
 8006832:	009b      	lsls	r3, r3, #2
 8006834:	58d0      	ldr	r0, [r2, r3]
 8006836:	68fa      	ldr	r2, [r7, #12]
 8006838:	2385      	movs	r3, #133	; 0x85
 800683a:	009b      	lsls	r3, r3, #2
 800683c:	58d3      	ldr	r3, [r2, r3]
 800683e:	0019      	movs	r1, r3
 8006840:	f7fe f854 	bl	80048ec <clust2sect>
 8006844:	0003      	movs	r3, r0
 8006846:	613b      	str	r3, [r7, #16]
 8006848:	693b      	ldr	r3, [r7, #16]
 800684a:	2b00      	cmp	r3, #0
 800684c:	d105      	bne.n	800685a <f_read+0x16a>
 800684e:	68fb      	ldr	r3, [r7, #12]
 8006850:	4a70      	ldr	r2, [pc, #448]	; (8006a14 <f_read+0x324>)
 8006852:	2102      	movs	r1, #2
 8006854:	5499      	strb	r1, [r3, r2]
 8006856:	2302      	movs	r3, #2
 8006858:	e0d7      	b.n	8006a0a <f_read+0x31a>
 800685a:	2017      	movs	r0, #23
 800685c:	183b      	adds	r3, r7, r0
 800685e:	781b      	ldrb	r3, [r3, #0]
 8006860:	693a      	ldr	r2, [r7, #16]
 8006862:	18d3      	adds	r3, r2, r3
 8006864:	613b      	str	r3, [r7, #16]
 8006866:	687b      	ldr	r3, [r7, #4]
 8006868:	0a5b      	lsrs	r3, r3, #9
 800686a:	627b      	str	r3, [r7, #36]	; 0x24
 800686c:	6a7b      	ldr	r3, [r7, #36]	; 0x24
 800686e:	2b00      	cmp	r3, #0
 8006870:	d04c      	beq.n	800690c <f_read+0x21c>
 8006872:	183b      	adds	r3, r7, r0
 8006874:	781a      	ldrb	r2, [r3, #0]
 8006876:	6a7b      	ldr	r3, [r7, #36]	; 0x24
 8006878:	18d3      	adds	r3, r2, r3
 800687a:	68f9      	ldr	r1, [r7, #12]
 800687c:	2280      	movs	r2, #128	; 0x80
 800687e:	0092      	lsls	r2, r2, #2
 8006880:	588a      	ldr	r2, [r1, r2]
 8006882:	4966      	ldr	r1, [pc, #408]	; (8006a1c <f_read+0x32c>)
 8006884:	5c52      	ldrb	r2, [r2, r1]
 8006886:	4293      	cmp	r3, r2
 8006888:	d90a      	bls.n	80068a0 <f_read+0x1b0>
 800688a:	68fa      	ldr	r2, [r7, #12]
 800688c:	2380      	movs	r3, #128	; 0x80
 800688e:	009b      	lsls	r3, r3, #2
 8006890:	58d3      	ldr	r3, [r2, r3]
 8006892:	4a62      	ldr	r2, [pc, #392]	; (8006a1c <f_read+0x32c>)
 8006894:	5c9b      	ldrb	r3, [r3, r2]
 8006896:	001a      	movs	r2, r3
 8006898:	183b      	adds	r3, r7, r0
 800689a:	781b      	ldrb	r3, [r3, #0]
 800689c:	1ad3      	subs	r3, r2, r3
 800689e:	627b      	str	r3, [r7, #36]	; 0x24
 80068a0:	68fa      	ldr	r2, [r7, #12]
 80068a2:	2380      	movs	r3, #128	; 0x80
 80068a4:	009b      	lsls	r3, r3, #2
 80068a6:	58d3      	ldr	r3, [r2, r3]
 80068a8:	4a5d      	ldr	r2, [pc, #372]	; (8006a20 <f_read+0x330>)
 80068aa:	5c98      	ldrb	r0, [r3, r2]
 80068ac:	6a7b      	ldr	r3, [r7, #36]	; 0x24
 80068ae:	693a      	ldr	r2, [r7, #16]
 80068b0:	6a39      	ldr	r1, [r7, #32]
 80068b2:	f7fd fc07 	bl	80040c4 <disk_read>
 80068b6:	1e03      	subs	r3, r0, #0
 80068b8:	d005      	beq.n	80068c6 <f_read+0x1d6>
 80068ba:	68fb      	ldr	r3, [r7, #12]
 80068bc:	4a55      	ldr	r2, [pc, #340]	; (8006a14 <f_read+0x324>)
 80068be:	2101      	movs	r1, #1
 80068c0:	5499      	strb	r1, [r3, r2]
 80068c2:	2301      	movs	r3, #1
 80068c4:	e0a1      	b.n	8006a0a <f_read+0x31a>
 80068c6:	68fb      	ldr	r3, [r7, #12]
 80068c8:	4a53      	ldr	r2, [pc, #332]	; (8006a18 <f_read+0x328>)
 80068ca:	5c9b      	ldrb	r3, [r3, r2]
 80068cc:	001a      	movs	r2, r3
 80068ce:	2340      	movs	r3, #64	; 0x40
 80068d0:	4013      	ands	r3, r2
 80068d2:	d017      	beq.n	8006904 <f_read+0x214>
 80068d4:	68fa      	ldr	r2, [r7, #12]
 80068d6:	2386      	movs	r3, #134	; 0x86
 80068d8:	009b      	lsls	r3, r3, #2
 80068da:	58d2      	ldr	r2, [r2, r3]
 80068dc:	693b      	ldr	r3, [r7, #16]
 80068de:	1ad3      	subs	r3, r2, r3
 80068e0:	6a7a      	ldr	r2, [r7, #36]	; 0x24
 80068e2:	429a      	cmp	r2, r3
 80068e4:	d90e      	bls.n	8006904 <f_read+0x214>
 80068e6:	68fa      	ldr	r2, [r7, #12]
 80068e8:	2386      	movs	r3, #134	; 0x86
 80068ea:	009b      	lsls	r3, r3, #2
 80068ec:	58d2      	ldr	r2, [r2, r3]
 80068ee:	693b      	ldr	r3, [r7, #16]
 80068f0:	1ad3      	subs	r3, r2, r3
 80068f2:	025b      	lsls	r3, r3, #9
 80068f4:	6a3a      	ldr	r2, [r7, #32]
 80068f6:	18d3      	adds	r3, r2, r3
 80068f8:	68f9      	ldr	r1, [r7, #12]
 80068fa:	2280      	movs	r2, #128	; 0x80
 80068fc:	0092      	lsls	r2, r2, #2
 80068fe:	0018      	movs	r0, r3
 8006900:	f7fd fc58 	bl	80041b4 <mem_cpy>
 8006904:	6a7b      	ldr	r3, [r7, #36]	; 0x24
 8006906:	025b      	lsls	r3, r3, #9
 8006908:	62bb      	str	r3, [r7, #40]	; 0x28
 800690a:	e061      	b.n	80069d0 <f_read+0x2e0>
 800690c:	68fa      	ldr	r2, [r7, #12]
 800690e:	2386      	movs	r3, #134	; 0x86
 8006910:	009b      	lsls	r3, r3, #2
 8006912:	58d3      	ldr	r3, [r2, r3]
 8006914:	693a      	ldr	r2, [r7, #16]
 8006916:	429a      	cmp	r2, r3
 8006918:	d038      	beq.n	800698c <f_read+0x29c>
 800691a:	68fb      	ldr	r3, [r7, #12]
 800691c:	4a3e      	ldr	r2, [pc, #248]	; (8006a18 <f_read+0x328>)
 800691e:	5c9b      	ldrb	r3, [r3, r2]
 8006920:	001a      	movs	r2, r3
 8006922:	2340      	movs	r3, #64	; 0x40
 8006924:	4013      	ands	r3, r2
 8006926:	d01e      	beq.n	8006966 <f_read+0x276>
 8006928:	68fa      	ldr	r2, [r7, #12]
 800692a:	2380      	movs	r3, #128	; 0x80
 800692c:	009b      	lsls	r3, r3, #2
 800692e:	58d3      	ldr	r3, [r2, r3]
 8006930:	4a3b      	ldr	r2, [pc, #236]	; (8006a20 <f_read+0x330>)
 8006932:	5c98      	ldrb	r0, [r3, r2]
 8006934:	68f9      	ldr	r1, [r7, #12]
 8006936:	68fa      	ldr	r2, [r7, #12]
 8006938:	2386      	movs	r3, #134	; 0x86
 800693a:	009b      	lsls	r3, r3, #2
 800693c:	58d2      	ldr	r2, [r2, r3]
 800693e:	2301      	movs	r3, #1
 8006940:	f7fd fbe8 	bl	8004114 <disk_write>
 8006944:	1e03      	subs	r3, r0, #0
 8006946:	d005      	beq.n	8006954 <f_read+0x264>
 8006948:	68fb      	ldr	r3, [r7, #12]
 800694a:	4a32      	ldr	r2, [pc, #200]	; (8006a14 <f_read+0x324>)
 800694c:	2101      	movs	r1, #1
 800694e:	5499      	strb	r1, [r3, r2]
 8006950:	2301      	movs	r3, #1
 8006952:	e05a      	b.n	8006a0a <f_read+0x31a>
 8006954:	68fb      	ldr	r3, [r7, #12]
 8006956:	4a30      	ldr	r2, [pc, #192]	; (8006a18 <f_read+0x328>)
 8006958:	5c9b      	ldrb	r3, [r3, r2]
 800695a:	2240      	movs	r2, #64	; 0x40
 800695c:	4393      	bics	r3, r2
 800695e:	b2d9      	uxtb	r1, r3
 8006960:	68fb      	ldr	r3, [r7, #12]
 8006962:	4a2d      	ldr	r2, [pc, #180]	; (8006a18 <f_read+0x328>)
 8006964:	5499      	strb	r1, [r3, r2]
 8006966:	68fa      	ldr	r2, [r7, #12]
 8006968:	2380      	movs	r3, #128	; 0x80
 800696a:	009b      	lsls	r3, r3, #2
 800696c:	58d3      	ldr	r3, [r2, r3]
 800696e:	4a2c      	ldr	r2, [pc, #176]	; (8006a20 <f_read+0x330>)
 8006970:	5c98      	ldrb	r0, [r3, r2]
 8006972:	68f9      	ldr	r1, [r7, #12]
 8006974:	693a      	ldr	r2, [r7, #16]
 8006976:	2301      	movs	r3, #1
 8006978:	f7fd fba4 	bl	80040c4 <disk_read>
 800697c:	1e03      	subs	r3, r0, #0
 800697e:	d005      	beq.n	800698c <f_read+0x29c>
 8006980:	68fb      	ldr	r3, [r7, #12]
 8006982:	4a24      	ldr	r2, [pc, #144]	; (8006a14 <f_read+0x324>)
 8006984:	2101      	movs	r1, #1
 8006986:	5499      	strb	r1, [r3, r2]
 8006988:	2301      	movs	r3, #1
 800698a:	e03e      	b.n	8006a0a <f_read+0x31a>
 800698c:	68fa      	ldr	r2, [r7, #12]
 800698e:	2386      	movs	r3, #134	; 0x86
 8006990:	009b      	lsls	r3, r3, #2
 8006992:	6939      	ldr	r1, [r7, #16]
 8006994:	50d1      	str	r1, [r2, r3]
 8006996:	68fa      	ldr	r2, [r7, #12]
 8006998:	2382      	movs	r3, #130	; 0x82
 800699a:	009b      	lsls	r3, r3, #2
 800699c:	58d3      	ldr	r3, [r2, r3]
 800699e:	05db      	lsls	r3, r3, #23
 80069a0:	0ddb      	lsrs	r3, r3, #23
 80069a2:	2280      	movs	r2, #128	; 0x80
 80069a4:	0092      	lsls	r2, r2, #2
 80069a6:	1ad3      	subs	r3, r2, r3
 80069a8:	62bb      	str	r3, [r7, #40]	; 0x28
 80069aa:	6aba      	ldr	r2, [r7, #40]	; 0x28
 80069ac:	687b      	ldr	r3, [r7, #4]
 80069ae:	429a      	cmp	r2, r3
 80069b0:	d901      	bls.n	80069b6 <f_read+0x2c6>
 80069b2:	687b      	ldr	r3, [r7, #4]
 80069b4:	62bb      	str	r3, [r7, #40]	; 0x28
 80069b6:	68fa      	ldr	r2, [r7, #12]
 80069b8:	2382      	movs	r3, #130	; 0x82
 80069ba:	009b      	lsls	r3, r3, #2
 80069bc:	58d3      	ldr	r3, [r2, r3]
 80069be:	05db      	lsls	r3, r3, #23
 80069c0:	0ddb      	lsrs	r3, r3, #23
 80069c2:	68fa      	ldr	r2, [r7, #12]
 80069c4:	18d1      	adds	r1, r2, r3
 80069c6:	6aba      	ldr	r2, [r7, #40]	; 0x28
 80069c8:	6a3b      	ldr	r3, [r7, #32]
 80069ca:	0018      	movs	r0, r3
 80069cc:	f7fd fbf2 	bl	80041b4 <mem_cpy>
 80069d0:	6a3a      	ldr	r2, [r7, #32]
 80069d2:	6abb      	ldr	r3, [r7, #40]	; 0x28
 80069d4:	18d3      	adds	r3, r2, r3
 80069d6:	623b      	str	r3, [r7, #32]
 80069d8:	68fa      	ldr	r2, [r7, #12]
 80069da:	2382      	movs	r3, #130	; 0x82
 80069dc:	009b      	lsls	r3, r3, #2
 80069de:	58d2      	ldr	r2, [r2, r3]
 80069e0:	6abb      	ldr	r3, [r7, #40]	; 0x28
 80069e2:	18d1      	adds	r1, r2, r3
 80069e4:	68fa      	ldr	r2, [r7, #12]
 80069e6:	2382      	movs	r3, #130	; 0x82
 80069e8:	009b      	lsls	r3, r3, #2
 80069ea:	50d1      	str	r1, [r2, r3]
 80069ec:	683b      	ldr	r3, [r7, #0]
 80069ee:	681a      	ldr	r2, [r3, #0]
 80069f0:	6abb      	ldr	r3, [r7, #40]	; 0x28
 80069f2:	18d2      	adds	r2, r2, r3
 80069f4:	683b      	ldr	r3, [r7, #0]
 80069f6:	601a      	str	r2, [r3, #0]
 80069f8:	687a      	ldr	r2, [r7, #4]
 80069fa:	6abb      	ldr	r3, [r7, #40]	; 0x28
 80069fc:	1ad3      	subs	r3, r2, r3
 80069fe:	607b      	str	r3, [r7, #4]
 8006a00:	687b      	ldr	r3, [r7, #4]
 8006a02:	2b00      	cmp	r3, #0
 8006a04:	d000      	beq.n	8006a08 <f_read+0x318>
 8006a06:	e6b2      	b.n	800676e <f_read+0x7e>
 8006a08:	2300      	movs	r3, #0
 8006a0a:	0018      	movs	r0, r3
 8006a0c:	46bd      	mov	sp, r7
 8006a0e:	b00c      	add	sp, #48	; 0x30
 8006a10:	bdb0      	pop	{r4, r5, r7, pc}
 8006a12:	46c0      	nop			; (mov r8, r8)
 8006a14:	00000207 	.word	0x00000207
 8006a18:	00000206 	.word	0x00000206
 8006a1c:	00000202 	.word	0x00000202
 8006a20:	00000201 	.word	0x00000201

08006a24 <f_sync>:
 8006a24:	b5b0      	push	{r4, r5, r7, lr}
 8006a26:	b086      	sub	sp, #24
 8006a28:	af00      	add	r7, sp, #0
 8006a2a:	6078      	str	r0, [r7, #4]
 8006a2c:	2517      	movs	r5, #23
 8006a2e:	197c      	adds	r4, r7, r5
 8006a30:	687b      	ldr	r3, [r7, #4]
 8006a32:	0018      	movs	r0, r3
 8006a34:	f7ff fb4a 	bl	80060cc <validate>
 8006a38:	0003      	movs	r3, r0
 8006a3a:	7023      	strb	r3, [r4, #0]
 8006a3c:	197b      	adds	r3, r7, r5
 8006a3e:	781b      	ldrb	r3, [r3, #0]
 8006a40:	2b00      	cmp	r3, #0
 8006a42:	d000      	beq.n	8006a46 <f_sync+0x22>
 8006a44:	e0b9      	b.n	8006bba <f_sync+0x196>
 8006a46:	687b      	ldr	r3, [r7, #4]
 8006a48:	4a5f      	ldr	r2, [pc, #380]	; (8006bc8 <f_sync+0x1a4>)
 8006a4a:	5c9b      	ldrb	r3, [r3, r2]
 8006a4c:	001a      	movs	r2, r3
 8006a4e:	2320      	movs	r3, #32
 8006a50:	4013      	ands	r3, r2
 8006a52:	d100      	bne.n	8006a56 <f_sync+0x32>
 8006a54:	e0b1      	b.n	8006bba <f_sync+0x196>
 8006a56:	687b      	ldr	r3, [r7, #4]
 8006a58:	4a5b      	ldr	r2, [pc, #364]	; (8006bc8 <f_sync+0x1a4>)
 8006a5a:	5c9b      	ldrb	r3, [r3, r2]
 8006a5c:	001a      	movs	r2, r3
 8006a5e:	2340      	movs	r3, #64	; 0x40
 8006a60:	4013      	ands	r3, r2
 8006a62:	d01a      	beq.n	8006a9a <f_sync+0x76>
 8006a64:	687a      	ldr	r2, [r7, #4]
 8006a66:	2380      	movs	r3, #128	; 0x80
 8006a68:	009b      	lsls	r3, r3, #2
 8006a6a:	58d3      	ldr	r3, [r2, r3]
 8006a6c:	4a57      	ldr	r2, [pc, #348]	; (8006bcc <f_sync+0x1a8>)
 8006a6e:	5c98      	ldrb	r0, [r3, r2]
 8006a70:	6879      	ldr	r1, [r7, #4]
 8006a72:	687a      	ldr	r2, [r7, #4]
 8006a74:	2386      	movs	r3, #134	; 0x86
 8006a76:	009b      	lsls	r3, r3, #2
 8006a78:	58d2      	ldr	r2, [r2, r3]
 8006a7a:	2301      	movs	r3, #1
 8006a7c:	f7fd fb4a 	bl	8004114 <disk_write>
 8006a80:	1e03      	subs	r3, r0, #0
 8006a82:	d001      	beq.n	8006a88 <f_sync+0x64>
 8006a84:	2301      	movs	r3, #1
 8006a86:	e09b      	b.n	8006bc0 <f_sync+0x19c>
 8006a88:	687b      	ldr	r3, [r7, #4]
 8006a8a:	4a4f      	ldr	r2, [pc, #316]	; (8006bc8 <f_sync+0x1a4>)
 8006a8c:	5c9b      	ldrb	r3, [r3, r2]
 8006a8e:	2240      	movs	r2, #64	; 0x40
 8006a90:	4393      	bics	r3, r2
 8006a92:	b2d9      	uxtb	r1, r3
 8006a94:	687b      	ldr	r3, [r7, #4]
 8006a96:	4a4c      	ldr	r2, [pc, #304]	; (8006bc8 <f_sync+0x1a4>)
 8006a98:	5499      	strb	r1, [r3, r2]
 8006a9a:	687a      	ldr	r2, [r7, #4]
 8006a9c:	2380      	movs	r3, #128	; 0x80
 8006a9e:	009b      	lsls	r3, r3, #2
 8006aa0:	58d0      	ldr	r0, [r2, r3]
 8006aa2:	687a      	ldr	r2, [r7, #4]
 8006aa4:	2387      	movs	r3, #135	; 0x87
 8006aa6:	009b      	lsls	r3, r3, #2
 8006aa8:	58d3      	ldr	r3, [r2, r3]
 8006aaa:	2517      	movs	r5, #23
 8006aac:	197c      	adds	r4, r7, r5
 8006aae:	0019      	movs	r1, r3
 8006ab0:	f7fd fe0c 	bl	80046cc <move_window>
 8006ab4:	0003      	movs	r3, r0
 8006ab6:	7023      	strb	r3, [r4, #0]
 8006ab8:	002c      	movs	r4, r5
 8006aba:	193b      	adds	r3, r7, r4
 8006abc:	781b      	ldrb	r3, [r3, #0]
 8006abe:	2b00      	cmp	r3, #0
 8006ac0:	d17b      	bne.n	8006bba <f_sync+0x196>
 8006ac2:	687a      	ldr	r2, [r7, #4]
 8006ac4:	2388      	movs	r3, #136	; 0x88
 8006ac6:	009b      	lsls	r3, r3, #2
 8006ac8:	58d3      	ldr	r3, [r2, r3]
 8006aca:	613b      	str	r3, [r7, #16]
 8006acc:	693b      	ldr	r3, [r7, #16]
 8006ace:	330b      	adds	r3, #11
 8006ad0:	781a      	ldrb	r2, [r3, #0]
 8006ad2:	693b      	ldr	r3, [r7, #16]
 8006ad4:	330b      	adds	r3, #11
 8006ad6:	2120      	movs	r1, #32
 8006ad8:	430a      	orrs	r2, r1
 8006ada:	b2d2      	uxtb	r2, r2
 8006adc:	701a      	strb	r2, [r3, #0]
 8006ade:	687a      	ldr	r2, [r7, #4]
 8006ae0:	2383      	movs	r3, #131	; 0x83
 8006ae2:	009b      	lsls	r3, r3, #2
 8006ae4:	58d2      	ldr	r2, [r2, r3]
 8006ae6:	693b      	ldr	r3, [r7, #16]
 8006ae8:	331c      	adds	r3, #28
 8006aea:	b2d2      	uxtb	r2, r2
 8006aec:	701a      	strb	r2, [r3, #0]
 8006aee:	687a      	ldr	r2, [r7, #4]
 8006af0:	2383      	movs	r3, #131	; 0x83
 8006af2:	009b      	lsls	r3, r3, #2
 8006af4:	58d3      	ldr	r3, [r2, r3]
 8006af6:	b29b      	uxth	r3, r3
 8006af8:	0a1b      	lsrs	r3, r3, #8
 8006afa:	b29a      	uxth	r2, r3
 8006afc:	693b      	ldr	r3, [r7, #16]
 8006afe:	331d      	adds	r3, #29
 8006b00:	b2d2      	uxtb	r2, r2
 8006b02:	701a      	strb	r2, [r3, #0]
 8006b04:	687a      	ldr	r2, [r7, #4]
 8006b06:	2383      	movs	r3, #131	; 0x83
 8006b08:	009b      	lsls	r3, r3, #2
 8006b0a:	58d3      	ldr	r3, [r2, r3]
 8006b0c:	0c1a      	lsrs	r2, r3, #16
 8006b0e:	693b      	ldr	r3, [r7, #16]
 8006b10:	331e      	adds	r3, #30
 8006b12:	b2d2      	uxtb	r2, r2
 8006b14:	701a      	strb	r2, [r3, #0]
 8006b16:	687a      	ldr	r2, [r7, #4]
 8006b18:	2383      	movs	r3, #131	; 0x83
 8006b1a:	009b      	lsls	r3, r3, #2
 8006b1c:	58d3      	ldr	r3, [r2, r3]
 8006b1e:	0e1a      	lsrs	r2, r3, #24
 8006b20:	693b      	ldr	r3, [r7, #16]
 8006b22:	331f      	adds	r3, #31
 8006b24:	b2d2      	uxtb	r2, r2
 8006b26:	701a      	strb	r2, [r3, #0]
 8006b28:	687a      	ldr	r2, [r7, #4]
 8006b2a:	2384      	movs	r3, #132	; 0x84
 8006b2c:	009b      	lsls	r3, r3, #2
 8006b2e:	58d2      	ldr	r2, [r2, r3]
 8006b30:	693b      	ldr	r3, [r7, #16]
 8006b32:	0011      	movs	r1, r2
 8006b34:	0018      	movs	r0, r3
 8006b36:	f7fe fca1 	bl	800547c <st_clust>
 8006b3a:	f7fc fc99 	bl	8003470 <get_fattime>
 8006b3e:	0003      	movs	r3, r0
 8006b40:	60fb      	str	r3, [r7, #12]
 8006b42:	693b      	ldr	r3, [r7, #16]
 8006b44:	3316      	adds	r3, #22
 8006b46:	68fa      	ldr	r2, [r7, #12]
 8006b48:	b2d2      	uxtb	r2, r2
 8006b4a:	701a      	strb	r2, [r3, #0]
 8006b4c:	68fb      	ldr	r3, [r7, #12]
 8006b4e:	b29b      	uxth	r3, r3
 8006b50:	0a1b      	lsrs	r3, r3, #8
 8006b52:	b29a      	uxth	r2, r3
 8006b54:	693b      	ldr	r3, [r7, #16]
 8006b56:	3317      	adds	r3, #23
 8006b58:	b2d2      	uxtb	r2, r2
 8006b5a:	701a      	strb	r2, [r3, #0]
 8006b5c:	68fb      	ldr	r3, [r7, #12]
 8006b5e:	0c1a      	lsrs	r2, r3, #16
 8006b60:	693b      	ldr	r3, [r7, #16]
 8006b62:	3318      	adds	r3, #24
 8006b64:	b2d2      	uxtb	r2, r2
 8006b66:	701a      	strb	r2, [r3, #0]
 8006b68:	68fb      	ldr	r3, [r7, #12]
 8006b6a:	0e1a      	lsrs	r2, r3, #24
 8006b6c:	693b      	ldr	r3, [r7, #16]
 8006b6e:	3319      	adds	r3, #25
 8006b70:	b2d2      	uxtb	r2, r2
 8006b72:	701a      	strb	r2, [r3, #0]
 8006b74:	693b      	ldr	r3, [r7, #16]
 8006b76:	3312      	adds	r3, #18
 8006b78:	2200      	movs	r2, #0
 8006b7a:	701a      	strb	r2, [r3, #0]
 8006b7c:	693b      	ldr	r3, [r7, #16]
 8006b7e:	3313      	adds	r3, #19
 8006b80:	2200      	movs	r2, #0
 8006b82:	701a      	strb	r2, [r3, #0]
 8006b84:	687b      	ldr	r3, [r7, #4]
 8006b86:	4a10      	ldr	r2, [pc, #64]	; (8006bc8 <f_sync+0x1a4>)
 8006b88:	5c9b      	ldrb	r3, [r3, r2]
 8006b8a:	2220      	movs	r2, #32
 8006b8c:	4393      	bics	r3, r2
 8006b8e:	b2d9      	uxtb	r1, r3
 8006b90:	687b      	ldr	r3, [r7, #4]
 8006b92:	4a0d      	ldr	r2, [pc, #52]	; (8006bc8 <f_sync+0x1a4>)
 8006b94:	5499      	strb	r1, [r3, r2]
 8006b96:	687a      	ldr	r2, [r7, #4]
 8006b98:	2380      	movs	r3, #128	; 0x80
 8006b9a:	009b      	lsls	r3, r3, #2
 8006b9c:	58d2      	ldr	r2, [r2, r3]
 8006b9e:	2381      	movs	r3, #129	; 0x81
 8006ba0:	009b      	lsls	r3, r3, #2
 8006ba2:	2101      	movs	r1, #1
 8006ba4:	54d1      	strb	r1, [r2, r3]
 8006ba6:	687a      	ldr	r2, [r7, #4]
 8006ba8:	2380      	movs	r3, #128	; 0x80
 8006baa:	009b      	lsls	r3, r3, #2
 8006bac:	58d3      	ldr	r3, [r2, r3]
 8006bae:	193c      	adds	r4, r7, r4
 8006bb0:	0018      	movs	r0, r3
 8006bb2:	f7fd fdc7 	bl	8004744 <sync_fs>
 8006bb6:	0003      	movs	r3, r0
 8006bb8:	7023      	strb	r3, [r4, #0]
 8006bba:	2317      	movs	r3, #23
 8006bbc:	18fb      	adds	r3, r7, r3
 8006bbe:	781b      	ldrb	r3, [r3, #0]
 8006bc0:	0018      	movs	r0, r3
 8006bc2:	46bd      	mov	sp, r7
 8006bc4:	b006      	add	sp, #24
 8006bc6:	bdb0      	pop	{r4, r5, r7, pc}
 8006bc8:	00000206 	.word	0x00000206
 8006bcc:	00000201 	.word	0x00000201

08006bd0 <f_close>:
 8006bd0:	b5b0      	push	{r4, r5, r7, lr}
 8006bd2:	b084      	sub	sp, #16
 8006bd4:	af00      	add	r7, sp, #0
 8006bd6:	6078      	str	r0, [r7, #4]
 8006bd8:	250f      	movs	r5, #15
 8006bda:	197c      	adds	r4, r7, r5
 8006bdc:	687b      	ldr	r3, [r7, #4]
 8006bde:	0018      	movs	r0, r3
 8006be0:	f7ff ff20 	bl	8006a24 <f_sync>
 8006be4:	0003      	movs	r3, r0
 8006be6:	7023      	strb	r3, [r4, #0]
 8006be8:	197b      	adds	r3, r7, r5
 8006bea:	781b      	ldrb	r3, [r3, #0]
 8006bec:	2b00      	cmp	r3, #0
 8006bee:	d11f      	bne.n	8006c30 <f_close+0x60>
 8006bf0:	197c      	adds	r4, r7, r5
 8006bf2:	687b      	ldr	r3, [r7, #4]
 8006bf4:	0018      	movs	r0, r3
 8006bf6:	f7ff fa69 	bl	80060cc <validate>
 8006bfa:	0003      	movs	r3, r0
 8006bfc:	7023      	strb	r3, [r4, #0]
 8006bfe:	0029      	movs	r1, r5
 8006c00:	187b      	adds	r3, r7, r1
 8006c02:	781b      	ldrb	r3, [r3, #0]
 8006c04:	2b00      	cmp	r3, #0
 8006c06:	d113      	bne.n	8006c30 <f_close+0x60>
 8006c08:	687a      	ldr	r2, [r7, #4]
 8006c0a:	238a      	movs	r3, #138	; 0x8a
 8006c0c:	009b      	lsls	r3, r3, #2
 8006c0e:	58d3      	ldr	r3, [r2, r3]
 8006c10:	000d      	movs	r5, r1
 8006c12:	187c      	adds	r4, r7, r1
 8006c14:	0018      	movs	r0, r3
 8006c16:	f7fd fc87 	bl	8004528 <dec_lock>
 8006c1a:	0003      	movs	r3, r0
 8006c1c:	7023      	strb	r3, [r4, #0]
 8006c1e:	197b      	adds	r3, r7, r5
 8006c20:	781b      	ldrb	r3, [r3, #0]
 8006c22:	2b00      	cmp	r3, #0
 8006c24:	d104      	bne.n	8006c30 <f_close+0x60>
 8006c26:	687a      	ldr	r2, [r7, #4]
 8006c28:	2380      	movs	r3, #128	; 0x80
 8006c2a:	009b      	lsls	r3, r3, #2
 8006c2c:	2100      	movs	r1, #0
 8006c2e:	50d1      	str	r1, [r2, r3]
 8006c30:	230f      	movs	r3, #15
 8006c32:	18fb      	adds	r3, r7, r3
 8006c34:	781b      	ldrb	r3, [r3, #0]
 8006c36:	0018      	movs	r0, r3
 8006c38:	46bd      	mov	sp, r7
 8006c3a:	b004      	add	sp, #16
 8006c3c:	bdb0      	pop	{r4, r5, r7, pc}
	...

08006c40 <f_lseek>:
 8006c40:	b5b0      	push	{r4, r5, r7, lr}
 8006c42:	b090      	sub	sp, #64	; 0x40
 8006c44:	af00      	add	r7, sp, #0
 8006c46:	6078      	str	r0, [r7, #4]
 8006c48:	6039      	str	r1, [r7, #0]
 8006c4a:	253f      	movs	r5, #63	; 0x3f
 8006c4c:	197c      	adds	r4, r7, r5
 8006c4e:	687b      	ldr	r3, [r7, #4]
 8006c50:	0018      	movs	r0, r3
 8006c52:	f7ff fa3b 	bl	80060cc <validate>
 8006c56:	0003      	movs	r3, r0
 8006c58:	7023      	strb	r3, [r4, #0]
 8006c5a:	197b      	adds	r3, r7, r5
 8006c5c:	781b      	ldrb	r3, [r3, #0]
 8006c5e:	2b00      	cmp	r3, #0
 8006c60:	d002      	beq.n	8006c68 <f_lseek+0x28>
 8006c62:	197b      	adds	r3, r7, r5
 8006c64:	781b      	ldrb	r3, [r3, #0]
 8006c66:	e28c      	b.n	8007182 <f_lseek+0x542>
 8006c68:	687b      	ldr	r3, [r7, #4]
 8006c6a:	4ada      	ldr	r2, [pc, #872]	; (8006fd4 <f_lseek+0x394>)
 8006c6c:	5c9b      	ldrb	r3, [r3, r2]
 8006c6e:	2b00      	cmp	r3, #0
 8006c70:	d003      	beq.n	8006c7a <f_lseek+0x3a>
 8006c72:	687b      	ldr	r3, [r7, #4]
 8006c74:	4ad7      	ldr	r2, [pc, #860]	; (8006fd4 <f_lseek+0x394>)
 8006c76:	5c9b      	ldrb	r3, [r3, r2]
 8006c78:	e283      	b.n	8007182 <f_lseek+0x542>
 8006c7a:	687a      	ldr	r2, [r7, #4]
 8006c7c:	2389      	movs	r3, #137	; 0x89
 8006c7e:	009b      	lsls	r3, r3, #2
 8006c80:	58d3      	ldr	r3, [r2, r3]
 8006c82:	2b00      	cmp	r3, #0
 8006c84:	d100      	bne.n	8006c88 <f_lseek+0x48>
 8006c86:	e103      	b.n	8006e90 <f_lseek+0x250>
 8006c88:	683b      	ldr	r3, [r7, #0]
 8006c8a:	3301      	adds	r3, #1
 8006c8c:	d16c      	bne.n	8006d68 <f_lseek+0x128>
 8006c8e:	687a      	ldr	r2, [r7, #4]
 8006c90:	2389      	movs	r3, #137	; 0x89
 8006c92:	009b      	lsls	r3, r3, #2
 8006c94:	58d3      	ldr	r3, [r2, r3]
 8006c96:	627b      	str	r3, [r7, #36]	; 0x24
 8006c98:	6a7b      	ldr	r3, [r7, #36]	; 0x24
 8006c9a:	1d1a      	adds	r2, r3, #4
 8006c9c:	627a      	str	r2, [r7, #36]	; 0x24
 8006c9e:	681b      	ldr	r3, [r3, #0]
 8006ca0:	617b      	str	r3, [r7, #20]
 8006ca2:	2302      	movs	r3, #2
 8006ca4:	62bb      	str	r3, [r7, #40]	; 0x28
 8006ca6:	687a      	ldr	r2, [r7, #4]
 8006ca8:	2384      	movs	r3, #132	; 0x84
 8006caa:	009b      	lsls	r3, r3, #2
 8006cac:	58d3      	ldr	r3, [r2, r3]
 8006cae:	633b      	str	r3, [r7, #48]	; 0x30
 8006cb0:	6b3b      	ldr	r3, [r7, #48]	; 0x30
 8006cb2:	2b00      	cmp	r3, #0
 8006cb4:	d045      	beq.n	8006d42 <f_lseek+0x102>
 8006cb6:	6b3b      	ldr	r3, [r7, #48]	; 0x30
 8006cb8:	613b      	str	r3, [r7, #16]
 8006cba:	2300      	movs	r3, #0
 8006cbc:	62fb      	str	r3, [r7, #44]	; 0x2c
 8006cbe:	6abb      	ldr	r3, [r7, #40]	; 0x28
 8006cc0:	3302      	adds	r3, #2
 8006cc2:	62bb      	str	r3, [r7, #40]	; 0x28
 8006cc4:	6b3b      	ldr	r3, [r7, #48]	; 0x30
 8006cc6:	60fb      	str	r3, [r7, #12]
 8006cc8:	6afb      	ldr	r3, [r7, #44]	; 0x2c
 8006cca:	3301      	adds	r3, #1
 8006ccc:	62fb      	str	r3, [r7, #44]	; 0x2c
 8006cce:	687a      	ldr	r2, [r7, #4]
 8006cd0:	2380      	movs	r3, #128	; 0x80
 8006cd2:	009b      	lsls	r3, r3, #2
 8006cd4:	58d3      	ldr	r3, [r2, r3]
 8006cd6:	6b3a      	ldr	r2, [r7, #48]	; 0x30
 8006cd8:	0011      	movs	r1, r2
 8006cda:	0018      	movs	r0, r3
 8006cdc:	f7fd fe2a 	bl	8004934 <get_fat>
 8006ce0:	0003      	movs	r3, r0
 8006ce2:	633b      	str	r3, [r7, #48]	; 0x30
 8006ce4:	6b3b      	ldr	r3, [r7, #48]	; 0x30
 8006ce6:	2b01      	cmp	r3, #1
 8006ce8:	d805      	bhi.n	8006cf6 <f_lseek+0xb6>
 8006cea:	687b      	ldr	r3, [r7, #4]
 8006cec:	4ab9      	ldr	r2, [pc, #740]	; (8006fd4 <f_lseek+0x394>)
 8006cee:	2102      	movs	r1, #2
 8006cf0:	5499      	strb	r1, [r3, r2]
 8006cf2:	2302      	movs	r3, #2
 8006cf4:	e245      	b.n	8007182 <f_lseek+0x542>
 8006cf6:	6b3b      	ldr	r3, [r7, #48]	; 0x30
 8006cf8:	3301      	adds	r3, #1
 8006cfa:	d105      	bne.n	8006d08 <f_lseek+0xc8>
 8006cfc:	687b      	ldr	r3, [r7, #4]
 8006cfe:	4ab5      	ldr	r2, [pc, #724]	; (8006fd4 <f_lseek+0x394>)
 8006d00:	2101      	movs	r1, #1
 8006d02:	5499      	strb	r1, [r3, r2]
 8006d04:	2301      	movs	r3, #1
 8006d06:	e23c      	b.n	8007182 <f_lseek+0x542>
 8006d08:	68fb      	ldr	r3, [r7, #12]
 8006d0a:	3301      	adds	r3, #1
 8006d0c:	6b3a      	ldr	r2, [r7, #48]	; 0x30
 8006d0e:	429a      	cmp	r2, r3
 8006d10:	d0d8      	beq.n	8006cc4 <f_lseek+0x84>
 8006d12:	6aba      	ldr	r2, [r7, #40]	; 0x28
 8006d14:	697b      	ldr	r3, [r7, #20]
 8006d16:	429a      	cmp	r2, r3
 8006d18:	d809      	bhi.n	8006d2e <f_lseek+0xee>
 8006d1a:	6a7b      	ldr	r3, [r7, #36]	; 0x24
 8006d1c:	1d1a      	adds	r2, r3, #4
 8006d1e:	627a      	str	r2, [r7, #36]	; 0x24
 8006d20:	6afa      	ldr	r2, [r7, #44]	; 0x2c
 8006d22:	601a      	str	r2, [r3, #0]
 8006d24:	6a7b      	ldr	r3, [r7, #36]	; 0x24
 8006d26:	1d1a      	adds	r2, r3, #4
 8006d28:	627a      	str	r2, [r7, #36]	; 0x24
 8006d2a:	693a      	ldr	r2, [r7, #16]
 8006d2c:	601a      	str	r2, [r3, #0]
 8006d2e:	687a      	ldr	r2, [r7, #4]
 8006d30:	2380      	movs	r3, #128	; 0x80
 8006d32:	009b      	lsls	r3, r3, #2
 8006d34:	58d2      	ldr	r2, [r2, r3]
 8006d36:	2385      	movs	r3, #133	; 0x85
 8006d38:	009b      	lsls	r3, r3, #2
 8006d3a:	58d3      	ldr	r3, [r2, r3]
 8006d3c:	6b3a      	ldr	r2, [r7, #48]	; 0x30
 8006d3e:	429a      	cmp	r2, r3
 8006d40:	d3b9      	bcc.n	8006cb6 <f_lseek+0x76>
 8006d42:	687a      	ldr	r2, [r7, #4]
 8006d44:	2389      	movs	r3, #137	; 0x89
 8006d46:	009b      	lsls	r3, r3, #2
 8006d48:	58d3      	ldr	r3, [r2, r3]
 8006d4a:	6aba      	ldr	r2, [r7, #40]	; 0x28
 8006d4c:	601a      	str	r2, [r3, #0]
 8006d4e:	6aba      	ldr	r2, [r7, #40]	; 0x28
 8006d50:	697b      	ldr	r3, [r7, #20]
 8006d52:	429a      	cmp	r2, r3
 8006d54:	d803      	bhi.n	8006d5e <f_lseek+0x11e>
 8006d56:	6a7b      	ldr	r3, [r7, #36]	; 0x24
 8006d58:	2200      	movs	r2, #0
 8006d5a:	601a      	str	r2, [r3, #0]
 8006d5c:	e20e      	b.n	800717c <f_lseek+0x53c>
 8006d5e:	233f      	movs	r3, #63	; 0x3f
 8006d60:	18fb      	adds	r3, r7, r3
 8006d62:	2211      	movs	r2, #17
 8006d64:	701a      	strb	r2, [r3, #0]
 8006d66:	e209      	b.n	800717c <f_lseek+0x53c>
 8006d68:	687a      	ldr	r2, [r7, #4]
 8006d6a:	2383      	movs	r3, #131	; 0x83
 8006d6c:	009b      	lsls	r3, r3, #2
 8006d6e:	58d3      	ldr	r3, [r2, r3]
 8006d70:	683a      	ldr	r2, [r7, #0]
 8006d72:	429a      	cmp	r2, r3
 8006d74:	d904      	bls.n	8006d80 <f_lseek+0x140>
 8006d76:	687a      	ldr	r2, [r7, #4]
 8006d78:	2383      	movs	r3, #131	; 0x83
 8006d7a:	009b      	lsls	r3, r3, #2
 8006d7c:	58d3      	ldr	r3, [r2, r3]
 8006d7e:	603b      	str	r3, [r7, #0]
 8006d80:	687a      	ldr	r2, [r7, #4]
 8006d82:	2382      	movs	r3, #130	; 0x82
 8006d84:	009b      	lsls	r3, r3, #2
 8006d86:	6839      	ldr	r1, [r7, #0]
 8006d88:	50d1      	str	r1, [r2, r3]
 8006d8a:	683b      	ldr	r3, [r7, #0]
 8006d8c:	2b00      	cmp	r3, #0
 8006d8e:	d100      	bne.n	8006d92 <f_lseek+0x152>
 8006d90:	e1f4      	b.n	800717c <f_lseek+0x53c>
 8006d92:	683b      	ldr	r3, [r7, #0]
 8006d94:	1e5a      	subs	r2, r3, #1
 8006d96:	687b      	ldr	r3, [r7, #4]
 8006d98:	0011      	movs	r1, r2
 8006d9a:	0018      	movs	r0, r3
 8006d9c:	f7fe f8e0 	bl	8004f60 <clmt_clust>
 8006da0:	0001      	movs	r1, r0
 8006da2:	687a      	ldr	r2, [r7, #4]
 8006da4:	2385      	movs	r3, #133	; 0x85
 8006da6:	009b      	lsls	r3, r3, #2
 8006da8:	50d1      	str	r1, [r2, r3]
 8006daa:	687a      	ldr	r2, [r7, #4]
 8006dac:	2380      	movs	r3, #128	; 0x80
 8006dae:	009b      	lsls	r3, r3, #2
 8006db0:	58d0      	ldr	r0, [r2, r3]
 8006db2:	687a      	ldr	r2, [r7, #4]
 8006db4:	2385      	movs	r3, #133	; 0x85
 8006db6:	009b      	lsls	r3, r3, #2
 8006db8:	58d3      	ldr	r3, [r2, r3]
 8006dba:	0019      	movs	r1, r3
 8006dbc:	f7fd fd96 	bl	80048ec <clust2sect>
 8006dc0:	0003      	movs	r3, r0
 8006dc2:	61bb      	str	r3, [r7, #24]
 8006dc4:	69bb      	ldr	r3, [r7, #24]
 8006dc6:	2b00      	cmp	r3, #0
 8006dc8:	d105      	bne.n	8006dd6 <f_lseek+0x196>
 8006dca:	687b      	ldr	r3, [r7, #4]
 8006dcc:	4a81      	ldr	r2, [pc, #516]	; (8006fd4 <f_lseek+0x394>)
 8006dce:	2102      	movs	r1, #2
 8006dd0:	5499      	strb	r1, [r3, r2]
 8006dd2:	2302      	movs	r3, #2
 8006dd4:	e1d5      	b.n	8007182 <f_lseek+0x542>
 8006dd6:	683b      	ldr	r3, [r7, #0]
 8006dd8:	3b01      	subs	r3, #1
 8006dda:	0a5b      	lsrs	r3, r3, #9
 8006ddc:	6879      	ldr	r1, [r7, #4]
 8006dde:	2280      	movs	r2, #128	; 0x80
 8006de0:	0092      	lsls	r2, r2, #2
 8006de2:	588a      	ldr	r2, [r1, r2]
 8006de4:	497c      	ldr	r1, [pc, #496]	; (8006fd8 <f_lseek+0x398>)
 8006de6:	5c52      	ldrb	r2, [r2, r1]
 8006de8:	3a01      	subs	r2, #1
 8006dea:	4013      	ands	r3, r2
 8006dec:	69ba      	ldr	r2, [r7, #24]
 8006dee:	18d3      	adds	r3, r2, r3
 8006df0:	61bb      	str	r3, [r7, #24]
 8006df2:	687a      	ldr	r2, [r7, #4]
 8006df4:	2382      	movs	r3, #130	; 0x82
 8006df6:	009b      	lsls	r3, r3, #2
 8006df8:	58d3      	ldr	r3, [r2, r3]
 8006dfa:	05db      	lsls	r3, r3, #23
 8006dfc:	0ddb      	lsrs	r3, r3, #23
 8006dfe:	d100      	bne.n	8006e02 <f_lseek+0x1c2>
 8006e00:	e1bc      	b.n	800717c <f_lseek+0x53c>
 8006e02:	687a      	ldr	r2, [r7, #4]
 8006e04:	2386      	movs	r3, #134	; 0x86
 8006e06:	009b      	lsls	r3, r3, #2
 8006e08:	58d3      	ldr	r3, [r2, r3]
 8006e0a:	69ba      	ldr	r2, [r7, #24]
 8006e0c:	429a      	cmp	r2, r3
 8006e0e:	d100      	bne.n	8006e12 <f_lseek+0x1d2>
 8006e10:	e1b4      	b.n	800717c <f_lseek+0x53c>
 8006e12:	687b      	ldr	r3, [r7, #4]
 8006e14:	4a71      	ldr	r2, [pc, #452]	; (8006fdc <f_lseek+0x39c>)
 8006e16:	5c9b      	ldrb	r3, [r3, r2]
 8006e18:	001a      	movs	r2, r3
 8006e1a:	2340      	movs	r3, #64	; 0x40
 8006e1c:	4013      	ands	r3, r2
 8006e1e:	d01e      	beq.n	8006e5e <f_lseek+0x21e>
 8006e20:	687a      	ldr	r2, [r7, #4]
 8006e22:	2380      	movs	r3, #128	; 0x80
 8006e24:	009b      	lsls	r3, r3, #2
 8006e26:	58d3      	ldr	r3, [r2, r3]
 8006e28:	4a6d      	ldr	r2, [pc, #436]	; (8006fe0 <f_lseek+0x3a0>)
 8006e2a:	5c98      	ldrb	r0, [r3, r2]
 8006e2c:	6879      	ldr	r1, [r7, #4]
 8006e2e:	687a      	ldr	r2, [r7, #4]
 8006e30:	2386      	movs	r3, #134	; 0x86
 8006e32:	009b      	lsls	r3, r3, #2
 8006e34:	58d2      	ldr	r2, [r2, r3]
 8006e36:	2301      	movs	r3, #1
 8006e38:	f7fd f96c 	bl	8004114 <disk_write>
 8006e3c:	1e03      	subs	r3, r0, #0
 8006e3e:	d005      	beq.n	8006e4c <f_lseek+0x20c>
 8006e40:	687b      	ldr	r3, [r7, #4]
 8006e42:	4a64      	ldr	r2, [pc, #400]	; (8006fd4 <f_lseek+0x394>)
 8006e44:	2101      	movs	r1, #1
 8006e46:	5499      	strb	r1, [r3, r2]
 8006e48:	2301      	movs	r3, #1
 8006e4a:	e19a      	b.n	8007182 <f_lseek+0x542>
 8006e4c:	687b      	ldr	r3, [r7, #4]
 8006e4e:	4a63      	ldr	r2, [pc, #396]	; (8006fdc <f_lseek+0x39c>)
 8006e50:	5c9b      	ldrb	r3, [r3, r2]
 8006e52:	2240      	movs	r2, #64	; 0x40
 8006e54:	4393      	bics	r3, r2
 8006e56:	b2d9      	uxtb	r1, r3
 8006e58:	687b      	ldr	r3, [r7, #4]
 8006e5a:	4a60      	ldr	r2, [pc, #384]	; (8006fdc <f_lseek+0x39c>)
 8006e5c:	5499      	strb	r1, [r3, r2]
 8006e5e:	687a      	ldr	r2, [r7, #4]
 8006e60:	2380      	movs	r3, #128	; 0x80
 8006e62:	009b      	lsls	r3, r3, #2
 8006e64:	58d3      	ldr	r3, [r2, r3]
 8006e66:	4a5e      	ldr	r2, [pc, #376]	; (8006fe0 <f_lseek+0x3a0>)
 8006e68:	5c98      	ldrb	r0, [r3, r2]
 8006e6a:	6879      	ldr	r1, [r7, #4]
 8006e6c:	69ba      	ldr	r2, [r7, #24]
 8006e6e:	2301      	movs	r3, #1
 8006e70:	f7fd f928 	bl	80040c4 <disk_read>
 8006e74:	1e03      	subs	r3, r0, #0
 8006e76:	d005      	beq.n	8006e84 <f_lseek+0x244>
 8006e78:	687b      	ldr	r3, [r7, #4]
 8006e7a:	4a56      	ldr	r2, [pc, #344]	; (8006fd4 <f_lseek+0x394>)
 8006e7c:	2101      	movs	r1, #1
 8006e7e:	5499      	strb	r1, [r3, r2]
 8006e80:	2301      	movs	r3, #1
 8006e82:	e17e      	b.n	8007182 <f_lseek+0x542>
 8006e84:	687a      	ldr	r2, [r7, #4]
 8006e86:	2386      	movs	r3, #134	; 0x86
 8006e88:	009b      	lsls	r3, r3, #2
 8006e8a:	69b9      	ldr	r1, [r7, #24]
 8006e8c:	50d1      	str	r1, [r2, r3]
 8006e8e:	e175      	b.n	800717c <f_lseek+0x53c>
 8006e90:	687a      	ldr	r2, [r7, #4]
 8006e92:	2383      	movs	r3, #131	; 0x83
 8006e94:	009b      	lsls	r3, r3, #2
 8006e96:	58d3      	ldr	r3, [r2, r3]
 8006e98:	683a      	ldr	r2, [r7, #0]
 8006e9a:	429a      	cmp	r2, r3
 8006e9c:	d90b      	bls.n	8006eb6 <f_lseek+0x276>
 8006e9e:	687b      	ldr	r3, [r7, #4]
 8006ea0:	4a4e      	ldr	r2, [pc, #312]	; (8006fdc <f_lseek+0x39c>)
 8006ea2:	5c9b      	ldrb	r3, [r3, r2]
 8006ea4:	001a      	movs	r2, r3
 8006ea6:	2302      	movs	r3, #2
 8006ea8:	4013      	ands	r3, r2
 8006eaa:	d104      	bne.n	8006eb6 <f_lseek+0x276>
 8006eac:	687a      	ldr	r2, [r7, #4]
 8006eae:	2383      	movs	r3, #131	; 0x83
 8006eb0:	009b      	lsls	r3, r3, #2
 8006eb2:	58d3      	ldr	r3, [r2, r3]
 8006eb4:	603b      	str	r3, [r7, #0]
 8006eb6:	687a      	ldr	r2, [r7, #4]
 8006eb8:	2382      	movs	r3, #130	; 0x82
 8006eba:	009b      	lsls	r3, r3, #2
 8006ebc:	58d3      	ldr	r3, [r2, r3]
 8006ebe:	623b      	str	r3, [r7, #32]
 8006ec0:	2300      	movs	r3, #0
 8006ec2:	637b      	str	r3, [r7, #52]	; 0x34
 8006ec4:	687a      	ldr	r2, [r7, #4]
 8006ec6:	2382      	movs	r3, #130	; 0x82
 8006ec8:	009b      	lsls	r3, r3, #2
 8006eca:	6b79      	ldr	r1, [r7, #52]	; 0x34
 8006ecc:	50d1      	str	r1, [r2, r3]
 8006ece:	683b      	ldr	r3, [r7, #0]
 8006ed0:	2b00      	cmp	r3, #0
 8006ed2:	d100      	bne.n	8006ed6 <f_lseek+0x296>
 8006ed4:	e0eb      	b.n	80070ae <f_lseek+0x46e>
 8006ed6:	687a      	ldr	r2, [r7, #4]
 8006ed8:	2380      	movs	r3, #128	; 0x80
 8006eda:	009b      	lsls	r3, r3, #2
 8006edc:	58d3      	ldr	r3, [r2, r3]
 8006ede:	4a3e      	ldr	r2, [pc, #248]	; (8006fd8 <f_lseek+0x398>)
 8006ee0:	5c9b      	ldrb	r3, [r3, r2]
 8006ee2:	025b      	lsls	r3, r3, #9
 8006ee4:	61fb      	str	r3, [r7, #28]
 8006ee6:	6a3b      	ldr	r3, [r7, #32]
 8006ee8:	2b00      	cmp	r3, #0
 8006eea:	d027      	beq.n	8006f3c <f_lseek+0x2fc>
 8006eec:	683b      	ldr	r3, [r7, #0]
 8006eee:	3b01      	subs	r3, #1
 8006ef0:	69f9      	ldr	r1, [r7, #28]
 8006ef2:	0018      	movs	r0, r3
 8006ef4:	f7f9 f906 	bl	8000104 <__udivsi3>
 8006ef8:	0003      	movs	r3, r0
 8006efa:	001c      	movs	r4, r3
 8006efc:	6a3b      	ldr	r3, [r7, #32]
 8006efe:	3b01      	subs	r3, #1
 8006f00:	69f9      	ldr	r1, [r7, #28]
 8006f02:	0018      	movs	r0, r3
 8006f04:	f7f9 f8fe 	bl	8000104 <__udivsi3>
 8006f08:	0003      	movs	r3, r0
 8006f0a:	429c      	cmp	r4, r3
 8006f0c:	d316      	bcc.n	8006f3c <f_lseek+0x2fc>
 8006f0e:	6a3b      	ldr	r3, [r7, #32]
 8006f10:	3b01      	subs	r3, #1
 8006f12:	69fa      	ldr	r2, [r7, #28]
 8006f14:	4252      	negs	r2, r2
 8006f16:	401a      	ands	r2, r3
 8006f18:	0011      	movs	r1, r2
 8006f1a:	687a      	ldr	r2, [r7, #4]
 8006f1c:	2382      	movs	r3, #130	; 0x82
 8006f1e:	009b      	lsls	r3, r3, #2
 8006f20:	50d1      	str	r1, [r2, r3]
 8006f22:	687a      	ldr	r2, [r7, #4]
 8006f24:	2382      	movs	r3, #130	; 0x82
 8006f26:	009b      	lsls	r3, r3, #2
 8006f28:	58d3      	ldr	r3, [r2, r3]
 8006f2a:	683a      	ldr	r2, [r7, #0]
 8006f2c:	1ad3      	subs	r3, r2, r3
 8006f2e:	603b      	str	r3, [r7, #0]
 8006f30:	687a      	ldr	r2, [r7, #4]
 8006f32:	2385      	movs	r3, #133	; 0x85
 8006f34:	009b      	lsls	r3, r3, #2
 8006f36:	58d3      	ldr	r3, [r2, r3]
 8006f38:	63bb      	str	r3, [r7, #56]	; 0x38
 8006f3a:	e02d      	b.n	8006f98 <f_lseek+0x358>
 8006f3c:	687a      	ldr	r2, [r7, #4]
 8006f3e:	2384      	movs	r3, #132	; 0x84
 8006f40:	009b      	lsls	r3, r3, #2
 8006f42:	58d3      	ldr	r3, [r2, r3]
 8006f44:	63bb      	str	r3, [r7, #56]	; 0x38
 8006f46:	6bbb      	ldr	r3, [r7, #56]	; 0x38
 8006f48:	2b00      	cmp	r3, #0
 8006f4a:	d120      	bne.n	8006f8e <f_lseek+0x34e>
 8006f4c:	687a      	ldr	r2, [r7, #4]
 8006f4e:	2380      	movs	r3, #128	; 0x80
 8006f50:	009b      	lsls	r3, r3, #2
 8006f52:	58d3      	ldr	r3, [r2, r3]
 8006f54:	2100      	movs	r1, #0
 8006f56:	0018      	movs	r0, r3
 8006f58:	f7fd ff4c 	bl	8004df4 <create_chain>
 8006f5c:	0003      	movs	r3, r0
 8006f5e:	63bb      	str	r3, [r7, #56]	; 0x38
 8006f60:	6bbb      	ldr	r3, [r7, #56]	; 0x38
 8006f62:	2b01      	cmp	r3, #1
 8006f64:	d105      	bne.n	8006f72 <f_lseek+0x332>
 8006f66:	687b      	ldr	r3, [r7, #4]
 8006f68:	4a1a      	ldr	r2, [pc, #104]	; (8006fd4 <f_lseek+0x394>)
 8006f6a:	2102      	movs	r1, #2
 8006f6c:	5499      	strb	r1, [r3, r2]
 8006f6e:	2302      	movs	r3, #2
 8006f70:	e107      	b.n	8007182 <f_lseek+0x542>
 8006f72:	6bbb      	ldr	r3, [r7, #56]	; 0x38
 8006f74:	3301      	adds	r3, #1
 8006f76:	d105      	bne.n	8006f84 <f_lseek+0x344>
 8006f78:	687b      	ldr	r3, [r7, #4]
 8006f7a:	4a16      	ldr	r2, [pc, #88]	; (8006fd4 <f_lseek+0x394>)
 8006f7c:	2101      	movs	r1, #1
 8006f7e:	5499      	strb	r1, [r3, r2]
 8006f80:	2301      	movs	r3, #1
 8006f82:	e0fe      	b.n	8007182 <f_lseek+0x542>
 8006f84:	687a      	ldr	r2, [r7, #4]
 8006f86:	2384      	movs	r3, #132	; 0x84
 8006f88:	009b      	lsls	r3, r3, #2
 8006f8a:	6bb9      	ldr	r1, [r7, #56]	; 0x38
 8006f8c:	50d1      	str	r1, [r2, r3]
 8006f8e:	687a      	ldr	r2, [r7, #4]
 8006f90:	2385      	movs	r3, #133	; 0x85
 8006f92:	009b      	lsls	r3, r3, #2
 8006f94:	6bb9      	ldr	r1, [r7, #56]	; 0x38
 8006f96:	50d1      	str	r1, [r2, r3]
 8006f98:	6bbb      	ldr	r3, [r7, #56]	; 0x38
 8006f9a:	2b00      	cmp	r3, #0
 8006f9c:	d100      	bne.n	8006fa0 <f_lseek+0x360>
 8006f9e:	e086      	b.n	80070ae <f_lseek+0x46e>
 8006fa0:	e05a      	b.n	8007058 <f_lseek+0x418>
 8006fa2:	687b      	ldr	r3, [r7, #4]
 8006fa4:	4a0d      	ldr	r2, [pc, #52]	; (8006fdc <f_lseek+0x39c>)
 8006fa6:	5c9b      	ldrb	r3, [r3, r2]
 8006fa8:	001a      	movs	r2, r3
 8006faa:	2302      	movs	r3, #2
 8006fac:	4013      	ands	r3, r2
 8006fae:	d019      	beq.n	8006fe4 <f_lseek+0x3a4>
 8006fb0:	687a      	ldr	r2, [r7, #4]
 8006fb2:	2380      	movs	r3, #128	; 0x80
 8006fb4:	009b      	lsls	r3, r3, #2
 8006fb6:	58d3      	ldr	r3, [r2, r3]
 8006fb8:	6bba      	ldr	r2, [r7, #56]	; 0x38
 8006fba:	0011      	movs	r1, r2
 8006fbc:	0018      	movs	r0, r3
 8006fbe:	f7fd ff19 	bl	8004df4 <create_chain>
 8006fc2:	0003      	movs	r3, r0
 8006fc4:	63bb      	str	r3, [r7, #56]	; 0x38
 8006fc6:	6bbb      	ldr	r3, [r7, #56]	; 0x38
 8006fc8:	2b00      	cmp	r3, #0
 8006fca:	d116      	bne.n	8006ffa <f_lseek+0x3ba>
 8006fcc:	69fb      	ldr	r3, [r7, #28]
 8006fce:	603b      	str	r3, [r7, #0]
 8006fd0:	e046      	b.n	8007060 <f_lseek+0x420>
 8006fd2:	46c0      	nop			; (mov r8, r8)
 8006fd4:	00000207 	.word	0x00000207
 8006fd8:	00000202 	.word	0x00000202
 8006fdc:	00000206 	.word	0x00000206
 8006fe0:	00000201 	.word	0x00000201
 8006fe4:	687a      	ldr	r2, [r7, #4]
 8006fe6:	2380      	movs	r3, #128	; 0x80
 8006fe8:	009b      	lsls	r3, r3, #2
 8006fea:	58d3      	ldr	r3, [r2, r3]
 8006fec:	6bba      	ldr	r2, [r7, #56]	; 0x38
 8006fee:	0011      	movs	r1, r2
 8006ff0:	0018      	movs	r0, r3
 8006ff2:	f7fd fc9f 	bl	8004934 <get_fat>
 8006ff6:	0003      	movs	r3, r0
 8006ff8:	63bb      	str	r3, [r7, #56]	; 0x38
 8006ffa:	6bbb      	ldr	r3, [r7, #56]	; 0x38
 8006ffc:	3301      	adds	r3, #1
 8006ffe:	d105      	bne.n	800700c <f_lseek+0x3cc>
 8007000:	687b      	ldr	r3, [r7, #4]
 8007002:	4a62      	ldr	r2, [pc, #392]	; (800718c <f_lseek+0x54c>)
 8007004:	2101      	movs	r1, #1
 8007006:	5499      	strb	r1, [r3, r2]
 8007008:	2301      	movs	r3, #1
 800700a:	e0ba      	b.n	8007182 <f_lseek+0x542>
 800700c:	6bbb      	ldr	r3, [r7, #56]	; 0x38
 800700e:	2b01      	cmp	r3, #1
 8007010:	d909      	bls.n	8007026 <f_lseek+0x3e6>
 8007012:	687a      	ldr	r2, [r7, #4]
 8007014:	2380      	movs	r3, #128	; 0x80
 8007016:	009b      	lsls	r3, r3, #2
 8007018:	58d2      	ldr	r2, [r2, r3]
 800701a:	2385      	movs	r3, #133	; 0x85
 800701c:	009b      	lsls	r3, r3, #2
 800701e:	58d3      	ldr	r3, [r2, r3]
 8007020:	6bba      	ldr	r2, [r7, #56]	; 0x38
 8007022:	429a      	cmp	r2, r3
 8007024:	d305      	bcc.n	8007032 <f_lseek+0x3f2>
 8007026:	687b      	ldr	r3, [r7, #4]
 8007028:	4a58      	ldr	r2, [pc, #352]	; (800718c <f_lseek+0x54c>)
 800702a:	2102      	movs	r1, #2
 800702c:	5499      	strb	r1, [r3, r2]
 800702e:	2302      	movs	r3, #2
 8007030:	e0a7      	b.n	8007182 <f_lseek+0x542>
 8007032:	687a      	ldr	r2, [r7, #4]
 8007034:	2385      	movs	r3, #133	; 0x85
 8007036:	009b      	lsls	r3, r3, #2
 8007038:	6bb9      	ldr	r1, [r7, #56]	; 0x38
 800703a:	50d1      	str	r1, [r2, r3]
 800703c:	687a      	ldr	r2, [r7, #4]
 800703e:	2382      	movs	r3, #130	; 0x82
 8007040:	009b      	lsls	r3, r3, #2
 8007042:	58d2      	ldr	r2, [r2, r3]
 8007044:	69fb      	ldr	r3, [r7, #28]
 8007046:	18d1      	adds	r1, r2, r3
 8007048:	687a      	ldr	r2, [r7, #4]
 800704a:	2382      	movs	r3, #130	; 0x82
 800704c:	009b      	lsls	r3, r3, #2
 800704e:	50d1      	str	r1, [r2, r3]
 8007050:	683a      	ldr	r2, [r7, #0]
 8007052:	69fb      	ldr	r3, [r7, #28]
 8007054:	1ad3      	subs	r3, r2, r3
 8007056:	603b      	str	r3, [r7, #0]
 8007058:	683a      	ldr	r2, [r7, #0]
 800705a:	69fb      	ldr	r3, [r7, #28]
 800705c:	429a      	cmp	r2, r3
 800705e:	d8a0      	bhi.n	8006fa2 <f_lseek+0x362>
 8007060:	687a      	ldr	r2, [r7, #4]
 8007062:	2382      	movs	r3, #130	; 0x82
 8007064:	009b      	lsls	r3, r3, #2
 8007066:	58d2      	ldr	r2, [r2, r3]
 8007068:	683b      	ldr	r3, [r7, #0]
 800706a:	18d1      	adds	r1, r2, r3
 800706c:	687a      	ldr	r2, [r7, #4]
 800706e:	2382      	movs	r3, #130	; 0x82
 8007070:	009b      	lsls	r3, r3, #2
 8007072:	50d1      	str	r1, [r2, r3]
 8007074:	683b      	ldr	r3, [r7, #0]
 8007076:	05db      	lsls	r3, r3, #23
 8007078:	0ddb      	lsrs	r3, r3, #23
 800707a:	d018      	beq.n	80070ae <f_lseek+0x46e>
 800707c:	687a      	ldr	r2, [r7, #4]
 800707e:	2380      	movs	r3, #128	; 0x80
 8007080:	009b      	lsls	r3, r3, #2
 8007082:	58d3      	ldr	r3, [r2, r3]
 8007084:	6bba      	ldr	r2, [r7, #56]	; 0x38
 8007086:	0011      	movs	r1, r2
 8007088:	0018      	movs	r0, r3
 800708a:	f7fd fc2f 	bl	80048ec <clust2sect>
 800708e:	0003      	movs	r3, r0
 8007090:	637b      	str	r3, [r7, #52]	; 0x34
 8007092:	6b7b      	ldr	r3, [r7, #52]	; 0x34
 8007094:	2b00      	cmp	r3, #0
 8007096:	d105      	bne.n	80070a4 <f_lseek+0x464>
 8007098:	687b      	ldr	r3, [r7, #4]
 800709a:	4a3c      	ldr	r2, [pc, #240]	; (800718c <f_lseek+0x54c>)
 800709c:	2102      	movs	r1, #2
 800709e:	5499      	strb	r1, [r3, r2]
 80070a0:	2302      	movs	r3, #2
 80070a2:	e06e      	b.n	8007182 <f_lseek+0x542>
 80070a4:	683b      	ldr	r3, [r7, #0]
 80070a6:	0a5b      	lsrs	r3, r3, #9
 80070a8:	6b7a      	ldr	r2, [r7, #52]	; 0x34
 80070aa:	18d3      	adds	r3, r2, r3
 80070ac:	637b      	str	r3, [r7, #52]	; 0x34
 80070ae:	687a      	ldr	r2, [r7, #4]
 80070b0:	2382      	movs	r3, #130	; 0x82
 80070b2:	009b      	lsls	r3, r3, #2
 80070b4:	58d3      	ldr	r3, [r2, r3]
 80070b6:	05db      	lsls	r3, r3, #23
 80070b8:	0ddb      	lsrs	r3, r3, #23
 80070ba:	d044      	beq.n	8007146 <f_lseek+0x506>
 80070bc:	687a      	ldr	r2, [r7, #4]
 80070be:	2386      	movs	r3, #134	; 0x86
 80070c0:	009b      	lsls	r3, r3, #2
 80070c2:	58d3      	ldr	r3, [r2, r3]
 80070c4:	6b7a      	ldr	r2, [r7, #52]	; 0x34
 80070c6:	429a      	cmp	r2, r3
 80070c8:	d03d      	beq.n	8007146 <f_lseek+0x506>
 80070ca:	687b      	ldr	r3, [r7, #4]
 80070cc:	4a30      	ldr	r2, [pc, #192]	; (8007190 <f_lseek+0x550>)
 80070ce:	5c9b      	ldrb	r3, [r3, r2]
 80070d0:	001a      	movs	r2, r3
 80070d2:	2340      	movs	r3, #64	; 0x40
 80070d4:	4013      	ands	r3, r2
 80070d6:	d01e      	beq.n	8007116 <f_lseek+0x4d6>
 80070d8:	687a      	ldr	r2, [r7, #4]
 80070da:	2380      	movs	r3, #128	; 0x80
 80070dc:	009b      	lsls	r3, r3, #2
 80070de:	58d3      	ldr	r3, [r2, r3]
 80070e0:	4a2c      	ldr	r2, [pc, #176]	; (8007194 <f_lseek+0x554>)
 80070e2:	5c98      	ldrb	r0, [r3, r2]
 80070e4:	6879      	ldr	r1, [r7, #4]
 80070e6:	687a      	ldr	r2, [r7, #4]
 80070e8:	2386      	movs	r3, #134	; 0x86
 80070ea:	009b      	lsls	r3, r3, #2
 80070ec:	58d2      	ldr	r2, [r2, r3]
 80070ee:	2301      	movs	r3, #1
 80070f0:	f7fd f810 	bl	8004114 <disk_write>
 80070f4:	1e03      	subs	r3, r0, #0
 80070f6:	d005      	beq.n	8007104 <f_lseek+0x4c4>
 80070f8:	687b      	ldr	r3, [r7, #4]
 80070fa:	4a24      	ldr	r2, [pc, #144]	; (800718c <f_lseek+0x54c>)
 80070fc:	2101      	movs	r1, #1
 80070fe:	5499      	strb	r1, [r3, r2]
 8007100:	2301      	movs	r3, #1
 8007102:	e03e      	b.n	8007182 <f_lseek+0x542>
 8007104:	687b      	ldr	r3, [r7, #4]
 8007106:	4a22      	ldr	r2, [pc, #136]	; (8007190 <f_lseek+0x550>)
 8007108:	5c9b      	ldrb	r3, [r3, r2]
 800710a:	2240      	movs	r2, #64	; 0x40
 800710c:	4393      	bics	r3, r2
 800710e:	b2d9      	uxtb	r1, r3
 8007110:	687b      	ldr	r3, [r7, #4]
 8007112:	4a1f      	ldr	r2, [pc, #124]	; (8007190 <f_lseek+0x550>)
 8007114:	5499      	strb	r1, [r3, r2]
 8007116:	687a      	ldr	r2, [r7, #4]
 8007118:	2380      	movs	r3, #128	; 0x80
 800711a:	009b      	lsls	r3, r3, #2
 800711c:	58d3      	ldr	r3, [r2, r3]
 800711e:	4a1d      	ldr	r2, [pc, #116]	; (8007194 <f_lseek+0x554>)
 8007120:	5c98      	ldrb	r0, [r3, r2]
 8007122:	6879      	ldr	r1, [r7, #4]
 8007124:	6b7a      	ldr	r2, [r7, #52]	; 0x34
 8007126:	2301      	movs	r3, #1
 8007128:	f7fc ffcc 	bl	80040c4 <disk_read>
 800712c:	1e03      	subs	r3, r0, #0
 800712e:	d005      	beq.n	800713c <f_lseek+0x4fc>
 8007130:	687b      	ldr	r3, [r7, #4]
 8007132:	4a16      	ldr	r2, [pc, #88]	; (800718c <f_lseek+0x54c>)
 8007134:	2101      	movs	r1, #1
 8007136:	5499      	strb	r1, [r3, r2]
 8007138:	2301      	movs	r3, #1
 800713a:	e022      	b.n	8007182 <f_lseek+0x542>
 800713c:	687a      	ldr	r2, [r7, #4]
 800713e:	2386      	movs	r3, #134	; 0x86
 8007140:	009b      	lsls	r3, r3, #2
 8007142:	6b79      	ldr	r1, [r7, #52]	; 0x34
 8007144:	50d1      	str	r1, [r2, r3]
 8007146:	687a      	ldr	r2, [r7, #4]
 8007148:	2382      	movs	r3, #130	; 0x82
 800714a:	009b      	lsls	r3, r3, #2
 800714c:	58d2      	ldr	r2, [r2, r3]
 800714e:	6879      	ldr	r1, [r7, #4]
 8007150:	2383      	movs	r3, #131	; 0x83
 8007152:	009b      	lsls	r3, r3, #2
 8007154:	58cb      	ldr	r3, [r1, r3]
 8007156:	429a      	cmp	r2, r3
 8007158:	d910      	bls.n	800717c <f_lseek+0x53c>
 800715a:	687a      	ldr	r2, [r7, #4]
 800715c:	2382      	movs	r3, #130	; 0x82
 800715e:	009b      	lsls	r3, r3, #2
 8007160:	58d1      	ldr	r1, [r2, r3]
 8007162:	687a      	ldr	r2, [r7, #4]
 8007164:	2383      	movs	r3, #131	; 0x83
 8007166:	009b      	lsls	r3, r3, #2
 8007168:	50d1      	str	r1, [r2, r3]
 800716a:	687b      	ldr	r3, [r7, #4]
 800716c:	4a08      	ldr	r2, [pc, #32]	; (8007190 <f_lseek+0x550>)
 800716e:	5c9b      	ldrb	r3, [r3, r2]
 8007170:	2220      	movs	r2, #32
 8007172:	4313      	orrs	r3, r2
 8007174:	b2d9      	uxtb	r1, r3
 8007176:	687b      	ldr	r3, [r7, #4]
 8007178:	4a05      	ldr	r2, [pc, #20]	; (8007190 <f_lseek+0x550>)
 800717a:	5499      	strb	r1, [r3, r2]
 800717c:	233f      	movs	r3, #63	; 0x3f
 800717e:	18fb      	adds	r3, r7, r3
 8007180:	781b      	ldrb	r3, [r3, #0]
 8007182:	0018      	movs	r0, r3
 8007184:	46bd      	mov	sp, r7
 8007186:	b010      	add	sp, #64	; 0x40
 8007188:	bdb0      	pop	{r4, r5, r7, pc}
 800718a:	46c0      	nop			; (mov r8, r8)
 800718c:	00000207 	.word	0x00000207
 8007190:	00000206 	.word	0x00000206
 8007194:	00000201 	.word	0x00000201

08007198 <FATFS_LinkDriverEx>:
 8007198:	b590      	push	{r4, r7, lr}
 800719a:	b087      	sub	sp, #28
 800719c:	af00      	add	r7, sp, #0
 800719e:	60f8      	str	r0, [r7, #12]
 80071a0:	60b9      	str	r1, [r7, #8]
 80071a2:	1dfb      	adds	r3, r7, #7
 80071a4:	701a      	strb	r2, [r3, #0]
 80071a6:	2417      	movs	r4, #23
 80071a8:	193b      	adds	r3, r7, r4
 80071aa:	2201      	movs	r2, #1
 80071ac:	701a      	strb	r2, [r3, #0]
 80071ae:	2016      	movs	r0, #22
 80071b0:	183b      	adds	r3, r7, r0
 80071b2:	2200      	movs	r2, #0
 80071b4:	701a      	strb	r2, [r3, #0]
 80071b6:	4b21      	ldr	r3, [pc, #132]	; (800723c <FATFS_LinkDriverEx+0xa4>)
 80071b8:	7a5b      	ldrb	r3, [r3, #9]
 80071ba:	b2db      	uxtb	r3, r3
 80071bc:	2b01      	cmp	r3, #1
 80071be:	d836      	bhi.n	800722e <FATFS_LinkDriverEx+0x96>
 80071c0:	4b1e      	ldr	r3, [pc, #120]	; (800723c <FATFS_LinkDriverEx+0xa4>)
 80071c2:	7a5b      	ldrb	r3, [r3, #9]
 80071c4:	b2db      	uxtb	r3, r3
 80071c6:	001a      	movs	r2, r3
 80071c8:	4b1c      	ldr	r3, [pc, #112]	; (800723c <FATFS_LinkDriverEx+0xa4>)
 80071ca:	2100      	movs	r1, #0
 80071cc:	5499      	strb	r1, [r3, r2]
 80071ce:	4b1b      	ldr	r3, [pc, #108]	; (800723c <FATFS_LinkDriverEx+0xa4>)
 80071d0:	7a5b      	ldrb	r3, [r3, #9]
 80071d2:	b2db      	uxtb	r3, r3
 80071d4:	4a19      	ldr	r2, [pc, #100]	; (800723c <FATFS_LinkDriverEx+0xa4>)
 80071d6:	009b      	lsls	r3, r3, #2
 80071d8:	18d3      	adds	r3, r2, r3
 80071da:	3304      	adds	r3, #4
 80071dc:	68fa      	ldr	r2, [r7, #12]
 80071de:	601a      	str	r2, [r3, #0]
 80071e0:	4b16      	ldr	r3, [pc, #88]	; (800723c <FATFS_LinkDriverEx+0xa4>)
 80071e2:	7a5b      	ldrb	r3, [r3, #9]
 80071e4:	b2db      	uxtb	r3, r3
 80071e6:	001a      	movs	r2, r3
 80071e8:	4b14      	ldr	r3, [pc, #80]	; (800723c <FATFS_LinkDriverEx+0xa4>)
 80071ea:	189b      	adds	r3, r3, r2
 80071ec:	1dfa      	adds	r2, r7, #7
 80071ee:	7812      	ldrb	r2, [r2, #0]
 80071f0:	721a      	strb	r2, [r3, #8]
 80071f2:	4b12      	ldr	r3, [pc, #72]	; (800723c <FATFS_LinkDriverEx+0xa4>)
 80071f4:	7a5b      	ldrb	r3, [r3, #9]
 80071f6:	b2db      	uxtb	r3, r3
 80071f8:	1c5a      	adds	r2, r3, #1
 80071fa:	b2d1      	uxtb	r1, r2
 80071fc:	4a0f      	ldr	r2, [pc, #60]	; (800723c <FATFS_LinkDriverEx+0xa4>)
 80071fe:	7251      	strb	r1, [r2, #9]
 8007200:	183a      	adds	r2, r7, r0
 8007202:	7013      	strb	r3, [r2, #0]
 8007204:	183b      	adds	r3, r7, r0
 8007206:	781b      	ldrb	r3, [r3, #0]
 8007208:	3330      	adds	r3, #48	; 0x30
 800720a:	b2da      	uxtb	r2, r3
 800720c:	68bb      	ldr	r3, [r7, #8]
 800720e:	701a      	strb	r2, [r3, #0]
 8007210:	68bb      	ldr	r3, [r7, #8]
 8007212:	3301      	adds	r3, #1
 8007214:	223a      	movs	r2, #58	; 0x3a
 8007216:	701a      	strb	r2, [r3, #0]
 8007218:	68bb      	ldr	r3, [r7, #8]
 800721a:	3302      	adds	r3, #2
 800721c:	222f      	movs	r2, #47	; 0x2f
 800721e:	701a      	strb	r2, [r3, #0]
 8007220:	68bb      	ldr	r3, [r7, #8]
 8007222:	3303      	adds	r3, #3
 8007224:	2200      	movs	r2, #0
 8007226:	701a      	strb	r2, [r3, #0]
 8007228:	193b      	adds	r3, r7, r4
 800722a:	2200      	movs	r2, #0
 800722c:	701a      	strb	r2, [r3, #0]
 800722e:	2317      	movs	r3, #23
 8007230:	18fb      	adds	r3, r7, r3
 8007232:	781b      	ldrb	r3, [r3, #0]
 8007234:	0018      	movs	r0, r3
 8007236:	46bd      	mov	sp, r7
 8007238:	b007      	add	sp, #28
 800723a:	bd90      	pop	{r4, r7, pc}
 800723c:	20000634 	.word	0x20000634

08007240 <FATFS_LinkDriver>:
 8007240:	b580      	push	{r7, lr}
 8007242:	b082      	sub	sp, #8
 8007244:	af00      	add	r7, sp, #0
 8007246:	6078      	str	r0, [r7, #4]
 8007248:	6039      	str	r1, [r7, #0]
 800724a:	6839      	ldr	r1, [r7, #0]
 800724c:	687b      	ldr	r3, [r7, #4]
 800724e:	2200      	movs	r2, #0
 8007250:	0018      	movs	r0, r3
 8007252:	f7ff ffa1 	bl	8007198 <FATFS_LinkDriverEx>
 8007256:	0003      	movs	r3, r0
 8007258:	0018      	movs	r0, r3
 800725a:	46bd      	mov	sp, r7
 800725c:	b002      	add	sp, #8
 800725e:	bd80      	pop	{r7, pc}

08007260 <memset>:
 8007260:	0003      	movs	r3, r0
 8007262:	1882      	adds	r2, r0, r2
 8007264:	4293      	cmp	r3, r2
 8007266:	d100      	bne.n	800726a <memset+0xa>
 8007268:	4770      	bx	lr
 800726a:	7019      	strb	r1, [r3, #0]
 800726c:	3301      	adds	r3, #1
 800726e:	e7f9      	b.n	8007264 <memset+0x4>

08007270 <__libc_init_array>:
 8007270:	b570      	push	{r4, r5, r6, lr}
 8007272:	2600      	movs	r6, #0
 8007274:	4c0c      	ldr	r4, [pc, #48]	; (80072a8 <__libc_init_array+0x38>)
 8007276:	4d0d      	ldr	r5, [pc, #52]	; (80072ac <__libc_init_array+0x3c>)
 8007278:	1b64      	subs	r4, r4, r5
 800727a:	10a4      	asrs	r4, r4, #2
 800727c:	42a6      	cmp	r6, r4
 800727e:	d109      	bne.n	8007294 <__libc_init_array+0x24>
 8007280:	2600      	movs	r6, #0
 8007282:	f000 f819 	bl	80072b8 <_init>
 8007286:	4c0a      	ldr	r4, [pc, #40]	; (80072b0 <__libc_init_array+0x40>)
 8007288:	4d0a      	ldr	r5, [pc, #40]	; (80072b4 <__libc_init_array+0x44>)
 800728a:	1b64      	subs	r4, r4, r5
 800728c:	10a4      	asrs	r4, r4, #2
 800728e:	42a6      	cmp	r6, r4
 8007290:	d105      	bne.n	800729e <__libc_init_array+0x2e>
 8007292:	bd70      	pop	{r4, r5, r6, pc}
 8007294:	00b3      	lsls	r3, r6, #2
 8007296:	58eb      	ldr	r3, [r5, r3]
 8007298:	4798      	blx	r3
 800729a:	3601      	adds	r6, #1
 800729c:	e7ee      	b.n	800727c <__libc_init_array+0xc>
 800729e:	00b3      	lsls	r3, r6, #2
 80072a0:	58eb      	ldr	r3, [r5, r3]
 80072a2:	4798      	blx	r3
 80072a4:	3601      	adds	r6, #1
 80072a6:	e7f2      	b.n	800728e <__libc_init_array+0x1e>
 80072a8:	08007450 	.word	0x08007450
 80072ac:	08007450 	.word	0x08007450
 80072b0:	08007454 	.word	0x08007454
 80072b4:	08007450 	.word	0x08007450

080072b8 <_init>:
 80072b8:	b5f8      	push	{r3, r4, r5, r6, r7, lr}
 80072ba:	46c0      	nop			; (mov r8, r8)
 80072bc:	bcf8      	pop	{r3, r4, r5, r6, r7}
 80072be:	bc08      	pop	{r3}
 80072c0:	469e      	mov	lr, r3
 80072c2:	4770      	bx	lr

080072c4 <_fini>:
 80072c4:	b5f8      	push	{r3, r4, r5, r6, r7, lr}
 80072c6:	46c0      	nop			; (mov r8, r8)
 80072c8:	bcf8      	pop	{r3, r4, r5, r6, r7}
 80072ca:	bc08      	pop	{r3}
 80072cc:	469e      	mov	lr, r3
 80072ce:	4770      	bx	lr
